; ModuleID = 'e1v8hb2sntyxaqq1rtgnphv90'
source_filename = "e1v8hb2sntyxaqq1rtgnphv90"
target datalayout = "e-m:e-p270:32:32-p271:32:32-p272:64:64-i64:64-i128:128-f80:128-n8:16:32:64-S128"
target triple = "x86_64-unknown-linux-gnu"

@root = global [8 x i8] zeroinitializer, align 8
@alloc_f5ffd2fd1476bab43ad89fb40c72d0c5 = private unnamed_addr constant [10 x i8] c"src/lib.rs", align 1
@alloc_b4e0e114d3a475adc3504f43d7356464 = private unnamed_addr constant <{ ptr, [16 x i8] }> <{ ptr @alloc_f5ffd2fd1476bab43ad89fb40c72d0c5, [16 x i8] c"\0A\00\00\00\00\00\00\00{\00\00\00\08\00\00\00" }>, align 8
@alloc_52f18ee4cedc0668e34c8328c2715b39 = private unnamed_addr constant <{ ptr, [16 x i8] }> <{ ptr @alloc_f5ffd2fd1476bab43ad89fb40c72d0c5, [16 x i8] c"\0A\00\00\00\00\00\00\00{\00\00\00'\00\00\00" }>, align 8
@alloc_5f249e5f3d2fe5c70c712fde84671346 = private unnamed_addr constant <{ ptr, [16 x i8] }> <{ ptr @alloc_f5ffd2fd1476bab43ad89fb40c72d0c5, [16 x i8] c"\0A\00\00\00\00\00\00\00|\00\00\00\18\00\00\00" }>, align 8
@alloc_46106cec877854481347f8afedf2b38d = private unnamed_addr constant <{ ptr, [16 x i8] }> <{ ptr @alloc_f5ffd2fd1476bab43ad89fb40c72d0c5, [16 x i8] c"\0A\00\00\00\00\00\00\00|\00\00\006\00\00\00" }>, align 8
@alloc_1b431211cd2137b513efe33def467eb5 = private unnamed_addr constant <{ ptr, [16 x i8] }> <{ ptr @alloc_f5ffd2fd1476bab43ad89fb40c72d0c5, [16 x i8] c"\0A\00\00\00\00\00\00\00}\00\00\00\18\00\00\00" }>, align 8
@alloc_4125c7dcaedaba6194809b6418916234 = private unnamed_addr constant <{ ptr, [16 x i8] }> <{ ptr @alloc_f5ffd2fd1476bab43ad89fb40c72d0c5, [16 x i8] c"\0A\00\00\00\00\00\00\00}\00\00\00.\00\00\00" }>, align 8
@alloc_79d22b28192de9a5876d448983a4046a = private unnamed_addr constant <{ ptr, [16 x i8] }> <{ ptr @alloc_f5ffd2fd1476bab43ad89fb40c72d0c5, [16 x i8] c"\0A\00\00\00\00\00\00\00\88\00\00\00\09\00\00\00" }>, align 8
@alloc_89d8e27be0383ac26be40c59bc003390 = private unnamed_addr constant <{ ptr, [16 x i8] }> <{ ptr @alloc_f5ffd2fd1476bab43ad89fb40c72d0c5, [16 x i8] c"\0A\00\00\00\00\00\00\00\89\00\00\00\14\00\00\00" }>, align 8
@alloc_06def21630a6395a93af524833398b10 = private unnamed_addr constant <{ ptr, [16 x i8] }> <{ ptr @alloc_f5ffd2fd1476bab43ad89fb40c72d0c5, [16 x i8] c"\0A\00\00\00\00\00\00\00\89\00\00\00+\00\00\00" }>, align 8
@alloc_5086773ec26bb191205697fb7e200158 = private unnamed_addr constant <{ ptr, [16 x i8] }> <{ ptr @alloc_f5ffd2fd1476bab43ad89fb40c72d0c5, [16 x i8] c"\0A\00\00\00\00\00\00\00\8D\00\00\00\09\00\00\00" }>, align 8
@alloc_4cad7bac89ced466a40801595ae080e9 = private unnamed_addr constant <{ ptr, [16 x i8] }> <{ ptr @alloc_f5ffd2fd1476bab43ad89fb40c72d0c5, [16 x i8] c"\0A\00\00\00\00\00\00\00\8E\00\00\00\14\00\00\00" }>, align 8
@alloc_23f5ced5ccff55d2fe79310c6e304ee1 = private unnamed_addr constant <{ ptr, [16 x i8] }> <{ ptr @alloc_f5ffd2fd1476bab43ad89fb40c72d0c5, [16 x i8] c"\0A\00\00\00\00\00\00\00\8E\00\00\00,\00\00\00" }>, align 8
@alloc_78bf6b9dab8046c4ce3ee62b5a5750f8 = private unnamed_addr constant <{ ptr, [16 x i8] }> <{ ptr @alloc_f5ffd2fd1476bab43ad89fb40c72d0c5, [16 x i8] c"\0A\00\00\00\00\00\00\00\92\00\00\00\10\00\00\00" }>, align 8
@alloc_8f8edc6e9d38775a8a7d5fbc74397223 = private unnamed_addr constant <{ ptr, [16 x i8] }> <{ ptr @alloc_f5ffd2fd1476bab43ad89fb40c72d0c5, [16 x i8] c"\0A\00\00\00\00\00\00\00\92\00\00\005\00\00\00" }>, align 8
@alloc_fb66e0efad4eb6b709a76f04f5627159 = private unnamed_addr constant <{ ptr, [16 x i8] }> <{ ptr @alloc_f5ffd2fd1476bab43ad89fb40c72d0c5, [16 x i8] c"\0A\00\00\00\00\00\00\00\99\00\00\00\08\00\00\00" }>, align 8
@alloc_b601eacbdbbfc5b81c065cf3d930216e = private unnamed_addr constant <{ ptr, [16 x i8] }> <{ ptr @alloc_f5ffd2fd1476bab43ad89fb40c72d0c5, [16 x i8] c"\0A\00\00\00\00\00\00\00\9C\00\00\00\14\00\00\00" }>, align 8
@alloc_122766c26ef349abe24d56b7c566ce42 = private unnamed_addr constant <{ ptr, [16 x i8] }> <{ ptr @alloc_f5ffd2fd1476bab43ad89fb40c72d0c5, [16 x i8] c"\0A\00\00\00\00\00\00\00\9A\00\00\00\10\00\00\00" }>, align 8
@alloc_c79bca0006450f8fca0e01a2d1b8d377 = private unnamed_addr constant <{ ptr, [16 x i8] }> <{ ptr @alloc_f5ffd2fd1476bab43ad89fb40c72d0c5, [16 x i8] c"\0A\00\00\00\00\00\00\00\A0\00\00\00\08\00\00\00" }>, align 8
@alloc_5e5d20ab9dcb1f22e5d64016401a5b00 = private unnamed_addr constant <{ ptr, [16 x i8] }> <{ ptr @alloc_f5ffd2fd1476bab43ad89fb40c72d0c5, [16 x i8] c"\0A\00\00\00\00\00\00\00\A3\00\00\00\14\00\00\00" }>, align 8
@alloc_145b14f19af0bbf5ee5f26683e26e41d = private unnamed_addr constant <{ ptr, [16 x i8] }> <{ ptr @alloc_f5ffd2fd1476bab43ad89fb40c72d0c5, [16 x i8] c"\0A\00\00\00\00\00\00\00\A1\00\00\00\10\00\00\00" }>, align 8
@alloc_c9baa2cd9700166e78bfdeda96603390 = private unnamed_addr constant <{ ptr, [16 x i8] }> <{ ptr @alloc_f5ffd2fd1476bab43ad89fb40c72d0c5, [16 x i8] c"\0A\00\00\00\00\00\00\00\AD\00\00\00\1E\00\00\00" }>, align 8
@alloc_0afa87d7de6df5fc0d5bd6ffa532e566 = private unnamed_addr constant <{ ptr, [16 x i8] }> <{ ptr @alloc_f5ffd2fd1476bab43ad89fb40c72d0c5, [16 x i8] c"\0A\00\00\00\00\00\00\00\B0\00\00\00\08\00\00\00" }>, align 8
@alloc_5a8dc6b99c1ac937fe6fbec1a1dc4b96 = private unnamed_addr constant <{ ptr, [16 x i8] }> <{ ptr @alloc_f5ffd2fd1476bab43ad89fb40c72d0c5, [16 x i8] c"\0A\00\00\00\00\00\00\00\B3\00\00\00\10\00\00\00" }>, align 8
@alloc_272bf8ef6354abd29235308c73e981d7 = private unnamed_addr constant <{ ptr, [16 x i8] }> <{ ptr @alloc_f5ffd2fd1476bab43ad89fb40c72d0c5, [16 x i8] c"\0A\00\00\00\00\00\00\00\B4\00\00\00\22\00\00\00" }>, align 8
@alloc_295660d552510aca136207025db92de4 = private unnamed_addr constant <{ ptr, [16 x i8] }> <{ ptr @alloc_f5ffd2fd1476bab43ad89fb40c72d0c5, [16 x i8] c"\0A\00\00\00\00\00\00\00\BC\00\00\00\05\00\00\00" }>, align 8
@alloc_caeaa73146f8e62a1d94f321cfc045df = private unnamed_addr constant <{ ptr, [16 x i8] }> <{ ptr @alloc_f5ffd2fd1476bab43ad89fb40c72d0c5, [16 x i8] c"\0A\00\00\00\00\00\00\00\BD\00\00\00\05\00\00\00" }>, align 8
@alloc_6428315ec97faf639ad3ea5850d11076 = private unnamed_addr constant <{ ptr, [16 x i8] }> <{ ptr @alloc_f5ffd2fd1476bab43ad89fb40c72d0c5, [16 x i8] c"\0A\00\00\00\00\00\00\00\BE\00\00\00\05\00\00\00" }>, align 8
@alloc_fdbcfa22c6d6fbca4814ce342bd9d342 = private unnamed_addr constant <{ ptr, [16 x i8] }> <{ ptr @alloc_f5ffd2fd1476bab43ad89fb40c72d0c5, [16 x i8] c"\0A\00\00\00\00\00\00\00\BF\00\00\00\08\00\00\00" }>, align 8
@alloc_369fb58d07990039f284152a21d88ca0 = private unnamed_addr constant <{ ptr, [16 x i8] }> <{ ptr @alloc_f5ffd2fd1476bab43ad89fb40c72d0c5, [16 x i8] c"\0A\00\00\00\00\00\00\00\C2\00\00\00\17\00\00\00" }>, align 8
@alloc_98983c422f18c04fdb8f52d9a2b6d40c = private unnamed_addr constant <{ ptr, [16 x i8] }> <{ ptr @alloc_f5ffd2fd1476bab43ad89fb40c72d0c5, [16 x i8] c"\0A\00\00\00\00\00\00\00\C6\00\00\00\19\00\00\00" }>, align 8
@alloc_f59dafb4a86e6753c4cdb11eaf3c4dd6 = private unnamed_addr constant <{ ptr, [16 x i8] }> <{ ptr @alloc_f5ffd2fd1476bab43ad89fb40c72d0c5, [16 x i8] c"\0A\00\00\00\00\00\00\00\CD\00\00\00\1F\00\00\00" }>, align 8
@alloc_e82a2022e665223a385f42eed8a6fec2 = private unnamed_addr constant <{ ptr, [16 x i8] }> <{ ptr @alloc_f5ffd2fd1476bab43ad89fb40c72d0c5, [16 x i8] c"\0A\00\00\00\00\00\00\00\CF\00\00\00\15\00\00\00" }>, align 8
@alloc_9110809d0bf31a7737a98917945ad9fe = private unnamed_addr constant <{ ptr, [16 x i8] }> <{ ptr @alloc_f5ffd2fd1476bab43ad89fb40c72d0c5, [16 x i8] c"\0A\00\00\00\00\00\00\00\C7\00\00\00\1F\00\00\00" }>, align 8
@alloc_439cd051af163c1a2b6994edc834b57d = private unnamed_addr constant <{ ptr, [16 x i8] }> <{ ptr @alloc_f5ffd2fd1476bab43ad89fb40c72d0c5, [16 x i8] c"\0A\00\00\00\00\00\00\00\C9\00\00\00\15\00\00\00" }>, align 8
@alloc_79a916b740684800c6a2a63d3c54e954 = private unnamed_addr constant <{ ptr, [16 x i8] }> <{ ptr @alloc_f5ffd2fd1476bab43ad89fb40c72d0c5, [16 x i8] c"\0A\00\00\00\00\00\00\00\C0\00\00\00\09\00\00\00" }>, align 8
@alloc_1c370e4d66c6c1bce57c989977e5d6a0 = private unnamed_addr constant <{ ptr, [16 x i8] }> <{ ptr @alloc_f5ffd2fd1476bab43ad89fb40c72d0c5, [16 x i8] c"\0A\00\00\00\00\00\00\00\DB\00\00\00\12\00\00\00" }>, align 8
@alloc_b929c71616281bfd1be2bd4038d3ddf1 = private unnamed_addr constant [4 x i8] c"%d \00", align 1
@alloc_1280c92927fe40731d0590299c5882ff = private unnamed_addr constant <{ ptr, [16 x i8] }> <{ ptr @alloc_f5ffd2fd1476bab43ad89fb40c72d0c5, [16 x i8] c"\0A\00\00\00\00\00\00\00\DC\00\00\00:\00\00\00" }>, align 8
@alloc_2ab96359d9b28951d4dfecaa1a1f26dc = private unnamed_addr constant <{ ptr, [16 x i8] }> <{ ptr @alloc_f5ffd2fd1476bab43ad89fb40c72d0c5, [16 x i8] c"\0A\00\00\00\00\00\00\00\DD\00\00\00\12\00\00\00" }>, align 8

; core::ptr::mut_ptr::<impl *mut T>::is_null
; Function Attrs: inlinehint nounwind nonlazybind
define internal zeroext i1 @"_ZN4core3ptr7mut_ptr31_$LT$impl$u20$$BP$mut$u20$T$GT$7is_null17h3cb75bd5cbafbcf4E"(ptr %self) unnamed_addr #0 {
start:
  %_3 = ptrtoint ptr %self to i64
  %_0 = icmp eq i64 %_3, 0
  ret i1 %_0
}

; Function Attrs: nounwind nonlazybind
define i32 @isItBst_fast(ptr %root_0) unnamed_addr #1 {
start:
  %_0 = call i32 @isBstHelper(ptr %root_0, i32 -2147483648, i32 2147483647) #3
  ret i32 %_0
}

; Function Attrs: nounwind nonlazybind
define i32 @isBstHelper(ptr %root_0, i32 %minimum, i32 %maximum) unnamed_addr #1 {
start:
  %_0 = alloca [4 x i8], align 4
; call core::ptr::mut_ptr::<impl *mut T>::is_null
  %_4 = call zeroext i1 @"_ZN4core3ptr7mut_ptr31_$LT$impl$u20$$BP$mut$u20$T$GT$7is_null17h3cb75bd5cbafbcf4E"(ptr %root_0) #3
  br i1 %_4, label %bb2, label %bb3

bb3:                                              ; preds = %start
  %_46 = ptrtoint ptr %root_0 to i64
  %_49 = and i64 %_46, 7
  %_50 = icmp eq i64 %_49, 0
  br i1 %_50, label %bb17, label %panic

bb2:                                              ; preds = %start
  store i32 1, ptr %_0, align 4
  br label %bb11

bb17:                                             ; preds = %bb3
  %_52 = ptrtoint ptr %root_0 to i64
  %_55 = icmp eq i64 %_52, 0
  %_56 = and i1 %_55, true
  %_57 = xor i1 %_56, true
  br i1 %_57, label %bb18, label %panic1

panic:                                            ; preds = %bb3
; call core::panicking::panic_misaligned_pointer_dereference
  call void @_ZN4core9panicking36panic_misaligned_pointer_dereference17hcc3cbded9382b6e5E(i64 8, i64 %_46, ptr align 8 @alloc_b4e0e114d3a475adc3504f43d7356464) #4
  unreachable

bb18:                                             ; preds = %bb17
  %_6 = load i32, ptr %root_0, align 8
  %_5 = icmp sge i32 %_6, %minimum
  br i1 %_5, label %bb4, label %bb10

panic1:                                           ; preds = %bb17
; call core::panicking::panic_null_pointer_dereference
  call void @_ZN4core9panicking30panic_null_pointer_dereference17hf718fcc86a223baaE(ptr align 8 @alloc_b4e0e114d3a475adc3504f43d7356464) #4
  unreachable

bb10:                                             ; preds = %bb23, %bb21, %bb19, %bb18
  store i32 0, ptr %_0, align 4
  br label %bb11

bb4:                                              ; preds = %bb18
  %_40 = ptrtoint ptr %root_0 to i64
  %_43 = and i64 %_40, 7
  %_44 = icmp eq i64 %_43, 0
  br i1 %_44, label %bb16, label %panic2

bb16:                                             ; preds = %bb4
  %_59 = ptrtoint ptr %root_0 to i64
  %_62 = icmp eq i64 %_59, 0
  %_63 = and i1 %_62, true
  %_64 = xor i1 %_63, true
  br i1 %_64, label %bb19, label %panic3

panic2:                                           ; preds = %bb4
; call core::panicking::panic_misaligned_pointer_dereference
  call void @_ZN4core9panicking36panic_misaligned_pointer_dereference17hcc3cbded9382b6e5E(i64 8, i64 %_40, ptr align 8 @alloc_52f18ee4cedc0668e34c8328c2715b39) #4
  unreachable

bb19:                                             ; preds = %bb16
  %_8 = load i32, ptr %root_0, align 8
  %_7 = icmp slt i32 %_8, %maximum
  br i1 %_7, label %bb5, label %bb10

panic3:                                           ; preds = %bb16
; call core::panicking::panic_null_pointer_dereference
  call void @_ZN4core9panicking30panic_null_pointer_dereference17hf718fcc86a223baaE(ptr align 8 @alloc_52f18ee4cedc0668e34c8328c2715b39) #4
  unreachable

bb5:                                              ; preds = %bb19
  %_34 = ptrtoint ptr %root_0 to i64
  %_37 = and i64 %_34, 7
  %_38 = icmp eq i64 %_37, 0
  br i1 %_38, label %bb15, label %panic4

bb15:                                             ; preds = %bb5
  %_66 = ptrtoint ptr %root_0 to i64
  %_69 = icmp eq i64 %_66, 0
  %_70 = and i1 %_69, true
  %_71 = xor i1 %_70, true
  br i1 %_71, label %bb20, label %panic5

panic4:                                           ; preds = %bb5
; call core::panicking::panic_misaligned_pointer_dereference
  call void @_ZN4core9panicking36panic_misaligned_pointer_dereference17hcc3cbded9382b6e5E(i64 8, i64 %_34, ptr align 8 @alloc_5f249e5f3d2fe5c70c712fde84671346) #4
  unreachable

bb20:                                             ; preds = %bb15
  %0 = getelementptr inbounds i8, ptr %root_0, i64 8
  %_10 = load ptr, ptr %0, align 8
  %_28 = ptrtoint ptr %root_0 to i64
  %_31 = and i64 %_28, 7
  %_32 = icmp eq i64 %_31, 0
  br i1 %_32, label %bb14, label %panic6

panic5:                                           ; preds = %bb15
; call core::panicking::panic_null_pointer_dereference
  call void @_ZN4core9panicking30panic_null_pointer_dereference17hf718fcc86a223baaE(ptr align 8 @alloc_5f249e5f3d2fe5c70c712fde84671346) #4
  unreachable

bb14:                                             ; preds = %bb20
  %_73 = ptrtoint ptr %root_0 to i64
  %_76 = icmp eq i64 %_73, 0
  %_77 = and i1 %_76, true
  %_78 = xor i1 %_77, true
  br i1 %_78, label %bb21, label %panic7

panic6:                                           ; preds = %bb20
; call core::panicking::panic_misaligned_pointer_dereference
  call void @_ZN4core9panicking36panic_misaligned_pointer_dereference17hcc3cbded9382b6e5E(i64 8, i64 %_28, ptr align 8 @alloc_46106cec877854481347f8afedf2b38d) #4
  unreachable

bb21:                                             ; preds = %bb14
  %_11 = load i32, ptr %root_0, align 8
  %_9 = call i32 @isBstHelper(ptr %_10, i32 %minimum, i32 %_11) #3
  %1 = icmp eq i32 %_9, 0
  br i1 %1, label %bb10, label %bb7

panic7:                                           ; preds = %bb14
; call core::panicking::panic_null_pointer_dereference
  call void @_ZN4core9panicking30panic_null_pointer_dereference17hf718fcc86a223baaE(ptr align 8 @alloc_46106cec877854481347f8afedf2b38d) #4
  unreachable

bb7:                                              ; preds = %bb21
  %_22 = ptrtoint ptr %root_0 to i64
  %_25 = and i64 %_22, 7
  %_26 = icmp eq i64 %_25, 0
  br i1 %_26, label %bb13, label %panic8

bb13:                                             ; preds = %bb7
  %_80 = ptrtoint ptr %root_0 to i64
  %_83 = icmp eq i64 %_80, 0
  %_84 = and i1 %_83, true
  %_85 = xor i1 %_84, true
  br i1 %_85, label %bb22, label %panic9

panic8:                                           ; preds = %bb7
; call core::panicking::panic_misaligned_pointer_dereference
  call void @_ZN4core9panicking36panic_misaligned_pointer_dereference17hcc3cbded9382b6e5E(i64 8, i64 %_22, ptr align 8 @alloc_1b431211cd2137b513efe33def467eb5) #4
  unreachable

bb22:                                             ; preds = %bb13
  %2 = getelementptr inbounds i8, ptr %root_0, i64 16
  %_13 = load ptr, ptr %2, align 8
  %_16 = ptrtoint ptr %root_0 to i64
  %_19 = and i64 %_16, 7
  %_20 = icmp eq i64 %_19, 0
  br i1 %_20, label %bb12, label %panic10

panic9:                                           ; preds = %bb13
; call core::panicking::panic_null_pointer_dereference
  call void @_ZN4core9panicking30panic_null_pointer_dereference17hf718fcc86a223baaE(ptr align 8 @alloc_1b431211cd2137b513efe33def467eb5) #4
  unreachable

bb12:                                             ; preds = %bb22
  %_87 = ptrtoint ptr %root_0 to i64
  %_90 = icmp eq i64 %_87, 0
  %_91 = and i1 %_90, true
  %_92 = xor i1 %_91, true
  br i1 %_92, label %bb23, label %panic11

panic10:                                          ; preds = %bb22
; call core::panicking::panic_misaligned_pointer_dereference
  call void @_ZN4core9panicking36panic_misaligned_pointer_dereference17hcc3cbded9382b6e5E(i64 8, i64 %_16, ptr align 8 @alloc_4125c7dcaedaba6194809b6418916234) #4
  unreachable

bb23:                                             ; preds = %bb12
  %_14 = load i32, ptr %root_0, align 8
  %_12 = call i32 @isBstHelper(ptr %_13, i32 %_14, i32 %maximum) #3
  %3 = icmp eq i32 %_12, 0
  br i1 %3, label %bb10, label %bb9

panic11:                                          ; preds = %bb12
; call core::panicking::panic_null_pointer_dereference
  call void @_ZN4core9panicking30panic_null_pointer_dereference17hf718fcc86a223baaE(ptr align 8 @alloc_4125c7dcaedaba6194809b6418916234) #4
  unreachable

bb9:                                              ; preds = %bb23
  store i32 1, ptr %_0, align 4
  br label %bb11

bb11:                                             ; preds = %bb2, %bb9, %bb10
  %4 = load i32, ptr %_0, align 4
  ret i32 %4
}

; Function Attrs: nounwind nonlazybind
define i32 @isItBst(ptr %root_0) unnamed_addr #1 {
start:
  %_0 = alloca [4 x i8], align 4
; call core::ptr::mut_ptr::<impl *mut T>::is_null
  %_2 = call zeroext i1 @"_ZN4core3ptr7mut_ptr31_$LT$impl$u20$$BP$mut$u20$T$GT$7is_null17h3cb75bd5cbafbcf4E"(ptr %root_0) #3
  br i1 %_2, label %bb2, label %bb3

bb3:                                              ; preds = %start
  %_62 = ptrtoint ptr %root_0 to i64
  %_65 = and i64 %_62, 7
  %_66 = icmp eq i64 %_65, 0
  br i1 %_66, label %bb27, label %panic

bb2:                                              ; preds = %start
  store i32 1, ptr %_0, align 4
  br label %bb19

bb27:                                             ; preds = %bb3
  %_68 = ptrtoint ptr %root_0 to i64
  %_71 = icmp eq i64 %_68, 0
  %_72 = and i1 %_71, true
  %_73 = xor i1 %_72, true
  br i1 %_73, label %bb28, label %panic1

panic:                                            ; preds = %bb3
; call core::panicking::panic_misaligned_pointer_dereference
  call void @_ZN4core9panicking36panic_misaligned_pointer_dereference17hcc3cbded9382b6e5E(i64 8, i64 %_62, ptr align 8 @alloc_79d22b28192de9a5876d448983a4046a) #4
  unreachable

bb28:                                             ; preds = %bb27
  %0 = getelementptr inbounds i8, ptr %root_0, i64 8
  %_4 = load ptr, ptr %0, align 8
; call core::ptr::mut_ptr::<impl *mut T>::is_null
  %_3 = call zeroext i1 @"_ZN4core3ptr7mut_ptr31_$LT$impl$u20$$BP$mut$u20$T$GT$7is_null17h3cb75bd5cbafbcf4E"(ptr %_4) #3
  br i1 %_3, label %bb8, label %bb5

panic1:                                           ; preds = %bb27
; call core::panicking::panic_null_pointer_dereference
  call void @_ZN4core9panicking30panic_null_pointer_dereference17hf718fcc86a223baaE(ptr align 8 @alloc_79d22b28192de9a5876d448983a4046a) #4
  unreachable

bb5:                                              ; preds = %bb28
  %_56 = ptrtoint ptr %root_0 to i64
  %_59 = and i64 %_56, 7
  %_60 = icmp eq i64 %_59, 0
  br i1 %_60, label %bb26, label %panic2

bb8:                                              ; preds = %bb30, %bb28
  %_44 = ptrtoint ptr %root_0 to i64
  %_47 = and i64 %_44, 7
  %_48 = icmp eq i64 %_47, 0
  br i1 %_48, label %bb24, label %panic6

bb26:                                             ; preds = %bb5
  %_75 = ptrtoint ptr %root_0 to i64
  %_78 = icmp eq i64 %_75, 0
  %_79 = and i1 %_78, true
  %_80 = xor i1 %_79, true
  br i1 %_80, label %bb29, label %panic3

panic2:                                           ; preds = %bb5
; call core::panicking::panic_misaligned_pointer_dereference
  call void @_ZN4core9panicking36panic_misaligned_pointer_dereference17hcc3cbded9382b6e5E(i64 8, i64 %_56, ptr align 8 @alloc_89d8e27be0383ac26be40c59bc003390) #4
  unreachable

bb29:                                             ; preds = %bb26
  %1 = getelementptr inbounds i8, ptr %root_0, i64 8
  %_7 = load ptr, ptr %1, align 8
  %_6 = call i32 @findMax(ptr %_7) #3
  %_50 = ptrtoint ptr %root_0 to i64
  %_53 = and i64 %_50, 7
  %_54 = icmp eq i64 %_53, 0
  br i1 %_54, label %bb25, label %panic4

panic3:                                           ; preds = %bb26
; call core::panicking::panic_null_pointer_dereference
  call void @_ZN4core9panicking30panic_null_pointer_dereference17hf718fcc86a223baaE(ptr align 8 @alloc_89d8e27be0383ac26be40c59bc003390) #4
  unreachable

bb25:                                             ; preds = %bb29
  %_82 = ptrtoint ptr %root_0 to i64
  %_85 = icmp eq i64 %_82, 0
  %_86 = and i1 %_85, true
  %_87 = xor i1 %_86, true
  br i1 %_87, label %bb30, label %panic5

panic4:                                           ; preds = %bb29
; call core::panicking::panic_misaligned_pointer_dereference
  call void @_ZN4core9panicking36panic_misaligned_pointer_dereference17hcc3cbded9382b6e5E(i64 8, i64 %_50, ptr align 8 @alloc_06def21630a6395a93af524833398b10) #4
  unreachable

bb30:                                             ; preds = %bb25
  %_8 = load i32, ptr %root_0, align 8
  %_5 = icmp sgt i32 %_6, %_8
  br i1 %_5, label %bb7, label %bb8

panic5:                                           ; preds = %bb25
; call core::panicking::panic_null_pointer_dereference
  call void @_ZN4core9panicking30panic_null_pointer_dereference17hf718fcc86a223baaE(ptr align 8 @alloc_06def21630a6395a93af524833398b10) #4
  unreachable

bb7:                                              ; preds = %bb30
  store i32 0, ptr %_0, align 4
  br label %bb19

bb19:                                             ; preds = %bb2, %bb18, %bb17, %bb12, %bb7
  %2 = load i32, ptr %_0, align 4
  ret i32 %2

bb24:                                             ; preds = %bb8
  %_89 = ptrtoint ptr %root_0 to i64
  %_92 = icmp eq i64 %_89, 0
  %_93 = and i1 %_92, true
  %_94 = xor i1 %_93, true
  br i1 %_94, label %bb31, label %panic7

panic6:                                           ; preds = %bb8
; call core::panicking::panic_misaligned_pointer_dereference
  call void @_ZN4core9panicking36panic_misaligned_pointer_dereference17hcc3cbded9382b6e5E(i64 8, i64 %_44, ptr align 8 @alloc_5086773ec26bb191205697fb7e200158) #4
  unreachable

bb31:                                             ; preds = %bb24
  %3 = getelementptr inbounds i8, ptr %root_0, i64 16
  %_10 = load ptr, ptr %3, align 8
; call core::ptr::mut_ptr::<impl *mut T>::is_null
  %_9 = call zeroext i1 @"_ZN4core3ptr7mut_ptr31_$LT$impl$u20$$BP$mut$u20$T$GT$7is_null17h3cb75bd5cbafbcf4E"(ptr %_10) #3
  br i1 %_9, label %bb13, label %bb10

panic7:                                           ; preds = %bb24
; call core::panicking::panic_null_pointer_dereference
  call void @_ZN4core9panicking30panic_null_pointer_dereference17hf718fcc86a223baaE(ptr align 8 @alloc_5086773ec26bb191205697fb7e200158) #4
  unreachable

bb10:                                             ; preds = %bb31
  %_38 = ptrtoint ptr %root_0 to i64
  %_41 = and i64 %_38, 7
  %_42 = icmp eq i64 %_41, 0
  br i1 %_42, label %bb23, label %panic8

bb13:                                             ; preds = %bb33, %bb31
  %_26 = ptrtoint ptr %root_0 to i64
  %_29 = and i64 %_26, 7
  %_30 = icmp eq i64 %_29, 0
  br i1 %_30, label %bb21, label %panic12

bb23:                                             ; preds = %bb10
  %_96 = ptrtoint ptr %root_0 to i64
  %_99 = icmp eq i64 %_96, 0
  %_100 = and i1 %_99, true
  %_101 = xor i1 %_100, true
  br i1 %_101, label %bb32, label %panic9

panic8:                                           ; preds = %bb10
; call core::panicking::panic_misaligned_pointer_dereference
  call void @_ZN4core9panicking36panic_misaligned_pointer_dereference17hcc3cbded9382b6e5E(i64 8, i64 %_38, ptr align 8 @alloc_4cad7bac89ced466a40801595ae080e9) #4
  unreachable

bb32:                                             ; preds = %bb23
  %4 = getelementptr inbounds i8, ptr %root_0, i64 16
  %_13 = load ptr, ptr %4, align 8
  %_12 = call i32 @findMin(ptr %_13) #3
  %_32 = ptrtoint ptr %root_0 to i64
  %_35 = and i64 %_32, 7
  %_36 = icmp eq i64 %_35, 0
  br i1 %_36, label %bb22, label %panic10

panic9:                                           ; preds = %bb23
; call core::panicking::panic_null_pointer_dereference
  call void @_ZN4core9panicking30panic_null_pointer_dereference17hf718fcc86a223baaE(ptr align 8 @alloc_4cad7bac89ced466a40801595ae080e9) #4
  unreachable

bb22:                                             ; preds = %bb32
  %_103 = ptrtoint ptr %root_0 to i64
  %_106 = icmp eq i64 %_103, 0
  %_107 = and i1 %_106, true
  %_108 = xor i1 %_107, true
  br i1 %_108, label %bb33, label %panic11

panic10:                                          ; preds = %bb32
; call core::panicking::panic_misaligned_pointer_dereference
  call void @_ZN4core9panicking36panic_misaligned_pointer_dereference17hcc3cbded9382b6e5E(i64 8, i64 %_32, ptr align 8 @alloc_23f5ced5ccff55d2fe79310c6e304ee1) #4
  unreachable

bb33:                                             ; preds = %bb22
  %_14 = load i32, ptr %root_0, align 8
  %_11 = icmp slt i32 %_12, %_14
  br i1 %_11, label %bb12, label %bb13

panic11:                                          ; preds = %bb22
; call core::panicking::panic_null_pointer_dereference
  call void @_ZN4core9panicking30panic_null_pointer_dereference17hf718fcc86a223baaE(ptr align 8 @alloc_23f5ced5ccff55d2fe79310c6e304ee1) #4
  unreachable

bb12:                                             ; preds = %bb33
  store i32 0, ptr %_0, align 4
  br label %bb19

bb21:                                             ; preds = %bb13
  %_110 = ptrtoint ptr %root_0 to i64
  %_113 = icmp eq i64 %_110, 0
  %_114 = and i1 %_113, true
  %_115 = xor i1 %_114, true
  br i1 %_115, label %bb34, label %panic13

panic12:                                          ; preds = %bb13
; call core::panicking::panic_misaligned_pointer_dereference
  call void @_ZN4core9panicking36panic_misaligned_pointer_dereference17hcc3cbded9382b6e5E(i64 8, i64 %_26, ptr align 8 @alloc_78bf6b9dab8046c4ce3ee62b5a5750f8) #4
  unreachable

bb34:                                             ; preds = %bb21
  %5 = getelementptr inbounds i8, ptr %root_0, i64 8
  %_16 = load ptr, ptr %5, align 8
  %_15 = call i32 @isItBst(ptr %_16) #3
  %6 = icmp eq i32 %_15, 0
  br i1 %6, label %bb17, label %bb15

panic13:                                          ; preds = %bb21
; call core::panicking::panic_null_pointer_dereference
  call void @_ZN4core9panicking30panic_null_pointer_dereference17hf718fcc86a223baaE(ptr align 8 @alloc_78bf6b9dab8046c4ce3ee62b5a5750f8) #4
  unreachable

bb17:                                             ; preds = %bb35, %bb34
  store i32 0, ptr %_0, align 4
  br label %bb19

bb15:                                             ; preds = %bb34
  %_20 = ptrtoint ptr %root_0 to i64
  %_23 = and i64 %_20, 7
  %_24 = icmp eq i64 %_23, 0
  br i1 %_24, label %bb20, label %panic14

bb20:                                             ; preds = %bb15
  %_117 = ptrtoint ptr %root_0 to i64
  %_120 = icmp eq i64 %_117, 0
  %_121 = and i1 %_120, true
  %_122 = xor i1 %_121, true
  br i1 %_122, label %bb35, label %panic15

panic14:                                          ; preds = %bb15
; call core::panicking::panic_misaligned_pointer_dereference
  call void @_ZN4core9panicking36panic_misaligned_pointer_dereference17hcc3cbded9382b6e5E(i64 8, i64 %_20, ptr align 8 @alloc_8f8edc6e9d38775a8a7d5fbc74397223) #4
  unreachable

bb35:                                             ; preds = %bb20
  %7 = getelementptr inbounds i8, ptr %root_0, i64 16
  %_18 = load ptr, ptr %7, align 8
  %_17 = call i32 @isItBst(ptr %_18) #3
  %8 = icmp eq i32 %_17, 0
  br i1 %8, label %bb17, label %bb18

panic15:                                          ; preds = %bb20
; call core::panicking::panic_null_pointer_dereference
  call void @_ZN4core9panicking30panic_null_pointer_dereference17hf718fcc86a223baaE(ptr align 8 @alloc_8f8edc6e9d38775a8a7d5fbc74397223) #4
  unreachable

bb18:                                             ; preds = %bb35
  store i32 1, ptr %_0, align 4
  br label %bb19
}

; Function Attrs: nounwind nonlazybind
define i32 @findMin(ptr %root_0) unnamed_addr #1 {
start:
  %_0 = alloca [4 x i8], align 4
  %_18 = ptrtoint ptr %root_0 to i64
  %_21 = and i64 %_18, 7
  %_22 = icmp eq i64 %_21, 0
  br i1 %_22, label %bb7, label %panic

bb7:                                              ; preds = %start
  %_24 = ptrtoint ptr %root_0 to i64
  %_27 = icmp eq i64 %_24, 0
  %_28 = and i1 %_27, true
  %_29 = xor i1 %_28, true
  br i1 %_29, label %bb8, label %panic1

panic:                                            ; preds = %start
; call core::panicking::panic_misaligned_pointer_dereference
  call void @_ZN4core9panicking36panic_misaligned_pointer_dereference17hcc3cbded9382b6e5E(i64 8, i64 %_18, ptr align 8 @alloc_fb66e0efad4eb6b709a76f04f5627159) #4
  unreachable

bb8:                                              ; preds = %bb7
  %0 = getelementptr inbounds i8, ptr %root_0, i64 8
  %_3 = load ptr, ptr %0, align 8
; call core::ptr::mut_ptr::<impl *mut T>::is_null
  %_2 = call zeroext i1 @"_ZN4core3ptr7mut_ptr31_$LT$impl$u20$$BP$mut$u20$T$GT$7is_null17h3cb75bd5cbafbcf4E"(ptr %_3) #3
  br i1 %_2, label %bb2, label %bb3

panic1:                                           ; preds = %bb7
; call core::panicking::panic_null_pointer_dereference
  call void @_ZN4core9panicking30panic_null_pointer_dereference17hf718fcc86a223baaE(ptr align 8 @alloc_fb66e0efad4eb6b709a76f04f5627159) #4
  unreachable

bb3:                                              ; preds = %bb8
  %_6 = ptrtoint ptr %root_0 to i64
  %_9 = and i64 %_6, 7
  %_10 = icmp eq i64 %_9, 0
  br i1 %_10, label %bb5, label %panic2

bb2:                                              ; preds = %bb8
  %_12 = ptrtoint ptr %root_0 to i64
  %_15 = and i64 %_12, 7
  %_16 = icmp eq i64 %_15, 0
  br i1 %_16, label %bb6, label %panic4

bb5:                                              ; preds = %bb3
  %_38 = ptrtoint ptr %root_0 to i64
  %_41 = icmp eq i64 %_38, 0
  %_42 = and i1 %_41, true
  %_43 = xor i1 %_42, true
  br i1 %_43, label %bb10, label %panic3

panic2:                                           ; preds = %bb3
; call core::panicking::panic_misaligned_pointer_dereference
  call void @_ZN4core9panicking36panic_misaligned_pointer_dereference17hcc3cbded9382b6e5E(i64 8, i64 %_6, ptr align 8 @alloc_b601eacbdbbfc5b81c065cf3d930216e) #4
  unreachable

bb10:                                             ; preds = %bb5
  %1 = getelementptr inbounds i8, ptr %root_0, i64 8
  %_4 = load ptr, ptr %1, align 8
  %2 = call i32 @findMin(ptr %_4) #3
  store i32 %2, ptr %_0, align 4
  br label %bb4

panic3:                                           ; preds = %bb5
; call core::panicking::panic_null_pointer_dereference
  call void @_ZN4core9panicking30panic_null_pointer_dereference17hf718fcc86a223baaE(ptr align 8 @alloc_b601eacbdbbfc5b81c065cf3d930216e) #4
  unreachable

bb4:                                              ; preds = %bb9, %bb10
  %3 = load i32, ptr %_0, align 4
  ret i32 %3

bb6:                                              ; preds = %bb2
  %_31 = ptrtoint ptr %root_0 to i64
  %_34 = icmp eq i64 %_31, 0
  %_35 = and i1 %_34, true
  %_36 = xor i1 %_35, true
  br i1 %_36, label %bb9, label %panic5

panic4:                                           ; preds = %bb2
; call core::panicking::panic_misaligned_pointer_dereference
  call void @_ZN4core9panicking36panic_misaligned_pointer_dereference17hcc3cbded9382b6e5E(i64 8, i64 %_12, ptr align 8 @alloc_122766c26ef349abe24d56b7c566ce42) #4
  unreachable

bb9:                                              ; preds = %bb6
  %4 = load i32, ptr %root_0, align 8
  store i32 %4, ptr %_0, align 4
  br label %bb4

panic5:                                           ; preds = %bb6
; call core::panicking::panic_null_pointer_dereference
  call void @_ZN4core9panicking30panic_null_pointer_dereference17hf718fcc86a223baaE(ptr align 8 @alloc_122766c26ef349abe24d56b7c566ce42) #4
  unreachable
}

; Function Attrs: nounwind nonlazybind
define i32 @findMax(ptr %root_0) unnamed_addr #1 {
start:
  %_0 = alloca [4 x i8], align 4
  %_18 = ptrtoint ptr %root_0 to i64
  %_21 = and i64 %_18, 7
  %_22 = icmp eq i64 %_21, 0
  br i1 %_22, label %bb7, label %panic

bb7:                                              ; preds = %start
  %_24 = ptrtoint ptr %root_0 to i64
  %_27 = icmp eq i64 %_24, 0
  %_28 = and i1 %_27, true
  %_29 = xor i1 %_28, true
  br i1 %_29, label %bb8, label %panic1

panic:                                            ; preds = %start
; call core::panicking::panic_misaligned_pointer_dereference
  call void @_ZN4core9panicking36panic_misaligned_pointer_dereference17hcc3cbded9382b6e5E(i64 8, i64 %_18, ptr align 8 @alloc_c79bca0006450f8fca0e01a2d1b8d377) #4
  unreachable

bb8:                                              ; preds = %bb7
  %0 = getelementptr inbounds i8, ptr %root_0, i64 16
  %_3 = load ptr, ptr %0, align 8
; call core::ptr::mut_ptr::<impl *mut T>::is_null
  %_2 = call zeroext i1 @"_ZN4core3ptr7mut_ptr31_$LT$impl$u20$$BP$mut$u20$T$GT$7is_null17h3cb75bd5cbafbcf4E"(ptr %_3) #3
  br i1 %_2, label %bb2, label %bb3

panic1:                                           ; preds = %bb7
; call core::panicking::panic_null_pointer_dereference
  call void @_ZN4core9panicking30panic_null_pointer_dereference17hf718fcc86a223baaE(ptr align 8 @alloc_c79bca0006450f8fca0e01a2d1b8d377) #4
  unreachable

bb3:                                              ; preds = %bb8
  %_6 = ptrtoint ptr %root_0 to i64
  %_9 = and i64 %_6, 7
  %_10 = icmp eq i64 %_9, 0
  br i1 %_10, label %bb5, label %panic2

bb2:                                              ; preds = %bb8
  %_12 = ptrtoint ptr %root_0 to i64
  %_15 = and i64 %_12, 7
  %_16 = icmp eq i64 %_15, 0
  br i1 %_16, label %bb6, label %panic4

bb5:                                              ; preds = %bb3
  %_38 = ptrtoint ptr %root_0 to i64
  %_41 = icmp eq i64 %_38, 0
  %_42 = and i1 %_41, true
  %_43 = xor i1 %_42, true
  br i1 %_43, label %bb10, label %panic3

panic2:                                           ; preds = %bb3
; call core::panicking::panic_misaligned_pointer_dereference
  call void @_ZN4core9panicking36panic_misaligned_pointer_dereference17hcc3cbded9382b6e5E(i64 8, i64 %_6, ptr align 8 @alloc_5e5d20ab9dcb1f22e5d64016401a5b00) #4
  unreachable

bb10:                                             ; preds = %bb5
  %1 = getelementptr inbounds i8, ptr %root_0, i64 16
  %_4 = load ptr, ptr %1, align 8
  %2 = call i32 @findMax(ptr %_4) #3
  store i32 %2, ptr %_0, align 4
  br label %bb4

panic3:                                           ; preds = %bb5
; call core::panicking::panic_null_pointer_dereference
  call void @_ZN4core9panicking30panic_null_pointer_dereference17hf718fcc86a223baaE(ptr align 8 @alloc_5e5d20ab9dcb1f22e5d64016401a5b00) #4
  unreachable

bb4:                                              ; preds = %bb9, %bb10
  %3 = load i32, ptr %_0, align 4
  ret i32 %3

bb6:                                              ; preds = %bb2
  %_31 = ptrtoint ptr %root_0 to i64
  %_34 = icmp eq i64 %_31, 0
  %_35 = and i1 %_34, true
  %_36 = xor i1 %_35, true
  br i1 %_36, label %bb9, label %panic5

panic4:                                           ; preds = %bb2
; call core::panicking::panic_misaligned_pointer_dereference
  call void @_ZN4core9panicking36panic_misaligned_pointer_dereference17hcc3cbded9382b6e5E(i64 8, i64 %_12, ptr align 8 @alloc_145b14f19af0bbf5ee5f26683e26e41d) #4
  unreachable

bb9:                                              ; preds = %bb6
  %4 = load i32, ptr %root_0, align 8
  store i32 %4, ptr %_0, align 4
  br label %bb4

panic5:                                           ; preds = %bb6
; call core::panicking::panic_null_pointer_dereference
  call void @_ZN4core9panicking30panic_null_pointer_dereference17hf718fcc86a223baaE(ptr align 8 @alloc_145b14f19af0bbf5ee5f26683e26e41d) #4
  unreachable
}

; Function Attrs: nounwind nonlazybind
define i32 @isBstInOrderTraversal(ptr %root_0, i32 %0) unnamed_addr #1 {
start:
  %_0 = alloca [4 x i8], align 4
  %previous = alloca [4 x i8], align 4
  store i32 %0, ptr %previous, align 4
; call core::ptr::mut_ptr::<impl *mut T>::is_null
  %_3 = call zeroext i1 @"_ZN4core3ptr7mut_ptr31_$LT$impl$u20$$BP$mut$u20$T$GT$7is_null17h3cb75bd5cbafbcf4E"(ptr %root_0) #3
  br i1 %_3, label %bb2, label %bb3

bb3:                                              ; preds = %start
  %_32 = ptrtoint ptr %root_0 to i64
  %_35 = and i64 %_32, 7
  %_36 = icmp eq i64 %_35, 0
  br i1 %_36, label %bb13, label %panic

bb2:                                              ; preds = %start
  store i32 1, ptr %_0, align 4
  br label %bb9

bb13:                                             ; preds = %bb3
  %_38 = ptrtoint ptr %root_0 to i64
  %_41 = icmp eq i64 %_38, 0
  %_42 = and i1 %_41, true
  %_43 = xor i1 %_42, true
  br i1 %_43, label %bb14, label %panic1

panic:                                            ; preds = %bb3
; call core::panicking::panic_misaligned_pointer_dereference
  call void @_ZN4core9panicking36panic_misaligned_pointer_dereference17hcc3cbded9382b6e5E(i64 8, i64 %_32, ptr align 8 @alloc_c9baa2cd9700166e78bfdeda96603390) #4
  unreachable

bb14:                                             ; preds = %bb13
  %1 = getelementptr inbounds i8, ptr %root_0, i64 8
  %_5 = load ptr, ptr %1, align 8
  %_6 = load i32, ptr %previous, align 4
  %_4 = call i32 @isBstInOrderTraversal(ptr %_5, i32 %_6) #3
  %2 = icmp eq i32 %_4, 0
  br i1 %2, label %bb5, label %bb6

panic1:                                           ; preds = %bb13
; call core::panicking::panic_null_pointer_dereference
  call void @_ZN4core9panicking30panic_null_pointer_dereference17hf718fcc86a223baaE(ptr align 8 @alloc_c9baa2cd9700166e78bfdeda96603390) #4
  unreachable

bb5:                                              ; preds = %bb14
  store i32 0, ptr %_0, align 4
  br label %bb9

bb6:                                              ; preds = %bb14
  %_26 = ptrtoint ptr %root_0 to i64
  %_29 = and i64 %_26, 7
  %_30 = icmp eq i64 %_29, 0
  br i1 %_30, label %bb12, label %panic2

bb9:                                              ; preds = %bb2, %bb7, %bb17, %bb5
  %3 = load i32, ptr %_0, align 4
  ret i32 %3

bb12:                                             ; preds = %bb6
  %_45 = ptrtoint ptr %root_0 to i64
  %_48 = icmp eq i64 %_45, 0
  %_49 = and i1 %_48, true
  %_50 = xor i1 %_49, true
  br i1 %_50, label %bb15, label %panic3

panic2:                                           ; preds = %bb6
; call core::panicking::panic_misaligned_pointer_dereference
  call void @_ZN4core9panicking36panic_misaligned_pointer_dereference17hcc3cbded9382b6e5E(i64 8, i64 %_26, ptr align 8 @alloc_0afa87d7de6df5fc0d5bd6ffa532e566) #4
  unreachable

bb15:                                             ; preds = %bb12
  %_8 = load i32, ptr %root_0, align 8
  %_9 = load i32, ptr %previous, align 4
  %_7 = icmp slt i32 %_8, %_9
  br i1 %_7, label %bb7, label %bb8

panic3:                                           ; preds = %bb12
; call core::panicking::panic_null_pointer_dereference
  call void @_ZN4core9panicking30panic_null_pointer_dereference17hf718fcc86a223baaE(ptr align 8 @alloc_0afa87d7de6df5fc0d5bd6ffa532e566) #4
  unreachable

bb8:                                              ; preds = %bb15
  %_20 = ptrtoint ptr %root_0 to i64
  %_23 = and i64 %_20, 7
  %_24 = icmp eq i64 %_23, 0
  br i1 %_24, label %bb11, label %panic4

bb7:                                              ; preds = %bb15
  store i32 0, ptr %_0, align 4
  br label %bb9

bb11:                                             ; preds = %bb8
  %_52 = ptrtoint ptr %root_0 to i64
  %_55 = icmp eq i64 %_52, 0
  %_56 = and i1 %_55, true
  %_57 = xor i1 %_56, true
  br i1 %_57, label %bb16, label %panic5

panic4:                                           ; preds = %bb8
; call core::panicking::panic_misaligned_pointer_dereference
  call void @_ZN4core9panicking36panic_misaligned_pointer_dereference17hcc3cbded9382b6e5E(i64 8, i64 %_20, ptr align 8 @alloc_5a8dc6b99c1ac937fe6fbec1a1dc4b96) #4
  unreachable

bb16:                                             ; preds = %bb11
  %_10 = load i32, ptr %root_0, align 8
  store i32 %_10, ptr %previous, align 4
  %_14 = ptrtoint ptr %root_0 to i64
  %_17 = and i64 %_14, 7
  %_18 = icmp eq i64 %_17, 0
  br i1 %_18, label %bb10, label %panic6

panic5:                                           ; preds = %bb11
; call core::panicking::panic_null_pointer_dereference
  call void @_ZN4core9panicking30panic_null_pointer_dereference17hf718fcc86a223baaE(ptr align 8 @alloc_5a8dc6b99c1ac937fe6fbec1a1dc4b96) #4
  unreachable

bb10:                                             ; preds = %bb16
  %_59 = ptrtoint ptr %root_0 to i64
  %_62 = icmp eq i64 %_59, 0
  %_63 = and i1 %_62, true
  %_64 = xor i1 %_63, true
  br i1 %_64, label %bb17, label %panic7

panic6:                                           ; preds = %bb16
; call core::panicking::panic_misaligned_pointer_dereference
  call void @_ZN4core9panicking36panic_misaligned_pointer_dereference17hcc3cbded9382b6e5E(i64 8, i64 %_14, ptr align 8 @alloc_272bf8ef6354abd29235308c73e981d7) #4
  unreachable

bb17:                                             ; preds = %bb10
  %4 = getelementptr inbounds i8, ptr %root_0, i64 16
  %_11 = load ptr, ptr %4, align 8
  %_12 = load i32, ptr %previous, align 4
  %5 = call i32 @isBstInOrderTraversal(ptr %_11, i32 %_12) #3
  store i32 %5, ptr %_0, align 4
  br label %bb9

panic7:                                           ; preds = %bb10
; call core::panicking::panic_null_pointer_dereference
  call void @_ZN4core9panicking30panic_null_pointer_dereference17hf718fcc86a223baaE(ptr align 8 @alloc_272bf8ef6354abd29235308c73e981d7) #4
  unreachable
}

; Function Attrs: nounwind nonlazybind
define void @insertNode(i32 %value) unnamed_addr #1 {
start:
  %parentNode = alloca [8 x i8], align 8
  %currentNode = alloca [8 x i8], align 8
  %tempNode = alloca [8 x i8], align 8
  store ptr null, ptr %tempNode, align 8
  store ptr null, ptr %currentNode, align 8
  store ptr null, ptr %parentNode, align 8
  %_5 = call ptr @malloc(i64 24) #3
  store ptr %_5, ptr %tempNode, align 8
  %_86 = load ptr, ptr %tempNode, align 8
  %_87 = ptrtoint ptr %_86 to i64
  %_90 = and i64 %_87, 7
  %_91 = icmp eq i64 %_90, 0
  br i1 %_91, label %bb24, label %panic

bb24:                                             ; preds = %start
  %_92 = load ptr, ptr %tempNode, align 8
  %_93 = ptrtoint ptr %_92 to i64
  %_96 = icmp eq i64 %_93, 0
  %_97 = and i1 %_96, true
  %_98 = xor i1 %_97, true
  br i1 %_98, label %bb25, label %panic1

panic:                                            ; preds = %start
; call core::panicking::panic_misaligned_pointer_dereference
  call void @_ZN4core9panicking36panic_misaligned_pointer_dereference17hcc3cbded9382b6e5E(i64 8, i64 %_87, ptr align 8 @alloc_295660d552510aca136207025db92de4) #4
  unreachable

bb25:                                             ; preds = %bb24
  %0 = load ptr, ptr %tempNode, align 8
  store i32 %value, ptr %0, align 8
  %_80 = load ptr, ptr %tempNode, align 8
  %_81 = ptrtoint ptr %_80 to i64
  %_84 = and i64 %_81, 7
  %_85 = icmp eq i64 %_84, 0
  br i1 %_85, label %bb23, label %panic2

panic1:                                           ; preds = %bb24
; call core::panicking::panic_null_pointer_dereference
  call void @_ZN4core9panicking30panic_null_pointer_dereference17hf718fcc86a223baaE(ptr align 8 @alloc_295660d552510aca136207025db92de4) #4
  unreachable

bb23:                                             ; preds = %bb25
  %_99 = load ptr, ptr %tempNode, align 8
  %_100 = ptrtoint ptr %_99 to i64
  %_103 = icmp eq i64 %_100, 0
  %_104 = and i1 %_103, true
  %_105 = xor i1 %_104, true
  br i1 %_105, label %bb26, label %panic3

panic2:                                           ; preds = %bb25
; call core::panicking::panic_misaligned_pointer_dereference
  call void @_ZN4core9panicking36panic_misaligned_pointer_dereference17hcc3cbded9382b6e5E(i64 8, i64 %_81, ptr align 8 @alloc_caeaa73146f8e62a1d94f321cfc045df) #4
  unreachable

bb26:                                             ; preds = %bb23
  %1 = load ptr, ptr %tempNode, align 8
  %2 = getelementptr inbounds i8, ptr %1, i64 8
  store ptr null, ptr %2, align 8
  %_74 = load ptr, ptr %tempNode, align 8
  %_75 = ptrtoint ptr %_74 to i64
  %_78 = and i64 %_75, 7
  %_79 = icmp eq i64 %_78, 0
  br i1 %_79, label %bb22, label %panic4

panic3:                                           ; preds = %bb23
; call core::panicking::panic_null_pointer_dereference
  call void @_ZN4core9panicking30panic_null_pointer_dereference17hf718fcc86a223baaE(ptr align 8 @alloc_caeaa73146f8e62a1d94f321cfc045df) #4
  unreachable

bb22:                                             ; preds = %bb26
  %_106 = load ptr, ptr %tempNode, align 8
  %_107 = ptrtoint ptr %_106 to i64
  %_110 = icmp eq i64 %_107, 0
  %_111 = and i1 %_110, true
  %_112 = xor i1 %_111, true
  br i1 %_112, label %bb27, label %panic5

panic4:                                           ; preds = %bb26
; call core::panicking::panic_misaligned_pointer_dereference
  call void @_ZN4core9panicking36panic_misaligned_pointer_dereference17hcc3cbded9382b6e5E(i64 8, i64 %_75, ptr align 8 @alloc_6428315ec97faf639ad3ea5850d11076) #4
  unreachable

bb27:                                             ; preds = %bb22
  %3 = load ptr, ptr %tempNode, align 8
  %4 = getelementptr inbounds i8, ptr %3, i64 16
  store ptr null, ptr %4, align 8
  %_117 = icmp eq i64 ptrtoint (ptr @root to i64), 0
  %_118 = and i1 %_117, true
  %_119 = xor i1 %_118, true
  br i1 %_119, label %bb28, label %panic6

panic5:                                           ; preds = %bb22
; call core::panicking::panic_null_pointer_dereference
  call void @_ZN4core9panicking30panic_null_pointer_dereference17hf718fcc86a223baaE(ptr align 8 @alloc_6428315ec97faf639ad3ea5850d11076) #4
  unreachable

bb28:                                             ; preds = %bb27
  %_9 = load ptr, ptr @root, align 8
; call core::ptr::mut_ptr::<impl *mut T>::is_null
  %_8 = call zeroext i1 @"_ZN4core3ptr7mut_ptr31_$LT$impl$u20$$BP$mut$u20$T$GT$7is_null17h3cb75bd5cbafbcf4E"(ptr %_9) #3
  br i1 %_8, label %bb4, label %bb5

panic6:                                           ; preds = %bb27
; call core::panicking::panic_null_pointer_dereference
  call void @_ZN4core9panicking30panic_null_pointer_dereference17hf718fcc86a223baaE(ptr align 8 @alloc_fdbcfa22c6d6fbca4814ce342bd9d342) #4
  unreachable

bb5:                                              ; preds = %bb28
  %_131 = icmp eq i64 ptrtoint (ptr @root to i64), 0
  %_132 = and i1 %_131, true
  %_133 = xor i1 %_132, true
  br i1 %_133, label %bb30, label %panic7

bb4:                                              ; preds = %bb28
  %_11 = load ptr, ptr %tempNode, align 8
  %_124 = icmp eq i64 ptrtoint (ptr @root to i64), 0
  %_125 = and i1 %_124, true
  %_126 = xor i1 %_125, true
  br i1 %_126, label %bb29, label %panic18

bb30:                                             ; preds = %bb5
  %_13 = load ptr, ptr @root, align 8
  store ptr %_13, ptr %currentNode, align 8
  store ptr null, ptr %parentNode, align 8
  br label %bb6

panic7:                                           ; preds = %bb5
; call core::panicking::panic_null_pointer_dereference
  call void @_ZN4core9panicking30panic_null_pointer_dereference17hf718fcc86a223baaE(ptr align 8 @alloc_369fb58d07990039f284152a21d88ca0) #4
  unreachable

bb6:                                              ; preds = %bb32, %bb34, %bb30
  %_15 = load ptr, ptr %currentNode, align 8
  store ptr %_15, ptr %parentNode, align 8
  %_50 = load ptr, ptr %parentNode, align 8
  %_51 = ptrtoint ptr %_50 to i64
  %_54 = and i64 %_51, 7
  %_55 = icmp eq i64 %_54, 0
  br i1 %_55, label %bb18, label %panic8

bb18:                                             ; preds = %bb6
  %_134 = load ptr, ptr %parentNode, align 8
  %_135 = ptrtoint ptr %_134 to i64
  %_138 = icmp eq i64 %_135, 0
  %_139 = and i1 %_138, true
  %_140 = xor i1 %_139, true
  br i1 %_140, label %bb31, label %panic9

panic8:                                           ; preds = %bb6
; call core::panicking::panic_misaligned_pointer_dereference
  call void @_ZN4core9panicking36panic_misaligned_pointer_dereference17hcc3cbded9382b6e5E(i64 8, i64 %_51, ptr align 8 @alloc_98983c422f18c04fdb8f52d9a2b6d40c) #4
  unreachable

bb31:                                             ; preds = %bb18
  %5 = load ptr, ptr %parentNode, align 8
  %_17 = load i32, ptr %5, align 8
  %_16 = icmp sle i32 %value, %_17
  br i1 %_16, label %bb7, label %bb10

panic9:                                           ; preds = %bb18
; call core::panicking::panic_null_pointer_dereference
  call void @_ZN4core9panicking30panic_null_pointer_dereference17hf718fcc86a223baaE(ptr align 8 @alloc_98983c422f18c04fdb8f52d9a2b6d40c) #4
  unreachable

bb10:                                             ; preds = %bb31
  %_32 = load ptr, ptr %currentNode, align 8
  %_33 = ptrtoint ptr %_32 to i64
  %_36 = and i64 %_33, 7
  %_37 = icmp eq i64 %_36, 0
  br i1 %_37, label %bb15, label %panic10

bb7:                                              ; preds = %bb31
  %_44 = load ptr, ptr %currentNode, align 8
  %_45 = ptrtoint ptr %_44 to i64
  %_48 = and i64 %_45, 7
  %_49 = icmp eq i64 %_48, 0
  br i1 %_49, label %bb17, label %panic14

bb15:                                             ; preds = %bb10
  %_155 = load ptr, ptr %currentNode, align 8
  %_156 = ptrtoint ptr %_155 to i64
  %_159 = icmp eq i64 %_156, 0
  %_160 = and i1 %_159, true
  %_161 = xor i1 %_160, true
  br i1 %_161, label %bb34, label %panic11

panic10:                                          ; preds = %bb10
; call core::panicking::panic_misaligned_pointer_dereference
  call void @_ZN4core9panicking36panic_misaligned_pointer_dereference17hcc3cbded9382b6e5E(i64 8, i64 %_33, ptr align 8 @alloc_f59dafb4a86e6753c4cdb11eaf3c4dd6) #4
  unreachable

bb34:                                             ; preds = %bb15
  %6 = load ptr, ptr %currentNode, align 8
  %7 = getelementptr inbounds i8, ptr %6, i64 16
  %_22 = load ptr, ptr %7, align 8
  store ptr %_22, ptr %currentNode, align 8
  %_24 = load ptr, ptr %currentNode, align 8
; call core::ptr::mut_ptr::<impl *mut T>::is_null
  %_23 = call zeroext i1 @"_ZN4core3ptr7mut_ptr31_$LT$impl$u20$$BP$mut$u20$T$GT$7is_null17h3cb75bd5cbafbcf4E"(ptr %_24) #3
  br i1 %_23, label %bb12, label %bb6

panic11:                                          ; preds = %bb15
; call core::panicking::panic_null_pointer_dereference
  call void @_ZN4core9panicking30panic_null_pointer_dereference17hf718fcc86a223baaE(ptr align 8 @alloc_f59dafb4a86e6753c4cdb11eaf3c4dd6) #4
  unreachable

bb12:                                             ; preds = %bb34
  %_25 = load ptr, ptr %tempNode, align 8
  %_26 = load ptr, ptr %parentNode, align 8
  %_27 = ptrtoint ptr %_26 to i64
  %_30 = and i64 %_27, 7
  %_31 = icmp eq i64 %_30, 0
  br i1 %_31, label %bb14, label %panic12

bb14:                                             ; preds = %bb12
  %_162 = load ptr, ptr %parentNode, align 8
  %_163 = ptrtoint ptr %_162 to i64
  %_166 = icmp eq i64 %_163, 0
  %_167 = and i1 %_166, true
  %_168 = xor i1 %_167, true
  br i1 %_168, label %bb35, label %panic13

panic12:                                          ; preds = %bb12
; call core::panicking::panic_misaligned_pointer_dereference
  call void @_ZN4core9panicking36panic_misaligned_pointer_dereference17hcc3cbded9382b6e5E(i64 8, i64 %_27, ptr align 8 @alloc_e82a2022e665223a385f42eed8a6fec2) #4
  unreachable

bb35:                                             ; preds = %bb14
  %8 = load ptr, ptr %parentNode, align 8
  %9 = getelementptr inbounds i8, ptr %8, i64 16
  store ptr %_25, ptr %9, align 8
  br label %bb13

panic13:                                          ; preds = %bb14
; call core::panicking::panic_null_pointer_dereference
  call void @_ZN4core9panicking30panic_null_pointer_dereference17hf718fcc86a223baaE(ptr align 8 @alloc_e82a2022e665223a385f42eed8a6fec2) #4
  unreachable

bb13:                                             ; preds = %bb29, %bb33, %bb35
  ret void

bb17:                                             ; preds = %bb7
  %_141 = load ptr, ptr %currentNode, align 8
  %_142 = ptrtoint ptr %_141 to i64
  %_145 = icmp eq i64 %_142, 0
  %_146 = and i1 %_145, true
  %_147 = xor i1 %_146, true
  br i1 %_147, label %bb32, label %panic15

panic14:                                          ; preds = %bb7
; call core::panicking::panic_misaligned_pointer_dereference
  call void @_ZN4core9panicking36panic_misaligned_pointer_dereference17hcc3cbded9382b6e5E(i64 8, i64 %_45, ptr align 8 @alloc_9110809d0bf31a7737a98917945ad9fe) #4
  unreachable

bb32:                                             ; preds = %bb17
  %10 = load ptr, ptr %currentNode, align 8
  %11 = getelementptr inbounds i8, ptr %10, i64 8
  %_18 = load ptr, ptr %11, align 8
  store ptr %_18, ptr %currentNode, align 8
  %_20 = load ptr, ptr %currentNode, align 8
; call core::ptr::mut_ptr::<impl *mut T>::is_null
  %_19 = call zeroext i1 @"_ZN4core3ptr7mut_ptr31_$LT$impl$u20$$BP$mut$u20$T$GT$7is_null17h3cb75bd5cbafbcf4E"(ptr %_20) #3
  br i1 %_19, label %bb9, label %bb6

panic15:                                          ; preds = %bb17
; call core::panicking::panic_null_pointer_dereference
  call void @_ZN4core9panicking30panic_null_pointer_dereference17hf718fcc86a223baaE(ptr align 8 @alloc_9110809d0bf31a7737a98917945ad9fe) #4
  unreachable

bb9:                                              ; preds = %bb32
  %_21 = load ptr, ptr %tempNode, align 8
  %_38 = load ptr, ptr %parentNode, align 8
  %_39 = ptrtoint ptr %_38 to i64
  %_42 = and i64 %_39, 7
  %_43 = icmp eq i64 %_42, 0
  br i1 %_43, label %bb16, label %panic16

bb16:                                             ; preds = %bb9
  %_148 = load ptr, ptr %parentNode, align 8
  %_149 = ptrtoint ptr %_148 to i64
  %_152 = icmp eq i64 %_149, 0
  %_153 = and i1 %_152, true
  %_154 = xor i1 %_153, true
  br i1 %_154, label %bb33, label %panic17

panic16:                                          ; preds = %bb9
; call core::panicking::panic_misaligned_pointer_dereference
  call void @_ZN4core9panicking36panic_misaligned_pointer_dereference17hcc3cbded9382b6e5E(i64 8, i64 %_39, ptr align 8 @alloc_439cd051af163c1a2b6994edc834b57d) #4
  unreachable

bb33:                                             ; preds = %bb16
  %12 = load ptr, ptr %parentNode, align 8
  %13 = getelementptr inbounds i8, ptr %12, i64 8
  store ptr %_21, ptr %13, align 8
  br label %bb13

panic17:                                          ; preds = %bb16
; call core::panicking::panic_null_pointer_dereference
  call void @_ZN4core9panicking30panic_null_pointer_dereference17hf718fcc86a223baaE(ptr align 8 @alloc_439cd051af163c1a2b6994edc834b57d) #4
  unreachable

bb29:                                             ; preds = %bb4
  store ptr %_11, ptr @root, align 8
  br label %bb13

panic18:                                          ; preds = %bb4
; call core::panicking::panic_null_pointer_dereference
  call void @_ZN4core9panicking30panic_null_pointer_dereference17hf718fcc86a223baaE(ptr align 8 @alloc_79a916b740684800c6a2a63d3c54e954) #4
  unreachable
}

; Function Attrs: nounwind nonlazybind
define void @inOrderPrint(ptr %root_0) unnamed_addr #1 {
start:
; call core::ptr::mut_ptr::<impl *mut T>::is_null
  %_2 = call zeroext i1 @"_ZN4core3ptr7mut_ptr31_$LT$impl$u20$$BP$mut$u20$T$GT$7is_null17h3cb75bd5cbafbcf4E"(ptr %root_0) #3
  br i1 %_2, label %bb5, label %bb2

bb2:                                              ; preds = %start
  %_26 = ptrtoint ptr %root_0 to i64
  %_29 = and i64 %_26, 7
  %_30 = icmp eq i64 %_29, 0
  br i1 %_30, label %bb8, label %panic

bb5:                                              ; preds = %bb11, %start
  ret void

bb8:                                              ; preds = %bb2
  %_32 = ptrtoint ptr %root_0 to i64
  %_35 = icmp eq i64 %_32, 0
  %_36 = and i1 %_35, true
  %_37 = xor i1 %_36, true
  br i1 %_37, label %bb9, label %panic1

panic:                                            ; preds = %bb2
; call core::panicking::panic_misaligned_pointer_dereference
  call void @_ZN4core9panicking36panic_misaligned_pointer_dereference17hcc3cbded9382b6e5E(i64 8, i64 %_26, ptr align 8 @alloc_1c370e4d66c6c1bce57c989977e5d6a0) #4
  unreachable

bb9:                                              ; preds = %bb8
  %0 = getelementptr inbounds i8, ptr %root_0, i64 8
  %_4 = load ptr, ptr %0, align 8
  call void @inOrderPrint(ptr %_4) #3
  %_20 = ptrtoint ptr %root_0 to i64
  %_23 = and i64 %_20, 7
  %_24 = icmp eq i64 %_23, 0
  br i1 %_24, label %bb7, label %panic2

panic1:                                           ; preds = %bb8
; call core::panicking::panic_null_pointer_dereference
  call void @_ZN4core9panicking30panic_null_pointer_dereference17hf718fcc86a223baaE(ptr align 8 @alloc_1c370e4d66c6c1bce57c989977e5d6a0) #4
  unreachable

bb7:                                              ; preds = %bb9
  %_39 = ptrtoint ptr %root_0 to i64
  %_42 = icmp eq i64 %_39, 0
  %_43 = and i1 %_42, true
  %_44 = xor i1 %_43, true
  br i1 %_44, label %bb10, label %panic3

panic2:                                           ; preds = %bb9
; call core::panicking::panic_misaligned_pointer_dereference
  call void @_ZN4core9panicking36panic_misaligned_pointer_dereference17hcc3cbded9382b6e5E(i64 8, i64 %_20, ptr align 8 @alloc_1280c92927fe40731d0590299c5882ff) #4
  unreachable

bb10:                                             ; preds = %bb7
  %_10 = load i32, ptr %root_0, align 8
  %_5 = call i32 (ptr, ...) @printf(ptr @alloc_b929c71616281bfd1be2bd4038d3ddf1, i32 %_10) #3
  %_14 = ptrtoint ptr %root_0 to i64
  %_17 = and i64 %_14, 7
  %_18 = icmp eq i64 %_17, 0
  br i1 %_18, label %bb6, label %panic4

panic3:                                           ; preds = %bb7
; call core::panicking::panic_null_pointer_dereference
  call void @_ZN4core9panicking30panic_null_pointer_dereference17hf718fcc86a223baaE(ptr align 8 @alloc_1280c92927fe40731d0590299c5882ff) #4
  unreachable

bb6:                                              ; preds = %bb10
  %_46 = ptrtoint ptr %root_0 to i64
  %_49 = icmp eq i64 %_46, 0
  %_50 = and i1 %_49, true
  %_51 = xor i1 %_50, true
  br i1 %_51, label %bb11, label %panic5

panic4:                                           ; preds = %bb10
; call core::panicking::panic_misaligned_pointer_dereference
  call void @_ZN4core9panicking36panic_misaligned_pointer_dereference17hcc3cbded9382b6e5E(i64 8, i64 %_14, ptr align 8 @alloc_2ab96359d9b28951d4dfecaa1a1f26dc) #4
  unreachable

bb11:                                             ; preds = %bb6
  %1 = getelementptr inbounds i8, ptr %root_0, i64 16
  %_12 = load ptr, ptr %1, align 8
  call void @inOrderPrint(ptr %_12) #3
  br label %bb5

panic5:                                           ; preds = %bb6
; call core::panicking::panic_null_pointer_dereference
  call void @_ZN4core9panicking30panic_null_pointer_dereference17hf718fcc86a223baaE(ptr align 8 @alloc_2ab96359d9b28951d4dfecaa1a1f26dc) #4
  unreachable
}

; core::panicking::panic_misaligned_pointer_dereference
; Function Attrs: cold minsize noinline noreturn nounwind nonlazybind optsize
declare void @_ZN4core9panicking36panic_misaligned_pointer_dereference17hcc3cbded9382b6e5E(i64, i64, ptr align 8) unnamed_addr #2

; core::panicking::panic_null_pointer_dereference
; Function Attrs: cold minsize noinline noreturn nounwind nonlazybind optsize
declare void @_ZN4core9panicking30panic_null_pointer_dereference17hf718fcc86a223baaE(ptr align 8) unnamed_addr #2

; Function Attrs: nounwind nonlazybind
declare ptr @malloc(i64) unnamed_addr #1

; Function Attrs: nounwind nonlazybind
declare i32 @printf(ptr, ...) unnamed_addr #1

attributes #0 = { inlinehint nounwind nonlazybind "probe-stack"="inline-asm" "target-cpu"="x86-64" }
attributes #1 = { nounwind nonlazybind "probe-stack"="inline-asm" "target-cpu"="x86-64" }
attributes #2 = { cold minsize noinline noreturn nounwind nonlazybind optsize "probe-stack"="inline-asm" "target-cpu"="x86-64" }
attributes #3 = { nounwind }
attributes #4 = { noreturn nounwind }

!llvm.module.flags = !{!0, !1}
!llvm.ident = !{!2}

!0 = !{i32 8, !"PIC Level", i32 2}
!1 = !{i32 2, !"RtLibUseGOT", i32 1}
!2 = !{!"rustc version 1.88.0-nightly (0b45675cf 2025-03-31)"}
