; ModuleID = '9ufartknvu6j28v4to0g01t99'
source_filename = "9ufartknvu6j28v4to0g01t99"
target datalayout = "e-m:e-p270:32:32-p271:32:32-p272:64:64-i64:64-i128:128-f80:128-n8:16:32:64-S128"
target triple = "x86_64-unknown-linux-gnu"

@alloc_0ed0763d8bf93ac79247e07858374e35 = private unnamed_addr constant [210 x i8] c"unsafe precondition(s) violated: ptr::offset requires the address calculation to not overflow\0A\0AThis indicates a bug in the program. This Undefined Behavior check is optional, and cannot be relied on for safety.", align 1
@alloc_f5ffd2fd1476bab43ad89fb40c72d0c5 = private unnamed_addr constant [10 x i8] c"src/lib.rs", align 1
@alloc_f419bdf8ba44f99707e7fecac60bf9ff = private unnamed_addr constant <{ ptr, [16 x i8] }> <{ ptr @alloc_f5ffd2fd1476bab43ad89fb40c72d0c5, [16 x i8] c"\0A\00\00\00\00\00\00\00$\00\00\00\09\00\00\00" }>, align 8
@alloc_a6c86c585b103f19fbcceab9c3144420 = private unnamed_addr constant <{ ptr, [16 x i8] }> <{ ptr @alloc_f5ffd2fd1476bab43ad89fb40c72d0c5, [16 x i8] c"\0A\00\00\00\00\00\00\000\00\00\00\05\00\00\00" }>, align 8
@alloc_bb689b693e85b438ed3fcda2b087a10d = private unnamed_addr constant <{ ptr, [16 x i8] }> <{ ptr @alloc_f5ffd2fd1476bab43ad89fb40c72d0c5, [16 x i8] c"\0A\00\00\00\00\00\00\00R\00\00\00\05\00\00\00" }>, align 8
@alloc_5d998626e21e4a1cf7e0ab7c988016c5 = private unnamed_addr constant <{ ptr, [16 x i8] }> <{ ptr @alloc_f5ffd2fd1476bab43ad89fb40c72d0c5, [16 x i8] c"\0A\00\00\00\00\00\00\00@\00\00\00\14\00\00\00" }>, align 8
@alloc_57d91301e8dd48e07aa79cc6756d773a = private unnamed_addr constant <{ ptr, [16 x i8] }> <{ ptr @alloc_f5ffd2fd1476bab43ad89fb40c72d0c5, [16 x i8] c"\0A\00\00\00\00\00\00\00?\00\00\00\0C\00\00\00" }>, align 8
@alloc_e1985ce8fa42495757cece8b70c20fa3 = private unnamed_addr constant <{ ptr, [16 x i8] }> <{ ptr @alloc_f5ffd2fd1476bab43ad89fb40c72d0c5, [16 x i8] c"\0A\00\00\00\00\00\00\00G\00\00\00\0D\00\00\00" }>, align 8
@alloc_aa923b994ca5766d365ed2d3f5d4bd4a = private unnamed_addr constant <{ ptr, [16 x i8] }> <{ ptr @alloc_f5ffd2fd1476bab43ad89fb40c72d0c5, [16 x i8] c"\0A\00\00\00\00\00\00\00J\00\00\00\18\00\00\00" }>, align 8
@alloc_9d5717b4b074bb65c7f6dbd462dd54ba = private unnamed_addr constant <{ ptr, [16 x i8] }> <{ ptr @alloc_f5ffd2fd1476bab43ad89fb40c72d0c5, [16 x i8] c"\0A\00\00\00\00\00\00\00I\00\00\00\0D\00\00\00" }>, align 8
@alloc_f5047b7b2a7471ec2d0e0880b8b664f5 = private unnamed_addr constant <{ ptr, [16 x i8] }> <{ ptr @alloc_f5ffd2fd1476bab43ad89fb40c72d0c5, [16 x i8] c"\0A\00\00\00\00\00\00\00N\00\00\00\14\00\00\00" }>, align 8
@alloc_1b079427a9a2d0fa28f6d95417650b17 = private unnamed_addr constant <{ ptr, [16 x i8] }> <{ ptr @alloc_f5ffd2fd1476bab43ad89fb40c72d0c5, [16 x i8] c"\0A\00\00\00\00\00\00\00M\00\00\00\0F\00\00\00" }>, align 8
@alloc_424ad9139af85f88f9da8820ad2abfbe = private unnamed_addr constant <{ ptr, [16 x i8] }> <{ ptr @alloc_f5ffd2fd1476bab43ad89fb40c72d0c5, [16 x i8] c"\0A\00\00\00\00\00\00\00_\00\00\00 \00\00\00" }>, align 8
@alloc_f7e891cf846f52b69818edacae6409e0 = private unnamed_addr constant <{ ptr, [16 x i8] }> <{ ptr @alloc_f5ffd2fd1476bab43ad89fb40c72d0c5, [16 x i8] c"\0A\00\00\00\00\00\00\00`\00\00\00\1A\00\00\00" }>, align 8
@alloc_ee4fe3b1d9f7a13931cc35ca11abe9b0 = private unnamed_addr constant <{ ptr, [16 x i8] }> <{ ptr @alloc_f5ffd2fd1476bab43ad89fb40c72d0c5, [16 x i8] c"\0A\00\00\00\00\00\00\00g\00\00\00\09\00\00\00" }>, align 8
@alloc_adf1c524da88c689910ca147895919eb = private unnamed_addr constant <{ ptr, [16 x i8] }> <{ ptr @alloc_f5ffd2fd1476bab43ad89fb40c72d0c5, [16 x i8] c"\0A\00\00\00\00\00\00\00i\00\00\00\09\00\00\00" }>, align 8
@alloc_1a91262cb014a58a71e2df99019abffe = private unnamed_addr constant <{ ptr, [16 x i8] }> <{ ptr @alloc_f5ffd2fd1476bab43ad89fb40c72d0c5, [16 x i8] c"\0A\00\00\00\00\00\00\00l\00\00\00\0B\00\00\00" }>, align 8
@alloc_f60bb59bae9fdbf37b53969edd55058a = private unnamed_addr constant <{ ptr, [16 x i8] }> <{ ptr @alloc_f5ffd2fd1476bab43ad89fb40c72d0c5, [16 x i8] c"\0A\00\00\00\00\00\00\00l\00\00\00\09\00\00\00" }>, align 8
@alloc_35903e2beae833791f15e8c3785889c6 = private unnamed_addr constant <{ ptr, [16 x i8] }> <{ ptr @alloc_f5ffd2fd1476bab43ad89fb40c72d0c5, [16 x i8] c"\0A\00\00\00\00\00\00\00o\00\00\00\09\00\00\00" }>, align 8
@alloc_f4383e430531e6650e775e3cb6beadcb = private unnamed_addr constant <{ ptr, [16 x i8] }> <{ ptr @alloc_f5ffd2fd1476bab43ad89fb40c72d0c5, [16 x i8] c"\0A\00\00\00\00\00\00\00\89\00\00\00\0E\00\00\00" }>, align 8
@alloc_6ce0681cf6a3e7a2443eaf471d0d6082 = private unnamed_addr constant <{ ptr, [16 x i8] }> <{ ptr @alloc_f5ffd2fd1476bab43ad89fb40c72d0c5, [16 x i8] c"\0A\00\00\00\00\00\00\00\81\00\00\00\0E\00\00\00" }>, align 8
@alloc_ab85193e43b967d5ce5d31a56b8d7f8e = private unnamed_addr constant <{ ptr, [16 x i8] }> <{ ptr @alloc_f5ffd2fd1476bab43ad89fb40c72d0c5, [16 x i8] c"\0A\00\00\00\00\00\00\00\82\00\00\00\0F\00\00\00" }>, align 8
@alloc_25c2b3548881b0c95686f5ccbb4ffef3 = private unnamed_addr constant <{ ptr, [16 x i8] }> <{ ptr @alloc_f5ffd2fd1476bab43ad89fb40c72d0c5, [16 x i8] c"\0A\00\00\00\00\00\00\00\96\00\00\00 \00\00\00" }>, align 8
@alloc_fe2ab1856956b4384276a97703ba115f = private unnamed_addr constant <{ ptr, [16 x i8] }> <{ ptr @alloc_f5ffd2fd1476bab43ad89fb40c72d0c5, [16 x i8] c"\0A\00\00\00\00\00\00\00\97\00\00\00\1A\00\00\00" }>, align 8
@alloc_e31e5a586f4f7e29755cd30ae2a86c49 = private unnamed_addr constant <{ ptr, [16 x i8] }> <{ ptr @alloc_f5ffd2fd1476bab43ad89fb40c72d0c5, [16 x i8] c"\0A\00\00\00\00\00\00\00\9F\00\00\00\09\00\00\00" }>, align 8
@alloc_c0ffd8bb6199500482fed097e59cd212 = private unnamed_addr constant <{ ptr, [16 x i8] }> <{ ptr @alloc_f5ffd2fd1476bab43ad89fb40c72d0c5, [16 x i8] c"\0A\00\00\00\00\00\00\00\9C\00\00\00\10\00\00\00" }>, align 8
@alloc_a8e6fc16c6713d71570bd687e69266ed = private unnamed_addr constant <{ ptr, [16 x i8] }> <{ ptr @alloc_f5ffd2fd1476bab43ad89fb40c72d0c5, [16 x i8] c"\0A\00\00\00\00\00\00\00\AD\00\00\00\16\00\00\00" }>, align 8

; core::intrinsics::cold_path
; Function Attrs: cold nounwind nonlazybind
define internal void @_ZN4core10intrinsics9cold_path17h8cf52bed53ed8d66E() unnamed_addr #0 {
start:
  ret void
}

; core::ptr::mut_ptr::<impl *mut T>::offset::precondition_check
; Function Attrs: inlinehint nounwind nonlazybind
define internal void @"_ZN4core3ptr7mut_ptr31_$LT$impl$u20$$BP$mut$u20$T$GT$6offset18precondition_check17h173c2260630ece85E"(ptr %this, i64 %count, i64 %size) unnamed_addr #1 {
start:
  %0 = call { i64, i1 } @llvm.smul.with.overflow.i64(i64 %count, i64 %size)
  %_10.0 = extractvalue { i64, i1 } %0, 0
  %_10.1 = extractvalue { i64, i1 } %0, 1
  br i1 %_10.1, label %bb3, label %bb5

bb5:                                              ; preds = %start
  %self = ptrtoint ptr %this to i64
  %1 = call { i64, i1 } @llvm.uadd.with.overflow.i64(i64 %self, i64 %_10.0)
  %_19.0 = extractvalue { i64, i1 } %1, 0
  %_19.1 = extractvalue { i64, i1 } %1, 1
  %_17 = icmp slt i64 %_10.0, 0
  %overflow = xor i1 %_19.1, %_17
  %_4 = xor i1 %overflow, true
  br i1 %_4, label %bb1, label %bb2

bb3:                                              ; preds = %start
  br label %bb2

bb2:                                              ; preds = %bb3, %bb5
; call core::panicking::panic_nounwind
  call void @_ZN4core9panicking14panic_nounwind17h211d9ce8d63f12e7E(ptr align 1 @alloc_0ed0763d8bf93ac79247e07858374e35, i64 210) #6
  unreachable

bb1:                                              ; preds = %bb5
  ret void
}

; core::ptr::mut_ptr::<impl *mut T>::is_null
; Function Attrs: inlinehint nounwind nonlazybind
define internal zeroext i1 @"_ZN4core3ptr7mut_ptr31_$LT$impl$u20$$BP$mut$u20$T$GT$7is_null17h8a0a47e2b762351bE"(ptr %self) unnamed_addr #1 {
start:
  %_3 = ptrtoint ptr %self to i64
  %_0 = icmp eq i64 %_3, 0
  ret i1 %_0
}

; Function Attrs: nounwind nonlazybind
define void @init_pointer_array(ptr %node) unnamed_addr #2 {
start:
  %i = alloca [4 x i8], align 4
  store i32 0, ptr %i, align 4
  store i32 0, ptr %i, align 4
  br label %bb1

bb1:                                              ; preds = %bb6, %start
  %_4 = load i32, ptr %i, align 4
  %_3 = icmp slt i32 %_4, 26
  br i1 %_3, label %bb2, label %bb4

bb4:                                              ; preds = %bb1
  ret void

bb2:                                              ; preds = %bb1
  %_6 = load i32, ptr %i, align 4
  %_5 = sext i32 %_6 to i64
  %_7 = icmp ult i64 %_5, 26
  br i1 %_7, label %bb3, label %panic

bb3:                                              ; preds = %bb2
  %_9 = ptrtoint ptr %node to i64
  %_12 = and i64 %_9, 7
  %_13 = icmp eq i64 %_12, 0
  br i1 %_13, label %bb5, label %panic1

panic:                                            ; preds = %bb2
; call core::panicking::panic_bounds_check
  call void @_ZN4core9panicking18panic_bounds_check17h27d1e4f0cb1112dfE(i64 %_5, i64 26, ptr align 8 @alloc_f419bdf8ba44f99707e7fecac60bf9ff) #6
  unreachable

bb5:                                              ; preds = %bb3
  %_15 = ptrtoint ptr %node to i64
  %_18 = icmp eq i64 %_15, 0
  %_19 = and i1 %_18, true
  %_20 = xor i1 %_19, true
  br i1 %_20, label %bb6, label %panic2

panic1:                                           ; preds = %bb3
; call core::panicking::panic_misaligned_pointer_dereference
  call void @_ZN4core9panicking36panic_misaligned_pointer_dereference17hcc3cbded9382b6e5E(i64 8, i64 %_9, ptr align 8 @alloc_f419bdf8ba44f99707e7fecac60bf9ff) #6
  unreachable

bb6:                                              ; preds = %bb5
  %0 = getelementptr inbounds i8, ptr %node, i64 8
  %1 = getelementptr inbounds nuw ptr, ptr %0, i64 %_5
  store ptr null, ptr %1, align 8
  %2 = load i32, ptr %i, align 4
  %3 = add i32 %2, 1
  store i32 %3, ptr %i, align 4
  br label %bb1

panic2:                                           ; preds = %bb5
; call core::panicking::panic_null_pointer_dereference
  call void @_ZN4core9panicking30panic_null_pointer_dereference17hf718fcc86a223baaE(ptr align 8 @alloc_f419bdf8ba44f99707e7fecac60bf9ff) #6
  unreachable
}

; Function Attrs: nounwind nonlazybind
define ptr @create_tree() unnamed_addr #2 {
start:
  %_0 = alloca [8 x i8], align 8
  %_2 = call ptr @malloc(i64 216) #7
; call core::ptr::mut_ptr::<impl *mut T>::is_null
  %_5 = call zeroext i1 @"_ZN4core3ptr7mut_ptr31_$LT$impl$u20$$BP$mut$u20$T$GT$7is_null17h8a0a47e2b762351bE"(ptr %_2) #7
  br i1 %_5, label %bb4, label %bb5

bb5:                                              ; preds = %start
  %_8 = ptrtoint ptr %_2 to i64
  %_11 = and i64 %_8, 7
  %_12 = icmp eq i64 %_11, 0
  br i1 %_12, label %bb8, label %panic

bb4:                                              ; preds = %start
  store ptr null, ptr %_0, align 8
  br label %bb7

bb8:                                              ; preds = %bb5
  %_14 = ptrtoint ptr %_2 to i64
  %_17 = icmp eq i64 %_14, 0
  %_18 = and i1 %_17, true
  %_19 = xor i1 %_18, true
  br i1 %_19, label %bb9, label %panic1

panic:                                            ; preds = %bb5
; call core::panicking::panic_misaligned_pointer_dereference
  call void @_ZN4core9panicking36panic_misaligned_pointer_dereference17hcc3cbded9382b6e5E(i64 8, i64 %_8, ptr align 8 @alloc_a6c86c585b103f19fbcceab9c3144420) #6
  unreachable

bb9:                                              ; preds = %bb8
  store i32 -1, ptr %_2, align 8
  call void @init_pointer_array(ptr %_2) #7
  store ptr %_2, ptr %_0, align 8
  br label %bb7

panic1:                                           ; preds = %bb8
; call core::panicking::panic_null_pointer_dereference
  call void @_ZN4core9panicking30panic_null_pointer_dereference17hf718fcc86a223baaE(ptr align 8 @alloc_a6c86c585b103f19fbcceab9c3144420) #6
  unreachable

bb7:                                              ; preds = %bb4, %bb9
  %0 = load ptr, ptr %_0, align 8
  ret ptr %0
}

; Function Attrs: nounwind nonlazybind
define void @insert_node(ptr %root, ptr %name, i32 %value) unnamed_addr #2 {
start:
  %sp = alloca [4 x i8], align 4
  %new = alloca [8 x i8], align 8
  %now = alloca [8 x i8], align 8
  store ptr %root, ptr %now, align 8
  store ptr null, ptr %new, align 8
  store i32 0, ptr %sp, align 4
  %_8 = call i64 @strlen(ptr %name) #7
  %size = trunc i64 %_8 to i32
  br label %bb2

bb2:                                              ; preds = %bb28, %start
  %_11 = load i32, ptr %sp, align 4
  %_10 = icmp slt i32 %_11, %size
  br i1 %_10, label %bb3, label %bb18

bb18:                                             ; preds = %bb2
  %_50 = load ptr, ptr %now, align 8
  %_51 = ptrtoint ptr %_50 to i64
  %_54 = and i64 %_51, 7
  %_55 = icmp eq i64 %_54, 0
  br i1 %_55, label %bb20, label %panic

bb3:                                              ; preds = %bb2
  %_20 = load i32, ptr %sp, align 4
  %_19 = sext i32 %_20 to i64
; call core::ptr::mut_ptr::<impl *mut T>::offset::precondition_check
  call void @"_ZN4core3ptr7mut_ptr31_$LT$impl$u20$$BP$mut$u20$T$GT$6offset18precondition_check17h173c2260630ece85E"(ptr %name, i64 %_19, i64 1) #7
  %_0.i17 = getelementptr inbounds i8, ptr %name, i64 %_19
  %_130 = ptrtoint ptr %_0.i17 to i64
  %_133 = icmp eq i64 %_130, 0
  %_134 = and i1 %_133, true
  %_135 = xor i1 %_134, true
  br i1 %_135, label %bb32, label %panic2

bb20:                                             ; preds = %bb18
  %_108 = load ptr, ptr %now, align 8
  %_109 = ptrtoint ptr %_108 to i64
  %_112 = icmp eq i64 %_109, 0
  %_113 = and i1 %_112, true
  %_114 = xor i1 %_113, true
  br i1 %_114, label %bb29, label %panic1

panic:                                            ; preds = %bb18
; call core::panicking::panic_misaligned_pointer_dereference
  call void @_ZN4core9panicking36panic_misaligned_pointer_dereference17hcc3cbded9382b6e5E(i64 8, i64 %_51, ptr align 8 @alloc_bb689b693e85b438ed3fcda2b087a10d) #6
  unreachable

bb29:                                             ; preds = %bb20
  %0 = load ptr, ptr %now, align 8
  store i32 %value, ptr %0, align 8
  br label %bb19

panic1:                                           ; preds = %bb20
; call core::panicking::panic_null_pointer_dereference
  call void @_ZN4core9panicking30panic_null_pointer_dereference17hf718fcc86a223baaE(ptr align 8 @alloc_bb689b693e85b438ed3fcda2b087a10d) #6
  unreachable

bb19:                                             ; preds = %bb7, %bb29
  ret void

bb32:                                             ; preds = %bb3
  %_17 = load i8, ptr %_0.i17, align 1
  %_16 = sext i8 %_17 to i32
  %_15 = sub i32 %_16, 97
  %_14 = sext i32 %_15 to i64
  %_22 = icmp ult i64 %_14, 26
  br i1 %_22, label %bb5, label %panic3

panic2:                                           ; preds = %bb3
; call core::panicking::panic_null_pointer_dereference
  call void @_ZN4core9panicking30panic_null_pointer_dereference17hf718fcc86a223baaE(ptr align 8 @alloc_5d998626e21e4a1cf7e0ab7c988016c5) #6
  unreachable

bb5:                                              ; preds = %bb32
  %_74 = load ptr, ptr %now, align 8
  %_75 = ptrtoint ptr %_74 to i64
  %_78 = and i64 %_75, 7
  %_79 = icmp eq i64 %_78, 0
  br i1 %_79, label %bb24, label %panic4

panic3:                                           ; preds = %bb32
; call core::panicking::panic_bounds_check
  call void @_ZN4core9panicking18panic_bounds_check17h27d1e4f0cb1112dfE(i64 %_14, i64 26, ptr align 8 @alloc_57d91301e8dd48e07aa79cc6756d773a) #6
  unreachable

bb24:                                             ; preds = %bb5
  %_80 = load ptr, ptr %now, align 8
  %_81 = ptrtoint ptr %_80 to i64
  %_84 = icmp eq i64 %_81, 0
  %_85 = and i1 %_84, true
  %_86 = xor i1 %_85, true
  br i1 %_86, label %bb25, label %panic5

panic4:                                           ; preds = %bb5
; call core::panicking::panic_misaligned_pointer_dereference
  call void @_ZN4core9panicking36panic_misaligned_pointer_dereference17hcc3cbded9382b6e5E(i64 8, i64 %_75, ptr align 8 @alloc_57d91301e8dd48e07aa79cc6756d773a) #6
  unreachable

bb25:                                             ; preds = %bb24
  %1 = load ptr, ptr %now, align 8
  %2 = getelementptr inbounds i8, ptr %1, i64 8
  %3 = getelementptr inbounds nuw ptr, ptr %2, i64 %_14
  %_13 = load ptr, ptr %3, align 8
; call core::ptr::mut_ptr::<impl *mut T>::is_null
  %_12 = call zeroext i1 @"_ZN4core3ptr7mut_ptr31_$LT$impl$u20$$BP$mut$u20$T$GT$7is_null17h8a0a47e2b762351bE"(ptr %_13) #7
  br i1 %_12, label %bb7, label %bb15

panic5:                                           ; preds = %bb24
; call core::panicking::panic_null_pointer_dereference
  call void @_ZN4core9panicking30panic_null_pointer_dereference17hf718fcc86a223baaE(ptr align 8 @alloc_57d91301e8dd48e07aa79cc6756d773a) #6
  unreachable

bb15:                                             ; preds = %bb27, %bb25
  %_47 = load i32, ptr %sp, align 4
  %_46 = sext i32 %_47 to i64
; call core::ptr::mut_ptr::<impl *mut T>::offset::precondition_check
  call void @"_ZN4core3ptr7mut_ptr31_$LT$impl$u20$$BP$mut$u20$T$GT$6offset18precondition_check17h173c2260630ece85E"(ptr %name, i64 %_46, i64 1) #7
  %_0.i = getelementptr inbounds i8, ptr %name, i64 %_46
  %_116 = ptrtoint ptr %_0.i to i64
  %_119 = icmp eq i64 %_116, 0
  %_120 = and i1 %_119, true
  %_121 = xor i1 %_120, true
  br i1 %_121, label %bb30, label %panic12

bb7:                                              ; preds = %bb25
  %_23 = call ptr @malloc(i64 216) #7
  store ptr %_23, ptr %new, align 8
  %_27 = load ptr, ptr %new, align 8
; call core::ptr::mut_ptr::<impl *mut T>::is_null
  %_26 = call zeroext i1 @"_ZN4core3ptr7mut_ptr31_$LT$impl$u20$$BP$mut$u20$T$GT$7is_null17h8a0a47e2b762351bE"(ptr %_27) #7
  br i1 %_26, label %bb19, label %bb11

bb11:                                             ; preds = %bb7
  %_68 = load ptr, ptr %new, align 8
  %_69 = ptrtoint ptr %_68 to i64
  %_72 = and i64 %_69, 7
  %_73 = icmp eq i64 %_72, 0
  br i1 %_73, label %bb23, label %panic6

bb23:                                             ; preds = %bb11
  %_87 = load ptr, ptr %new, align 8
  %_88 = ptrtoint ptr %_87 to i64
  %_91 = icmp eq i64 %_88, 0
  %_92 = and i1 %_91, true
  %_93 = xor i1 %_92, true
  br i1 %_93, label %bb26, label %panic7

panic6:                                           ; preds = %bb11
; call core::panicking::panic_misaligned_pointer_dereference
  call void @_ZN4core9panicking36panic_misaligned_pointer_dereference17hcc3cbded9382b6e5E(i64 8, i64 %_69, ptr align 8 @alloc_e1985ce8fa42495757cece8b70c20fa3) #6
  unreachable

bb26:                                             ; preds = %bb23
  %4 = load ptr, ptr %new, align 8
  store i32 -1, ptr %4, align 8
  %_29 = load ptr, ptr %new, align 8
  call void @init_pointer_array(ptr %_29) #7
  %_30 = load ptr, ptr %new, align 8
  %_37 = load i32, ptr %sp, align 4
  %_36 = sext i32 %_37 to i64
; call core::ptr::mut_ptr::<impl *mut T>::offset::precondition_check
  call void @"_ZN4core3ptr7mut_ptr31_$LT$impl$u20$$BP$mut$u20$T$GT$6offset18precondition_check17h173c2260630ece85E"(ptr %name, i64 %_36, i64 1) #7
  %_0.i16 = getelementptr inbounds i8, ptr %name, i64 %_36
  %_123 = ptrtoint ptr %_0.i16 to i64
  %_126 = icmp eq i64 %_123, 0
  %_127 = and i1 %_126, true
  %_128 = xor i1 %_127, true
  br i1 %_128, label %bb31, label %panic8

panic7:                                           ; preds = %bb23
; call core::panicking::panic_null_pointer_dereference
  call void @_ZN4core9panicking30panic_null_pointer_dereference17hf718fcc86a223baaE(ptr align 8 @alloc_e1985ce8fa42495757cece8b70c20fa3) #6
  unreachable

bb31:                                             ; preds = %bb26
  %_34 = load i8, ptr %_0.i16, align 1
  %_33 = sext i8 %_34 to i32
  %_32 = sub i32 %_33, 97
  %_31 = sext i32 %_32 to i64
  %_39 = icmp ult i64 %_31, 26
  br i1 %_39, label %bb14, label %panic9

panic8:                                           ; preds = %bb26
; call core::panicking::panic_null_pointer_dereference
  call void @_ZN4core9panicking30panic_null_pointer_dereference17hf718fcc86a223baaE(ptr align 8 @alloc_aa923b994ca5766d365ed2d3f5d4bd4a) #6
  unreachable

bb14:                                             ; preds = %bb31
  %_62 = load ptr, ptr %now, align 8
  %_63 = ptrtoint ptr %_62 to i64
  %_66 = and i64 %_63, 7
  %_67 = icmp eq i64 %_66, 0
  br i1 %_67, label %bb22, label %panic10

panic9:                                           ; preds = %bb31
; call core::panicking::panic_bounds_check
  call void @_ZN4core9panicking18panic_bounds_check17h27d1e4f0cb1112dfE(i64 %_31, i64 26, ptr align 8 @alloc_9d5717b4b074bb65c7f6dbd462dd54ba) #6
  unreachable

bb22:                                             ; preds = %bb14
  %_94 = load ptr, ptr %now, align 8
  %_95 = ptrtoint ptr %_94 to i64
  %_98 = icmp eq i64 %_95, 0
  %_99 = and i1 %_98, true
  %_100 = xor i1 %_99, true
  br i1 %_100, label %bb27, label %panic11

panic10:                                          ; preds = %bb14
; call core::panicking::panic_misaligned_pointer_dereference
  call void @_ZN4core9panicking36panic_misaligned_pointer_dereference17hcc3cbded9382b6e5E(i64 8, i64 %_63, ptr align 8 @alloc_9d5717b4b074bb65c7f6dbd462dd54ba) #6
  unreachable

bb27:                                             ; preds = %bb22
  %5 = load ptr, ptr %now, align 8
  %6 = getelementptr inbounds i8, ptr %5, i64 8
  %7 = getelementptr inbounds nuw ptr, ptr %6, i64 %_31
  store ptr %_30, ptr %7, align 8
  br label %bb15

panic11:                                          ; preds = %bb22
; call core::panicking::panic_null_pointer_dereference
  call void @_ZN4core9panicking30panic_null_pointer_dereference17hf718fcc86a223baaE(ptr align 8 @alloc_9d5717b4b074bb65c7f6dbd462dd54ba) #6
  unreachable

bb30:                                             ; preds = %bb15
  %_44 = load i8, ptr %_0.i, align 1
  %_43 = sext i8 %_44 to i32
  %_42 = sub i32 %_43, 97
  %_41 = sext i32 %_42 to i64
  %_49 = icmp ult i64 %_41, 26
  br i1 %_49, label %bb17, label %panic13

panic12:                                          ; preds = %bb15
; call core::panicking::panic_null_pointer_dereference
  call void @_ZN4core9panicking30panic_null_pointer_dereference17hf718fcc86a223baaE(ptr align 8 @alloc_f5047b7b2a7471ec2d0e0880b8b664f5) #6
  unreachable

bb17:                                             ; preds = %bb30
  %_56 = load ptr, ptr %now, align 8
  %_57 = ptrtoint ptr %_56 to i64
  %_60 = and i64 %_57, 7
  %_61 = icmp eq i64 %_60, 0
  br i1 %_61, label %bb21, label %panic14

panic13:                                          ; preds = %bb30
; call core::panicking::panic_bounds_check
  call void @_ZN4core9panicking18panic_bounds_check17h27d1e4f0cb1112dfE(i64 %_41, i64 26, ptr align 8 @alloc_1b079427a9a2d0fa28f6d95417650b17) #6
  unreachable

bb21:                                             ; preds = %bb17
  %_101 = load ptr, ptr %now, align 8
  %_102 = ptrtoint ptr %_101 to i64
  %_105 = icmp eq i64 %_102, 0
  %_106 = and i1 %_105, true
  %_107 = xor i1 %_106, true
  br i1 %_107, label %bb28, label %panic15

panic14:                                          ; preds = %bb17
; call core::panicking::panic_misaligned_pointer_dereference
  call void @_ZN4core9panicking36panic_misaligned_pointer_dereference17hcc3cbded9382b6e5E(i64 8, i64 %_57, ptr align 8 @alloc_1b079427a9a2d0fa28f6d95417650b17) #6
  unreachable

bb28:                                             ; preds = %bb21
  %8 = load ptr, ptr %now, align 8
  %9 = getelementptr inbounds i8, ptr %8, i64 8
  %10 = getelementptr inbounds nuw ptr, ptr %9, i64 %_41
  %_40 = load ptr, ptr %10, align 8
  store ptr %_40, ptr %now, align 8
  %11 = load i32, ptr %sp, align 4
  %12 = add i32 %11, 1
  store i32 %12, ptr %sp, align 4
  br label %bb2

panic15:                                          ; preds = %bb21
; call core::panicking::panic_null_pointer_dereference
  call void @_ZN4core9panicking30panic_null_pointer_dereference17hf718fcc86a223baaE(ptr align 8 @alloc_1b079427a9a2d0fa28f6d95417650b17) #6
  unreachable
}

; Function Attrs: nounwind nonlazybind
define void @insert_node_r(ptr %root, ptr %name, i32 %step, i32 %size, i32 %value) unnamed_addr #2 {
start:
  %_6 = icmp eq i32 %step, %size
  br i1 %_6, label %bb17, label %bb1

bb1:                                              ; preds = %start
  %_9 = sext i32 %step to i64
; call core::ptr::mut_ptr::<impl *mut T>::offset::precondition_check
  call void @"_ZN4core3ptr7mut_ptr31_$LT$impl$u20$$BP$mut$u20$T$GT$6offset18precondition_check17h173c2260630ece85E"(ptr %name, i64 %_9, i64 1) #7
  %_0.i = getelementptr inbounds i8, ptr %name, i64 %_9
  %_110 = ptrtoint ptr %_0.i to i64
  %_113 = icmp eq i64 %_110, 0
  %_114 = and i1 %_113, true
  %_115 = xor i1 %_114, true
  br i1 %_115, label %bb28, label %panic

bb17:                                             ; preds = %bb27, %bb5, %start
  ret void

bb28:                                             ; preds = %bb1
  %ch = load i8, ptr %_0.i, align 1
  %_13 = sext i8 %ch to i32
  %_12 = sub i32 %_13, 97
  %_11 = sext i32 %_12 to i64
  %_15 = icmp ult i64 %_11, 26
  br i1 %_15, label %bb3, label %panic1

panic:                                            ; preds = %bb1
; call core::panicking::panic_null_pointer_dereference
  call void @_ZN4core9panicking30panic_null_pointer_dereference17hf718fcc86a223baaE(ptr align 8 @alloc_424ad9139af85f88f9da8820ad2abfbe) #6
  unreachable

bb3:                                              ; preds = %bb28
  %_69 = ptrtoint ptr %root to i64
  %_72 = and i64 %_69, 7
  %_73 = icmp eq i64 %_72, 0
  br i1 %_73, label %bb22, label %panic2

panic1:                                           ; preds = %bb28
; call core::panicking::panic_bounds_check
  call void @_ZN4core9panicking18panic_bounds_check17h27d1e4f0cb1112dfE(i64 %_11, i64 26, ptr align 8 @alloc_f7e891cf846f52b69818edacae6409e0) #6
  unreachable

bb22:                                             ; preds = %bb3
  %_75 = ptrtoint ptr %root to i64
  %_78 = icmp eq i64 %_75, 0
  %_79 = and i1 %_78, true
  %_80 = xor i1 %_79, true
  br i1 %_80, label %bb23, label %panic3

panic2:                                           ; preds = %bb3
; call core::panicking::panic_misaligned_pointer_dereference
  call void @_ZN4core9panicking36panic_misaligned_pointer_dereference17hcc3cbded9382b6e5E(i64 8, i64 %_69, ptr align 8 @alloc_f7e891cf846f52b69818edacae6409e0) #6
  unreachable

bb23:                                             ; preds = %bb22
  %0 = getelementptr inbounds i8, ptr %root, i64 8
  %1 = getelementptr inbounds nuw ptr, ptr %0, i64 %_11
  %cur = load ptr, ptr %1, align 8
; call core::ptr::mut_ptr::<impl *mut T>::is_null
  %_16 = call zeroext i1 @"_ZN4core3ptr7mut_ptr31_$LT$impl$u20$$BP$mut$u20$T$GT$7is_null17h8a0a47e2b762351bE"(ptr %cur) #7
  br i1 %_16, label %bb5, label %bb12

panic3:                                           ; preds = %bb22
; call core::panicking::panic_null_pointer_dereference
  call void @_ZN4core9panicking30panic_null_pointer_dereference17hf718fcc86a223baaE(ptr align 8 @alloc_f7e891cf846f52b69818edacae6409e0) #6
  unreachable

bb12:                                             ; preds = %bb25, %bb23
  %_29 = sub i32 %size, 1
  %_28 = icmp eq i32 %step, %_29
  br i1 %_28, label %bb13, label %bb15

bb5:                                              ; preds = %bb23
  %_18 = call ptr @malloc(i64 216) #7
; call core::ptr::mut_ptr::<impl *mut T>::is_null
  %_21 = call zeroext i1 @"_ZN4core3ptr7mut_ptr31_$LT$impl$u20$$BP$mut$u20$T$GT$7is_null17h8a0a47e2b762351bE"(ptr %_18) #7
  br i1 %_21, label %bb17, label %bb9

bb9:                                              ; preds = %bb5
  %_24 = sext i8 %ch to i32
  %_23 = sub i32 %_24, 97
  %_22 = sext i32 %_23 to i64
  %_26 = icmp ult i64 %_22, 26
  br i1 %_26, label %bb10, label %panic4

bb10:                                             ; preds = %bb9
  %_63 = ptrtoint ptr %root to i64
  %_66 = and i64 %_63, 7
  %_67 = icmp eq i64 %_66, 0
  br i1 %_67, label %bb21, label %panic5

panic4:                                           ; preds = %bb9
; call core::panicking::panic_bounds_check
  call void @_ZN4core9panicking18panic_bounds_check17h27d1e4f0cb1112dfE(i64 %_22, i64 26, ptr align 8 @alloc_ee4fe3b1d9f7a13931cc35ca11abe9b0) #6
  unreachable

bb21:                                             ; preds = %bb10
  %_82 = ptrtoint ptr %root to i64
  %_85 = icmp eq i64 %_82, 0
  %_86 = and i1 %_85, true
  %_87 = xor i1 %_86, true
  br i1 %_87, label %bb24, label %panic6

panic5:                                           ; preds = %bb10
; call core::panicking::panic_misaligned_pointer_dereference
  call void @_ZN4core9panicking36panic_misaligned_pointer_dereference17hcc3cbded9382b6e5E(i64 8, i64 %_63, ptr align 8 @alloc_ee4fe3b1d9f7a13931cc35ca11abe9b0) #6
  unreachable

bb24:                                             ; preds = %bb21
  %2 = getelementptr inbounds i8, ptr %root, i64 8
  %3 = getelementptr inbounds nuw ptr, ptr %2, i64 %_22
  store ptr %_18, ptr %3, align 8
  call void @init_pointer_array(ptr %_18) #7
  %_57 = ptrtoint ptr %_18 to i64
  %_60 = and i64 %_57, 7
  %_61 = icmp eq i64 %_60, 0
  br i1 %_61, label %bb20, label %panic7

panic6:                                           ; preds = %bb21
; call core::panicking::panic_null_pointer_dereference
  call void @_ZN4core9panicking30panic_null_pointer_dereference17hf718fcc86a223baaE(ptr align 8 @alloc_ee4fe3b1d9f7a13931cc35ca11abe9b0) #6
  unreachable

bb20:                                             ; preds = %bb24
  %_89 = ptrtoint ptr %_18 to i64
  %_92 = icmp eq i64 %_89, 0
  %_93 = and i1 %_92, true
  %_94 = xor i1 %_93, true
  br i1 %_94, label %bb25, label %panic8

panic7:                                           ; preds = %bb24
; call core::panicking::panic_misaligned_pointer_dereference
  call void @_ZN4core9panicking36panic_misaligned_pointer_dereference17hcc3cbded9382b6e5E(i64 8, i64 %_57, ptr align 8 @alloc_adf1c524da88c689910ca147895919eb) #6
  unreachable

bb25:                                             ; preds = %bb20
  store i32 -1, ptr %_18, align 8
  br label %bb12

panic8:                                           ; preds = %bb20
; call core::panicking::panic_null_pointer_dereference
  call void @_ZN4core9panicking30panic_null_pointer_dereference17hf718fcc86a223baaE(ptr align 8 @alloc_adf1c524da88c689910ca147895919eb) #6
  unreachable

bb15:                                             ; preds = %bb26, %bb12
  %_39 = sext i8 %ch to i32
  %_38 = sub i32 %_39, 97
  %_37 = sext i32 %_38 to i64
  %_41 = icmp ult i64 %_37, 26
  br i1 %_41, label %bb16, label %panic12

bb13:                                             ; preds = %bb12
  %_32 = sext i8 %ch to i32
  %_31 = sub i32 %_32, 97
  %_30 = sext i32 %_31 to i64
  %_34 = icmp ult i64 %_30, 26
  br i1 %_34, label %bb14, label %panic9

bb14:                                             ; preds = %bb13
  %4 = getelementptr inbounds i8, ptr %root, i64 8
  %5 = getelementptr inbounds nuw ptr, ptr %4, i64 %_30
  %_43 = load ptr, ptr %5, align 8
  %_51 = ptrtoint ptr %_43 to i64
  %_54 = and i64 %_51, 7
  %_55 = icmp eq i64 %_54, 0
  br i1 %_55, label %bb19, label %panic10

panic9:                                           ; preds = %bb13
; call core::panicking::panic_bounds_check
  call void @_ZN4core9panicking18panic_bounds_check17h27d1e4f0cb1112dfE(i64 %_30, i64 26, ptr align 8 @alloc_1a91262cb014a58a71e2df99019abffe) #6
  unreachable

bb19:                                             ; preds = %bb14
  %_96 = ptrtoint ptr %_43 to i64
  %_99 = icmp eq i64 %_96, 0
  %_100 = and i1 %_99, true
  %_101 = xor i1 %_100, true
  br i1 %_101, label %bb26, label %panic11

panic10:                                          ; preds = %bb14
; call core::panicking::panic_misaligned_pointer_dereference
  call void @_ZN4core9panicking36panic_misaligned_pointer_dereference17hcc3cbded9382b6e5E(i64 8, i64 %_51, ptr align 8 @alloc_f60bb59bae9fdbf37b53969edd55058a) #6
  unreachable

bb26:                                             ; preds = %bb19
  store i32 %value, ptr %_43, align 8
  br label %bb15

panic11:                                          ; preds = %bb19
; call core::panicking::panic_null_pointer_dereference
  call void @_ZN4core9panicking30panic_null_pointer_dereference17hf718fcc86a223baaE(ptr align 8 @alloc_f60bb59bae9fdbf37b53969edd55058a) #6
  unreachable

bb16:                                             ; preds = %bb15
  %_45 = ptrtoint ptr %root to i64
  %_48 = and i64 %_45, 7
  %_49 = icmp eq i64 %_48, 0
  br i1 %_49, label %bb18, label %panic13

panic12:                                          ; preds = %bb15
; call core::panicking::panic_bounds_check
  call void @_ZN4core9panicking18panic_bounds_check17h27d1e4f0cb1112dfE(i64 %_37, i64 26, ptr align 8 @alloc_35903e2beae833791f15e8c3785889c6) #6
  unreachable

bb18:                                             ; preds = %bb16
  %_103 = ptrtoint ptr %root to i64
  %_106 = icmp eq i64 %_103, 0
  %_107 = and i1 %_106, true
  %_108 = xor i1 %_107, true
  br i1 %_108, label %bb27, label %panic14

panic13:                                          ; preds = %bb16
; call core::panicking::panic_misaligned_pointer_dereference
  call void @_ZN4core9panicking36panic_misaligned_pointer_dereference17hcc3cbded9382b6e5E(i64 8, i64 %_45, ptr align 8 @alloc_35903e2beae833791f15e8c3785889c6) #6
  unreachable

bb27:                                             ; preds = %bb18
  %6 = getelementptr inbounds i8, ptr %root, i64 8
  %7 = getelementptr inbounds nuw ptr, ptr %6, i64 %_37
  %_36 = load ptr, ptr %7, align 8
  %_42 = add i32 %step, 1
  call void @insert_node_r(ptr %_36, ptr %name, i32 %_42, i32 %size, i32 %value) #7
  br label %bb17

panic14:                                          ; preds = %bb18
; call core::panicking::panic_null_pointer_dereference
  call void @_ZN4core9panicking30panic_null_pointer_dereference17hf718fcc86a223baaE(ptr align 8 @alloc_35903e2beae833791f15e8c3785889c6) #6
  unreachable
}

; Function Attrs: nounwind nonlazybind
define i32 @search_tree(ptr %root, ptr %name) unnamed_addr #2 {
start:
  %i = alloca [4 x i8], align 4
  %now = alloca [8 x i8], align 8
  %retval = alloca [4 x i8], align 4
  %ch = alloca [1 x i8], align 1
  %_0 = alloca [4 x i8], align 4
  %_4 = call i64 @strlen(ptr %name) #7
  %size = trunc i64 %_4 to i32
  store i8 0, ptr %ch, align 1
  store i32 -1, ptr %retval, align 4
  store ptr %root, ptr %now, align 8
  store i32 0, ptr %i, align 4
  br label %bb2

bb2:                                              ; preds = %bb8, %start
  %_11 = load i32, ptr %i, align 4
  %_10 = icmp slt i32 %_11, %size
  br i1 %_10, label %bb3, label %bb9

bb9:                                              ; preds = %bb2
  %_26 = load ptr, ptr %now, align 8
  %_27 = ptrtoint ptr %_26 to i64
  %_30 = and i64 %_27, 7
  %_31 = icmp eq i64 %_30, 0
  br i1 %_31, label %bb11, label %panic

bb3:                                              ; preds = %bb2
  %_15 = load i32, ptr %i, align 4
  %_14 = sext i32 %_15 to i64
; call core::ptr::mut_ptr::<impl *mut T>::offset::precondition_check
  call void @"_ZN4core3ptr7mut_ptr31_$LT$impl$u20$$BP$mut$u20$T$GT$6offset18precondition_check17h173c2260630ece85E"(ptr %name, i64 %_14, i64 1) #7
  %_0.i = getelementptr inbounds i8, ptr %name, i64 %_14
  %_53 = ptrtoint ptr %_0.i to i64
  %_56 = icmp eq i64 %_53, 0
  %_57 = and i1 %_56, true
  %_58 = xor i1 %_57, true
  br i1 %_58, label %bb15, label %panic2

bb11:                                             ; preds = %bb9
  %_45 = load ptr, ptr %now, align 8
  %_46 = ptrtoint ptr %_45 to i64
  %_49 = icmp eq i64 %_46, 0
  %_50 = and i1 %_49, true
  %_51 = xor i1 %_50, true
  br i1 %_51, label %bb14, label %panic1

panic:                                            ; preds = %bb9
; call core::panicking::panic_misaligned_pointer_dereference
  call void @_ZN4core9panicking36panic_misaligned_pointer_dereference17hcc3cbded9382b6e5E(i64 8, i64 %_27, ptr align 8 @alloc_f4383e430531e6650e775e3cb6beadcb) #6
  unreachable

bb14:                                             ; preds = %bb11
  %0 = load ptr, ptr %now, align 8
  %_25 = load i32, ptr %0, align 8
  store i32 %_25, ptr %retval, align 4
  %1 = load i32, ptr %retval, align 4
  store i32 %1, ptr %_0, align 4
  br label %bb10

panic1:                                           ; preds = %bb11
; call core::panicking::panic_null_pointer_dereference
  call void @_ZN4core9panicking30panic_null_pointer_dereference17hf718fcc86a223baaE(ptr align 8 @alloc_f4383e430531e6650e775e3cb6beadcb) #6
  unreachable

bb10:                                             ; preds = %bb7, %bb14
  %2 = load i32, ptr %_0, align 4
  ret i32 %2

bb15:                                             ; preds = %bb3
  %_12 = load i8, ptr %_0.i, align 1
  store i8 %_12, ptr %ch, align 1
  %_20 = load i8, ptr %ch, align 1
  %_19 = sext i8 %_20 to i32
  %_18 = sub i32 %_19, 97
  %_17 = sext i32 %_18 to i64
  %_22 = icmp ult i64 %_17, 26
  br i1 %_22, label %bb5, label %panic3

panic2:                                           ; preds = %bb3
; call core::panicking::panic_null_pointer_dereference
  call void @_ZN4core9panicking30panic_null_pointer_dereference17hf718fcc86a223baaE(ptr align 8 @alloc_6ce0681cf6a3e7a2443eaf471d0d6082) #6
  unreachable

bb5:                                              ; preds = %bb15
  %_32 = load ptr, ptr %now, align 8
  %_33 = ptrtoint ptr %_32 to i64
  %_36 = and i64 %_33, 7
  %_37 = icmp eq i64 %_36, 0
  br i1 %_37, label %bb12, label %panic4

panic3:                                           ; preds = %bb15
; call core::panicking::panic_bounds_check
  call void @_ZN4core9panicking18panic_bounds_check17h27d1e4f0cb1112dfE(i64 %_17, i64 26, ptr align 8 @alloc_ab85193e43b967d5ce5d31a56b8d7f8e) #6
  unreachable

bb12:                                             ; preds = %bb5
  %_38 = load ptr, ptr %now, align 8
  %_39 = ptrtoint ptr %_38 to i64
  %_42 = icmp eq i64 %_39, 0
  %_43 = and i1 %_42, true
  %_44 = xor i1 %_43, true
  br i1 %_44, label %bb13, label %panic5

panic4:                                           ; preds = %bb5
; call core::panicking::panic_misaligned_pointer_dereference
  call void @_ZN4core9panicking36panic_misaligned_pointer_dereference17hcc3cbded9382b6e5E(i64 8, i64 %_33, ptr align 8 @alloc_ab85193e43b967d5ce5d31a56b8d7f8e) #6
  unreachable

bb13:                                             ; preds = %bb12
  %3 = load ptr, ptr %now, align 8
  %4 = getelementptr inbounds i8, ptr %3, i64 8
  %5 = getelementptr inbounds nuw ptr, ptr %4, i64 %_17
  %_16 = load ptr, ptr %5, align 8
  store ptr %_16, ptr %now, align 8
  %_24 = load ptr, ptr %now, align 8
; call core::ptr::mut_ptr::<impl *mut T>::is_null
  %_23 = call zeroext i1 @"_ZN4core3ptr7mut_ptr31_$LT$impl$u20$$BP$mut$u20$T$GT$7is_null17h8a0a47e2b762351bE"(ptr %_24) #7
  br i1 %_23, label %bb7, label %bb8

panic5:                                           ; preds = %bb12
; call core::panicking::panic_null_pointer_dereference
  call void @_ZN4core9panicking30panic_null_pointer_dereference17hf718fcc86a223baaE(ptr align 8 @alloc_ab85193e43b967d5ce5d31a56b8d7f8e) #6
  unreachable

bb8:                                              ; preds = %bb13
  %6 = load i32, ptr %i, align 4
  %7 = add i32 %6, 1
  store i32 %7, ptr %i, align 4
  br label %bb2

bb7:                                              ; preds = %bb13
  store i32 -1, ptr %_0, align 4
  br label %bb10
}

; Function Attrs: nounwind nonlazybind
define i32 @search_tree_r(ptr %root, ptr %name, i32 %step, i32 %size) unnamed_addr #2 {
start:
  %_0 = alloca [4 x i8], align 4
  %_6 = sub i32 %size, 1
  %_5 = icmp sgt i32 %step, %_6
  br i1 %_5, label %bb1, label %bb2

bb2:                                              ; preds = %start
  %_9 = sext i32 %step to i64
; call core::ptr::mut_ptr::<impl *mut T>::offset::precondition_check
  call void @"_ZN4core3ptr7mut_ptr31_$LT$impl$u20$$BP$mut$u20$T$GT$6offset18precondition_check17h173c2260630ece85E"(ptr %name, i64 %_9, i64 1) #7
  %_0.i = getelementptr inbounds i8, ptr %name, i64 %_9
  %_66 = ptrtoint ptr %_0.i to i64
  %_69 = icmp eq i64 %_66, 0
  %_70 = and i1 %_69, true
  %_71 = xor i1 %_70, true
  br i1 %_71, label %bb18, label %panic

bb1:                                              ; preds = %start
  store i32 -1, ptr %_0, align 4
  br label %bb11

bb18:                                             ; preds = %bb2
  %ch = load i8, ptr %_0.i, align 1
  %_13 = sext i8 %ch to i32
  %_12 = sub i32 %_13, 97
  %_11 = sext i32 %_12 to i64
  %_15 = icmp ult i64 %_11, 26
  br i1 %_15, label %bb4, label %panic1

panic:                                            ; preds = %bb2
; call core::panicking::panic_null_pointer_dereference
  call void @_ZN4core9panicking30panic_null_pointer_dereference17hf718fcc86a223baaE(ptr align 8 @alloc_25c2b3548881b0c95686f5ccbb4ffef3) #6
  unreachable

bb4:                                              ; preds = %bb18
  %_39 = ptrtoint ptr %root to i64
  %_42 = and i64 %_39, 7
  %_43 = icmp eq i64 %_42, 0
  br i1 %_43, label %bb14, label %panic2

panic1:                                           ; preds = %bb18
; call core::panicking::panic_bounds_check
  call void @_ZN4core9panicking18panic_bounds_check17h27d1e4f0cb1112dfE(i64 %_11, i64 26, ptr align 8 @alloc_fe2ab1856956b4384276a97703ba115f) #6
  unreachable

bb14:                                             ; preds = %bb4
  %_45 = ptrtoint ptr %root to i64
  %_48 = icmp eq i64 %_45, 0
  %_49 = and i1 %_48, true
  %_50 = xor i1 %_49, true
  br i1 %_50, label %bb15, label %panic3

panic2:                                           ; preds = %bb4
; call core::panicking::panic_misaligned_pointer_dereference
  call void @_ZN4core9panicking36panic_misaligned_pointer_dereference17hcc3cbded9382b6e5E(i64 8, i64 %_39, ptr align 8 @alloc_fe2ab1856956b4384276a97703ba115f) #6
  unreachable

bb15:                                             ; preds = %bb14
  %0 = getelementptr inbounds i8, ptr %root, i64 8
  %1 = getelementptr inbounds nuw ptr, ptr %0, i64 %_11
  %cur = load ptr, ptr %1, align 8
; call core::ptr::mut_ptr::<impl *mut T>::is_null
  %_16 = call zeroext i1 @"_ZN4core3ptr7mut_ptr31_$LT$impl$u20$$BP$mut$u20$T$GT$7is_null17h8a0a47e2b762351bE"(ptr %cur) #7
  br i1 %_16, label %bb6, label %bb7

panic3:                                           ; preds = %bb14
; call core::panicking::panic_null_pointer_dereference
  call void @_ZN4core9panicking30panic_null_pointer_dereference17hf718fcc86a223baaE(ptr align 8 @alloc_fe2ab1856956b4384276a97703ba115f) #6
  unreachable

bb7:                                              ; preds = %bb15
  %_18 = sub i32 %size, 1
  %_17 = icmp eq i32 %step, %_18
  br i1 %_17, label %bb8, label %bb9

bb6:                                              ; preds = %bb15
  store i32 -1, ptr %_0, align 4
  br label %bb11

bb9:                                              ; preds = %bb7
  %_22 = sext i8 %ch to i32
  %_21 = sub i32 %_22, 97
  %_20 = sext i32 %_21 to i64
  %_24 = icmp ult i64 %_20, 26
  br i1 %_24, label %bb10, label %panic4

bb8:                                              ; preds = %bb7
  %_33 = ptrtoint ptr %cur to i64
  %_36 = and i64 %_33, 7
  %_37 = icmp eq i64 %_36, 0
  br i1 %_37, label %bb13, label %panic7

bb10:                                             ; preds = %bb9
  %_27 = ptrtoint ptr %root to i64
  %_30 = and i64 %_27, 7
  %_31 = icmp eq i64 %_30, 0
  br i1 %_31, label %bb12, label %panic5

panic4:                                           ; preds = %bb9
; call core::panicking::panic_bounds_check
  call void @_ZN4core9panicking18panic_bounds_check17h27d1e4f0cb1112dfE(i64 %_20, i64 26, ptr align 8 @alloc_e31e5a586f4f7e29755cd30ae2a86c49) #6
  unreachable

bb12:                                             ; preds = %bb10
  %_59 = ptrtoint ptr %root to i64
  %_62 = icmp eq i64 %_59, 0
  %_63 = and i1 %_62, true
  %_64 = xor i1 %_63, true
  br i1 %_64, label %bb17, label %panic6

panic5:                                           ; preds = %bb10
; call core::panicking::panic_misaligned_pointer_dereference
  call void @_ZN4core9panicking36panic_misaligned_pointer_dereference17hcc3cbded9382b6e5E(i64 8, i64 %_27, ptr align 8 @alloc_e31e5a586f4f7e29755cd30ae2a86c49) #6
  unreachable

bb17:                                             ; preds = %bb12
  %2 = getelementptr inbounds i8, ptr %root, i64 8
  %3 = getelementptr inbounds nuw ptr, ptr %2, i64 %_20
  %_19 = load ptr, ptr %3, align 8
  %_25 = add i32 %step, 1
  %4 = call i32 @search_tree_r(ptr %_19, ptr %name, i32 %_25, i32 %size) #7
  store i32 %4, ptr %_0, align 4
  br label %bb11

panic6:                                           ; preds = %bb12
; call core::panicking::panic_null_pointer_dereference
  call void @_ZN4core9panicking30panic_null_pointer_dereference17hf718fcc86a223baaE(ptr align 8 @alloc_e31e5a586f4f7e29755cd30ae2a86c49) #6
  unreachable

bb11:                                             ; preds = %bb1, %bb6, %bb16, %bb17
  %5 = load i32, ptr %_0, align 4
  ret i32 %5

bb13:                                             ; preds = %bb8
  %_52 = ptrtoint ptr %cur to i64
  %_55 = icmp eq i64 %_52, 0
  %_56 = and i1 %_55, true
  %_57 = xor i1 %_56, true
  br i1 %_57, label %bb16, label %panic8

panic7:                                           ; preds = %bb8
; call core::panicking::panic_misaligned_pointer_dereference
  call void @_ZN4core9panicking36panic_misaligned_pointer_dereference17hcc3cbded9382b6e5E(i64 8, i64 %_33, ptr align 8 @alloc_c0ffd8bb6199500482fed097e59cd212) #6
  unreachable

bb16:                                             ; preds = %bb13
  %6 = load i32, ptr %cur, align 8
  store i32 %6, ptr %_0, align 4
  br label %bb11

panic8:                                           ; preds = %bb13
; call core::panicking::panic_null_pointer_dereference
  call void @_ZN4core9panicking30panic_null_pointer_dereference17hf718fcc86a223baaE(ptr align 8 @alloc_c0ffd8bb6199500482fed097e59cd212) #6
  unreachable
}

; Function Attrs: nounwind nonlazybind
define void @destory_tree(ptr %root) unnamed_addr #2 {
start:
  %i = alloca [4 x i8], align 4
  store i32 0, ptr %i, align 4
; call core::ptr::mut_ptr::<impl *mut T>::is_null
  %_3 = call zeroext i1 @"_ZN4core3ptr7mut_ptr31_$LT$impl$u20$$BP$mut$u20$T$GT$7is_null17h8a0a47e2b762351bE"(ptr %root) #7
  br i1 %_3, label %bb8, label %bb2

bb2:                                              ; preds = %start
  store i32 0, ptr %i, align 4
  br label %bb3

bb8:                                              ; preds = %bb7, %start
  ret void

bb3:                                              ; preds = %bb10, %bb2
  %_5 = load i32, ptr %i, align 4
  %_4 = icmp slt i32 %_5, 26
  br i1 %_4, label %bb4, label %bb7

bb7:                                              ; preds = %bb3
  call void @free(ptr %root) #7
  br label %bb8

bb4:                                              ; preds = %bb3
  %_9 = load i32, ptr %i, align 4
  %_8 = sext i32 %_9 to i64
  %_10 = icmp ult i64 %_8, 26
  br i1 %_10, label %bb5, label %panic

bb5:                                              ; preds = %bb4
  %_14 = ptrtoint ptr %root to i64
  %_17 = and i64 %_14, 7
  %_18 = icmp eq i64 %_17, 0
  br i1 %_18, label %bb9, label %panic1

panic:                                            ; preds = %bb4
; call core::panicking::panic_bounds_check
  call void @_ZN4core9panicking18panic_bounds_check17h27d1e4f0cb1112dfE(i64 %_8, i64 26, ptr align 8 @alloc_a8e6fc16c6713d71570bd687e69266ed) #6
  unreachable

bb9:                                              ; preds = %bb5
  %_20 = ptrtoint ptr %root to i64
  %_23 = icmp eq i64 %_20, 0
  %_24 = and i1 %_23, true
  %_25 = xor i1 %_24, true
  br i1 %_25, label %bb10, label %panic2

panic1:                                           ; preds = %bb5
; call core::panicking::panic_misaligned_pointer_dereference
  call void @_ZN4core9panicking36panic_misaligned_pointer_dereference17hcc3cbded9382b6e5E(i64 8, i64 %_14, ptr align 8 @alloc_a8e6fc16c6713d71570bd687e69266ed) #6
  unreachable

bb10:                                             ; preds = %bb9
  %0 = getelementptr inbounds i8, ptr %root, i64 8
  %1 = getelementptr inbounds nuw ptr, ptr %0, i64 %_8
  %_7 = load ptr, ptr %1, align 8
  call void @destory_tree(ptr %_7) #7
  %2 = load i32, ptr %i, align 4
  %3 = add i32 %2, 1
  store i32 %3, ptr %i, align 4
  br label %bb3

panic2:                                           ; preds = %bb9
; call core::panicking::panic_null_pointer_dereference
  call void @_ZN4core9panicking30panic_null_pointer_dereference17hf718fcc86a223baaE(ptr align 8 @alloc_a8e6fc16c6713d71570bd687e69266ed) #6
  unreachable
}

; Function Attrs: nocallback nofree nosync nounwind speculatable willreturn memory(none)
declare { i64, i1 } @llvm.smul.with.overflow.i64(i64, i64) #3

; Function Attrs: nocallback nofree nosync nounwind speculatable willreturn memory(none)
declare { i64, i1 } @llvm.uadd.with.overflow.i64(i64, i64) #3

; core::panicking::panic_nounwind
; Function Attrs: cold noinline noreturn nounwind nonlazybind
declare void @_ZN4core9panicking14panic_nounwind17h211d9ce8d63f12e7E(ptr align 1, i64) unnamed_addr #4

; core::panicking::panic_bounds_check
; Function Attrs: cold minsize noinline noreturn nounwind nonlazybind optsize
declare void @_ZN4core9panicking18panic_bounds_check17h27d1e4f0cb1112dfE(i64, i64, ptr align 8) unnamed_addr #5

; core::panicking::panic_misaligned_pointer_dereference
; Function Attrs: cold minsize noinline noreturn nounwind nonlazybind optsize
declare void @_ZN4core9panicking36panic_misaligned_pointer_dereference17hcc3cbded9382b6e5E(i64, i64, ptr align 8) unnamed_addr #5

; core::panicking::panic_null_pointer_dereference
; Function Attrs: cold minsize noinline noreturn nounwind nonlazybind optsize
declare void @_ZN4core9panicking30panic_null_pointer_dereference17hf718fcc86a223baaE(ptr align 8) unnamed_addr #5

; Function Attrs: nounwind nonlazybind
declare ptr @malloc(i64) unnamed_addr #2

; Function Attrs: nounwind nonlazybind
declare i64 @strlen(ptr) unnamed_addr #2

; Function Attrs: nounwind nonlazybind
declare void @free(ptr) unnamed_addr #2

attributes #0 = { cold nounwind nonlazybind "probe-stack"="inline-asm" "target-cpu"="x86-64" }
attributes #1 = { inlinehint nounwind nonlazybind "probe-stack"="inline-asm" "target-cpu"="x86-64" }
attributes #2 = { nounwind nonlazybind "probe-stack"="inline-asm" "target-cpu"="x86-64" }
attributes #3 = { nocallback nofree nosync nounwind speculatable willreturn memory(none) }
attributes #4 = { cold noinline noreturn nounwind nonlazybind "probe-stack"="inline-asm" "target-cpu"="x86-64" }
attributes #5 = { cold minsize noinline noreturn nounwind nonlazybind optsize "probe-stack"="inline-asm" "target-cpu"="x86-64" }
attributes #6 = { noreturn nounwind }
attributes #7 = { nounwind }

!llvm.module.flags = !{!0, !1}
!llvm.ident = !{!2}

!0 = !{i32 8, !"PIC Level", i32 2}
!1 = !{i32 2, !"RtLibUseGOT", i32 1}
!2 = !{!"rustc version 1.88.0-nightly (0b45675cf 2025-03-31)"}
