; ModuleID = 'c15ptaqp7283rlzdcmwhqax2z'
source_filename = "c15ptaqp7283rlzdcmwhqax2z"
target datalayout = "e-m:e-p270:32:32-p271:32:32-p272:64:64-i64:64-i128:128-f80:128-n8:16:32:64-S128"
target triple = "x86_64-unknown-linux-gnu"

@front = global [8 x i8] zeroinitializer, align 8
@rear = global [8 x i8] zeroinitializer, align 8
@alloc_f5ffd2fd1476bab43ad89fb40c72d0c5 = private unnamed_addr constant [10 x i8] c"src/lib.rs", align 1
@alloc_b27ebd3a40138308000e20c678d5dd0d = private unnamed_addr constant <{ ptr, [16 x i8] }> <{ ptr @alloc_f5ffd2fd1476bab43ad89fb40c72d0c5, [16 x i8] c"\0A\00\00\00\00\00\00\00*\00\00\00\08\00\00\00" }>, align 8
@alloc_4e3ff73cb4aa406a4013163e0e6d9fc3 = private unnamed_addr constant <{ ptr, [16 x i8] }> <{ ptr @alloc_f5ffd2fd1476bab43ad89fb40c72d0c5, [16 x i8] c"\0A\00\00\00\00\00\00\001\00\00\00 \00\00\00" }>, align 8
@alloc_4acdf9f8a6f605e29bc2f6f2a25d56ef = private unnamed_addr constant <{ ptr, [16 x i8] }> <{ ptr @alloc_f5ffd2fd1476bab43ad89fb40c72d0c5, [16 x i8] c"\0A\00\00\00\00\00\00\002\00\00\00\0D\00\00\00" }>, align 8
@alloc_986f51c15bf0dd85cf78c1f20d429dda = private unnamed_addr constant <{ ptr, [16 x i8] }> <{ ptr @alloc_f5ffd2fd1476bab43ad89fb40c72d0c5, [16 x i8] c"\0A\00\00\00\00\00\00\002\00\00\00\05\00\00\00" }>, align 8
@alloc_46df392ea07edd81a33e408b823981d3 = private unnamed_addr constant <{ ptr, [16 x i8] }> <{ ptr @alloc_f5ffd2fd1476bab43ad89fb40c72d0c5, [16 x i8] c"\0A\00\00\00\00\00\00\008\00\00\00\0C\00\00\00" }>, align 8
@alloc_97b6e9eeafae4e34c39f5731f03026e0 = private unnamed_addr constant <{ ptr, [16 x i8] }> <{ ptr @alloc_f5ffd2fd1476bab43ad89fb40c72d0c5, [16 x i8] c"\0A\00\00\00\00\00\00\00?\00\00\00\05\00\00\00" }>, align 8
@alloc_a9bed11e068a4fa8759066f97915337d = private unnamed_addr constant <{ ptr, [16 x i8] }> <{ ptr @alloc_f5ffd2fd1476bab43ad89fb40c72d0c5, [16 x i8] c"\0A\00\00\00\00\00\00\00@\00\00\00\05\00\00\00" }>, align 8
@alloc_471abc257d620f3a22391b14253c02f1 = private unnamed_addr constant <{ ptr, [16 x i8] }> <{ ptr @alloc_f5ffd2fd1476bab43ad89fb40c72d0c5, [16 x i8] c"\0A\00\00\00\00\00\00\00A\00\00\00\08\00\00\00" }>, align 8
@alloc_60670a1f879f2e84fdd27bf0491b6f6c = private unnamed_addr constant <{ ptr, [16 x i8] }> <{ ptr @alloc_f5ffd2fd1476bab43ad89fb40c72d0c5, [16 x i8] c"\0A\00\00\00\00\00\00\00A\00\00\00\1B\00\00\00" }>, align 8
@alloc_b9f89588b5c398670791de052c8461bf = private unnamed_addr constant <{ ptr, [16 x i8] }> <{ ptr @alloc_f5ffd2fd1476bab43ad89fb40c72d0c5, [16 x i8] c"\0A\00\00\00\00\00\00\00F\00\00\00\05\00\00\00" }>, align 8
@alloc_ee77b197ce841c113b18b9c150190dc5 = private unnamed_addr constant <{ ptr, [16 x i8] }> <{ ptr @alloc_f5ffd2fd1476bab43ad89fb40c72d0c5, [16 x i8] c"\0A\00\00\00\00\00\00\00G\00\00\00\05\00\00\00" }>, align 8
@alloc_f963e84091f1b4f6d75083fa3939b2a5 = private unnamed_addr constant <{ ptr, [16 x i8] }> <{ ptr @alloc_f5ffd2fd1476bab43ad89fb40c72d0c5, [16 x i8] c"\0A\00\00\00\00\00\00\00B\00\00\00\09\00\00\00" }>, align 8
@alloc_ad1fa4bbf300af84abe55433501ca3d5 = private unnamed_addr constant <{ ptr, [16 x i8] }> <{ ptr @alloc_f5ffd2fd1476bab43ad89fb40c72d0c5, [16 x i8] c"\0A\00\00\00\00\00\00\00C\00\00\00\11\00\00\00" }>, align 8
@alloc_244e6eb3bd83764d82a7032323e809dc = private unnamed_addr constant <{ ptr, [16 x i8] }> <{ ptr @alloc_f5ffd2fd1476bab43ad89fb40c72d0c5, [16 x i8] c"\0A\00\00\00\00\00\00\00C\00\00\00\09\00\00\00" }>, align 8
@alloc_b0dc3419ba98fe2a0cdebecee6164449 = private unnamed_addr constant <{ ptr, [16 x i8] }> <{ ptr @alloc_f5ffd2fd1476bab43ad89fb40c72d0c5, [16 x i8] c"\0A\00\00\00\00\00\00\00M\00\00\00\05\00\00\00" }>, align 8
@alloc_d276e58b0b165cf6e7ab175535023059 = private unnamed_addr constant <{ ptr, [16 x i8] }> <{ ptr @alloc_f5ffd2fd1476bab43ad89fb40c72d0c5, [16 x i8] c"\0A\00\00\00\00\00\00\00N\00\00\00\05\00\00\00" }>, align 8
@alloc_6fbbe498723ac7f1a024e3e35d079c2e = private unnamed_addr constant <{ ptr, [16 x i8] }> <{ ptr @alloc_f5ffd2fd1476bab43ad89fb40c72d0c5, [16 x i8] c"\0A\00\00\00\00\00\00\00O\00\00\00\05\00\00\00" }>, align 8
@alloc_1866c614f19a53741a041dfb5dd4a0ec = private unnamed_addr constant <{ ptr, [16 x i8] }> <{ ptr @alloc_f5ffd2fd1476bab43ad89fb40c72d0c5, [16 x i8] c"\0A\00\00\00\00\00\00\00W\00\00\00\0F\00\00\00" }>, align 8
@alloc_f1e77296c904d9a18450aa101f6c16ae = private unnamed_addr constant <{ ptr, [16 x i8] }> <{ ptr @alloc_f5ffd2fd1476bab43ad89fb40c72d0c5, [16 x i8] c"\0A\00\00\00\00\00\00\00X\00\00\00\0F\00\00\00" }>, align 8
@alloc_b929c71616281bfd1be2bd4038d3ddf1 = private unnamed_addr constant [4 x i8] c"%d \00", align 1
@alloc_a824bd9675a037ad13bd11897522ee05 = private unnamed_addr constant <{ ptr, [16 x i8] }> <{ ptr @alloc_f5ffd2fd1476bab43ad89fb40c72d0c5, [16 x i8] c"\0A\00\00\00\00\00\00\00Y\00\00\00:\00\00\00" }>, align 8
@alloc_355a3f744890de0f196fe96fbb20357e = private unnamed_addr constant <{ ptr, [16 x i8] }> <{ ptr @alloc_f5ffd2fd1476bab43ad89fb40c72d0c5, [16 x i8] c"\0A\00\00\00\00\00\00\00]\00\00\00\0C\00\00\00" }>, align 8
@alloc_41c3733695587231cf0982a7cc06ad02 = private unnamed_addr constant <{ ptr, [16 x i8] }> <{ ptr @alloc_f5ffd2fd1476bab43ad89fb40c72d0c5, [16 x i8] c"\0A\00\00\00\00\00\00\00^\00\00\00\10\00\00\00" }>, align 8
@alloc_68e6a7f1defc7cdd28db10d106a3382b = private unnamed_addr constant <{ ptr, [16 x i8] }> <{ ptr @alloc_f5ffd2fd1476bab43ad89fb40c72d0c5, [16 x i8] c"\0A\00\00\00\00\00\00\00j\00\00\00>\00\00\00" }>, align 8
@alloc_6142d5ac17e158aac58f671d4ea5aedf = private unnamed_addr constant <{ ptr, [16 x i8] }> <{ ptr @alloc_f5ffd2fd1476bab43ad89fb40c72d0c5, [16 x i8] c"\0A\00\00\00\00\00\00\00k\00\00\00\0D\00\00\00" }>, align 8
@alloc_15514ee6ef183cd6e998536d6887fc9c = private unnamed_addr constant <{ ptr, [16 x i8] }> <{ ptr @alloc_f5ffd2fd1476bab43ad89fb40c72d0c5, [16 x i8] c"\0A\00\00\00\00\00\00\00l\00\00\00\14\00\00\00" }>, align 8
@alloc_8f226039eb518008340a7477715fa328 = private unnamed_addr constant <{ ptr, [16 x i8] }> <{ ptr @alloc_f5ffd2fd1476bab43ad89fb40c72d0c5, [16 x i8] c"\0A\00\00\00\00\00\00\00n\00\00\00\0D\00\00\00" }>, align 8
@alloc_4945213f010ec058c2aa9ed87a8d2cd5 = private unnamed_addr constant <{ ptr, [16 x i8] }> <{ ptr @alloc_f5ffd2fd1476bab43ad89fb40c72d0c5, [16 x i8] c"\0A\00\00\00\00\00\00\00o\00\00\00\14\00\00\00" }>, align 8
@alloc_e6276aff1d866e84a8b24ff217180624 = private unnamed_addr constant <{ ptr, [16 x i8] }> <{ ptr @alloc_f5ffd2fd1476bab43ad89fb40c72d0c5, [16 x i8] c"\0A\00\00\00\00\00\00\00{\00\00\00\16\00\00\00" }>, align 8
@alloc_631f85da2e4bb5702b83d8f702a8f788 = private unnamed_addr constant <{ ptr, [16 x i8] }> <{ ptr @alloc_f5ffd2fd1476bab43ad89fb40c72d0c5, [16 x i8] c"\0A\00\00\00\00\00\00\00}\00\00\00\16\00\00\00" }>, align 8
@alloc_1b9e4dcc03c398f38899d58ffd4a5373 = private unnamed_addr constant <{ ptr, [16 x i8] }> <{ ptr @alloc_f5ffd2fd1476bab43ad89fb40c72d0c5, [16 x i8] c"\0A\00\00\00\00\00\00\00\7F\00\00\00\0F\00\00\00" }>, align 8
@alloc_7e7b8b47e019dbf744c6008f3eba9e98 = private unnamed_addr constant <{ ptr, [16 x i8] }> <{ ptr @alloc_f5ffd2fd1476bab43ad89fb40c72d0c5, [16 x i8] c"\0A\00\00\00\00\00\00\00\7F\00\00\00+\00\00\00" }>, align 8
@alloc_a7c2003bdad2783744c13a37d3619fd3 = private unnamed_addr constant <{ ptr, [16 x i8] }> <{ ptr @alloc_f5ffd2fd1476bab43ad89fb40c72d0c5, [16 x i8] c"\0A\00\00\00\00\00\00\00\82\00\00\00\10\00\00\00" }>, align 8
@alloc_468666b9980c5998ca890251c8431350 = private unnamed_addr constant <{ ptr, [16 x i8] }> <{ ptr @alloc_f5ffd2fd1476bab43ad89fb40c72d0c5, [16 x i8] c"\0A\00\00\00\00\00\00\00\82\00\00\00,\00\00\00" }>, align 8
@alloc_b9b54bbbc80a86d296254d5a9932b6ed = private unnamed_addr constant <{ ptr, [16 x i8] }> <{ ptr @alloc_f5ffd2fd1476bab43ad89fb40c72d0c5, [16 x i8] c"\0A\00\00\00\00\00\00\00\83\00\00\00#\00\00\00" }>, align 8
@alloc_3bfaba31af56cdc4b718edd6d2680f31 = private unnamed_addr constant <{ ptr, [16 x i8] }> <{ ptr @alloc_f5ffd2fd1476bab43ad89fb40c72d0c5, [16 x i8] c"\0A\00\00\00\00\00\00\00\85\00\00\00\10\00\00\00" }>, align 8
@alloc_1bde55f592e87209333373f3bc0d3f6d = private unnamed_addr constant <{ ptr, [16 x i8] }> <{ ptr @alloc_f5ffd2fd1476bab43ad89fb40c72d0c5, [16 x i8] c"\0A\00\00\00\00\00\00\00\86\00\00\00\10\00\00\00" }>, align 8
@alloc_dee79d1aedeb2cb84e13e784fb421e3d = private unnamed_addr constant <{ ptr, [16 x i8] }> <{ ptr @alloc_f5ffd2fd1476bab43ad89fb40c72d0c5, [16 x i8] c"\0A\00\00\00\00\00\00\00\86\00\00\00-\00\00\00" }>, align 8
@alloc_f914766313394ce1e96b53a63d009b7b = private unnamed_addr constant <{ ptr, [16 x i8] }> <{ ptr @alloc_f5ffd2fd1476bab43ad89fb40c72d0c5, [16 x i8] c"\0A\00\00\00\00\00\00\00\87\00\00\00%\00\00\00" }>, align 8
@alloc_04a3820dbcf8cad21cd71733ab175e24 = private unnamed_addr constant <{ ptr, [16 x i8] }> <{ ptr @alloc_f5ffd2fd1476bab43ad89fb40c72d0c5, [16 x i8] c"\0A\00\00\00\00\00\00\00\89\00\00\00\10\00\00\00" }>, align 8
@alloc_51e1537fbfd753a605709c6c8025d5e0 = private unnamed_addr constant <{ ptr, [16 x i8] }> <{ ptr @alloc_f5ffd2fd1476bab43ad89fb40c72d0c5, [16 x i8] c"\0A\00\00\00\00\00\00\00\8B\00\00\00-\00\00\00" }>, align 8
@alloc_2654dc7def34d47cdfcc93da64a23e77 = private unnamed_addr constant <{ ptr, [16 x i8] }> <{ ptr @alloc_f5ffd2fd1476bab43ad89fb40c72d0c5, [16 x i8] c"\0A\00\00\00\00\00\00\00\8C\00\00\00\18\00\00\00" }>, align 8
@alloc_51defa837211d00b128e9b5e60ecda6b = private unnamed_addr constant <{ ptr, [16 x i8] }> <{ ptr @alloc_f5ffd2fd1476bab43ad89fb40c72d0c5, [16 x i8] c"\0A\00\00\00\00\00\00\00\8C\00\00\00\09\00\00\00" }>, align 8
@alloc_dfdd4f95a0d55b6011eb2462b2995686 = private unnamed_addr constant <{ ptr, [16 x i8] }> <{ ptr @alloc_f5ffd2fd1476bab43ad89fb40c72d0c5, [16 x i8] c"\0A\00\00\00\00\00\00\00\8D\00\00\00 \00\00\00" }>, align 8
@alloc_d21f69c11108631f60cd143fb78821ba = private unnamed_addr constant <{ ptr, [16 x i8] }> <{ ptr @alloc_f5ffd2fd1476bab43ad89fb40c72d0c5, [16 x i8] c"\0A\00\00\00\00\00\00\00\8D\00\00\00/\00\00\00" }>, align 8
@alloc_5086773ec26bb191205697fb7e200158 = private unnamed_addr constant <{ ptr, [16 x i8] }> <{ ptr @alloc_f5ffd2fd1476bab43ad89fb40c72d0c5, [16 x i8] c"\0A\00\00\00\00\00\00\00\8D\00\00\00\09\00\00\00" }>, align 8
@alloc_a4662f6fd94336b9873518ffeaecdcd3 = private unnamed_addr constant <{ ptr, [16 x i8] }> <{ ptr @alloc_f5ffd2fd1476bab43ad89fb40c72d0c5, [16 x i8] c"\0A\00\00\00\00\00\00\00~\00\00\00 \00\00\00" }>, align 8
@alloc_a36005e6c8643271d28bd8edf2a6f760 = private unnamed_addr constant <{ ptr, [16 x i8] }> <{ ptr @alloc_f5ffd2fd1476bab43ad89fb40c72d0c5, [16 x i8] c"\0A\00\00\00\00\00\00\00~\00\00\00\09\00\00\00" }>, align 8
@alloc_41f1647ad5a89793e802692c1e607fb8 = private unnamed_addr constant <{ ptr, [16 x i8] }> <{ ptr @alloc_f5ffd2fd1476bab43ad89fb40c72d0c5, [16 x i8] c"\0A\00\00\00\00\00\00\00|\00\00\00\1F\00\00\00" }>, align 8
@alloc_6315b79dba6f789e11adb693d3b81db7 = private unnamed_addr constant <{ ptr, [16 x i8] }> <{ ptr @alloc_f5ffd2fd1476bab43ad89fb40c72d0c5, [16 x i8] c"\0A\00\00\00\00\00\00\00|\00\00\00\09\00\00\00" }>, align 8
@alloc_d001b09c086a85d14a47a443b009a847 = private unnamed_addr constant <{ ptr, [16 x i8] }> <{ ptr @alloc_f5ffd2fd1476bab43ad89fb40c72d0c5, [16 x i8] c"\0A\00\00\00\00\00\00\00\96\00\00\00\0D\00\00\00" }>, align 8
@alloc_18a675f0cc80dedef6ef97c152af57d0 = private unnamed_addr constant <{ ptr, [16 x i8] }> <{ ptr @alloc_f5ffd2fd1476bab43ad89fb40c72d0c5, [16 x i8] c"\0A\00\00\00\00\00\00\00\97\00\00\00:\00\00\00" }>, align 8
@alloc_c090ea4dcad52cd9bc3f5f80b1234d4b = private unnamed_addr constant <{ ptr, [16 x i8] }> <{ ptr @alloc_f5ffd2fd1476bab43ad89fb40c72d0c5, [16 x i8] c"\0A\00\00\00\00\00\00\00\98\00\00\00\0D\00\00\00" }>, align 8
@alloc_0c62ed0cba4c4d9797beec9484ce14a8 = private unnamed_addr constant <{ ptr, [16 x i8] }> <{ ptr @alloc_f5ffd2fd1476bab43ad89fb40c72d0c5, [16 x i8] c"\0A\00\00\00\00\00\00\00\9F\00\00\00:\00\00\00" }>, align 8
@alloc_09cd250ef24fc6cb0ae9fd797d1efb9f = private unnamed_addr constant <{ ptr, [16 x i8] }> <{ ptr @alloc_f5ffd2fd1476bab43ad89fb40c72d0c5, [16 x i8] c"\0A\00\00\00\00\00\00\00\A0\00\00\00\0E\00\00\00" }>, align 8
@alloc_4ebce55db500fbfdbc875571b5ba4fba = private unnamed_addr constant <{ ptr, [16 x i8] }> <{ ptr @alloc_f5ffd2fd1476bab43ad89fb40c72d0c5, [16 x i8] c"\0A\00\00\00\00\00\00\00\A1\00\00\00\0E\00\00\00" }>, align 8
@alloc_9450494837c46cb598ac4576d953219c = private unnamed_addr constant <{ ptr, [16 x i8] }> <{ ptr @alloc_f5ffd2fd1476bab43ad89fb40c72d0c5, [16 x i8] c"\0A\00\00\00\00\00\00\00\AA\00\00\00\17\00\00\00" }>, align 8
@alloc_356506cbe4d07568940c3752a46ec0f5 = private unnamed_addr constant <{ ptr, [16 x i8] }> <{ ptr @alloc_f5ffd2fd1476bab43ad89fb40c72d0c5, [16 x i8] c"\0A\00\00\00\00\00\00\00\AD\00\00\00 \00\00\00" }>, align 8
@alloc_1a43451fc8747931e3d27fcde00adc6d = private unnamed_addr constant <{ ptr, [16 x i8] }> <{ ptr @alloc_f5ffd2fd1476bab43ad89fb40c72d0c5, [16 x i8] c"\0A\00\00\00\00\00\00\00\AD\00\00\00\09\00\00\00" }>, align 8
@alloc_14a46479966c578f72dbcfb0e91d298b = private unnamed_addr constant <{ ptr, [16 x i8] }> <{ ptr @alloc_f5ffd2fd1476bab43ad89fb40c72d0c5, [16 x i8] c"\0A\00\00\00\00\00\00\00\AB\00\00\00\1F\00\00\00" }>, align 8
@alloc_968b0e883763e8906b9c402220b7dabf = private unnamed_addr constant <{ ptr, [16 x i8] }> <{ ptr @alloc_f5ffd2fd1476bab43ad89fb40c72d0c5, [16 x i8] c"\0A\00\00\00\00\00\00\00\AB\00\00\00\09\00\00\00" }>, align 8
@alloc_fe141ebba56e6baed5206f169e4c3734 = private unnamed_addr constant [24 x i8] c"\0A\0APreOrder traversal : \00", align 1
@alloc_f0d69aa8ea9fe79e830d057fcc71e683 = private unnamed_addr constant [25 x i8] c"\0AInorder traversal  :   \00", align 1
@alloc_caab855f7f98515b7c1efe9acfffa98d = private unnamed_addr constant [25 x i8] c"\0APostOrder traversal:   \00", align 1
@alloc_b216cee520430dcb9f956e0552e36e0b = private unnamed_addr constant [26 x i8] c"\0A Level Order Traversal: \00", align 1

; core::ptr::mut_ptr::<impl *mut T>::is_null
; Function Attrs: inlinehint nounwind nonlazybind
define internal zeroext i1 @"_ZN4core3ptr7mut_ptr31_$LT$impl$u20$$BP$mut$u20$T$GT$7is_null17h2657ec1842293a3cE"(ptr %self) unnamed_addr #0 {
start:
  %_3 = ptrtoint ptr %self to i64
  %_0 = icmp eq i64 %_3, 0
  ret i1 %_0
}

; core::ptr::mut_ptr::<impl *mut T>::is_null
; Function Attrs: inlinehint nounwind nonlazybind
define internal zeroext i1 @"_ZN4core3ptr7mut_ptr31_$LT$impl$u20$$BP$mut$u20$T$GT$7is_null17hd6c673561803199fE"(ptr %self) unnamed_addr #0 {
start:
  %_3 = ptrtoint ptr %self to i64
  %_0 = icmp eq i64 %_3, 0
  ret i1 %_0
}

; Function Attrs: nounwind nonlazybind
define i32 @isEmpty() unnamed_addr #1 {
start:
  %_0 = alloca [4 x i8], align 4
  %_14 = icmp eq i64 ptrtoint (ptr @front to i64), 0
  %_15 = and i1 %_14, true
  %_16 = xor i1 %_15, true
  br i1 %_16, label %bb6, label %panic

bb6:                                              ; preds = %start
  %_2 = load ptr, ptr @front, align 8
; call core::ptr::mut_ptr::<impl *mut T>::is_null
  %_1 = call zeroext i1 @"_ZN4core3ptr7mut_ptr31_$LT$impl$u20$$BP$mut$u20$T$GT$7is_null17h2657ec1842293a3cE"(ptr %_2) #3
  br i1 %_1, label %bb2, label %bb3

panic:                                            ; preds = %start
; call core::panicking::panic_null_pointer_dereference
  call void @_ZN4core9panicking30panic_null_pointer_dereference17hf718fcc86a223baaE(ptr align 8 @alloc_b27ebd3a40138308000e20c678d5dd0d) #4
  unreachable

bb3:                                              ; preds = %bb6
  store i32 0, ptr %_0, align 4
  br label %bb4

bb2:                                              ; preds = %bb6
  store i32 1, ptr %_0, align 4
  br label %bb4

bb4:                                              ; preds = %bb2, %bb3
  %0 = load i32, ptr %_0, align 4
  ret i32 %0
}

; Function Attrs: nounwind nonlazybind
define void @Pop() unnamed_addr #1 {
start:
  %_1 = call i32 @isEmpty() #3
  %0 = icmp eq i32 %_1, 0
  br i1 %0, label %bb2, label %bb3

bb2:                                              ; preds = %start
  %_32 = icmp eq i64 ptrtoint (ptr @front to i64), 0
  %_33 = and i1 %_32, true
  %_34 = xor i1 %_33, true
  br i1 %_34, label %bb7, label %panic

bb3:                                              ; preds = %bb9, %start
  ret void

bb7:                                              ; preds = %bb2
  %temp = load ptr, ptr @front, align 8
  %_9 = load ptr, ptr @front, align 8
  %_17 = ptrtoint ptr %_9 to i64
  %_20 = and i64 %_17, 7
  %_21 = icmp eq i64 %_20, 0
  br i1 %_21, label %bb5, label %panic1

panic:                                            ; preds = %bb2
; call core::panicking::panic_null_pointer_dereference
  call void @_ZN4core9panicking30panic_null_pointer_dereference17hf718fcc86a223baaE(ptr align 8 @alloc_4e3ff73cb4aa406a4013163e0e6d9fc3) #4
  unreachable

bb5:                                              ; preds = %bb7
  %_36 = ptrtoint ptr %_9 to i64
  %_39 = icmp eq i64 %_36, 0
  %_40 = and i1 %_39, true
  %_41 = xor i1 %_40, true
  br i1 %_41, label %bb8, label %panic2

panic1:                                           ; preds = %bb7
; call core::panicking::panic_misaligned_pointer_dereference
  call void @_ZN4core9panicking36panic_misaligned_pointer_dereference17hcc3cbded9382b6e5E(i64 8, i64 %_17, ptr align 8 @alloc_4acdf9f8a6f605e29bc2f6f2a25d56ef) #4
  unreachable

bb8:                                              ; preds = %bb5
  %1 = getelementptr inbounds i8, ptr %_9, i64 8
  %_4 = load ptr, ptr %1, align 8
  %_46 = icmp eq i64 ptrtoint (ptr @front to i64), 0
  %_47 = and i1 %_46, true
  %_48 = xor i1 %_47, true
  br i1 %_48, label %bb9, label %panic3

panic2:                                           ; preds = %bb5
; call core::panicking::panic_null_pointer_dereference
  call void @_ZN4core9panicking30panic_null_pointer_dereference17hf718fcc86a223baaE(ptr align 8 @alloc_4acdf9f8a6f605e29bc2f6f2a25d56ef) #4
  unreachable

bb9:                                              ; preds = %bb8
  store ptr %_4, ptr @front, align 8
  call void @free(ptr %temp) #3
  br label %bb3

panic3:                                           ; preds = %bb8
; call core::panicking::panic_null_pointer_dereference
  call void @_ZN4core9panicking30panic_null_pointer_dereference17hf718fcc86a223baaE(ptr align 8 @alloc_986f51c15bf0dd85cf78c1f20d429dda) #4
  unreachable
}

; Function Attrs: nounwind nonlazybind
define ptr @Pfront() unnamed_addr #1 {
start:
  %temp = alloca [8 x i8], align 8
  store ptr null, ptr %temp, align 8
  %_4 = load ptr, ptr @front, align 8
  %_6 = ptrtoint ptr %_4 to i64
  %_9 = and i64 %_6, 7
  %_10 = icmp eq i64 %_9, 0
  br i1 %_10, label %bb1, label %panic

bb1:                                              ; preds = %start
  %_12 = ptrtoint ptr %_4 to i64
  %_15 = icmp eq i64 %_12, 0
  %_16 = and i1 %_15, true
  %_17 = xor i1 %_16, true
  br i1 %_17, label %bb2, label %panic1

panic:                                            ; preds = %start
; call core::panicking::panic_misaligned_pointer_dereference
  call void @_ZN4core9panicking36panic_misaligned_pointer_dereference17hcc3cbded9382b6e5E(i64 8, i64 %_6, ptr align 8 @alloc_46df392ea07edd81a33e408b823981d3) #4
  unreachable

bb2:                                              ; preds = %bb1
  %_2 = load ptr, ptr %_4, align 8
  store ptr %_2, ptr %temp, align 8
  %_0 = load ptr, ptr %temp, align 8
  ret ptr %_0

panic1:                                           ; preds = %bb1
; call core::panicking::panic_null_pointer_dereference
  call void @_ZN4core9panicking30panic_null_pointer_dereference17hf718fcc86a223baaE(ptr align 8 @alloc_46df392ea07edd81a33e408b823981d3) #4
  unreachable
}

; Function Attrs: nounwind nonlazybind
define void @Enqeue(ptr %data) unnamed_addr #1 {
start:
  %temp = alloca [8 x i8], align 8
  store ptr null, ptr %temp, align 8
  %_3 = call ptr @malloc(i64 16) #3
  store ptr %_3, ptr %temp, align 8
  %_70 = load ptr, ptr %temp, align 8
  %_71 = ptrtoint ptr %_70 to i64
  %_74 = and i64 %_71, 7
  %_75 = icmp eq i64 %_74, 0
  br i1 %_75, label %bb17, label %panic

bb17:                                             ; preds = %start
  %_76 = load ptr, ptr %temp, align 8
  %_77 = ptrtoint ptr %_76 to i64
  %_80 = icmp eq i64 %_77, 0
  %_81 = and i1 %_80, true
  %_82 = xor i1 %_81, true
  br i1 %_82, label %bb18, label %panic1

panic:                                            ; preds = %start
; call core::panicking::panic_misaligned_pointer_dereference
  call void @_ZN4core9panicking36panic_misaligned_pointer_dereference17hcc3cbded9382b6e5E(i64 8, i64 %_71, ptr align 8 @alloc_97b6e9eeafae4e34c39f5731f03026e0) #4
  unreachable

bb18:                                             ; preds = %bb17
  %0 = load ptr, ptr %temp, align 8
  store ptr %data, ptr %0, align 8
  %_64 = load ptr, ptr %temp, align 8
  %_65 = ptrtoint ptr %_64 to i64
  %_68 = and i64 %_65, 7
  %_69 = icmp eq i64 %_68, 0
  br i1 %_69, label %bb16, label %panic2

panic1:                                           ; preds = %bb17
; call core::panicking::panic_null_pointer_dereference
  call void @_ZN4core9panicking30panic_null_pointer_dereference17hf718fcc86a223baaE(ptr align 8 @alloc_97b6e9eeafae4e34c39f5731f03026e0) #4
  unreachable

bb16:                                             ; preds = %bb18
  %_83 = load ptr, ptr %temp, align 8
  %_84 = ptrtoint ptr %_83 to i64
  %_87 = icmp eq i64 %_84, 0
  %_88 = and i1 %_87, true
  %_89 = xor i1 %_88, true
  br i1 %_89, label %bb19, label %panic3

panic2:                                           ; preds = %bb18
; call core::panicking::panic_misaligned_pointer_dereference
  call void @_ZN4core9panicking36panic_misaligned_pointer_dereference17hcc3cbded9382b6e5E(i64 8, i64 %_65, ptr align 8 @alloc_a9bed11e068a4fa8759066f97915337d) #4
  unreachable

bb19:                                             ; preds = %bb16
  %1 = load ptr, ptr %temp, align 8
  %2 = getelementptr inbounds i8, ptr %1, i64 8
  store ptr null, ptr %2, align 8
  %_94 = icmp eq i64 ptrtoint (ptr @front to i64), 0
  %_95 = and i1 %_94, true
  %_96 = xor i1 %_95, true
  br i1 %_96, label %bb20, label %panic4

panic3:                                           ; preds = %bb16
; call core::panicking::panic_null_pointer_dereference
  call void @_ZN4core9panicking30panic_null_pointer_dereference17hf718fcc86a223baaE(ptr align 8 @alloc_a9bed11e068a4fa8759066f97915337d) #4
  unreachable

bb20:                                             ; preds = %bb19
  %_7 = load ptr, ptr @front, align 8
; call core::ptr::mut_ptr::<impl *mut T>::is_null
  %_6 = call zeroext i1 @"_ZN4core3ptr7mut_ptr31_$LT$impl$u20$$BP$mut$u20$T$GT$7is_null17h2657ec1842293a3cE"(ptr %_7) #3
  br i1 %_6, label %bb4, label %bb7

panic4:                                           ; preds = %bb19
; call core::panicking::panic_null_pointer_dereference
  call void @_ZN4core9panicking30panic_null_pointer_dereference17hf718fcc86a223baaE(ptr align 8 @alloc_471abc257d620f3a22391b14253c02f1) #4
  unreachable

bb7:                                              ; preds = %bb21, %bb20
  %_17 = load ptr, ptr %temp, align 8
  %_21 = load ptr, ptr @rear, align 8
  %_29 = ptrtoint ptr %_21 to i64
  %_32 = and i64 %_29, 7
  %_33 = icmp eq i64 %_32, 0
  br i1 %_33, label %bb10, label %panic6

bb4:                                              ; preds = %bb20
  %_101 = icmp eq i64 ptrtoint (ptr @rear to i64), 0
  %_102 = and i1 %_101, true
  %_103 = xor i1 %_102, true
  br i1 %_103, label %bb21, label %panic5

bb21:                                             ; preds = %bb4
  %_10 = load ptr, ptr @rear, align 8
; call core::ptr::mut_ptr::<impl *mut T>::is_null
  %_9 = call zeroext i1 @"_ZN4core3ptr7mut_ptr31_$LT$impl$u20$$BP$mut$u20$T$GT$7is_null17h2657ec1842293a3cE"(ptr %_10) #3
  br i1 %_9, label %bb6, label %bb7

panic5:                                           ; preds = %bb4
; call core::panicking::panic_null_pointer_dereference
  call void @_ZN4core9panicking30panic_null_pointer_dereference17hf718fcc86a223baaE(ptr align 8 @alloc_60670a1f879f2e84fdd27bf0491b6f6c) #4
  unreachable

bb6:                                              ; preds = %bb21
  %_12 = load ptr, ptr %temp, align 8
  %_108 = icmp eq i64 ptrtoint (ptr @rear to i64), 0
  %_109 = and i1 %_108, true
  %_110 = xor i1 %_109, true
  br i1 %_110, label %bb22, label %panic9

bb10:                                             ; preds = %bb7
  %_126 = ptrtoint ptr %_21 to i64
  %_129 = icmp eq i64 %_126, 0
  %_130 = and i1 %_129, true
  %_131 = xor i1 %_130, true
  br i1 %_131, label %bb25, label %panic7

panic6:                                           ; preds = %bb7
; call core::panicking::panic_misaligned_pointer_dereference
  call void @_ZN4core9panicking36panic_misaligned_pointer_dereference17hcc3cbded9382b6e5E(i64 8, i64 %_29, ptr align 8 @alloc_b9f89588b5c398670791de052c8461bf) #4
  unreachable

bb25:                                             ; preds = %bb10
  %3 = getelementptr inbounds i8, ptr %_21, i64 8
  store ptr %_17, ptr %3, align 8
  %_19 = load ptr, ptr %temp, align 8
  %_136 = icmp eq i64 ptrtoint (ptr @rear to i64), 0
  %_137 = and i1 %_136, true
  %_138 = xor i1 %_137, true
  br i1 %_138, label %bb26, label %panic8

panic7:                                           ; preds = %bb10
; call core::panicking::panic_null_pointer_dereference
  call void @_ZN4core9panicking30panic_null_pointer_dereference17hf718fcc86a223baaE(ptr align 8 @alloc_b9f89588b5c398670791de052c8461bf) #4
  unreachable

bb26:                                             ; preds = %bb25
  store ptr %_19, ptr @rear, align 8
  br label %bb8

panic8:                                           ; preds = %bb25
; call core::panicking::panic_null_pointer_dereference
  call void @_ZN4core9panicking30panic_null_pointer_dereference17hf718fcc86a223baaE(ptr align 8 @alloc_ee77b197ce841c113b18b9c150190dc5) #4
  unreachable

bb8:                                              ; preds = %bb24, %bb26
  ret void

bb22:                                             ; preds = %bb6
  store ptr %_12, ptr @rear, align 8
  %_115 = icmp eq i64 ptrtoint (ptr @rear to i64), 0
  %_116 = and i1 %_115, true
  %_117 = xor i1 %_116, true
  br i1 %_117, label %bb23, label %panic10

panic9:                                           ; preds = %bb6
; call core::panicking::panic_null_pointer_dereference
  call void @_ZN4core9panicking30panic_null_pointer_dereference17hf718fcc86a223baaE(ptr align 8 @alloc_f963e84091f1b4f6d75083fa3939b2a5) #4
  unreachable

bb23:                                             ; preds = %bb22
  %_14 = load ptr, ptr @rear, align 8
  %_122 = icmp eq i64 ptrtoint (ptr @front to i64), 0
  %_123 = and i1 %_122, true
  %_124 = xor i1 %_123, true
  br i1 %_124, label %bb24, label %panic11

panic10:                                          ; preds = %bb22
; call core::panicking::panic_null_pointer_dereference
  call void @_ZN4core9panicking30panic_null_pointer_dereference17hf718fcc86a223baaE(ptr align 8 @alloc_ad1fa4bbf300af84abe55433501ca3d5) #4
  unreachable

bb24:                                             ; preds = %bb23
  store ptr %_14, ptr @front, align 8
  br label %bb8

panic11:                                          ; preds = %bb23
; call core::panicking::panic_null_pointer_dereference
  call void @_ZN4core9panicking30panic_null_pointer_dereference17hf718fcc86a223baaE(ptr align 8 @alloc_244e6eb3bd83764d82a7032323e809dc) #4
  unreachable
}

; Function Attrs: nounwind nonlazybind
define ptr @NewNode(i32 %data) unnamed_addr #1 {
start:
  %_2 = call ptr @malloc(i64 24) #3
  %_18 = ptrtoint ptr %_2 to i64
  %_21 = and i64 %_18, 7
  %_22 = icmp eq i64 %_21, 0
  br i1 %_22, label %bb5, label %panic

bb5:                                              ; preds = %start
  %_24 = ptrtoint ptr %_2 to i64
  %_27 = icmp eq i64 %_24, 0
  %_28 = and i1 %_27, true
  %_29 = xor i1 %_28, true
  br i1 %_29, label %bb6, label %panic1

panic:                                            ; preds = %start
; call core::panicking::panic_misaligned_pointer_dereference
  call void @_ZN4core9panicking36panic_misaligned_pointer_dereference17hcc3cbded9382b6e5E(i64 8, i64 %_18, ptr align 8 @alloc_b0dc3419ba98fe2a0cdebecee6164449) #4
  unreachable

bb6:                                              ; preds = %bb5
  store ptr null, ptr %_2, align 8
  %_12 = ptrtoint ptr %_2 to i64
  %_15 = and i64 %_12, 7
  %_16 = icmp eq i64 %_15, 0
  br i1 %_16, label %bb4, label %panic2

panic1:                                           ; preds = %bb5
; call core::panicking::panic_null_pointer_dereference
  call void @_ZN4core9panicking30panic_null_pointer_dereference17hf718fcc86a223baaE(ptr align 8 @alloc_b0dc3419ba98fe2a0cdebecee6164449) #4
  unreachable

bb4:                                              ; preds = %bb6
  %_31 = ptrtoint ptr %_2 to i64
  %_34 = icmp eq i64 %_31, 0
  %_35 = and i1 %_34, true
  %_36 = xor i1 %_35, true
  br i1 %_36, label %bb7, label %panic3

panic2:                                           ; preds = %bb6
; call core::panicking::panic_misaligned_pointer_dereference
  call void @_ZN4core9panicking36panic_misaligned_pointer_dereference17hcc3cbded9382b6e5E(i64 8, i64 %_12, ptr align 8 @alloc_d276e58b0b165cf6e7ab175535023059) #4
  unreachable

bb7:                                              ; preds = %bb4
  %0 = getelementptr inbounds i8, ptr %_2, i64 8
  store i32 %data, ptr %0, align 8
  %_6 = ptrtoint ptr %_2 to i64
  %_9 = and i64 %_6, 7
  %_10 = icmp eq i64 %_9, 0
  br i1 %_10, label %bb3, label %panic4

panic3:                                           ; preds = %bb4
; call core::panicking::panic_null_pointer_dereference
  call void @_ZN4core9panicking30panic_null_pointer_dereference17hf718fcc86a223baaE(ptr align 8 @alloc_d276e58b0b165cf6e7ab175535023059) #4
  unreachable

bb3:                                              ; preds = %bb7
  %_38 = ptrtoint ptr %_2 to i64
  %_41 = icmp eq i64 %_38, 0
  %_42 = and i1 %_41, true
  %_43 = xor i1 %_42, true
  br i1 %_43, label %bb8, label %panic5

panic4:                                           ; preds = %bb7
; call core::panicking::panic_misaligned_pointer_dereference
  call void @_ZN4core9panicking36panic_misaligned_pointer_dereference17hcc3cbded9382b6e5E(i64 8, i64 %_6, ptr align 8 @alloc_6fbbe498723ac7f1a024e3e35d079c2e) #4
  unreachable

bb8:                                              ; preds = %bb3
  %1 = getelementptr inbounds i8, ptr %_2, i64 16
  store ptr null, ptr %1, align 8
  ret ptr %_2

panic5:                                           ; preds = %bb3
; call core::panicking::panic_null_pointer_dereference
  call void @_ZN4core9panicking30panic_null_pointer_dereference17hf718fcc86a223baaE(ptr align 8 @alloc_6fbbe498723ac7f1a024e3e35d079c2e) #4
  unreachable
}

; Function Attrs: nounwind nonlazybind
define void @PostOrder(ptr %root) unnamed_addr #1 {
start:
; call core::ptr::mut_ptr::<impl *mut T>::is_null
  %_2 = call zeroext i1 @"_ZN4core3ptr7mut_ptr31_$LT$impl$u20$$BP$mut$u20$T$GT$7is_null17hd6c673561803199fE"(ptr %root) #3
  br i1 %_2, label %bb5, label %bb2

bb2:                                              ; preds = %start
  %_26 = ptrtoint ptr %root to i64
  %_29 = and i64 %_26, 7
  %_30 = icmp eq i64 %_29, 0
  br i1 %_30, label %bb8, label %panic

bb5:                                              ; preds = %bb11, %start
  ret void

bb8:                                              ; preds = %bb2
  %_32 = ptrtoint ptr %root to i64
  %_35 = icmp eq i64 %_32, 0
  %_36 = and i1 %_35, true
  %_37 = xor i1 %_36, true
  br i1 %_37, label %bb9, label %panic1

panic:                                            ; preds = %bb2
; call core::panicking::panic_misaligned_pointer_dereference
  call void @_ZN4core9panicking36panic_misaligned_pointer_dereference17hcc3cbded9382b6e5E(i64 8, i64 %_26, ptr align 8 @alloc_1866c614f19a53741a041dfb5dd4a0ec) #4
  unreachable

bb9:                                              ; preds = %bb8
  %_4 = load ptr, ptr %root, align 8
  call void @PostOrder(ptr %_4) #3
  %_20 = ptrtoint ptr %root to i64
  %_23 = and i64 %_20, 7
  %_24 = icmp eq i64 %_23, 0
  br i1 %_24, label %bb7, label %panic2

panic1:                                           ; preds = %bb8
; call core::panicking::panic_null_pointer_dereference
  call void @_ZN4core9panicking30panic_null_pointer_dereference17hf718fcc86a223baaE(ptr align 8 @alloc_1866c614f19a53741a041dfb5dd4a0ec) #4
  unreachable

bb7:                                              ; preds = %bb9
  %_39 = ptrtoint ptr %root to i64
  %_42 = icmp eq i64 %_39, 0
  %_43 = and i1 %_42, true
  %_44 = xor i1 %_43, true
  br i1 %_44, label %bb10, label %panic3

panic2:                                           ; preds = %bb9
; call core::panicking::panic_misaligned_pointer_dereference
  call void @_ZN4core9panicking36panic_misaligned_pointer_dereference17hcc3cbded9382b6e5E(i64 8, i64 %_20, ptr align 8 @alloc_f1e77296c904d9a18450aa101f6c16ae) #4
  unreachable

bb10:                                             ; preds = %bb7
  %0 = getelementptr inbounds i8, ptr %root, i64 16
  %_6 = load ptr, ptr %0, align 8
  call void @PostOrder(ptr %_6) #3
  %_14 = ptrtoint ptr %root to i64
  %_17 = and i64 %_14, 7
  %_18 = icmp eq i64 %_17, 0
  br i1 %_18, label %bb6, label %panic4

panic3:                                           ; preds = %bb7
; call core::panicking::panic_null_pointer_dereference
  call void @_ZN4core9panicking30panic_null_pointer_dereference17hf718fcc86a223baaE(ptr align 8 @alloc_f1e77296c904d9a18450aa101f6c16ae) #4
  unreachable

bb6:                                              ; preds = %bb10
  %_46 = ptrtoint ptr %root to i64
  %_49 = icmp eq i64 %_46, 0
  %_50 = and i1 %_49, true
  %_51 = xor i1 %_50, true
  br i1 %_51, label %bb11, label %panic5

panic4:                                           ; preds = %bb10
; call core::panicking::panic_misaligned_pointer_dereference
  call void @_ZN4core9panicking36panic_misaligned_pointer_dereference17hcc3cbded9382b6e5E(i64 8, i64 %_14, ptr align 8 @alloc_a824bd9675a037ad13bd11897522ee05) #4
  unreachable

bb11:                                             ; preds = %bb6
  %1 = getelementptr inbounds i8, ptr %root, i64 8
  %_12 = load i32, ptr %1, align 8
  %_7 = call i32 (ptr, ...) @printf(ptr @alloc_b929c71616281bfd1be2bd4038d3ddf1, i32 %_12) #3
  br label %bb5

panic5:                                           ; preds = %bb6
; call core::panicking::panic_null_pointer_dereference
  call void @_ZN4core9panicking30panic_null_pointer_dereference17hf718fcc86a223baaE(ptr align 8 @alloc_a824bd9675a037ad13bd11897522ee05) #4
  unreachable
}

; Function Attrs: nounwind nonlazybind
define ptr @FindMin(ptr %0) unnamed_addr #1 {
start:
  %root = alloca [8 x i8], align 8
  store ptr %0, ptr %root, align 8
  br label %bb1

bb1:                                              ; preds = %bb8, %start
  %_11 = load ptr, ptr %root, align 8
  %_12 = ptrtoint ptr %_11 to i64
  %_15 = and i64 %_12, 7
  %_16 = icmp eq i64 %_15, 0
  br i1 %_16, label %bb6, label %panic

bb6:                                              ; preds = %bb1
  %_17 = load ptr, ptr %root, align 8
  %_18 = ptrtoint ptr %_17 to i64
  %_21 = icmp eq i64 %_18, 0
  %_22 = and i1 %_21, true
  %_23 = xor i1 %_22, true
  br i1 %_23, label %bb7, label %panic1

panic:                                            ; preds = %bb1
; call core::panicking::panic_misaligned_pointer_dereference
  call void @_ZN4core9panicking36panic_misaligned_pointer_dereference17hcc3cbded9382b6e5E(i64 8, i64 %_12, ptr align 8 @alloc_355a3f744890de0f196fe96fbb20357e) #4
  unreachable

bb7:                                              ; preds = %bb6
  %1 = load ptr, ptr %root, align 8
  %_3 = load ptr, ptr %1, align 8
; call core::ptr::mut_ptr::<impl *mut T>::is_null
  %_2 = call zeroext i1 @"_ZN4core3ptr7mut_ptr31_$LT$impl$u20$$BP$mut$u20$T$GT$7is_null17hd6c673561803199fE"(ptr %_3) #3
  br i1 %_2, label %bb3, label %bb4

panic1:                                           ; preds = %bb6
; call core::panicking::panic_null_pointer_dereference
  call void @_ZN4core9panicking30panic_null_pointer_dereference17hf718fcc86a223baaE(ptr align 8 @alloc_355a3f744890de0f196fe96fbb20357e) #4
  unreachable

bb4:                                              ; preds = %bb7
  %_5 = load ptr, ptr %root, align 8
  %_6 = ptrtoint ptr %_5 to i64
  %_9 = and i64 %_6, 7
  %_10 = icmp eq i64 %_9, 0
  br i1 %_10, label %bb5, label %panic2

bb3:                                              ; preds = %bb7
  %_0 = load ptr, ptr %root, align 8
  ret ptr %_0

bb5:                                              ; preds = %bb4
  %_24 = load ptr, ptr %root, align 8
  %_25 = ptrtoint ptr %_24 to i64
  %_28 = icmp eq i64 %_25, 0
  %_29 = and i1 %_28, true
  %_30 = xor i1 %_29, true
  br i1 %_30, label %bb8, label %panic3

panic2:                                           ; preds = %bb4
; call core::panicking::panic_misaligned_pointer_dereference
  call void @_ZN4core9panicking36panic_misaligned_pointer_dereference17hcc3cbded9382b6e5E(i64 8, i64 %_6, ptr align 8 @alloc_41c3733695587231cf0982a7cc06ad02) #4
  unreachable

bb8:                                              ; preds = %bb5
  %2 = load ptr, ptr %root, align 8
  %_4 = load ptr, ptr %2, align 8
  store ptr %_4, ptr %root, align 8
  br label %bb1

panic3:                                           ; preds = %bb5
; call core::panicking::panic_null_pointer_dereference
  call void @_ZN4core9panicking30panic_null_pointer_dereference17hf718fcc86a223baaE(ptr align 8 @alloc_41c3733695587231cf0982a7cc06ad02) #4
  unreachable
}

; Function Attrs: nounwind nonlazybind
define void @LevelOrder(ptr %root) unnamed_addr #1 {
start:
; call core::ptr::mut_ptr::<impl *mut T>::is_null
  %_2 = call zeroext i1 @"_ZN4core3ptr7mut_ptr31_$LT$impl$u20$$BP$mut$u20$T$GT$7is_null17hd6c673561803199fE"(ptr %root) #3
  br i1 %_2, label %bb14, label %bb2

bb2:                                              ; preds = %start
  call void @Enqeue(ptr %root) #3
  br label %bb3

bb14:                                             ; preds = %bb3, %start
  ret void

bb3:                                              ; preds = %bb13, %bb2
  %_4 = call i32 @isEmpty() #3
  %0 = icmp eq i32 %_4, 0
  br i1 %0, label %bb5, label %bb14

bb5:                                              ; preds = %bb3
  %current = call ptr @Pfront() #3
  %_46 = ptrtoint ptr %current to i64
  %_49 = and i64 %_46, 7
  %_50 = icmp eq i64 %_49, 0
  br i1 %_50, label %bb19, label %panic

bb19:                                             ; preds = %bb5
  %_52 = ptrtoint ptr %current to i64
  %_55 = icmp eq i64 %_52, 0
  %_56 = and i1 %_55, true
  %_57 = xor i1 %_56, true
  br i1 %_57, label %bb20, label %panic1

panic:                                            ; preds = %bb5
; call core::panicking::panic_misaligned_pointer_dereference
  call void @_ZN4core9panicking36panic_misaligned_pointer_dereference17hcc3cbded9382b6e5E(i64 8, i64 %_46, ptr align 8 @alloc_68e6a7f1defc7cdd28db10d106a3382b) #4
  unreachable

bb20:                                             ; preds = %bb19
  %1 = getelementptr inbounds i8, ptr %current, i64 8
  %_11 = load i32, ptr %1, align 8
  %_6 = call i32 (ptr, ...) @printf(ptr @alloc_b929c71616281bfd1be2bd4038d3ddf1, i32 %_11) #3
  %_40 = ptrtoint ptr %current to i64
  %_43 = and i64 %_40, 7
  %_44 = icmp eq i64 %_43, 0
  br i1 %_44, label %bb18, label %panic2

panic1:                                           ; preds = %bb19
; call core::panicking::panic_null_pointer_dereference
  call void @_ZN4core9panicking30panic_null_pointer_dereference17hf718fcc86a223baaE(ptr align 8 @alloc_68e6a7f1defc7cdd28db10d106a3382b) #4
  unreachable

bb18:                                             ; preds = %bb20
  %_59 = ptrtoint ptr %current to i64
  %_62 = icmp eq i64 %_59, 0
  %_63 = and i1 %_62, true
  %_64 = xor i1 %_63, true
  br i1 %_64, label %bb21, label %panic3

panic2:                                           ; preds = %bb20
; call core::panicking::panic_misaligned_pointer_dereference
  call void @_ZN4core9panicking36panic_misaligned_pointer_dereference17hcc3cbded9382b6e5E(i64 8, i64 %_40, ptr align 8 @alloc_6142d5ac17e158aac58f671d4ea5aedf) #4
  unreachable

bb21:                                             ; preds = %bb18
  %_13 = load ptr, ptr %current, align 8
; call core::ptr::mut_ptr::<impl *mut T>::is_null
  %_12 = call zeroext i1 @"_ZN4core3ptr7mut_ptr31_$LT$impl$u20$$BP$mut$u20$T$GT$7is_null17hd6c673561803199fE"(ptr %_13) #3
  br i1 %_12, label %bb10, label %bb9

panic3:                                           ; preds = %bb18
; call core::panicking::panic_null_pointer_dereference
  call void @_ZN4core9panicking30panic_null_pointer_dereference17hf718fcc86a223baaE(ptr align 8 @alloc_6142d5ac17e158aac58f671d4ea5aedf) #4
  unreachable

bb9:                                              ; preds = %bb21
  %_34 = ptrtoint ptr %current to i64
  %_37 = and i64 %_34, 7
  %_38 = icmp eq i64 %_37, 0
  br i1 %_38, label %bb17, label %panic4

bb10:                                             ; preds = %bb22, %bb21
  %_28 = ptrtoint ptr %current to i64
  %_31 = and i64 %_28, 7
  %_32 = icmp eq i64 %_31, 0
  br i1 %_32, label %bb16, label %panic6

bb17:                                             ; preds = %bb9
  %_66 = ptrtoint ptr %current to i64
  %_69 = icmp eq i64 %_66, 0
  %_70 = and i1 %_69, true
  %_71 = xor i1 %_70, true
  br i1 %_71, label %bb22, label %panic5

panic4:                                           ; preds = %bb9
; call core::panicking::panic_misaligned_pointer_dereference
  call void @_ZN4core9panicking36panic_misaligned_pointer_dereference17hcc3cbded9382b6e5E(i64 8, i64 %_34, ptr align 8 @alloc_15514ee6ef183cd6e998536d6887fc9c) #4
  unreachable

bb22:                                             ; preds = %bb17
  %_15 = load ptr, ptr %current, align 8
  call void @Enqeue(ptr %_15) #3
  br label %bb10

panic5:                                           ; preds = %bb17
; call core::panicking::panic_null_pointer_dereference
  call void @_ZN4core9panicking30panic_null_pointer_dereference17hf718fcc86a223baaE(ptr align 8 @alloc_15514ee6ef183cd6e998536d6887fc9c) #4
  unreachable

bb16:                                             ; preds = %bb10
  %_73 = ptrtoint ptr %current to i64
  %_76 = icmp eq i64 %_73, 0
  %_77 = and i1 %_76, true
  %_78 = xor i1 %_77, true
  br i1 %_78, label %bb23, label %panic7

panic6:                                           ; preds = %bb10
; call core::panicking::panic_misaligned_pointer_dereference
  call void @_ZN4core9panicking36panic_misaligned_pointer_dereference17hcc3cbded9382b6e5E(i64 8, i64 %_28, ptr align 8 @alloc_8f226039eb518008340a7477715fa328) #4
  unreachable

bb23:                                             ; preds = %bb16
  %2 = getelementptr inbounds i8, ptr %current, i64 16
  %_17 = load ptr, ptr %2, align 8
; call core::ptr::mut_ptr::<impl *mut T>::is_null
  %_16 = call zeroext i1 @"_ZN4core3ptr7mut_ptr31_$LT$impl$u20$$BP$mut$u20$T$GT$7is_null17hd6c673561803199fE"(ptr %_17) #3
  br i1 %_16, label %bb13, label %bb12

panic7:                                           ; preds = %bb16
; call core::panicking::panic_null_pointer_dereference
  call void @_ZN4core9panicking30panic_null_pointer_dereference17hf718fcc86a223baaE(ptr align 8 @alloc_8f226039eb518008340a7477715fa328) #4
  unreachable

bb12:                                             ; preds = %bb23
  %_22 = ptrtoint ptr %current to i64
  %_25 = and i64 %_22, 7
  %_26 = icmp eq i64 %_25, 0
  br i1 %_26, label %bb15, label %panic8

bb13:                                             ; preds = %bb24, %bb23
  call void @Pop() #3
  br label %bb3

bb15:                                             ; preds = %bb12
  %_80 = ptrtoint ptr %current to i64
  %_83 = icmp eq i64 %_80, 0
  %_84 = and i1 %_83, true
  %_85 = xor i1 %_84, true
  br i1 %_85, label %bb24, label %panic9

panic8:                                           ; preds = %bb12
; call core::panicking::panic_misaligned_pointer_dereference
  call void @_ZN4core9panicking36panic_misaligned_pointer_dereference17hcc3cbded9382b6e5E(i64 8, i64 %_22, ptr align 8 @alloc_4945213f010ec058c2aa9ed87a8d2cd5) #4
  unreachable

bb24:                                             ; preds = %bb15
  %3 = getelementptr inbounds i8, ptr %current, i64 16
  %_19 = load ptr, ptr %3, align 8
  call void @Enqeue(ptr %_19) #3
  br label %bb13

panic9:                                           ; preds = %bb15
; call core::panicking::panic_null_pointer_dereference
  call void @_ZN4core9panicking30panic_null_pointer_dereference17hf718fcc86a223baaE(ptr align 8 @alloc_4945213f010ec058c2aa9ed87a8d2cd5) #4
  unreachable
}

; Function Attrs: nounwind nonlazybind
define ptr @Delete(ptr %0, i32 %data) unnamed_addr #1 {
start:
  %_0 = alloca [8 x i8], align 8
  %root = alloca [8 x i8], align 8
  store ptr %0, ptr %root, align 8
  %_4 = load ptr, ptr %root, align 8
; call core::ptr::mut_ptr::<impl *mut T>::is_null
  %_3 = call zeroext i1 @"_ZN4core3ptr7mut_ptr31_$LT$impl$u20$$BP$mut$u20$T$GT$7is_null17hd6c673561803199fE"(ptr %_4) #3
  br i1 %_3, label %bb2, label %bb3

bb3:                                              ; preds = %start
  %_168 = load ptr, ptr %root, align 8
  %_169 = ptrtoint ptr %_168 to i64
  %_172 = and i64 %_169, 7
  %_173 = icmp eq i64 %_172, 0
  br i1 %_173, label %bb53, label %panic

bb2:                                              ; preds = %start
  %1 = load ptr, ptr %root, align 8
  store ptr %1, ptr %_0, align 8
  br label %bb31

bb53:                                             ; preds = %bb3
  %_174 = load ptr, ptr %root, align 8
  %_175 = ptrtoint ptr %_174 to i64
  %_178 = icmp eq i64 %_175, 0
  %_179 = and i1 %_178, true
  %_180 = xor i1 %_179, true
  br i1 %_180, label %bb54, label %panic1

panic:                                            ; preds = %bb3
; call core::panicking::panic_misaligned_pointer_dereference
  call void @_ZN4core9panicking36panic_misaligned_pointer_dereference17hcc3cbded9382b6e5E(i64 8, i64 %_169, ptr align 8 @alloc_e6276aff1d866e84a8b24ff217180624) #4
  unreachable

bb54:                                             ; preds = %bb53
  %2 = load ptr, ptr %root, align 8
  %3 = getelementptr inbounds i8, ptr %2, i64 8
  %_6 = load i32, ptr %3, align 8
  %_5 = icmp slt i32 %data, %_6
  br i1 %_5, label %bb4, label %bb6

panic1:                                           ; preds = %bb53
; call core::panicking::panic_null_pointer_dereference
  call void @_ZN4core9panicking30panic_null_pointer_dereference17hf718fcc86a223baaE(ptr align 8 @alloc_e6276aff1d866e84a8b24ff217180624) #4
  unreachable

bb6:                                              ; preds = %bb54
  %_150 = load ptr, ptr %root, align 8
  %_151 = ptrtoint ptr %_150 to i64
  %_154 = and i64 %_151, 7
  %_155 = icmp eq i64 %_154, 0
  br i1 %_155, label %bb50, label %panic2

bb4:                                              ; preds = %bb54
  %_162 = load ptr, ptr %root, align 8
  %_163 = ptrtoint ptr %_162 to i64
  %_166 = and i64 %_163, 7
  %_167 = icmp eq i64 %_166, 0
  br i1 %_167, label %bb52, label %panic40

bb50:                                             ; preds = %bb6
  %_195 = load ptr, ptr %root, align 8
  %_196 = ptrtoint ptr %_195 to i64
  %_199 = icmp eq i64 %_196, 0
  %_200 = and i1 %_199, true
  %_201 = xor i1 %_200, true
  br i1 %_201, label %bb57, label %panic3

panic2:                                           ; preds = %bb6
; call core::panicking::panic_misaligned_pointer_dereference
  call void @_ZN4core9panicking36panic_misaligned_pointer_dereference17hcc3cbded9382b6e5E(i64 8, i64 %_151, ptr align 8 @alloc_631f85da2e4bb5702b83d8f702a8f788) #4
  unreachable

bb57:                                             ; preds = %bb50
  %4 = load ptr, ptr %root, align 8
  %5 = getelementptr inbounds i8, ptr %4, i64 8
  %_10 = load i32, ptr %5, align 8
  %_9 = icmp sgt i32 %data, %_10
  br i1 %_9, label %bb7, label %bb9

panic3:                                           ; preds = %bb50
; call core::panicking::panic_null_pointer_dereference
  call void @_ZN4core9panicking30panic_null_pointer_dereference17hf718fcc86a223baaE(ptr align 8 @alloc_631f85da2e4bb5702b83d8f702a8f788) #4
  unreachable

bb9:                                              ; preds = %bb57
  %_132 = load ptr, ptr %root, align 8
  %_133 = ptrtoint ptr %_132 to i64
  %_136 = and i64 %_133, 7
  %_137 = icmp eq i64 %_136, 0
  br i1 %_137, label %bb47, label %panic4

bb7:                                              ; preds = %bb57
  %_144 = load ptr, ptr %root, align 8
  %_145 = ptrtoint ptr %_144 to i64
  %_148 = and i64 %_145, 7
  %_149 = icmp eq i64 %_148, 0
  br i1 %_149, label %bb49, label %panic36

bb47:                                             ; preds = %bb9
  %_216 = load ptr, ptr %root, align 8
  %_217 = ptrtoint ptr %_216 to i64
  %_220 = icmp eq i64 %_217, 0
  %_221 = and i1 %_220, true
  %_222 = xor i1 %_221, true
  br i1 %_222, label %bb60, label %panic5

panic4:                                           ; preds = %bb9
; call core::panicking::panic_misaligned_pointer_dereference
  call void @_ZN4core9panicking36panic_misaligned_pointer_dereference17hcc3cbded9382b6e5E(i64 8, i64 %_133, ptr align 8 @alloc_1b9e4dcc03c398f38899d58ffd4a5373) #4
  unreachable

bb60:                                             ; preds = %bb47
  %6 = load ptr, ptr %root, align 8
  %_14 = load ptr, ptr %6, align 8
; call core::ptr::mut_ptr::<impl *mut T>::is_null
  %_13 = call zeroext i1 @"_ZN4core3ptr7mut_ptr31_$LT$impl$u20$$BP$mut$u20$T$GT$7is_null17hd6c673561803199fE"(ptr %_14) #3
  br i1 %_13, label %bb11, label %bb15

panic5:                                           ; preds = %bb47
; call core::panicking::panic_null_pointer_dereference
  call void @_ZN4core9panicking30panic_null_pointer_dereference17hf718fcc86a223baaE(ptr align 8 @alloc_1b9e4dcc03c398f38899d58ffd4a5373) #4
  unreachable

bb15:                                             ; preds = %bb61, %bb60
  %_120 = load ptr, ptr %root, align 8
  %_121 = ptrtoint ptr %_120 to i64
  %_124 = and i64 %_121, 7
  %_125 = icmp eq i64 %_124, 0
  br i1 %_125, label %bb45, label %panic8

bb11:                                             ; preds = %bb60
  %_126 = load ptr, ptr %root, align 8
  %_127 = ptrtoint ptr %_126 to i64
  %_130 = and i64 %_127, 7
  %_131 = icmp eq i64 %_130, 0
  br i1 %_131, label %bb46, label %panic6

bb46:                                             ; preds = %bb11
  %_223 = load ptr, ptr %root, align 8
  %_224 = ptrtoint ptr %_223 to i64
  %_227 = icmp eq i64 %_224, 0
  %_228 = and i1 %_227, true
  %_229 = xor i1 %_228, true
  br i1 %_229, label %bb61, label %panic7

panic6:                                           ; preds = %bb11
; call core::panicking::panic_misaligned_pointer_dereference
  call void @_ZN4core9panicking36panic_misaligned_pointer_dereference17hcc3cbded9382b6e5E(i64 8, i64 %_127, ptr align 8 @alloc_7e7b8b47e019dbf744c6008f3eba9e98) #4
  unreachable

bb61:                                             ; preds = %bb46
  %7 = load ptr, ptr %root, align 8
  %8 = getelementptr inbounds i8, ptr %7, i64 16
  %_16 = load ptr, ptr %8, align 8
; call core::ptr::mut_ptr::<impl *mut T>::is_null
  %_15 = call zeroext i1 @"_ZN4core3ptr7mut_ptr31_$LT$impl$u20$$BP$mut$u20$T$GT$7is_null17hd6c673561803199fE"(ptr %_16) #3
  br i1 %_15, label %bb13, label %bb15

panic7:                                           ; preds = %bb46
; call core::panicking::panic_null_pointer_dereference
  call void @_ZN4core9panicking30panic_null_pointer_dereference17hf718fcc86a223baaE(ptr align 8 @alloc_7e7b8b47e019dbf744c6008f3eba9e98) #4
  unreachable

bb13:                                             ; preds = %bb61
  %_19 = load ptr, ptr %root, align 8
  call void @free(ptr %_19) #3
  store ptr null, ptr %root, align 8
  br label %bb30

bb45:                                             ; preds = %bb15
  %_230 = load ptr, ptr %root, align 8
  %_231 = ptrtoint ptr %_230 to i64
  %_234 = icmp eq i64 %_231, 0
  %_235 = and i1 %_234, true
  %_236 = xor i1 %_235, true
  br i1 %_236, label %bb62, label %panic9

panic8:                                           ; preds = %bb15
; call core::panicking::panic_misaligned_pointer_dereference
  call void @_ZN4core9panicking36panic_misaligned_pointer_dereference17hcc3cbded9382b6e5E(i64 8, i64 %_121, ptr align 8 @alloc_a7c2003bdad2783744c13a37d3619fd3) #4
  unreachable

bb62:                                             ; preds = %bb45
  %9 = load ptr, ptr %root, align 8
  %_21 = load ptr, ptr %9, align 8
; call core::ptr::mut_ptr::<impl *mut T>::is_null
  %_20 = call zeroext i1 @"_ZN4core3ptr7mut_ptr31_$LT$impl$u20$$BP$mut$u20$T$GT$7is_null17hd6c673561803199fE"(ptr %_21) #3
  br i1 %_20, label %bb21, label %bb17

panic9:                                           ; preds = %bb45
; call core::panicking::panic_null_pointer_dereference
  call void @_ZN4core9panicking30panic_null_pointer_dereference17hf718fcc86a223baaE(ptr align 8 @alloc_a7c2003bdad2783744c13a37d3619fd3) #4
  unreachable

bb17:                                             ; preds = %bb62
  %_114 = load ptr, ptr %root, align 8
  %_115 = ptrtoint ptr %_114 to i64
  %_118 = and i64 %_115, 7
  %_119 = icmp eq i64 %_118, 0
  br i1 %_119, label %bb44, label %panic10

bb21:                                             ; preds = %bb63, %bb62
  %_96 = load ptr, ptr %root, align 8
  %_97 = ptrtoint ptr %_96 to i64
  %_100 = and i64 %_97, 7
  %_101 = icmp eq i64 %_100, 0
  br i1 %_101, label %bb41, label %panic16

bb44:                                             ; preds = %bb17
  %_237 = load ptr, ptr %root, align 8
  %_238 = ptrtoint ptr %_237 to i64
  %_241 = icmp eq i64 %_238, 0
  %_242 = and i1 %_241, true
  %_243 = xor i1 %_242, true
  br i1 %_243, label %bb63, label %panic11

panic10:                                          ; preds = %bb17
; call core::panicking::panic_misaligned_pointer_dereference
  call void @_ZN4core9panicking36panic_misaligned_pointer_dereference17hcc3cbded9382b6e5E(i64 8, i64 %_115, ptr align 8 @alloc_468666b9980c5998ca890251c8431350) #4
  unreachable

bb63:                                             ; preds = %bb44
  %10 = load ptr, ptr %root, align 8
  %11 = getelementptr inbounds i8, ptr %10, i64 16
  %_23 = load ptr, ptr %11, align 8
; call core::ptr::mut_ptr::<impl *mut T>::is_null
  %_22 = call zeroext i1 @"_ZN4core3ptr7mut_ptr31_$LT$impl$u20$$BP$mut$u20$T$GT$7is_null17hd6c673561803199fE"(ptr %_23) #3
  br i1 %_22, label %bb19, label %bb21

panic11:                                          ; preds = %bb44
; call core::panicking::panic_null_pointer_dereference
  call void @_ZN4core9panicking30panic_null_pointer_dereference17hf718fcc86a223baaE(ptr align 8 @alloc_468666b9980c5998ca890251c8431350) #4
  unreachable

bb19:                                             ; preds = %bb63
  %_108 = load ptr, ptr %root, align 8
  %_109 = ptrtoint ptr %_108 to i64
  %_112 = and i64 %_109, 7
  %_113 = icmp eq i64 %_112, 0
  br i1 %_113, label %bb43, label %panic12

bb43:                                             ; preds = %bb19
  %_244 = load ptr, ptr %root, align 8
  %_245 = ptrtoint ptr %_244 to i64
  %_248 = icmp eq i64 %_245, 0
  %_249 = and i1 %_248, true
  %_250 = xor i1 %_249, true
  br i1 %_250, label %bb64, label %panic13

panic12:                                          ; preds = %bb19
; call core::panicking::panic_misaligned_pointer_dereference
  call void @_ZN4core9panicking36panic_misaligned_pointer_dereference17hcc3cbded9382b6e5E(i64 8, i64 %_109, ptr align 8 @alloc_b9b54bbbc80a86d296254d5a9932b6ed) #4
  unreachable

bb64:                                             ; preds = %bb43
  %12 = load ptr, ptr %root, align 8
  %temp = load ptr, ptr %12, align 8
  call void @free(ptr %temp) #3
  %_102 = load ptr, ptr %root, align 8
  %_103 = ptrtoint ptr %_102 to i64
  %_106 = and i64 %_103, 7
  %_107 = icmp eq i64 %_106, 0
  br i1 %_107, label %bb42, label %panic14

panic13:                                          ; preds = %bb43
; call core::panicking::panic_null_pointer_dereference
  call void @_ZN4core9panicking30panic_null_pointer_dereference17hf718fcc86a223baaE(ptr align 8 @alloc_b9b54bbbc80a86d296254d5a9932b6ed) #4
  unreachable

bb42:                                             ; preds = %bb64
  %_251 = load ptr, ptr %root, align 8
  %_252 = ptrtoint ptr %_251 to i64
  %_255 = icmp eq i64 %_252, 0
  %_256 = and i1 %_255, true
  %_257 = xor i1 %_256, true
  br i1 %_257, label %bb65, label %panic15

panic14:                                          ; preds = %bb64
; call core::panicking::panic_misaligned_pointer_dereference
  call void @_ZN4core9panicking36panic_misaligned_pointer_dereference17hcc3cbded9382b6e5E(i64 8, i64 %_103, ptr align 8 @alloc_3bfaba31af56cdc4b718edd6d2680f31) #4
  unreachable

bb65:                                             ; preds = %bb42
  %13 = load ptr, ptr %root, align 8
  %_27 = load ptr, ptr %13, align 8
  store ptr %_27, ptr %root, align 8
  br label %bb30

panic15:                                          ; preds = %bb42
; call core::panicking::panic_null_pointer_dereference
  call void @_ZN4core9panicking30panic_null_pointer_dereference17hf718fcc86a223baaE(ptr align 8 @alloc_3bfaba31af56cdc4b718edd6d2680f31) #4
  unreachable

bb30:                                             ; preds = %bb56, %bb59, %bb13, %bb75, %bb69, %bb65
  %14 = load ptr, ptr %root, align 8
  store ptr %14, ptr %_0, align 8
  br label %bb31

bb41:                                             ; preds = %bb21
  %_258 = load ptr, ptr %root, align 8
  %_259 = ptrtoint ptr %_258 to i64
  %_262 = icmp eq i64 %_259, 0
  %_263 = and i1 %_262, true
  %_264 = xor i1 %_263, true
  br i1 %_264, label %bb66, label %panic17

panic16:                                          ; preds = %bb21
; call core::panicking::panic_misaligned_pointer_dereference
  call void @_ZN4core9panicking36panic_misaligned_pointer_dereference17hcc3cbded9382b6e5E(i64 8, i64 %_97, ptr align 8 @alloc_1bde55f592e87209333373f3bc0d3f6d) #4
  unreachable

bb66:                                             ; preds = %bb41
  %15 = load ptr, ptr %root, align 8
  %16 = getelementptr inbounds i8, ptr %15, i64 16
  %_29 = load ptr, ptr %16, align 8
; call core::ptr::mut_ptr::<impl *mut T>::is_null
  %_28 = call zeroext i1 @"_ZN4core3ptr7mut_ptr31_$LT$impl$u20$$BP$mut$u20$T$GT$7is_null17hd6c673561803199fE"(ptr %_29) #3
  br i1 %_28, label %bb27, label %bb23

panic17:                                          ; preds = %bb41
; call core::panicking::panic_null_pointer_dereference
  call void @_ZN4core9panicking30panic_null_pointer_dereference17hf718fcc86a223baaE(ptr align 8 @alloc_1bde55f592e87209333373f3bc0d3f6d) #4
  unreachable

bb23:                                             ; preds = %bb66
  %_90 = load ptr, ptr %root, align 8
  %_91 = ptrtoint ptr %_90 to i64
  %_94 = and i64 %_91, 7
  %_95 = icmp eq i64 %_94, 0
  br i1 %_95, label %bb40, label %panic18

bb27:                                             ; preds = %bb67, %bb66
  %_72 = load ptr, ptr %root, align 8
  %_73 = ptrtoint ptr %_72 to i64
  %_76 = and i64 %_73, 7
  %_77 = icmp eq i64 %_76, 0
  br i1 %_77, label %bb37, label %panic24

bb40:                                             ; preds = %bb23
  %_265 = load ptr, ptr %root, align 8
  %_266 = ptrtoint ptr %_265 to i64
  %_269 = icmp eq i64 %_266, 0
  %_270 = and i1 %_269, true
  %_271 = xor i1 %_270, true
  br i1 %_271, label %bb67, label %panic19

panic18:                                          ; preds = %bb23
; call core::panicking::panic_misaligned_pointer_dereference
  call void @_ZN4core9panicking36panic_misaligned_pointer_dereference17hcc3cbded9382b6e5E(i64 8, i64 %_91, ptr align 8 @alloc_dee79d1aedeb2cb84e13e784fb421e3d) #4
  unreachable

bb67:                                             ; preds = %bb40
  %17 = load ptr, ptr %root, align 8
  %_31 = load ptr, ptr %17, align 8
; call core::ptr::mut_ptr::<impl *mut T>::is_null
  %_30 = call zeroext i1 @"_ZN4core3ptr7mut_ptr31_$LT$impl$u20$$BP$mut$u20$T$GT$7is_null17hd6c673561803199fE"(ptr %_31) #3
  br i1 %_30, label %bb25, label %bb27

panic19:                                          ; preds = %bb40
; call core::panicking::panic_null_pointer_dereference
  call void @_ZN4core9panicking30panic_null_pointer_dereference17hf718fcc86a223baaE(ptr align 8 @alloc_dee79d1aedeb2cb84e13e784fb421e3d) #4
  unreachable

bb25:                                             ; preds = %bb67
  %_84 = load ptr, ptr %root, align 8
  %_85 = ptrtoint ptr %_84 to i64
  %_88 = and i64 %_85, 7
  %_89 = icmp eq i64 %_88, 0
  br i1 %_89, label %bb39, label %panic20

bb39:                                             ; preds = %bb25
  %_272 = load ptr, ptr %root, align 8
  %_273 = ptrtoint ptr %_272 to i64
  %_276 = icmp eq i64 %_273, 0
  %_277 = and i1 %_276, true
  %_278 = xor i1 %_277, true
  br i1 %_278, label %bb68, label %panic21

panic20:                                          ; preds = %bb25
; call core::panicking::panic_misaligned_pointer_dereference
  call void @_ZN4core9panicking36panic_misaligned_pointer_dereference17hcc3cbded9382b6e5E(i64 8, i64 %_85, ptr align 8 @alloc_f914766313394ce1e96b53a63d009b7b) #4
  unreachable

bb68:                                             ; preds = %bb39
  %18 = load ptr, ptr %root, align 8
  %19 = getelementptr inbounds i8, ptr %18, i64 16
  %temp_0 = load ptr, ptr %19, align 8
  call void @free(ptr %temp_0) #3
  %_78 = load ptr, ptr %root, align 8
  %_79 = ptrtoint ptr %_78 to i64
  %_82 = and i64 %_79, 7
  %_83 = icmp eq i64 %_82, 0
  br i1 %_83, label %bb38, label %panic22

panic21:                                          ; preds = %bb39
; call core::panicking::panic_null_pointer_dereference
  call void @_ZN4core9panicking30panic_null_pointer_dereference17hf718fcc86a223baaE(ptr align 8 @alloc_f914766313394ce1e96b53a63d009b7b) #4
  unreachable

bb38:                                             ; preds = %bb68
  %_279 = load ptr, ptr %root, align 8
  %_280 = ptrtoint ptr %_279 to i64
  %_283 = icmp eq i64 %_280, 0
  %_284 = and i1 %_283, true
  %_285 = xor i1 %_284, true
  br i1 %_285, label %bb69, label %panic23

panic22:                                          ; preds = %bb68
; call core::panicking::panic_misaligned_pointer_dereference
  call void @_ZN4core9panicking36panic_misaligned_pointer_dereference17hcc3cbded9382b6e5E(i64 8, i64 %_79, ptr align 8 @alloc_04a3820dbcf8cad21cd71733ab175e24) #4
  unreachable

bb69:                                             ; preds = %bb38
  %20 = load ptr, ptr %root, align 8
  %21 = getelementptr inbounds i8, ptr %20, i64 16
  %_35 = load ptr, ptr %21, align 8
  store ptr %_35, ptr %root, align 8
  br label %bb30

panic23:                                          ; preds = %bb38
; call core::panicking::panic_null_pointer_dereference
  call void @_ZN4core9panicking30panic_null_pointer_dereference17hf718fcc86a223baaE(ptr align 8 @alloc_04a3820dbcf8cad21cd71733ab175e24) #4
  unreachable

bb37:                                             ; preds = %bb27
  %_286 = load ptr, ptr %root, align 8
  %_287 = ptrtoint ptr %_286 to i64
  %_290 = icmp eq i64 %_287, 0
  %_291 = and i1 %_290, true
  %_292 = xor i1 %_291, true
  br i1 %_292, label %bb70, label %panic25

panic24:                                          ; preds = %bb27
; call core::panicking::panic_misaligned_pointer_dereference
  call void @_ZN4core9panicking36panic_misaligned_pointer_dereference17hcc3cbded9382b6e5E(i64 8, i64 %_73, ptr align 8 @alloc_51e1537fbfd753a605709c6c8025d5e0) #4
  unreachable

bb70:                                             ; preds = %bb37
  %22 = load ptr, ptr %root, align 8
  %23 = getelementptr inbounds i8, ptr %22, i64 16
  %_37 = load ptr, ptr %23, align 8
  %temp_1 = call ptr @FindMin(ptr %_37) #3
  %_67 = ptrtoint ptr %temp_1 to i64
  %_70 = and i64 %_67, 7
  %_71 = icmp eq i64 %_70, 0
  br i1 %_71, label %bb36, label %panic26

panic25:                                          ; preds = %bb37
; call core::panicking::panic_null_pointer_dereference
  call void @_ZN4core9panicking30panic_null_pointer_dereference17hf718fcc86a223baaE(ptr align 8 @alloc_51e1537fbfd753a605709c6c8025d5e0) #4
  unreachable

bb36:                                             ; preds = %bb70
  %_294 = ptrtoint ptr %temp_1 to i64
  %_297 = icmp eq i64 %_294, 0
  %_298 = and i1 %_297, true
  %_299 = xor i1 %_298, true
  br i1 %_299, label %bb71, label %panic27

panic26:                                          ; preds = %bb70
; call core::panicking::panic_misaligned_pointer_dereference
  call void @_ZN4core9panicking36panic_misaligned_pointer_dereference17hcc3cbded9382b6e5E(i64 8, i64 %_67, ptr align 8 @alloc_2654dc7def34d47cdfcc93da64a23e77) #4
  unreachable

bb71:                                             ; preds = %bb36
  %24 = getelementptr inbounds i8, ptr %temp_1, i64 8
  %_38 = load i32, ptr %24, align 8
  %_60 = load ptr, ptr %root, align 8
  %_61 = ptrtoint ptr %_60 to i64
  %_64 = and i64 %_61, 7
  %_65 = icmp eq i64 %_64, 0
  br i1 %_65, label %bb35, label %panic28

panic27:                                          ; preds = %bb36
; call core::panicking::panic_null_pointer_dereference
  call void @_ZN4core9panicking30panic_null_pointer_dereference17hf718fcc86a223baaE(ptr align 8 @alloc_2654dc7def34d47cdfcc93da64a23e77) #4
  unreachable

bb35:                                             ; preds = %bb71
  %_300 = load ptr, ptr %root, align 8
  %_301 = ptrtoint ptr %_300 to i64
  %_304 = icmp eq i64 %_301, 0
  %_305 = and i1 %_304, true
  %_306 = xor i1 %_305, true
  br i1 %_306, label %bb72, label %panic29

panic28:                                          ; preds = %bb71
; call core::panicking::panic_misaligned_pointer_dereference
  call void @_ZN4core9panicking36panic_misaligned_pointer_dereference17hcc3cbded9382b6e5E(i64 8, i64 %_61, ptr align 8 @alloc_51defa837211d00b128e9b5e60ecda6b) #4
  unreachable

bb72:                                             ; preds = %bb35
  %25 = load ptr, ptr %root, align 8
  %26 = getelementptr inbounds i8, ptr %25, i64 8
  store i32 %_38, ptr %26, align 8
  %_54 = load ptr, ptr %root, align 8
  %_55 = ptrtoint ptr %_54 to i64
  %_58 = and i64 %_55, 7
  %_59 = icmp eq i64 %_58, 0
  br i1 %_59, label %bb34, label %panic30

panic29:                                          ; preds = %bb35
; call core::panicking::panic_null_pointer_dereference
  call void @_ZN4core9panicking30panic_null_pointer_dereference17hf718fcc86a223baaE(ptr align 8 @alloc_51defa837211d00b128e9b5e60ecda6b) #4
  unreachable

bb34:                                             ; preds = %bb72
  %_307 = load ptr, ptr %root, align 8
  %_308 = ptrtoint ptr %_307 to i64
  %_311 = icmp eq i64 %_308, 0
  %_312 = and i1 %_311, true
  %_313 = xor i1 %_312, true
  br i1 %_313, label %bb73, label %panic31

panic30:                                          ; preds = %bb72
; call core::panicking::panic_misaligned_pointer_dereference
  call void @_ZN4core9panicking36panic_misaligned_pointer_dereference17hcc3cbded9382b6e5E(i64 8, i64 %_55, ptr align 8 @alloc_dfdd4f95a0d55b6011eb2462b2995686) #4
  unreachable

bb73:                                             ; preds = %bb34
  %27 = load ptr, ptr %root, align 8
  %28 = getelementptr inbounds i8, ptr %27, i64 16
  %_40 = load ptr, ptr %28, align 8
  %_49 = ptrtoint ptr %temp_1 to i64
  %_52 = and i64 %_49, 7
  %_53 = icmp eq i64 %_52, 0
  br i1 %_53, label %bb33, label %panic32

panic31:                                          ; preds = %bb34
; call core::panicking::panic_null_pointer_dereference
  call void @_ZN4core9panicking30panic_null_pointer_dereference17hf718fcc86a223baaE(ptr align 8 @alloc_dfdd4f95a0d55b6011eb2462b2995686) #4
  unreachable

bb33:                                             ; preds = %bb73
  %_315 = ptrtoint ptr %temp_1 to i64
  %_318 = icmp eq i64 %_315, 0
  %_319 = and i1 %_318, true
  %_320 = xor i1 %_319, true
  br i1 %_320, label %bb74, label %panic33

panic32:                                          ; preds = %bb73
; call core::panicking::panic_misaligned_pointer_dereference
  call void @_ZN4core9panicking36panic_misaligned_pointer_dereference17hcc3cbded9382b6e5E(i64 8, i64 %_49, ptr align 8 @alloc_d21f69c11108631f60cd143fb78821ba) #4
  unreachable

bb74:                                             ; preds = %bb33
  %29 = getelementptr inbounds i8, ptr %temp_1, i64 8
  %_41 = load i32, ptr %29, align 8
  %_39 = call ptr @Delete(ptr %_40, i32 %_41) #3
  %_42 = load ptr, ptr %root, align 8
  %_43 = ptrtoint ptr %_42 to i64
  %_46 = and i64 %_43, 7
  %_47 = icmp eq i64 %_46, 0
  br i1 %_47, label %bb32, label %panic34

panic33:                                          ; preds = %bb33
; call core::panicking::panic_null_pointer_dereference
  call void @_ZN4core9panicking30panic_null_pointer_dereference17hf718fcc86a223baaE(ptr align 8 @alloc_d21f69c11108631f60cd143fb78821ba) #4
  unreachable

bb32:                                             ; preds = %bb74
  %_321 = load ptr, ptr %root, align 8
  %_322 = ptrtoint ptr %_321 to i64
  %_325 = icmp eq i64 %_322, 0
  %_326 = and i1 %_325, true
  %_327 = xor i1 %_326, true
  br i1 %_327, label %bb75, label %panic35

panic34:                                          ; preds = %bb74
; call core::panicking::panic_misaligned_pointer_dereference
  call void @_ZN4core9panicking36panic_misaligned_pointer_dereference17hcc3cbded9382b6e5E(i64 8, i64 %_43, ptr align 8 @alloc_5086773ec26bb191205697fb7e200158) #4
  unreachable

bb75:                                             ; preds = %bb32
  %30 = load ptr, ptr %root, align 8
  %31 = getelementptr inbounds i8, ptr %30, i64 16
  store ptr %_39, ptr %31, align 8
  br label %bb30

panic35:                                          ; preds = %bb32
; call core::panicking::panic_null_pointer_dereference
  call void @_ZN4core9panicking30panic_null_pointer_dereference17hf718fcc86a223baaE(ptr align 8 @alloc_5086773ec26bb191205697fb7e200158) #4
  unreachable

bb49:                                             ; preds = %bb7
  %_202 = load ptr, ptr %root, align 8
  %_203 = ptrtoint ptr %_202 to i64
  %_206 = icmp eq i64 %_203, 0
  %_207 = and i1 %_206, true
  %_208 = xor i1 %_207, true
  br i1 %_208, label %bb58, label %panic37

panic36:                                          ; preds = %bb7
; call core::panicking::panic_misaligned_pointer_dereference
  call void @_ZN4core9panicking36panic_misaligned_pointer_dereference17hcc3cbded9382b6e5E(i64 8, i64 %_145, ptr align 8 @alloc_a4662f6fd94336b9873518ffeaecdcd3) #4
  unreachable

bb58:                                             ; preds = %bb49
  %32 = load ptr, ptr %root, align 8
  %33 = getelementptr inbounds i8, ptr %32, i64 16
  %_12 = load ptr, ptr %33, align 8
  %_11 = call ptr @Delete(ptr %_12, i32 %data) #3
  %_138 = load ptr, ptr %root, align 8
  %_139 = ptrtoint ptr %_138 to i64
  %_142 = and i64 %_139, 7
  %_143 = icmp eq i64 %_142, 0
  br i1 %_143, label %bb48, label %panic38

panic37:                                          ; preds = %bb49
; call core::panicking::panic_null_pointer_dereference
  call void @_ZN4core9panicking30panic_null_pointer_dereference17hf718fcc86a223baaE(ptr align 8 @alloc_a4662f6fd94336b9873518ffeaecdcd3) #4
  unreachable

bb48:                                             ; preds = %bb58
  %_209 = load ptr, ptr %root, align 8
  %_210 = ptrtoint ptr %_209 to i64
  %_213 = icmp eq i64 %_210, 0
  %_214 = and i1 %_213, true
  %_215 = xor i1 %_214, true
  br i1 %_215, label %bb59, label %panic39

panic38:                                          ; preds = %bb58
; call core::panicking::panic_misaligned_pointer_dereference
  call void @_ZN4core9panicking36panic_misaligned_pointer_dereference17hcc3cbded9382b6e5E(i64 8, i64 %_139, ptr align 8 @alloc_a36005e6c8643271d28bd8edf2a6f760) #4
  unreachable

bb59:                                             ; preds = %bb48
  %34 = load ptr, ptr %root, align 8
  %35 = getelementptr inbounds i8, ptr %34, i64 16
  store ptr %_11, ptr %35, align 8
  br label %bb30

panic39:                                          ; preds = %bb48
; call core::panicking::panic_null_pointer_dereference
  call void @_ZN4core9panicking30panic_null_pointer_dereference17hf718fcc86a223baaE(ptr align 8 @alloc_a36005e6c8643271d28bd8edf2a6f760) #4
  unreachable

bb52:                                             ; preds = %bb4
  %_181 = load ptr, ptr %root, align 8
  %_182 = ptrtoint ptr %_181 to i64
  %_185 = icmp eq i64 %_182, 0
  %_186 = and i1 %_185, true
  %_187 = xor i1 %_186, true
  br i1 %_187, label %bb55, label %panic41

panic40:                                          ; preds = %bb4
; call core::panicking::panic_misaligned_pointer_dereference
  call void @_ZN4core9panicking36panic_misaligned_pointer_dereference17hcc3cbded9382b6e5E(i64 8, i64 %_163, ptr align 8 @alloc_41f1647ad5a89793e802692c1e607fb8) #4
  unreachable

bb55:                                             ; preds = %bb52
  %36 = load ptr, ptr %root, align 8
  %_8 = load ptr, ptr %36, align 8
  %_7 = call ptr @Delete(ptr %_8, i32 %data) #3
  %_156 = load ptr, ptr %root, align 8
  %_157 = ptrtoint ptr %_156 to i64
  %_160 = and i64 %_157, 7
  %_161 = icmp eq i64 %_160, 0
  br i1 %_161, label %bb51, label %panic42

panic41:                                          ; preds = %bb52
; call core::panicking::panic_null_pointer_dereference
  call void @_ZN4core9panicking30panic_null_pointer_dereference17hf718fcc86a223baaE(ptr align 8 @alloc_41f1647ad5a89793e802692c1e607fb8) #4
  unreachable

bb51:                                             ; preds = %bb55
  %_188 = load ptr, ptr %root, align 8
  %_189 = ptrtoint ptr %_188 to i64
  %_192 = icmp eq i64 %_189, 0
  %_193 = and i1 %_192, true
  %_194 = xor i1 %_193, true
  br i1 %_194, label %bb56, label %panic43

panic42:                                          ; preds = %bb55
; call core::panicking::panic_misaligned_pointer_dereference
  call void @_ZN4core9panicking36panic_misaligned_pointer_dereference17hcc3cbded9382b6e5E(i64 8, i64 %_157, ptr align 8 @alloc_6315b79dba6f789e11adb693d3b81db7) #4
  unreachable

bb56:                                             ; preds = %bb51
  %37 = load ptr, ptr %root, align 8
  store ptr %_7, ptr %37, align 8
  br label %bb30

panic43:                                          ; preds = %bb51
; call core::panicking::panic_null_pointer_dereference
  call void @_ZN4core9panicking30panic_null_pointer_dereference17hf718fcc86a223baaE(ptr align 8 @alloc_6315b79dba6f789e11adb693d3b81db7) #4
  unreachable

bb31:                                             ; preds = %bb2, %bb30
  %38 = load ptr, ptr %_0, align 8
  ret ptr %38
}

; Function Attrs: nounwind nonlazybind
define void @InOrder(ptr %root) unnamed_addr #1 {
start:
; call core::ptr::mut_ptr::<impl *mut T>::is_null
  %_2 = call zeroext i1 @"_ZN4core3ptr7mut_ptr31_$LT$impl$u20$$BP$mut$u20$T$GT$7is_null17hd6c673561803199fE"(ptr %root) #3
  br i1 %_2, label %bb5, label %bb2

bb2:                                              ; preds = %start
  %_26 = ptrtoint ptr %root to i64
  %_29 = and i64 %_26, 7
  %_30 = icmp eq i64 %_29, 0
  br i1 %_30, label %bb8, label %panic

bb5:                                              ; preds = %bb11, %start
  ret void

bb8:                                              ; preds = %bb2
  %_32 = ptrtoint ptr %root to i64
  %_35 = icmp eq i64 %_32, 0
  %_36 = and i1 %_35, true
  %_37 = xor i1 %_36, true
  br i1 %_37, label %bb9, label %panic1

panic:                                            ; preds = %bb2
; call core::panicking::panic_misaligned_pointer_dereference
  call void @_ZN4core9panicking36panic_misaligned_pointer_dereference17hcc3cbded9382b6e5E(i64 8, i64 %_26, ptr align 8 @alloc_d001b09c086a85d14a47a443b009a847) #4
  unreachable

bb9:                                              ; preds = %bb8
  %_4 = load ptr, ptr %root, align 8
  call void @InOrder(ptr %_4) #3
  %_20 = ptrtoint ptr %root to i64
  %_23 = and i64 %_20, 7
  %_24 = icmp eq i64 %_23, 0
  br i1 %_24, label %bb7, label %panic2

panic1:                                           ; preds = %bb8
; call core::panicking::panic_null_pointer_dereference
  call void @_ZN4core9panicking30panic_null_pointer_dereference17hf718fcc86a223baaE(ptr align 8 @alloc_d001b09c086a85d14a47a443b009a847) #4
  unreachable

bb7:                                              ; preds = %bb9
  %_39 = ptrtoint ptr %root to i64
  %_42 = icmp eq i64 %_39, 0
  %_43 = and i1 %_42, true
  %_44 = xor i1 %_43, true
  br i1 %_44, label %bb10, label %panic3

panic2:                                           ; preds = %bb9
; call core::panicking::panic_misaligned_pointer_dereference
  call void @_ZN4core9panicking36panic_misaligned_pointer_dereference17hcc3cbded9382b6e5E(i64 8, i64 %_20, ptr align 8 @alloc_18a675f0cc80dedef6ef97c152af57d0) #4
  unreachable

bb10:                                             ; preds = %bb7
  %0 = getelementptr inbounds i8, ptr %root, i64 8
  %_10 = load i32, ptr %0, align 8
  %_5 = call i32 (ptr, ...) @printf(ptr @alloc_b929c71616281bfd1be2bd4038d3ddf1, i32 %_10) #3
  %_14 = ptrtoint ptr %root to i64
  %_17 = and i64 %_14, 7
  %_18 = icmp eq i64 %_17, 0
  br i1 %_18, label %bb6, label %panic4

panic3:                                           ; preds = %bb7
; call core::panicking::panic_null_pointer_dereference
  call void @_ZN4core9panicking30panic_null_pointer_dereference17hf718fcc86a223baaE(ptr align 8 @alloc_18a675f0cc80dedef6ef97c152af57d0) #4
  unreachable

bb6:                                              ; preds = %bb10
  %_46 = ptrtoint ptr %root to i64
  %_49 = icmp eq i64 %_46, 0
  %_50 = and i1 %_49, true
  %_51 = xor i1 %_50, true
  br i1 %_51, label %bb11, label %panic5

panic4:                                           ; preds = %bb10
; call core::panicking::panic_misaligned_pointer_dereference
  call void @_ZN4core9panicking36panic_misaligned_pointer_dereference17hcc3cbded9382b6e5E(i64 8, i64 %_14, ptr align 8 @alloc_c090ea4dcad52cd9bc3f5f80b1234d4b) #4
  unreachable

bb11:                                             ; preds = %bb6
  %1 = getelementptr inbounds i8, ptr %root, i64 16
  %_12 = load ptr, ptr %1, align 8
  call void @InOrder(ptr %_12) #3
  br label %bb5

panic5:                                           ; preds = %bb6
; call core::panicking::panic_null_pointer_dereference
  call void @_ZN4core9panicking30panic_null_pointer_dereference17hf718fcc86a223baaE(ptr align 8 @alloc_c090ea4dcad52cd9bc3f5f80b1234d4b) #4
  unreachable
}

; Function Attrs: nounwind nonlazybind
define void @PreOrder(ptr %root) unnamed_addr #1 {
start:
; call core::ptr::mut_ptr::<impl *mut T>::is_null
  %_2 = call zeroext i1 @"_ZN4core3ptr7mut_ptr31_$LT$impl$u20$$BP$mut$u20$T$GT$7is_null17hd6c673561803199fE"(ptr %root) #3
  br i1 %_2, label %bb5, label %bb2

bb2:                                              ; preds = %start
  %_26 = ptrtoint ptr %root to i64
  %_29 = and i64 %_26, 7
  %_30 = icmp eq i64 %_29, 0
  br i1 %_30, label %bb8, label %panic

bb5:                                              ; preds = %bb11, %start
  ret void

bb8:                                              ; preds = %bb2
  %_32 = ptrtoint ptr %root to i64
  %_35 = icmp eq i64 %_32, 0
  %_36 = and i1 %_35, true
  %_37 = xor i1 %_36, true
  br i1 %_37, label %bb9, label %panic1

panic:                                            ; preds = %bb2
; call core::panicking::panic_misaligned_pointer_dereference
  call void @_ZN4core9panicking36panic_misaligned_pointer_dereference17hcc3cbded9382b6e5E(i64 8, i64 %_26, ptr align 8 @alloc_0c62ed0cba4c4d9797beec9484ce14a8) #4
  unreachable

bb9:                                              ; preds = %bb8
  %0 = getelementptr inbounds i8, ptr %root, i64 8
  %_8 = load i32, ptr %0, align 8
  %_3 = call i32 (ptr, ...) @printf(ptr @alloc_b929c71616281bfd1be2bd4038d3ddf1, i32 %_8) #3
  %_20 = ptrtoint ptr %root to i64
  %_23 = and i64 %_20, 7
  %_24 = icmp eq i64 %_23, 0
  br i1 %_24, label %bb7, label %panic2

panic1:                                           ; preds = %bb8
; call core::panicking::panic_null_pointer_dereference
  call void @_ZN4core9panicking30panic_null_pointer_dereference17hf718fcc86a223baaE(ptr align 8 @alloc_0c62ed0cba4c4d9797beec9484ce14a8) #4
  unreachable

bb7:                                              ; preds = %bb9
  %_39 = ptrtoint ptr %root to i64
  %_42 = icmp eq i64 %_39, 0
  %_43 = and i1 %_42, true
  %_44 = xor i1 %_43, true
  br i1 %_44, label %bb10, label %panic3

panic2:                                           ; preds = %bb9
; call core::panicking::panic_misaligned_pointer_dereference
  call void @_ZN4core9panicking36panic_misaligned_pointer_dereference17hcc3cbded9382b6e5E(i64 8, i64 %_20, ptr align 8 @alloc_09cd250ef24fc6cb0ae9fd797d1efb9f) #4
  unreachable

bb10:                                             ; preds = %bb7
  %_10 = load ptr, ptr %root, align 8
  call void @PreOrder(ptr %_10) #3
  %_14 = ptrtoint ptr %root to i64
  %_17 = and i64 %_14, 7
  %_18 = icmp eq i64 %_17, 0
  br i1 %_18, label %bb6, label %panic4

panic3:                                           ; preds = %bb7
; call core::panicking::panic_null_pointer_dereference
  call void @_ZN4core9panicking30panic_null_pointer_dereference17hf718fcc86a223baaE(ptr align 8 @alloc_09cd250ef24fc6cb0ae9fd797d1efb9f) #4
  unreachable

bb6:                                              ; preds = %bb10
  %_46 = ptrtoint ptr %root to i64
  %_49 = icmp eq i64 %_46, 0
  %_50 = and i1 %_49, true
  %_51 = xor i1 %_50, true
  br i1 %_51, label %bb11, label %panic5

panic4:                                           ; preds = %bb10
; call core::panicking::panic_misaligned_pointer_dereference
  call void @_ZN4core9panicking36panic_misaligned_pointer_dereference17hcc3cbded9382b6e5E(i64 8, i64 %_14, ptr align 8 @alloc_4ebce55db500fbfdbc875571b5ba4fba) #4
  unreachable

bb11:                                             ; preds = %bb6
  %1 = getelementptr inbounds i8, ptr %root, i64 16
  %_12 = load ptr, ptr %1, align 8
  call void @PreOrder(ptr %_12) #3
  br label %bb5

panic5:                                           ; preds = %bb6
; call core::panicking::panic_null_pointer_dereference
  call void @_ZN4core9panicking30panic_null_pointer_dereference17hf718fcc86a223baaE(ptr align 8 @alloc_4ebce55db500fbfdbc875571b5ba4fba) #4
  unreachable
}

; Function Attrs: nounwind nonlazybind
define ptr @insert(ptr %0, i32 %data) unnamed_addr #1 {
start:
  %root = alloca [8 x i8], align 8
  store ptr %0, ptr %root, align 8
  %_4 = load ptr, ptr %root, align 8
; call core::ptr::mut_ptr::<impl *mut T>::is_null
  %_3 = call zeroext i1 @"_ZN4core3ptr7mut_ptr31_$LT$impl$u20$$BP$mut$u20$T$GT$7is_null17hd6c673561803199fE"(ptr %_4) #3
  br i1 %_3, label %bb2, label %bb4

bb4:                                              ; preds = %start
  %_36 = load ptr, ptr %root, align 8
  %_37 = ptrtoint ptr %_36 to i64
  %_40 = and i64 %_37, 7
  %_41 = icmp eq i64 %_40, 0
  br i1 %_41, label %bb14, label %panic

bb2:                                              ; preds = %start
  %_5 = call ptr @NewNode(i32 %data) #3
  store ptr %_5, ptr %root, align 8
  br label %bb9

bb14:                                             ; preds = %bb4
  %_42 = load ptr, ptr %root, align 8
  %_43 = ptrtoint ptr %_42 to i64
  %_46 = icmp eq i64 %_43, 0
  %_47 = and i1 %_46, true
  %_48 = xor i1 %_47, true
  br i1 %_48, label %bb15, label %panic1

panic:                                            ; preds = %bb4
; call core::panicking::panic_misaligned_pointer_dereference
  call void @_ZN4core9panicking36panic_misaligned_pointer_dereference17hcc3cbded9382b6e5E(i64 8, i64 %_37, ptr align 8 @alloc_9450494837c46cb598ac4576d953219c) #4
  unreachable

bb15:                                             ; preds = %bb14
  %1 = load ptr, ptr %root, align 8
  %2 = getelementptr inbounds i8, ptr %1, i64 8
  %_7 = load i32, ptr %2, align 8
  %_6 = icmp sle i32 %data, %_7
  br i1 %_6, label %bb5, label %bb7

panic1:                                           ; preds = %bb14
; call core::panicking::panic_null_pointer_dereference
  call void @_ZN4core9panicking30panic_null_pointer_dereference17hf718fcc86a223baaE(ptr align 8 @alloc_9450494837c46cb598ac4576d953219c) #4
  unreachable

bb7:                                              ; preds = %bb15
  %_18 = load ptr, ptr %root, align 8
  %_19 = ptrtoint ptr %_18 to i64
  %_22 = and i64 %_19, 7
  %_23 = icmp eq i64 %_22, 0
  br i1 %_23, label %bb11, label %panic2

bb5:                                              ; preds = %bb15
  %_30 = load ptr, ptr %root, align 8
  %_31 = ptrtoint ptr %_30 to i64
  %_34 = and i64 %_31, 7
  %_35 = icmp eq i64 %_34, 0
  br i1 %_35, label %bb13, label %panic6

bb11:                                             ; preds = %bb7
  %_63 = load ptr, ptr %root, align 8
  %_64 = ptrtoint ptr %_63 to i64
  %_67 = icmp eq i64 %_64, 0
  %_68 = and i1 %_67, true
  %_69 = xor i1 %_68, true
  br i1 %_69, label %bb18, label %panic3

panic2:                                           ; preds = %bb7
; call core::panicking::panic_misaligned_pointer_dereference
  call void @_ZN4core9panicking36panic_misaligned_pointer_dereference17hcc3cbded9382b6e5E(i64 8, i64 %_19, ptr align 8 @alloc_356506cbe4d07568940c3752a46ec0f5) #4
  unreachable

bb18:                                             ; preds = %bb11
  %3 = load ptr, ptr %root, align 8
  %4 = getelementptr inbounds i8, ptr %3, i64 16
  %_11 = load ptr, ptr %4, align 8
  %_10 = call ptr @insert(ptr %_11, i32 %data) #3
  %_12 = load ptr, ptr %root, align 8
  %_13 = ptrtoint ptr %_12 to i64
  %_16 = and i64 %_13, 7
  %_17 = icmp eq i64 %_16, 0
  br i1 %_17, label %bb10, label %panic4

panic3:                                           ; preds = %bb11
; call core::panicking::panic_null_pointer_dereference
  call void @_ZN4core9panicking30panic_null_pointer_dereference17hf718fcc86a223baaE(ptr align 8 @alloc_356506cbe4d07568940c3752a46ec0f5) #4
  unreachable

bb10:                                             ; preds = %bb18
  %_70 = load ptr, ptr %root, align 8
  %_71 = ptrtoint ptr %_70 to i64
  %_74 = icmp eq i64 %_71, 0
  %_75 = and i1 %_74, true
  %_76 = xor i1 %_75, true
  br i1 %_76, label %bb19, label %panic5

panic4:                                           ; preds = %bb18
; call core::panicking::panic_misaligned_pointer_dereference
  call void @_ZN4core9panicking36panic_misaligned_pointer_dereference17hcc3cbded9382b6e5E(i64 8, i64 %_13, ptr align 8 @alloc_1a43451fc8747931e3d27fcde00adc6d) #4
  unreachable

bb19:                                             ; preds = %bb10
  %5 = load ptr, ptr %root, align 8
  %6 = getelementptr inbounds i8, ptr %5, i64 16
  store ptr %_10, ptr %6, align 8
  br label %bb9

panic5:                                           ; preds = %bb10
; call core::panicking::panic_null_pointer_dereference
  call void @_ZN4core9panicking30panic_null_pointer_dereference17hf718fcc86a223baaE(ptr align 8 @alloc_1a43451fc8747931e3d27fcde00adc6d) #4
  unreachable

bb9:                                              ; preds = %bb2, %bb17, %bb19
  %_0 = load ptr, ptr %root, align 8
  ret ptr %_0

bb13:                                             ; preds = %bb5
  %_49 = load ptr, ptr %root, align 8
  %_50 = ptrtoint ptr %_49 to i64
  %_53 = icmp eq i64 %_50, 0
  %_54 = and i1 %_53, true
  %_55 = xor i1 %_54, true
  br i1 %_55, label %bb16, label %panic7

panic6:                                           ; preds = %bb5
; call core::panicking::panic_misaligned_pointer_dereference
  call void @_ZN4core9panicking36panic_misaligned_pointer_dereference17hcc3cbded9382b6e5E(i64 8, i64 %_31, ptr align 8 @alloc_14a46479966c578f72dbcfb0e91d298b) #4
  unreachable

bb16:                                             ; preds = %bb13
  %7 = load ptr, ptr %root, align 8
  %_9 = load ptr, ptr %7, align 8
  %_8 = call ptr @insert(ptr %_9, i32 %data) #3
  %_24 = load ptr, ptr %root, align 8
  %_25 = ptrtoint ptr %_24 to i64
  %_28 = and i64 %_25, 7
  %_29 = icmp eq i64 %_28, 0
  br i1 %_29, label %bb12, label %panic8

panic7:                                           ; preds = %bb13
; call core::panicking::panic_null_pointer_dereference
  call void @_ZN4core9panicking30panic_null_pointer_dereference17hf718fcc86a223baaE(ptr align 8 @alloc_14a46479966c578f72dbcfb0e91d298b) #4
  unreachable

bb12:                                             ; preds = %bb16
  %_56 = load ptr, ptr %root, align 8
  %_57 = ptrtoint ptr %_56 to i64
  %_60 = icmp eq i64 %_57, 0
  %_61 = and i1 %_60, true
  %_62 = xor i1 %_61, true
  br i1 %_62, label %bb17, label %panic9

panic8:                                           ; preds = %bb16
; call core::panicking::panic_misaligned_pointer_dereference
  call void @_ZN4core9panicking36panic_misaligned_pointer_dereference17hcc3cbded9382b6e5E(i64 8, i64 %_25, ptr align 8 @alloc_968b0e883763e8906b9c402220b7dabf) #4
  unreachable

bb17:                                             ; preds = %bb12
  %8 = load ptr, ptr %root, align 8
  store ptr %_8, ptr %8, align 8
  br label %bb9

panic9:                                           ; preds = %bb12
; call core::panicking::panic_null_pointer_dereference
  call void @_ZN4core9panicking30panic_null_pointer_dereference17hf718fcc86a223baaE(ptr align 8 @alloc_968b0e883763e8906b9c402220b7dabf) #4
  unreachable
}

; Function Attrs: nounwind nonlazybind
define void @traverse(ptr %root) unnamed_addr #1 {
start:
  %_2 = call i32 (ptr, ...) @printf(ptr @alloc_fe141ebba56e6baed5206f169e4c3734) #3
  call void @PreOrder(ptr %root) #3
  %_8 = call i32 (ptr, ...) @printf(ptr @alloc_f0d69aa8ea9fe79e830d057fcc71e683) #3
  call void @InOrder(ptr %root) #3
  %_14 = call i32 (ptr, ...) @printf(ptr @alloc_caab855f7f98515b7c1efe9acfffa98d) #3
  call void @PostOrder(ptr %root) #3
  %_20 = call i32 (ptr, ...) @printf(ptr @alloc_b216cee520430dcb9f956e0552e36e0b) #3
  call void @LevelOrder(ptr %root) #3
  ret void
}

; core::panicking::panic_null_pointer_dereference
; Function Attrs: cold minsize noinline noreturn nounwind nonlazybind optsize
declare void @_ZN4core9panicking30panic_null_pointer_dereference17hf718fcc86a223baaE(ptr align 8) unnamed_addr #2

; core::panicking::panic_misaligned_pointer_dereference
; Function Attrs: cold minsize noinline noreturn nounwind nonlazybind optsize
declare void @_ZN4core9panicking36panic_misaligned_pointer_dereference17hcc3cbded9382b6e5E(i64, i64, ptr align 8) unnamed_addr #2

; Function Attrs: nounwind nonlazybind
declare void @free(ptr) unnamed_addr #1

; Function Attrs: nounwind nonlazybind
declare ptr @malloc(i64) unnamed_addr #1

; Function Attrs: nounwind nonlazybind
declare i32 @printf(ptr, ...) unnamed_addr #1

attributes #0 = { inlinehint nounwind nonlazybind "probe-stack"="inline-asm" "target-cpu"="x86-64" }
attributes #1 = { nounwind nonlazybind "probe-stack"="inline-asm" "target-cpu"="x86-64" }
attributes #2 = { cold minsize noinline noreturn nounwind nonlazybind optsize "probe-stack"="inline-asm" "target-cpu"="x86-64" }
attributes #3 = { nounwind }
attributes #4 = { noreturn nounwind }

!llvm.module.flags = !{!0, !1}
!llvm.ident = !{!2}

!0 = !{i32 8, !"PIC Level", i32 2}
!1 = !{i32 2, !"RtLibUseGOT", i32 1}
!2 = !{!"rustc version 1.88.0-nightly (0b45675cf 2025-03-31)"}
