; ModuleID = '9qjavwjdx4xk9ueoakc3n0qf9'
source_filename = "9qjavwjdx4xk9ueoakc3n0qf9"
target datalayout = "e-m:e-p270:32:32-p271:32:32-p272:64:64-i64:64-i128:128-f80:128-n8:16:32:64-S128"
target triple = "x86_64-unknown-linux-gnu"

@alloc_f5ffd2fd1476bab43ad89fb40c72d0c5 = private unnamed_addr constant [10 x i8] c"src/lib.rs", align 1
@alloc_9cd10b5e36852d7e733992f2bdbb38d4 = private unnamed_addr constant <{ ptr, [16 x i8] }> <{ ptr @alloc_f5ffd2fd1476bab43ad89fb40c72d0c5, [16 x i8] c"\0A\00\00\00\00\00\00\00,\00\00\00\05\00\00\00" }>, align 8
@alloc_c3192f58229584739f653d6e5b01a30c = private unnamed_addr constant <{ ptr, [16 x i8] }> <{ ptr @alloc_f5ffd2fd1476bab43ad89fb40c72d0c5, [16 x i8] c"\0A\00\00\00\00\00\00\00-\00\00\00\12\00\00\00" }>, align 8
@alloc_782debb62b090b525a0675df684f112c = private unnamed_addr constant <{ ptr, [16 x i8] }> <{ ptr @alloc_f5ffd2fd1476bab43ad89fb40c72d0c5, [16 x i8] c"\0A\00\00\00\00\00\00\00-\00\00\00\05\00\00\00" }>, align 8
@alloc_fb32a7f3cb3058c7529ad63d589789d2 = private unnamed_addr constant <{ ptr, [16 x i8] }> <{ ptr @alloc_f5ffd2fd1476bab43ad89fb40c72d0c5, [16 x i8] c"\0A\00\00\00\00\00\00\002\00\00\00#\00\00\00" }>, align 8
@alloc_0fa31c1059ed1a3b1eba14d36ff0670f = private unnamed_addr constant <{ ptr, [16 x i8] }> <{ ptr @alloc_f5ffd2fd1476bab43ad89fb40c72d0c5, [16 x i8] c"\0A\00\00\00\00\00\00\004\00\00\00\08\00\00\00" }>, align 8
@alloc_1798db994627837293f14d9927779353 = private unnamed_addr constant <{ ptr, [16 x i8] }> <{ ptr @alloc_f5ffd2fd1476bab43ad89fb40c72d0c5, [16 x i8] c"\0A\00\00\00\00\00\00\004\00\00\00\22\00\00\00" }>, align 8
@alloc_46fd63d2b757f95cd300e1d5848c3cf6 = private unnamed_addr constant <{ ptr, [16 x i8] }> <{ ptr @alloc_f5ffd2fd1476bab43ad89fb40c72d0c5, [16 x i8] c"\0A\00\00\00\00\00\00\007\00\00\00\13\00\00\00" }>, align 8
@alloc_772df60789961433f70cf713bf2cfedf = private unnamed_addr constant <{ ptr, [16 x i8] }> <{ ptr @alloc_f5ffd2fd1476bab43ad89fb40c72d0c5, [16 x i8] c"\0A\00\00\00\00\00\00\00<\00\00\00\10\00\00\00" }>, align 8
@alloc_a91a700852dff4932ea8783197138c54 = private unnamed_addr constant <{ ptr, [16 x i8] }> <{ ptr @alloc_f5ffd2fd1476bab43ad89fb40c72d0c5, [16 x i8] c"\0A\00\00\00\00\00\00\00:\00\00\00\10\00\00\00" }>, align 8
@alloc_c5575eda866dd5450cbb531def3c3106 = private unnamed_addr constant <{ ptr, [16 x i8] }> <{ ptr @alloc_f5ffd2fd1476bab43ad89fb40c72d0c5, [16 x i8] c"\0A\00\00\00\00\00\00\00D\00\00\00\0C\00\00\00" }>, align 8
@alloc_ec40ccda9e1f90f1fc6e04d7d1f47049 = private unnamed_addr constant <{ ptr, [16 x i8] }> <{ ptr @alloc_f5ffd2fd1476bab43ad89fb40c72d0c5, [16 x i8] c"\0A\00\00\00\00\00\00\00H\00\00\00\0C\00\00\00" }>, align 8
@alloc_5641af611437933b52efdafe9f524b94 = private unnamed_addr constant <{ ptr, [16 x i8] }> <{ ptr @alloc_f5ffd2fd1476bab43ad89fb40c72d0c5, [16 x i8] c"\0A\00\00\00\00\00\00\00L\00\00\00\08\00\00\00" }>, align 8
@alloc_ba79c131039c7189907ca96660be480a = private unnamed_addr constant <{ ptr, [16 x i8] }> <{ ptr @alloc_f5ffd2fd1476bab43ad89fb40c72d0c5, [16 x i8] c"\0A\00\00\00\00\00\00\00L\00\00\00\22\00\00\00" }>, align 8
@alloc_1b720d7f3c30eb2b3b90179e84b6392d = private unnamed_addr constant [20 x i8] c"Queue is not Empty\0A\00", align 1
@alloc_c6fe032e548566cf5ca13a28c32ef1ec = private unnamed_addr constant [13 x i8] c"Empty Queue\0A\00", align 1
@alloc_7ebff165463d26610c59f877914f7a2f = private unnamed_addr constant <{ ptr, [16 x i8] }> <{ ptr @alloc_f5ffd2fd1476bab43ad89fb40c72d0c5, [16 x i8] c"\0A\00\00\00\00\00\00\00V\00\00\00\05\00\00\00" }>, align 8
@alloc_4dc9d9ad7a45d2b5b4b18d2f05142242 = private unnamed_addr constant <{ ptr, [16 x i8] }> <{ ptr @alloc_f5ffd2fd1476bab43ad89fb40c72d0c5, [16 x i8] c"\0A\00\00\00\00\00\00\00W\00\00\00\05\00\00\00" }>, align 8
@alloc_259a88bf73d4e28dc20b8ac2f4a601c4 = private unnamed_addr constant <{ ptr, [16 x i8] }> <{ ptr @alloc_f5ffd2fd1476bab43ad89fb40c72d0c5, [16 x i8] c"\0A\00\00\00\00\00\00\00X\00\00\00\08\00\00\00" }>, align 8
@alloc_7c1f2417962bbde59e02acb982ab8aa3 = private unnamed_addr constant <{ ptr, [16 x i8] }> <{ ptr @alloc_f5ffd2fd1476bab43ad89fb40c72d0c5, [16 x i8] c"\0A\00\00\00\00\00\00\00\\\00\00\00\09\00\00\00" }>, align 8
@alloc_02a491e6a6ac09e3a7b94b7d5cba4310 = private unnamed_addr constant <{ ptr, [16 x i8] }> <{ ptr @alloc_f5ffd2fd1476bab43ad89fb40c72d0c5, [16 x i8] c"\0A\00\00\00\00\00\00\00]\00\00\00\09\00\00\00" }>, align 8
@alloc_178a6fa9e79826942eeefeb2dd3da34d = private unnamed_addr constant <{ ptr, [16 x i8] }> <{ ptr @alloc_f5ffd2fd1476bab43ad89fb40c72d0c5, [16 x i8] c"\0A\00\00\00\00\00\00\00Y\00\00\00\09\00\00\00" }>, align 8
@alloc_1d6bde5e5bc23c74086d8d351a76de99 = private unnamed_addr constant <{ ptr, [16 x i8] }> <{ ptr @alloc_f5ffd2fd1476bab43ad89fb40c72d0c5, [16 x i8] c"\0A\00\00\00\00\00\00\00Z\00\00\00\16\00\00\00" }>, align 8
@alloc_159c37ce4f4281bfd849b4768401ae50 = private unnamed_addr constant <{ ptr, [16 x i8] }> <{ ptr @alloc_f5ffd2fd1476bab43ad89fb40c72d0c5, [16 x i8] c"\0A\00\00\00\00\00\00\00Z\00\00\00\09\00\00\00" }>, align 8
@alloc_8bb2e3038f5f5fcce792eba5e18a571f = private unnamed_addr constant <{ ptr, [16 x i8] }> <{ ptr @alloc_f5ffd2fd1476bab43ad89fb40c72d0c5, [16 x i8] c"\0A\00\00\00\00\00\00\00c\00\00\00\08\00\00\00" }>, align 8
@alloc_3f0d57d7530178370fbcb70690196195 = private unnamed_addr constant <{ ptr, [16 x i8] }> <{ ptr @alloc_f5ffd2fd1476bab43ad89fb40c72d0c5, [16 x i8] c"\0A\00\00\00\00\00\00\00g\00\00\00\10\00\00\00" }>, align 8
@alloc_7658ec5e338ba294208668d8117eaa24 = private unnamed_addr constant <{ ptr, [16 x i8] }> <{ ptr @alloc_f5ffd2fd1476bab43ad89fb40c72d0c5, [16 x i8] c"\0A\00\00\00\00\00\00\00h\00\00\00\16\00\00\00" }>, align 8
@alloc_1aa9c3ab3ec38e0d3207d2e5ac4937bd = private unnamed_addr constant <{ ptr, [16 x i8] }> <{ ptr @alloc_f5ffd2fd1476bab43ad89fb40c72d0c5, [16 x i8] c"\0A\00\00\00\00\00\00\00h\00\00\00\09\00\00\00" }>, align 8
@alloc_91139f96af7dfe19334504532fc3a846 = private unnamed_addr constant <{ ptr, [16 x i8] }> <{ ptr @alloc_f5ffd2fd1476bab43ad89fb40c72d0c5, [16 x i8] c"\0A\00\00\00\00\00\00\00i\00\00\00\0C\00\00\00" }>, align 8
@alloc_777a9fb2830172cd62dcecf38da8cdc6 = private unnamed_addr constant <{ ptr, [16 x i8] }> <{ ptr @alloc_f5ffd2fd1476bab43ad89fb40c72d0c5, [16 x i8] c"\0A\00\00\00\00\00\00\00j\00\00\00\0D\00\00\00" }>, align 8
@alloc_5fad334b22391fb35e94ae82d92e9143 = private unnamed_addr constant [22 x i8] c"Removed Element : %d\0A\00", align 1
@alloc_8f226039eb518008340a7477715fa328 = private unnamed_addr constant <{ ptr, [16 x i8] }> <{ ptr @alloc_f5ffd2fd1476bab43ad89fb40c72d0c5, [16 x i8] c"\0A\00\00\00\00\00\00\00n\00\00\00\0D\00\00\00" }>, align 8
@alloc_8421308ef077e0b6294cd0d81a904ef7 = private unnamed_addr constant [18 x i8] c"\0AQueue is Empty \0A\00", align 1
@alloc_050f7e6f6ce2d00ef1508f8dcd3869d6 = private unnamed_addr constant <{ ptr, [16 x i8] }> <{ ptr @alloc_f5ffd2fd1476bab43ad89fb40c72d0c5, [16 x i8] c"\0A\00\00\00\00\00\00\00u\00\00\00#\00\00\00" }>, align 8
@alloc_aa7fa7ca133e0e652197da50191f3b29 = private unnamed_addr constant <{ ptr, [16 x i8] }> <{ ptr @alloc_f5ffd2fd1476bab43ad89fb40c72d0c5, [16 x i8] c"\0A\00\00\00\00\00\00\00v\00\00\00\08\00\00\00" }>, align 8
@alloc_99ce224de2a3e789c28a71d0276af4b1 = private unnamed_addr constant <{ ptr, [16 x i8] }> <{ ptr @alloc_f5ffd2fd1476bab43ad89fb40c72d0c5, [16 x i8] c"\0A\00\00\00\00\00\00\00v\00\00\00\22\00\00\00" }>, align 8
@alloc_3a31753a0b113451bf74f615363720ce = private unnamed_addr constant [3 x i8] c"%d\00", align 1
@alloc_08823d3391a0d9ef6ce1552a18bd4bab = private unnamed_addr constant <{ ptr, [16 x i8] }> <{ ptr @alloc_f5ffd2fd1476bab43ad89fb40c72d0c5, [16 x i8] c"\0A\00\00\00\00\00\00\00{\00\00\00=\00\00\00" }>, align 8
@alloc_994c4ce95b3a1be0e0e386673611178e = private unnamed_addr constant <{ ptr, [16 x i8] }> <{ ptr @alloc_f5ffd2fd1476bab43ad89fb40c72d0c5, [16 x i8] c"\0A\00\00\00\00\00\00\00|\00\00\00\10\00\00\00" }>, align 8
@alloc_edca6fca6f3bd469581a2559907aba10 = private unnamed_addr constant [4 x i8] c"-->\00", align 1
@alloc_54981cf7de5e38aaa858f80975b29707 = private unnamed_addr constant [16 x i8] c"Queue is Empty\0A\00", align 1
@alloc_f0586ccb815f74275661c8f022cd2d49 = private unnamed_addr constant <{ ptr, [16 x i8] }> <{ ptr @alloc_f5ffd2fd1476bab43ad89fb40c72d0c5, [16 x i8] c"\0A\00\00\00\00\00\00\00\85\00\00\00\0C\00\00\00" }>, align 8
@alloc_1bde55f592e87209333373f3bc0d3f6d = private unnamed_addr constant <{ ptr, [16 x i8] }> <{ ptr @alloc_f5ffd2fd1476bab43ad89fb40c72d0c5, [16 x i8] c"\0A\00\00\00\00\00\00\00\86\00\00\00\10\00\00\00" }>, align 8
@alloc_4b81c307921488104e6c3f046b5e4fa7 = private unnamed_addr constant [27 x i8] c"Element being deleted: %d\0A\00", align 1
@alloc_60c5e30d815d66a2ad0eabef9a44123b = private unnamed_addr constant <{ ptr, [16 x i8] }> <{ ptr @alloc_f5ffd2fd1476bab43ad89fb40c72d0c5, [16 x i8] c"\0A\00\00\00\00\00\00\00\89\00\00\00\0D\00\00\00" }>, align 8
@alloc_83ec356882fa0135c44d1ea7a6068a39 = private unnamed_addr constant <{ ptr, [16 x i8] }> <{ ptr @alloc_f5ffd2fd1476bab43ad89fb40c72d0c5, [16 x i8] c"\0A\00\00\00\00\00\00\00\8B\00\00\00\16\00\00\00" }>, align 8
@alloc_847817f60a835e11a29d83b54122ef92 = private unnamed_addr constant <{ ptr, [16 x i8] }> <{ ptr @alloc_f5ffd2fd1476bab43ad89fb40c72d0c5, [16 x i8] c"\0A\00\00\00\00\00\00\00\8B\00\00\00\09\00\00\00" }>, align 8

; core::ptr::mut_ptr::<impl *mut T>::is_null
; Function Attrs: inlinehint nounwind nonlazybind
define internal zeroext i1 @"_ZN4core3ptr7mut_ptr31_$LT$impl$u20$$BP$mut$u20$T$GT$7is_null17h0fd71c0dd408a122E"(ptr %self) unnamed_addr #0 {
start:
  %_3 = ptrtoint ptr %self to i64
  %_0 = icmp eq i64 %_3, 0
  ret i1 %_0
}

; core::ptr::mut_ptr::<impl *mut T>::is_null
; Function Attrs: inlinehint nounwind nonlazybind
define internal zeroext i1 @"_ZN4core3ptr7mut_ptr31_$LT$impl$u20$$BP$mut$u20$T$GT$7is_null17h796ebd6db58dcb21E"(ptr %self) unnamed_addr #0 {
start:
  %_3 = ptrtoint ptr %self to i64
  %_0 = icmp eq i64 %_3, 0
  ret i1 %_0
}

; Function Attrs: nounwind nonlazybind
define ptr @CreateQueue() unnamed_addr #1 {
start:
  %temp = alloca [8 x i8], align 8
  %Q = alloca [8 x i8], align 8
  %_0 = alloca [8 x i8], align 8
  store ptr null, ptr %Q, align 8
  store ptr null, ptr %temp, align 8
  %_3 = call ptr @malloc(i64 16) #3
  store ptr %_3, ptr %Q, align 8
  %_7 = load ptr, ptr %Q, align 8
; call core::ptr::mut_ptr::<impl *mut T>::is_null
  %_6 = call zeroext i1 @"_ZN4core3ptr7mut_ptr31_$LT$impl$u20$$BP$mut$u20$T$GT$7is_null17h796ebd6db58dcb21E"(ptr %_7) #3
  br i1 %_6, label %bb4, label %bb5

bb5:                                              ; preds = %start
  %_8 = call ptr @malloc(i64 16) #3
  store ptr %_8, ptr %temp, align 8
  %_24 = load ptr, ptr %Q, align 8
  %_25 = ptrtoint ptr %_24 to i64
  %_28 = and i64 %_25, 7
  %_29 = icmp eq i64 %_28, 0
  br i1 %_29, label %bb11, label %panic

bb4:                                              ; preds = %start
  store ptr null, ptr %_0, align 8
  br label %bb8

bb11:                                             ; preds = %bb5
  %_30 = load ptr, ptr %Q, align 8
  %_31 = ptrtoint ptr %_30 to i64
  %_34 = icmp eq i64 %_31, 0
  %_35 = and i1 %_34, true
  %_36 = xor i1 %_35, true
  br i1 %_36, label %bb12, label %panic1

panic:                                            ; preds = %bb5
; call core::panicking::panic_misaligned_pointer_dereference
  call void @_ZN4core9panicking36panic_misaligned_pointer_dereference17hcc3cbded9382b6e5E(i64 8, i64 %_25, ptr align 8 @alloc_9cd10b5e36852d7e733992f2bdbb38d4) #4
  unreachable

bb12:                                             ; preds = %bb11
  %0 = load ptr, ptr %Q, align 8
  %1 = getelementptr inbounds i8, ptr %0, i64 8
  store ptr null, ptr %1, align 8
  %_18 = load ptr, ptr %Q, align 8
  %_19 = ptrtoint ptr %_18 to i64
  %_22 = and i64 %_19, 7
  %_23 = icmp eq i64 %_22, 0
  br i1 %_23, label %bb10, label %panic2

panic1:                                           ; preds = %bb11
; call core::panicking::panic_null_pointer_dereference
  call void @_ZN4core9panicking30panic_null_pointer_dereference17hf718fcc86a223baaE(ptr align 8 @alloc_9cd10b5e36852d7e733992f2bdbb38d4) #4
  unreachable

bb10:                                             ; preds = %bb12
  %_37 = load ptr, ptr %Q, align 8
  %_38 = ptrtoint ptr %_37 to i64
  %_41 = icmp eq i64 %_38, 0
  %_42 = and i1 %_41, true
  %_43 = xor i1 %_42, true
  br i1 %_43, label %bb13, label %panic3

panic2:                                           ; preds = %bb12
; call core::panicking::panic_misaligned_pointer_dereference
  call void @_ZN4core9panicking36panic_misaligned_pointer_dereference17hcc3cbded9382b6e5E(i64 8, i64 %_19, ptr align 8 @alloc_c3192f58229584739f653d6e5b01a30c) #4
  unreachable

bb13:                                             ; preds = %bb10
  %2 = load ptr, ptr %Q, align 8
  %3 = getelementptr inbounds i8, ptr %2, i64 8
  %_11 = load ptr, ptr %3, align 8
  %_12 = load ptr, ptr %Q, align 8
  %_13 = ptrtoint ptr %_12 to i64
  %_16 = and i64 %_13, 7
  %_17 = icmp eq i64 %_16, 0
  br i1 %_17, label %bb9, label %panic4

panic3:                                           ; preds = %bb10
; call core::panicking::panic_null_pointer_dereference
  call void @_ZN4core9panicking30panic_null_pointer_dereference17hf718fcc86a223baaE(ptr align 8 @alloc_c3192f58229584739f653d6e5b01a30c) #4
  unreachable

bb9:                                              ; preds = %bb13
  %_44 = load ptr, ptr %Q, align 8
  %_45 = ptrtoint ptr %_44 to i64
  %_48 = icmp eq i64 %_45, 0
  %_49 = and i1 %_48, true
  %_50 = xor i1 %_49, true
  br i1 %_50, label %bb14, label %panic5

panic4:                                           ; preds = %bb13
; call core::panicking::panic_misaligned_pointer_dereference
  call void @_ZN4core9panicking36panic_misaligned_pointer_dereference17hcc3cbded9382b6e5E(i64 8, i64 %_13, ptr align 8 @alloc_782debb62b090b525a0675df684f112c) #4
  unreachable

bb14:                                             ; preds = %bb9
  %4 = load ptr, ptr %Q, align 8
  store ptr %_11, ptr %4, align 8
  %5 = load ptr, ptr %Q, align 8
  store ptr %5, ptr %_0, align 8
  br label %bb8

panic5:                                           ; preds = %bb9
; call core::panicking::panic_null_pointer_dereference
  call void @_ZN4core9panicking30panic_null_pointer_dereference17hf718fcc86a223baaE(ptr align 8 @alloc_782debb62b090b525a0675df684f112c) #4
  unreachable

bb8:                                              ; preds = %bb4, %bb14
  %6 = load ptr, ptr %_0, align 8
  ret ptr %6
}

; Function Attrs: nounwind nonlazybind
define i32 @size(ptr %Q) unnamed_addr #1 {
start:
  %count = alloca [4 x i8], align 4
  %temp = alloca [8 x i8], align 8
  %_0 = alloca [4 x i8], align 4
  %_46 = ptrtoint ptr %Q to i64
  %_49 = and i64 %_46, 7
  %_50 = icmp eq i64 %_49, 0
  br i1 %_50, label %bb16, label %panic

bb16:                                             ; preds = %start
  %_52 = ptrtoint ptr %Q to i64
  %_55 = icmp eq i64 %_52, 0
  %_56 = and i1 %_55, true
  %_57 = xor i1 %_56, true
  br i1 %_57, label %bb17, label %panic1

panic:                                            ; preds = %start
; call core::panicking::panic_misaligned_pointer_dereference
  call void @_ZN4core9panicking36panic_misaligned_pointer_dereference17hcc3cbded9382b6e5E(i64 8, i64 %_46, ptr align 8 @alloc_fb32a7f3cb3058c7529ad63d589789d2) #4
  unreachable

bb17:                                             ; preds = %bb16
  %0 = load ptr, ptr %Q, align 8
  store ptr %0, ptr %temp, align 8
  store i32 0, ptr %count, align 4
  %_40 = ptrtoint ptr %Q to i64
  %_43 = and i64 %_40, 7
  %_44 = icmp eq i64 %_43, 0
  br i1 %_44, label %bb15, label %panic2

panic1:                                           ; preds = %bb16
; call core::panicking::panic_null_pointer_dereference
  call void @_ZN4core9panicking30panic_null_pointer_dereference17hf718fcc86a223baaE(ptr align 8 @alloc_fb32a7f3cb3058c7529ad63d589789d2) #4
  unreachable

bb15:                                             ; preds = %bb17
  %_59 = ptrtoint ptr %Q to i64
  %_62 = icmp eq i64 %_59, 0
  %_63 = and i1 %_62, true
  %_64 = xor i1 %_63, true
  br i1 %_64, label %bb18, label %panic3

panic2:                                           ; preds = %bb17
; call core::panicking::panic_misaligned_pointer_dereference
  call void @_ZN4core9panicking36panic_misaligned_pointer_dereference17hcc3cbded9382b6e5E(i64 8, i64 %_40, ptr align 8 @alloc_0fa31c1059ed1a3b1eba14d36ff0670f) #4
  unreachable

bb18:                                             ; preds = %bb15
  %_5 = load ptr, ptr %Q, align 8
; call core::ptr::mut_ptr::<impl *mut T>::is_null
  %_4 = call zeroext i1 @"_ZN4core3ptr7mut_ptr31_$LT$impl$u20$$BP$mut$u20$T$GT$7is_null17h0fd71c0dd408a122E"(ptr %_5) #3
  br i1 %_4, label %bb2, label %bb5

panic3:                                           ; preds = %bb15
; call core::panicking::panic_null_pointer_dereference
  call void @_ZN4core9panicking30panic_null_pointer_dereference17hf718fcc86a223baaE(ptr align 8 @alloc_0fa31c1059ed1a3b1eba14d36ff0670f) #4
  unreachable

bb5:                                              ; preds = %bb21, %bb19, %bb18
  %_9 = load ptr, ptr %temp, align 8
  %_28 = ptrtoint ptr %Q to i64
  %_31 = and i64 %_28, 7
  %_32 = icmp eq i64 %_31, 0
  br i1 %_32, label %bb13, label %panic6

bb2:                                              ; preds = %bb18
  %_34 = ptrtoint ptr %Q to i64
  %_37 = and i64 %_34, 7
  %_38 = icmp eq i64 %_37, 0
  br i1 %_38, label %bb14, label %panic4

bb14:                                             ; preds = %bb2
  %_66 = ptrtoint ptr %Q to i64
  %_69 = icmp eq i64 %_66, 0
  %_70 = and i1 %_69, true
  %_71 = xor i1 %_70, true
  br i1 %_71, label %bb19, label %panic5

panic4:                                           ; preds = %bb2
; call core::panicking::panic_misaligned_pointer_dereference
  call void @_ZN4core9panicking36panic_misaligned_pointer_dereference17hcc3cbded9382b6e5E(i64 8, i64 %_34, ptr align 8 @alloc_1798db994627837293f14d9927779353) #4
  unreachable

bb19:                                             ; preds = %bb14
  %1 = getelementptr inbounds i8, ptr %Q, i64 8
  %_7 = load ptr, ptr %1, align 8
; call core::ptr::mut_ptr::<impl *mut T>::is_null
  %_6 = call zeroext i1 @"_ZN4core3ptr7mut_ptr31_$LT$impl$u20$$BP$mut$u20$T$GT$7is_null17h0fd71c0dd408a122E"(ptr %_7) #3
  br i1 %_6, label %bb4, label %bb5

panic5:                                           ; preds = %bb14
; call core::panicking::panic_null_pointer_dereference
  call void @_ZN4core9panicking30panic_null_pointer_dereference17hf718fcc86a223baaE(ptr align 8 @alloc_1798db994627837293f14d9927779353) #4
  unreachable

bb4:                                              ; preds = %bb19
  store i32 0, ptr %_0, align 4
  br label %bb10

bb13:                                             ; preds = %bb5
  %_73 = ptrtoint ptr %Q to i64
  %_76 = icmp eq i64 %_73, 0
  %_77 = and i1 %_76, true
  %_78 = xor i1 %_77, true
  br i1 %_78, label %bb20, label %panic7

panic6:                                           ; preds = %bb5
; call core::panicking::panic_misaligned_pointer_dereference
  call void @_ZN4core9panicking36panic_misaligned_pointer_dereference17hcc3cbded9382b6e5E(i64 8, i64 %_28, ptr align 8 @alloc_46fd63d2b757f95cd300e1d5848c3cf6) #4
  unreachable

bb20:                                             ; preds = %bb13
  %2 = getelementptr inbounds i8, ptr %Q, i64 8
  %_10 = load ptr, ptr %2, align 8
  %_8 = icmp ne ptr %_9, %_10
  br i1 %_8, label %bb6, label %bb7

panic7:                                           ; preds = %bb13
; call core::panicking::panic_null_pointer_dereference
  call void @_ZN4core9panicking30panic_null_pointer_dereference17hf718fcc86a223baaE(ptr align 8 @alloc_46fd63d2b757f95cd300e1d5848c3cf6) #4
  unreachable

bb7:                                              ; preds = %bb20
  %_13 = load ptr, ptr %temp, align 8
  %_16 = ptrtoint ptr %Q to i64
  %_19 = and i64 %_16, 7
  %_20 = icmp eq i64 %_19, 0
  br i1 %_20, label %bb11, label %panic8

bb6:                                              ; preds = %bb20
  %3 = load i32, ptr %count, align 4
  %4 = add i32 %3, 1
  store i32 %4, ptr %count, align 4
  %_21 = load ptr, ptr %temp, align 8
  %_22 = ptrtoint ptr %_21 to i64
  %_25 = and i64 %_22, 7
  %_26 = icmp eq i64 %_25, 0
  br i1 %_26, label %bb12, label %panic10

bb11:                                             ; preds = %bb7
  %_87 = ptrtoint ptr %Q to i64
  %_90 = icmp eq i64 %_87, 0
  %_91 = and i1 %_90, true
  %_92 = xor i1 %_91, true
  br i1 %_92, label %bb22, label %panic9

panic8:                                           ; preds = %bb7
; call core::panicking::panic_misaligned_pointer_dereference
  call void @_ZN4core9panicking36panic_misaligned_pointer_dereference17hcc3cbded9382b6e5E(i64 8, i64 %_16, ptr align 8 @alloc_772df60789961433f70cf713bf2cfedf) #4
  unreachable

bb22:                                             ; preds = %bb11
  %5 = getelementptr inbounds i8, ptr %Q, i64 8
  %_14 = load ptr, ptr %5, align 8
  %_12 = icmp eq ptr %_13, %_14
  br i1 %_12, label %bb8, label %bb9

panic9:                                           ; preds = %bb11
; call core::panicking::panic_null_pointer_dereference
  call void @_ZN4core9panicking30panic_null_pointer_dereference17hf718fcc86a223baaE(ptr align 8 @alloc_772df60789961433f70cf713bf2cfedf) #4
  unreachable

bb9:                                              ; preds = %bb8, %bb22
  %6 = load i32, ptr %count, align 4
  store i32 %6, ptr %_0, align 4
  br label %bb10

bb8:                                              ; preds = %bb22
  %7 = load i32, ptr %count, align 4
  %8 = add i32 %7, 1
  store i32 %8, ptr %count, align 4
  br label %bb9

bb10:                                             ; preds = %bb4, %bb9
  %9 = load i32, ptr %_0, align 4
  ret i32 %9

bb12:                                             ; preds = %bb6
  %_79 = load ptr, ptr %temp, align 8
  %_80 = ptrtoint ptr %_79 to i64
  %_83 = icmp eq i64 %_80, 0
  %_84 = and i1 %_83, true
  %_85 = xor i1 %_84, true
  br i1 %_85, label %bb21, label %panic11

panic10:                                          ; preds = %bb6
; call core::panicking::panic_misaligned_pointer_dereference
  call void @_ZN4core9panicking36panic_misaligned_pointer_dereference17hcc3cbded9382b6e5E(i64 8, i64 %_22, ptr align 8 @alloc_a91a700852dff4932ea8783197138c54) #4
  unreachable

bb21:                                             ; preds = %bb12
  %10 = load ptr, ptr %temp, align 8
  %11 = getelementptr inbounds i8, ptr %10, i64 8
  %_11 = load ptr, ptr %11, align 8
  store ptr %_11, ptr %temp, align 8
  br label %bb5

panic11:                                          ; preds = %bb12
; call core::panicking::panic_null_pointer_dereference
  call void @_ZN4core9panicking30panic_null_pointer_dereference17hf718fcc86a223baaE(ptr align 8 @alloc_a91a700852dff4932ea8783197138c54) #4
  unreachable
}

; Function Attrs: nounwind nonlazybind
define i32 @frontElement(ptr %Q) unnamed_addr #1 {
start:
  %_2 = load ptr, ptr %Q, align 8
  %_4 = ptrtoint ptr %_2 to i64
  %_7 = and i64 %_4, 7
  %_8 = icmp eq i64 %_7, 0
  br i1 %_8, label %bb1, label %panic

bb1:                                              ; preds = %start
  %_10 = ptrtoint ptr %_2 to i64
  %_13 = icmp eq i64 %_10, 0
  %_14 = and i1 %_13, true
  %_15 = xor i1 %_14, true
  br i1 %_15, label %bb2, label %panic1

panic:                                            ; preds = %start
; call core::panicking::panic_misaligned_pointer_dereference
  call void @_ZN4core9panicking36panic_misaligned_pointer_dereference17hcc3cbded9382b6e5E(i64 8, i64 %_4, ptr align 8 @alloc_c5575eda866dd5450cbb531def3c3106) #4
  unreachable

bb2:                                              ; preds = %bb1
  %_0 = load i32, ptr %_2, align 8
  ret i32 %_0

panic1:                                           ; preds = %bb1
; call core::panicking::panic_null_pointer_dereference
  call void @_ZN4core9panicking30panic_null_pointer_dereference17hf718fcc86a223baaE(ptr align 8 @alloc_c5575eda866dd5450cbb531def3c3106) #4
  unreachable
}

; Function Attrs: nounwind nonlazybind
define i32 @rearElement(ptr %Q) unnamed_addr #1 {
start:
  %0 = getelementptr inbounds i8, ptr %Q, i64 8
  %_2 = load ptr, ptr %0, align 8
  %_4 = ptrtoint ptr %_2 to i64
  %_7 = and i64 %_4, 7
  %_8 = icmp eq i64 %_7, 0
  br i1 %_8, label %bb1, label %panic

bb1:                                              ; preds = %start
  %_10 = ptrtoint ptr %_2 to i64
  %_13 = icmp eq i64 %_10, 0
  %_14 = and i1 %_13, true
  %_15 = xor i1 %_14, true
  br i1 %_15, label %bb2, label %panic1

panic:                                            ; preds = %start
; call core::panicking::panic_misaligned_pointer_dereference
  call void @_ZN4core9panicking36panic_misaligned_pointer_dereference17hcc3cbded9382b6e5E(i64 8, i64 %_4, ptr align 8 @alloc_ec40ccda9e1f90f1fc6e04d7d1f47049) #4
  unreachable

bb2:                                              ; preds = %bb1
  %_0 = load i32, ptr %_2, align 8
  ret i32 %_0

panic1:                                           ; preds = %bb1
; call core::panicking::panic_null_pointer_dereference
  call void @_ZN4core9panicking30panic_null_pointer_dereference17hf718fcc86a223baaE(ptr align 8 @alloc_ec40ccda9e1f90f1fc6e04d7d1f47049) #4
  unreachable
}

; Function Attrs: nounwind nonlazybind
define void @isEmpty(ptr %Q) unnamed_addr #1 {
start:
  %_23 = ptrtoint ptr %Q to i64
  %_26 = and i64 %_23, 7
  %_27 = icmp eq i64 %_26, 0
  br i1 %_27, label %bb8, label %panic

bb8:                                              ; preds = %start
  %_29 = ptrtoint ptr %Q to i64
  %_32 = icmp eq i64 %_29, 0
  %_33 = and i1 %_32, true
  %_34 = xor i1 %_33, true
  br i1 %_34, label %bb9, label %panic1

panic:                                            ; preds = %start
; call core::panicking::panic_misaligned_pointer_dereference
  call void @_ZN4core9panicking36panic_misaligned_pointer_dereference17hcc3cbded9382b6e5E(i64 8, i64 %_23, ptr align 8 @alloc_5641af611437933b52efdafe9f524b94) #4
  unreachable

bb9:                                              ; preds = %bb8
  %_3 = load ptr, ptr %Q, align 8
; call core::ptr::mut_ptr::<impl *mut T>::is_null
  %_2 = call zeroext i1 @"_ZN4core3ptr7mut_ptr31_$LT$impl$u20$$BP$mut$u20$T$GT$7is_null17h0fd71c0dd408a122E"(ptr %_3) #3
  br i1 %_2, label %bb2, label %bb5

panic1:                                           ; preds = %bb8
; call core::panicking::panic_null_pointer_dereference
  call void @_ZN4core9panicking30panic_null_pointer_dereference17hf718fcc86a223baaE(ptr align 8 @alloc_5641af611437933b52efdafe9f524b94) #4
  unreachable

bb5:                                              ; preds = %bb10, %bb9
  %_11 = call i32 (ptr, ...) @printf(ptr @alloc_1b720d7f3c30eb2b3b90179e84b6392d) #3
  br label %bb6

bb2:                                              ; preds = %bb9
  %_17 = ptrtoint ptr %Q to i64
  %_20 = and i64 %_17, 7
  %_21 = icmp eq i64 %_20, 0
  br i1 %_21, label %bb7, label %panic2

bb7:                                              ; preds = %bb2
  %_36 = ptrtoint ptr %Q to i64
  %_39 = icmp eq i64 %_36, 0
  %_40 = and i1 %_39, true
  %_41 = xor i1 %_40, true
  br i1 %_41, label %bb10, label %panic3

panic2:                                           ; preds = %bb2
; call core::panicking::panic_misaligned_pointer_dereference
  call void @_ZN4core9panicking36panic_misaligned_pointer_dereference17hcc3cbded9382b6e5E(i64 8, i64 %_17, ptr align 8 @alloc_ba79c131039c7189907ca96660be480a) #4
  unreachable

bb10:                                             ; preds = %bb7
  %0 = getelementptr inbounds i8, ptr %Q, i64 8
  %_5 = load ptr, ptr %0, align 8
; call core::ptr::mut_ptr::<impl *mut T>::is_null
  %_4 = call zeroext i1 @"_ZN4core3ptr7mut_ptr31_$LT$impl$u20$$BP$mut$u20$T$GT$7is_null17h0fd71c0dd408a122E"(ptr %_5) #3
  br i1 %_4, label %bb4, label %bb5

panic3:                                           ; preds = %bb7
; call core::panicking::panic_null_pointer_dereference
  call void @_ZN4core9panicking30panic_null_pointer_dereference17hf718fcc86a223baaE(ptr align 8 @alloc_ba79c131039c7189907ca96660be480a) #4
  unreachable

bb4:                                              ; preds = %bb10
  %_6 = call i32 (ptr, ...) @printf(ptr @alloc_c6fe032e548566cf5ca13a28c32ef1ec) #3
  br label %bb6

bb6:                                              ; preds = %bb4, %bb5
  ret void
}

; Function Attrs: nounwind nonlazybind
define void @enqueue(ptr %Q, i32 %num) unnamed_addr #1 {
start:
  %temp = alloca [8 x i8], align 8
  store ptr null, ptr %temp, align 8
  %_4 = call ptr @malloc(i64 16) #3
  store ptr %_4, ptr %temp, align 8
  %_56 = load ptr, ptr %temp, align 8
  %_57 = ptrtoint ptr %_56 to i64
  %_60 = and i64 %_57, 7
  %_61 = icmp eq i64 %_60, 0
  br i1 %_61, label %bb14, label %panic

bb14:                                             ; preds = %start
  %_62 = load ptr, ptr %temp, align 8
  %_63 = ptrtoint ptr %_62 to i64
  %_66 = icmp eq i64 %_63, 0
  %_67 = and i1 %_66, true
  %_68 = xor i1 %_67, true
  br i1 %_68, label %bb15, label %panic1

panic:                                            ; preds = %start
; call core::panicking::panic_misaligned_pointer_dereference
  call void @_ZN4core9panicking36panic_misaligned_pointer_dereference17hcc3cbded9382b6e5E(i64 8, i64 %_57, ptr align 8 @alloc_7ebff165463d26610c59f877914f7a2f) #4
  unreachable

bb15:                                             ; preds = %bb14
  %0 = load ptr, ptr %temp, align 8
  store i32 %num, ptr %0, align 8
  %_50 = load ptr, ptr %temp, align 8
  %_51 = ptrtoint ptr %_50 to i64
  %_54 = and i64 %_51, 7
  %_55 = icmp eq i64 %_54, 0
  br i1 %_55, label %bb13, label %panic2

panic1:                                           ; preds = %bb14
; call core::panicking::panic_null_pointer_dereference
  call void @_ZN4core9panicking30panic_null_pointer_dereference17hf718fcc86a223baaE(ptr align 8 @alloc_7ebff165463d26610c59f877914f7a2f) #4
  unreachable

bb13:                                             ; preds = %bb15
  %_69 = load ptr, ptr %temp, align 8
  %_70 = ptrtoint ptr %_69 to i64
  %_73 = icmp eq i64 %_70, 0
  %_74 = and i1 %_73, true
  %_75 = xor i1 %_74, true
  br i1 %_75, label %bb16, label %panic3

panic2:                                           ; preds = %bb15
; call core::panicking::panic_misaligned_pointer_dereference
  call void @_ZN4core9panicking36panic_misaligned_pointer_dereference17hcc3cbded9382b6e5E(i64 8, i64 %_51, ptr align 8 @alloc_4dc9d9ad7a45d2b5b4b18d2f05142242) #4
  unreachable

bb16:                                             ; preds = %bb13
  %1 = load ptr, ptr %temp, align 8
  %2 = getelementptr inbounds i8, ptr %1, i64 8
  store ptr null, ptr %2, align 8
  %_45 = ptrtoint ptr %Q to i64
  %_48 = and i64 %_45, 7
  %_49 = icmp eq i64 %_48, 0
  br i1 %_49, label %bb12, label %panic4

panic3:                                           ; preds = %bb13
; call core::panicking::panic_null_pointer_dereference
  call void @_ZN4core9panicking30panic_null_pointer_dereference17hf718fcc86a223baaE(ptr align 8 @alloc_4dc9d9ad7a45d2b5b4b18d2f05142242) #4
  unreachable

bb12:                                             ; preds = %bb16
  %_77 = ptrtoint ptr %Q to i64
  %_80 = icmp eq i64 %_77, 0
  %_81 = and i1 %_80, true
  %_82 = xor i1 %_81, true
  br i1 %_82, label %bb17, label %panic5

panic4:                                           ; preds = %bb16
; call core::panicking::panic_misaligned_pointer_dereference
  call void @_ZN4core9panicking36panic_misaligned_pointer_dereference17hcc3cbded9382b6e5E(i64 8, i64 %_45, ptr align 8 @alloc_259a88bf73d4e28dc20b8ac2f4a601c4) #4
  unreachable

bb17:                                             ; preds = %bb12
  %3 = getelementptr inbounds i8, ptr %Q, i64 8
  %_8 = load ptr, ptr %3, align 8
; call core::ptr::mut_ptr::<impl *mut T>::is_null
  %_7 = call zeroext i1 @"_ZN4core3ptr7mut_ptr31_$LT$impl$u20$$BP$mut$u20$T$GT$7is_null17h0fd71c0dd408a122E"(ptr %_8) #3
  br i1 %_7, label %bb4, label %bb5

panic5:                                           ; preds = %bb12
; call core::panicking::panic_null_pointer_dereference
  call void @_ZN4core9panicking30panic_null_pointer_dereference17hf718fcc86a223baaE(ptr align 8 @alloc_259a88bf73d4e28dc20b8ac2f4a601c4) #4
  unreachable

bb5:                                              ; preds = %bb17
  %_11 = load ptr, ptr %temp, align 8
  %4 = getelementptr inbounds i8, ptr %Q, i64 8
  %_13 = load ptr, ptr %4, align 8
  %_21 = ptrtoint ptr %_13 to i64
  %_24 = and i64 %_21, 7
  %_25 = icmp eq i64 %_24, 0
  br i1 %_25, label %bb8, label %panic6

bb4:                                              ; preds = %bb17
  %_9 = load ptr, ptr %temp, align 8
  %_39 = ptrtoint ptr %Q to i64
  %_42 = and i64 %_39, 7
  %_43 = icmp eq i64 %_42, 0
  br i1 %_43, label %bb11, label %panic10

bb8:                                              ; preds = %bb5
  %_105 = ptrtoint ptr %_13 to i64
  %_108 = icmp eq i64 %_105, 0
  %_109 = and i1 %_108, true
  %_110 = xor i1 %_109, true
  br i1 %_110, label %bb21, label %panic7

panic6:                                           ; preds = %bb5
; call core::panicking::panic_misaligned_pointer_dereference
  call void @_ZN4core9panicking36panic_misaligned_pointer_dereference17hcc3cbded9382b6e5E(i64 8, i64 %_21, ptr align 8 @alloc_7c1f2417962bbde59e02acb982ab8aa3) #4
  unreachable

bb21:                                             ; preds = %bb8
  %5 = getelementptr inbounds i8, ptr %_13, i64 8
  store ptr %_11, ptr %5, align 8
  %_12 = load ptr, ptr %temp, align 8
  %_15 = ptrtoint ptr %Q to i64
  %_18 = and i64 %_15, 7
  %_19 = icmp eq i64 %_18, 0
  br i1 %_19, label %bb7, label %panic8

panic7:                                           ; preds = %bb8
; call core::panicking::panic_null_pointer_dereference
  call void @_ZN4core9panicking30panic_null_pointer_dereference17hf718fcc86a223baaE(ptr align 8 @alloc_7c1f2417962bbde59e02acb982ab8aa3) #4
  unreachable

bb7:                                              ; preds = %bb21
  %_112 = ptrtoint ptr %Q to i64
  %_115 = icmp eq i64 %_112, 0
  %_116 = and i1 %_115, true
  %_117 = xor i1 %_116, true
  br i1 %_117, label %bb22, label %panic9

panic8:                                           ; preds = %bb21
; call core::panicking::panic_misaligned_pointer_dereference
  call void @_ZN4core9panicking36panic_misaligned_pointer_dereference17hcc3cbded9382b6e5E(i64 8, i64 %_15, ptr align 8 @alloc_02a491e6a6ac09e3a7b94b7d5cba4310) #4
  unreachable

bb22:                                             ; preds = %bb7
  %6 = getelementptr inbounds i8, ptr %Q, i64 8
  store ptr %_12, ptr %6, align 8
  br label %bb6

panic9:                                           ; preds = %bb7
; call core::panicking::panic_null_pointer_dereference
  call void @_ZN4core9panicking30panic_null_pointer_dereference17hf718fcc86a223baaE(ptr align 8 @alloc_02a491e6a6ac09e3a7b94b7d5cba4310) #4
  unreachable

bb6:                                              ; preds = %bb20, %bb22
  ret void

bb11:                                             ; preds = %bb4
  %_84 = ptrtoint ptr %Q to i64
  %_87 = icmp eq i64 %_84, 0
  %_88 = and i1 %_87, true
  %_89 = xor i1 %_88, true
  br i1 %_89, label %bb18, label %panic11

panic10:                                          ; preds = %bb4
; call core::panicking::panic_misaligned_pointer_dereference
  call void @_ZN4core9panicking36panic_misaligned_pointer_dereference17hcc3cbded9382b6e5E(i64 8, i64 %_39, ptr align 8 @alloc_178a6fa9e79826942eeefeb2dd3da34d) #4
  unreachable

bb18:                                             ; preds = %bb11
  %7 = getelementptr inbounds i8, ptr %Q, i64 8
  store ptr %_9, ptr %7, align 8
  %_33 = ptrtoint ptr %Q to i64
  %_36 = and i64 %_33, 7
  %_37 = icmp eq i64 %_36, 0
  br i1 %_37, label %bb10, label %panic12

panic11:                                          ; preds = %bb11
; call core::panicking::panic_null_pointer_dereference
  call void @_ZN4core9panicking30panic_null_pointer_dereference17hf718fcc86a223baaE(ptr align 8 @alloc_178a6fa9e79826942eeefeb2dd3da34d) #4
  unreachable

bb10:                                             ; preds = %bb18
  %_91 = ptrtoint ptr %Q to i64
  %_94 = icmp eq i64 %_91, 0
  %_95 = and i1 %_94, true
  %_96 = xor i1 %_95, true
  br i1 %_96, label %bb19, label %panic13

panic12:                                          ; preds = %bb18
; call core::panicking::panic_misaligned_pointer_dereference
  call void @_ZN4core9panicking36panic_misaligned_pointer_dereference17hcc3cbded9382b6e5E(i64 8, i64 %_33, ptr align 8 @alloc_1d6bde5e5bc23c74086d8d351a76de99) #4
  unreachable

bb19:                                             ; preds = %bb10
  %8 = getelementptr inbounds i8, ptr %Q, i64 8
  %_10 = load ptr, ptr %8, align 8
  %_27 = ptrtoint ptr %Q to i64
  %_30 = and i64 %_27, 7
  %_31 = icmp eq i64 %_30, 0
  br i1 %_31, label %bb9, label %panic14

panic13:                                          ; preds = %bb10
; call core::panicking::panic_null_pointer_dereference
  call void @_ZN4core9panicking30panic_null_pointer_dereference17hf718fcc86a223baaE(ptr align 8 @alloc_1d6bde5e5bc23c74086d8d351a76de99) #4
  unreachable

bb9:                                              ; preds = %bb19
  %_98 = ptrtoint ptr %Q to i64
  %_101 = icmp eq i64 %_98, 0
  %_102 = and i1 %_101, true
  %_103 = xor i1 %_102, true
  br i1 %_103, label %bb20, label %panic15

panic14:                                          ; preds = %bb19
; call core::panicking::panic_misaligned_pointer_dereference
  call void @_ZN4core9panicking36panic_misaligned_pointer_dereference17hcc3cbded9382b6e5E(i64 8, i64 %_27, ptr align 8 @alloc_159c37ce4f4281bfd849b4768401ae50) #4
  unreachable

bb20:                                             ; preds = %bb9
  store ptr %_10, ptr %Q, align 8
  br label %bb6

panic15:                                          ; preds = %bb9
; call core::panicking::panic_null_pointer_dereference
  call void @_ZN4core9panicking30panic_null_pointer_dereference17hf718fcc86a223baaE(ptr align 8 @alloc_159c37ce4f4281bfd849b4768401ae50) #4
  unreachable
}

; Function Attrs: nounwind nonlazybind
define void @dequeue(ptr %Q) unnamed_addr #1 {
start:
  %temp = alloca [8 x i8], align 8
  store ptr null, ptr %temp, align 8
  %_61 = ptrtoint ptr %Q to i64
  %_64 = and i64 %_61, 7
  %_65 = icmp eq i64 %_64, 0
  br i1 %_65, label %bb15, label %panic

bb15:                                             ; preds = %start
  %_67 = ptrtoint ptr %Q to i64
  %_70 = icmp eq i64 %_67, 0
  %_71 = and i1 %_70, true
  %_72 = xor i1 %_71, true
  br i1 %_72, label %bb16, label %panic1

panic:                                            ; preds = %start
; call core::panicking::panic_misaligned_pointer_dereference
  call void @_ZN4core9panicking36panic_misaligned_pointer_dereference17hcc3cbded9382b6e5E(i64 8, i64 %_61, ptr align 8 @alloc_8bb2e3038f5f5fcce792eba5e18a571f) #4
  unreachable

bb16:                                             ; preds = %bb15
  %_4 = load ptr, ptr %Q, align 8
; call core::ptr::mut_ptr::<impl *mut T>::is_null
  %_3 = call zeroext i1 @"_ZN4core3ptr7mut_ptr31_$LT$impl$u20$$BP$mut$u20$T$GT$7is_null17h0fd71c0dd408a122E"(ptr %_4) #3
  br i1 %_3, label %bb2, label %bb3

panic1:                                           ; preds = %bb15
; call core::panicking::panic_null_pointer_dereference
  call void @_ZN4core9panicking30panic_null_pointer_dereference17hf718fcc86a223baaE(ptr align 8 @alloc_8bb2e3038f5f5fcce792eba5e18a571f) #4
  unreachable

bb3:                                              ; preds = %bb16
  %_55 = ptrtoint ptr %Q to i64
  %_58 = and i64 %_55, 7
  %_59 = icmp eq i64 %_58, 0
  br i1 %_59, label %bb14, label %panic2

bb2:                                              ; preds = %bb16
  %_5 = call i32 (ptr, ...) @printf(ptr @alloc_8421308ef077e0b6294cd0d81a904ef7) #3
  br label %bb8

bb14:                                             ; preds = %bb3
  %_74 = ptrtoint ptr %Q to i64
  %_77 = icmp eq i64 %_74, 0
  %_78 = and i1 %_77, true
  %_79 = xor i1 %_78, true
  br i1 %_79, label %bb17, label %panic3

panic2:                                           ; preds = %bb3
; call core::panicking::panic_misaligned_pointer_dereference
  call void @_ZN4core9panicking36panic_misaligned_pointer_dereference17hcc3cbded9382b6e5E(i64 8, i64 %_55, ptr align 8 @alloc_3f0d57d7530178370fbcb70690196195) #4
  unreachable

bb17:                                             ; preds = %bb14
  %_10 = load ptr, ptr %Q, align 8
  store ptr %_10, ptr %temp, align 8
  %_23 = load ptr, ptr %Q, align 8
  %_49 = ptrtoint ptr %_23 to i64
  %_52 = and i64 %_49, 7
  %_53 = icmp eq i64 %_52, 0
  br i1 %_53, label %bb13, label %panic4

panic3:                                           ; preds = %bb14
; call core::panicking::panic_null_pointer_dereference
  call void @_ZN4core9panicking30panic_null_pointer_dereference17hf718fcc86a223baaE(ptr align 8 @alloc_3f0d57d7530178370fbcb70690196195) #4
  unreachable

bb13:                                             ; preds = %bb17
  %_81 = ptrtoint ptr %_23 to i64
  %_84 = icmp eq i64 %_81, 0
  %_85 = and i1 %_84, true
  %_86 = xor i1 %_85, true
  br i1 %_86, label %bb18, label %panic5

panic4:                                           ; preds = %bb17
; call core::panicking::panic_misaligned_pointer_dereference
  call void @_ZN4core9panicking36panic_misaligned_pointer_dereference17hcc3cbded9382b6e5E(i64 8, i64 %_49, ptr align 8 @alloc_7658ec5e338ba294208668d8117eaa24) #4
  unreachable

bb18:                                             ; preds = %bb13
  %0 = getelementptr inbounds i8, ptr %_23, i64 8
  %_11 = load ptr, ptr %0, align 8
  %_43 = ptrtoint ptr %Q to i64
  %_46 = and i64 %_43, 7
  %_47 = icmp eq i64 %_46, 0
  br i1 %_47, label %bb12, label %panic6

panic5:                                           ; preds = %bb13
; call core::panicking::panic_null_pointer_dereference
  call void @_ZN4core9panicking30panic_null_pointer_dereference17hf718fcc86a223baaE(ptr align 8 @alloc_7658ec5e338ba294208668d8117eaa24) #4
  unreachable

bb12:                                             ; preds = %bb18
  %_88 = ptrtoint ptr %Q to i64
  %_91 = icmp eq i64 %_88, 0
  %_92 = and i1 %_91, true
  %_93 = xor i1 %_92, true
  br i1 %_93, label %bb19, label %panic7

panic6:                                           ; preds = %bb18
; call core::panicking::panic_misaligned_pointer_dereference
  call void @_ZN4core9panicking36panic_misaligned_pointer_dereference17hcc3cbded9382b6e5E(i64 8, i64 %_43, ptr align 8 @alloc_1aa9c3ab3ec38e0d3207d2e5ac4937bd) #4
  unreachable

bb19:                                             ; preds = %bb12
  store ptr %_11, ptr %Q, align 8
  %_37 = ptrtoint ptr %Q to i64
  %_40 = and i64 %_37, 7
  %_41 = icmp eq i64 %_40, 0
  br i1 %_41, label %bb11, label %panic8

panic7:                                           ; preds = %bb12
; call core::panicking::panic_null_pointer_dereference
  call void @_ZN4core9panicking30panic_null_pointer_dereference17hf718fcc86a223baaE(ptr align 8 @alloc_1aa9c3ab3ec38e0d3207d2e5ac4937bd) #4
  unreachable

bb11:                                             ; preds = %bb19
  %_95 = ptrtoint ptr %Q to i64
  %_98 = icmp eq i64 %_95, 0
  %_99 = and i1 %_98, true
  %_100 = xor i1 %_99, true
  br i1 %_100, label %bb20, label %panic9

panic8:                                           ; preds = %bb19
; call core::panicking::panic_misaligned_pointer_dereference
  call void @_ZN4core9panicking36panic_misaligned_pointer_dereference17hcc3cbded9382b6e5E(i64 8, i64 %_37, ptr align 8 @alloc_91139f96af7dfe19334504532fc3a846) #4
  unreachable

bb20:                                             ; preds = %bb11
  %_13 = load ptr, ptr %Q, align 8
; call core::ptr::mut_ptr::<impl *mut T>::is_null
  %_12 = call zeroext i1 @"_ZN4core3ptr7mut_ptr31_$LT$impl$u20$$BP$mut$u20$T$GT$7is_null17h0fd71c0dd408a122E"(ptr %_13) #3
  br i1 %_12, label %bb5, label %bb6

panic9:                                           ; preds = %bb11
; call core::panicking::panic_null_pointer_dereference
  call void @_ZN4core9panicking30panic_null_pointer_dereference17hf718fcc86a223baaE(ptr align 8 @alloc_91139f96af7dfe19334504532fc3a846) #4
  unreachable

bb6:                                              ; preds = %bb21, %bb20
  %_24 = load ptr, ptr %temp, align 8
  %_25 = ptrtoint ptr %_24 to i64
  %_28 = and i64 %_25, 7
  %_29 = icmp eq i64 %_28, 0
  br i1 %_29, label %bb9, label %panic12

bb5:                                              ; preds = %bb20
  %_31 = ptrtoint ptr %Q to i64
  %_34 = and i64 %_31, 7
  %_35 = icmp eq i64 %_34, 0
  br i1 %_35, label %bb10, label %panic10

bb10:                                             ; preds = %bb5
  %_102 = ptrtoint ptr %Q to i64
  %_105 = icmp eq i64 %_102, 0
  %_106 = and i1 %_105, true
  %_107 = xor i1 %_106, true
  br i1 %_107, label %bb21, label %panic11

panic10:                                          ; preds = %bb5
; call core::panicking::panic_misaligned_pointer_dereference
  call void @_ZN4core9panicking36panic_misaligned_pointer_dereference17hcc3cbded9382b6e5E(i64 8, i64 %_31, ptr align 8 @alloc_777a9fb2830172cd62dcecf38da8cdc6) #4
  unreachable

bb21:                                             ; preds = %bb10
  %1 = getelementptr inbounds i8, ptr %Q, i64 8
  store ptr null, ptr %1, align 8
  br label %bb6

panic11:                                          ; preds = %bb10
; call core::panicking::panic_null_pointer_dereference
  call void @_ZN4core9panicking30panic_null_pointer_dereference17hf718fcc86a223baaE(ptr align 8 @alloc_777a9fb2830172cd62dcecf38da8cdc6) #4
  unreachable

bb9:                                              ; preds = %bb6
  %_108 = load ptr, ptr %temp, align 8
  %_109 = ptrtoint ptr %_108 to i64
  %_112 = icmp eq i64 %_109, 0
  %_113 = and i1 %_112, true
  %_114 = xor i1 %_113, true
  br i1 %_114, label %bb22, label %panic13

panic12:                                          ; preds = %bb6
; call core::panicking::panic_misaligned_pointer_dereference
  call void @_ZN4core9panicking36panic_misaligned_pointer_dereference17hcc3cbded9382b6e5E(i64 8, i64 %_25, ptr align 8 @alloc_8f226039eb518008340a7477715fa328) #4
  unreachable

bb22:                                             ; preds = %bb9
  %2 = load ptr, ptr %temp, align 8
  %_19 = load i32, ptr %2, align 8
  %_14 = call i32 (ptr, ...) @printf(ptr @alloc_5fad334b22391fb35e94ae82d92e9143, i32 %_19) #3
  %_22 = load ptr, ptr %temp, align 8
  call void @free(ptr %_22) #3
  br label %bb8

panic13:                                          ; preds = %bb9
; call core::panicking::panic_null_pointer_dereference
  call void @_ZN4core9panicking30panic_null_pointer_dereference17hf718fcc86a223baaE(ptr align 8 @alloc_8f226039eb518008340a7477715fa328) #4
  unreachable

bb8:                                              ; preds = %bb2, %bb22
  ret void
}

; Function Attrs: nounwind nonlazybind
define void @printQueue(ptr %Q) unnamed_addr #1 {
start:
  %temp = alloca [8 x i8], align 8
  %_53 = ptrtoint ptr %Q to i64
  %_56 = and i64 %_53, 7
  %_57 = icmp eq i64 %_56, 0
  br i1 %_57, label %bb16, label %panic

bb16:                                             ; preds = %start
  %_59 = ptrtoint ptr %Q to i64
  %_62 = icmp eq i64 %_59, 0
  %_63 = and i1 %_62, true
  %_64 = xor i1 %_63, true
  br i1 %_64, label %bb17, label %panic1

panic:                                            ; preds = %start
; call core::panicking::panic_misaligned_pointer_dereference
  call void @_ZN4core9panicking36panic_misaligned_pointer_dereference17hcc3cbded9382b6e5E(i64 8, i64 %_53, ptr align 8 @alloc_050f7e6f6ce2d00ef1508f8dcd3869d6) #4
  unreachable

bb17:                                             ; preds = %bb16
  %0 = load ptr, ptr %Q, align 8
  store ptr %0, ptr %temp, align 8
  %_47 = ptrtoint ptr %Q to i64
  %_50 = and i64 %_47, 7
  %_51 = icmp eq i64 %_50, 0
  br i1 %_51, label %bb15, label %panic2

panic1:                                           ; preds = %bb16
; call core::panicking::panic_null_pointer_dereference
  call void @_ZN4core9panicking30panic_null_pointer_dereference17hf718fcc86a223baaE(ptr align 8 @alloc_050f7e6f6ce2d00ef1508f8dcd3869d6) #4
  unreachable

bb15:                                             ; preds = %bb17
  %_66 = ptrtoint ptr %Q to i64
  %_69 = icmp eq i64 %_66, 0
  %_70 = and i1 %_69, true
  %_71 = xor i1 %_70, true
  br i1 %_71, label %bb18, label %panic3

panic2:                                           ; preds = %bb17
; call core::panicking::panic_misaligned_pointer_dereference
  call void @_ZN4core9panicking36panic_misaligned_pointer_dereference17hcc3cbded9382b6e5E(i64 8, i64 %_47, ptr align 8 @alloc_aa7fa7ca133e0e652197da50191f3b29) #4
  unreachable

bb18:                                             ; preds = %bb15
  %_4 = load ptr, ptr %Q, align 8
; call core::ptr::mut_ptr::<impl *mut T>::is_null
  %_3 = call zeroext i1 @"_ZN4core3ptr7mut_ptr31_$LT$impl$u20$$BP$mut$u20$T$GT$7is_null17h0fd71c0dd408a122E"(ptr %_4) #3
  br i1 %_3, label %bb2, label %bb5

panic3:                                           ; preds = %bb15
; call core::panicking::panic_null_pointer_dereference
  call void @_ZN4core9panicking30panic_null_pointer_dereference17hf718fcc86a223baaE(ptr align 8 @alloc_aa7fa7ca133e0e652197da50191f3b29) #4
  unreachable

bb5:                                              ; preds = %bb10, %bb21, %bb19, %bb18
  %_13 = load ptr, ptr %temp, align 8
; call core::ptr::mut_ptr::<impl *mut T>::is_null
  %_12 = call zeroext i1 @"_ZN4core3ptr7mut_ptr31_$LT$impl$u20$$BP$mut$u20$T$GT$7is_null17h0fd71c0dd408a122E"(ptr %_13) #3
  br i1 %_12, label %bb11, label %bb7

bb2:                                              ; preds = %bb18
  %_41 = ptrtoint ptr %Q to i64
  %_44 = and i64 %_41, 7
  %_45 = icmp eq i64 %_44, 0
  br i1 %_45, label %bb14, label %panic4

bb14:                                             ; preds = %bb2
  %_73 = ptrtoint ptr %Q to i64
  %_76 = icmp eq i64 %_73, 0
  %_77 = and i1 %_76, true
  %_78 = xor i1 %_77, true
  br i1 %_78, label %bb19, label %panic5

panic4:                                           ; preds = %bb2
; call core::panicking::panic_misaligned_pointer_dereference
  call void @_ZN4core9panicking36panic_misaligned_pointer_dereference17hcc3cbded9382b6e5E(i64 8, i64 %_41, ptr align 8 @alloc_99ce224de2a3e789c28a71d0276af4b1) #4
  unreachable

bb19:                                             ; preds = %bb14
  %1 = getelementptr inbounds i8, ptr %Q, i64 8
  %_6 = load ptr, ptr %1, align 8
; call core::ptr::mut_ptr::<impl *mut T>::is_null
  %_5 = call zeroext i1 @"_ZN4core3ptr7mut_ptr31_$LT$impl$u20$$BP$mut$u20$T$GT$7is_null17h0fd71c0dd408a122E"(ptr %_6) #3
  br i1 %_5, label %bb4, label %bb5

panic5:                                           ; preds = %bb14
; call core::panicking::panic_null_pointer_dereference
  call void @_ZN4core9panicking30panic_null_pointer_dereference17hf718fcc86a223baaE(ptr align 8 @alloc_99ce224de2a3e789c28a71d0276af4b1) #4
  unreachable

bb4:                                              ; preds = %bb19
  %_7 = call i32 (ptr, ...) @printf(ptr @alloc_54981cf7de5e38aaa858f80975b29707) #3
  br label %bb11

bb7:                                              ; preds = %bb5
  %_34 = load ptr, ptr %temp, align 8
  %_35 = ptrtoint ptr %_34 to i64
  %_38 = and i64 %_35, 7
  %_39 = icmp eq i64 %_38, 0
  br i1 %_39, label %bb13, label %panic6

bb11:                                             ; preds = %bb4, %bb5
  ret void

bb13:                                             ; preds = %bb7
  %_79 = load ptr, ptr %temp, align 8
  %_80 = ptrtoint ptr %_79 to i64
  %_83 = icmp eq i64 %_80, 0
  %_84 = and i1 %_83, true
  %_85 = xor i1 %_84, true
  br i1 %_85, label %bb20, label %panic7

panic6:                                           ; preds = %bb7
; call core::panicking::panic_misaligned_pointer_dereference
  call void @_ZN4core9panicking36panic_misaligned_pointer_dereference17hcc3cbded9382b6e5E(i64 8, i64 %_35, ptr align 8 @alloc_08823d3391a0d9ef6ce1552a18bd4bab) #4
  unreachable

bb20:                                             ; preds = %bb13
  %2 = load ptr, ptr %temp, align 8
  %_19 = load i32, ptr %2, align 8
  %_14 = call i32 (ptr, ...) @printf(ptr @alloc_3a31753a0b113451bf74f615363720ce, i32 %_19) #3
  %_28 = load ptr, ptr %temp, align 8
  %_29 = ptrtoint ptr %_28 to i64
  %_32 = and i64 %_29, 7
  %_33 = icmp eq i64 %_32, 0
  br i1 %_33, label %bb12, label %panic8

panic7:                                           ; preds = %bb13
; call core::panicking::panic_null_pointer_dereference
  call void @_ZN4core9panicking30panic_null_pointer_dereference17hf718fcc86a223baaE(ptr align 8 @alloc_08823d3391a0d9ef6ce1552a18bd4bab) #4
  unreachable

bb12:                                             ; preds = %bb20
  %_86 = load ptr, ptr %temp, align 8
  %_87 = ptrtoint ptr %_86 to i64
  %_90 = icmp eq i64 %_87, 0
  %_91 = and i1 %_90, true
  %_92 = xor i1 %_91, true
  br i1 %_92, label %bb21, label %panic9

panic8:                                           ; preds = %bb20
; call core::panicking::panic_misaligned_pointer_dereference
  call void @_ZN4core9panicking36panic_misaligned_pointer_dereference17hcc3cbded9382b6e5E(i64 8, i64 %_29, ptr align 8 @alloc_994c4ce95b3a1be0e0e386673611178e) #4
  unreachable

bb21:                                             ; preds = %bb12
  %3 = load ptr, ptr %temp, align 8
  %4 = getelementptr inbounds i8, ptr %3, i64 8
  %_20 = load ptr, ptr %4, align 8
  store ptr %_20, ptr %temp, align 8
  %_22 = load ptr, ptr %temp, align 8
; call core::ptr::mut_ptr::<impl *mut T>::is_null
  %_21 = call zeroext i1 @"_ZN4core3ptr7mut_ptr31_$LT$impl$u20$$BP$mut$u20$T$GT$7is_null17h0fd71c0dd408a122E"(ptr %_22) #3
  br i1 %_21, label %bb5, label %bb10

panic9:                                           ; preds = %bb12
; call core::panicking::panic_null_pointer_dereference
  call void @_ZN4core9panicking30panic_null_pointer_dereference17hf718fcc86a223baaE(ptr align 8 @alloc_994c4ce95b3a1be0e0e386673611178e) #4
  unreachable

bb10:                                             ; preds = %bb21
  %_23 = call i32 (ptr, ...) @printf(ptr @alloc_edca6fca6f3bd469581a2559907aba10) #3
  br label %bb5
}

; Function Attrs: nounwind nonlazybind
define void @deleteQueue(ptr %Q) unnamed_addr #1 {
start:
  %temp = alloca [8 x i8], align 8
  store ptr null, ptr %temp, align 8
  br label %bb1

bb1:                                              ; preds = %bb16, %start
  %_44 = ptrtoint ptr %Q to i64
  %_47 = and i64 %_44, 7
  %_48 = icmp eq i64 %_47, 0
  br i1 %_48, label %bb11, label %panic

bb11:                                             ; preds = %bb1
  %_50 = ptrtoint ptr %Q to i64
  %_53 = icmp eq i64 %_50, 0
  %_54 = and i1 %_53, true
  %_55 = xor i1 %_54, true
  br i1 %_55, label %bb12, label %panic1

panic:                                            ; preds = %bb1
; call core::panicking::panic_misaligned_pointer_dereference
  call void @_ZN4core9panicking36panic_misaligned_pointer_dereference17hcc3cbded9382b6e5E(i64 8, i64 %_44, ptr align 8 @alloc_f0586ccb815f74275661c8f022cd2d49) #4
  unreachable

bb12:                                             ; preds = %bb11
  %_4 = load ptr, ptr %Q, align 8
; call core::ptr::mut_ptr::<impl *mut T>::is_null
  %_3 = call zeroext i1 @"_ZN4core3ptr7mut_ptr31_$LT$impl$u20$$BP$mut$u20$T$GT$7is_null17h0fd71c0dd408a122E"(ptr %_4) #3
  br i1 %_3, label %bb3, label %bb4

panic1:                                           ; preds = %bb11
; call core::panicking::panic_null_pointer_dereference
  call void @_ZN4core9panicking30panic_null_pointer_dereference17hf718fcc86a223baaE(ptr align 8 @alloc_f0586ccb815f74275661c8f022cd2d49) #4
  unreachable

bb4:                                              ; preds = %bb12
  %_38 = ptrtoint ptr %Q to i64
  %_41 = and i64 %_38, 7
  %_42 = icmp eq i64 %_41, 0
  br i1 %_42, label %bb10, label %panic2

bb3:                                              ; preds = %bb12
  call void @free(ptr %Q) #3
  ret void

bb10:                                             ; preds = %bb4
  %_57 = ptrtoint ptr %Q to i64
  %_60 = icmp eq i64 %_57, 0
  %_61 = and i1 %_60, true
  %_62 = xor i1 %_61, true
  br i1 %_62, label %bb13, label %panic3

panic2:                                           ; preds = %bb4
; call core::panicking::panic_misaligned_pointer_dereference
  call void @_ZN4core9panicking36panic_misaligned_pointer_dereference17hcc3cbded9382b6e5E(i64 8, i64 %_38, ptr align 8 @alloc_1bde55f592e87209333373f3bc0d3f6d) #4
  unreachable

bb13:                                             ; preds = %bb10
  %_5 = load ptr, ptr %Q, align 8
  store ptr %_5, ptr %temp, align 8
  %_31 = load ptr, ptr %temp, align 8
  %_32 = ptrtoint ptr %_31 to i64
  %_35 = and i64 %_32, 7
  %_36 = icmp eq i64 %_35, 0
  br i1 %_36, label %bb9, label %panic4

panic3:                                           ; preds = %bb10
; call core::panicking::panic_null_pointer_dereference
  call void @_ZN4core9panicking30panic_null_pointer_dereference17hf718fcc86a223baaE(ptr align 8 @alloc_1bde55f592e87209333373f3bc0d3f6d) #4
  unreachable

bb9:                                              ; preds = %bb13
  %_63 = load ptr, ptr %temp, align 8
  %_64 = ptrtoint ptr %_63 to i64
  %_67 = icmp eq i64 %_64, 0
  %_68 = and i1 %_67, true
  %_69 = xor i1 %_68, true
  br i1 %_69, label %bb14, label %panic5

panic4:                                           ; preds = %bb13
; call core::panicking::panic_misaligned_pointer_dereference
  call void @_ZN4core9panicking36panic_misaligned_pointer_dereference17hcc3cbded9382b6e5E(i64 8, i64 %_32, ptr align 8 @alloc_60c5e30d815d66a2ad0eabef9a44123b) #4
  unreachable

bb14:                                             ; preds = %bb9
  %0 = load ptr, ptr %temp, align 8
  %_11 = load i32, ptr %0, align 8
  %_6 = call i32 (ptr, ...) @printf(ptr @alloc_4b81c307921488104e6c3f046b5e4fa7, i32 %_11) #3
  %_18 = load ptr, ptr %Q, align 8
  %_26 = ptrtoint ptr %_18 to i64
  %_29 = and i64 %_26, 7
  %_30 = icmp eq i64 %_29, 0
  br i1 %_30, label %bb8, label %panic6

panic5:                                           ; preds = %bb9
; call core::panicking::panic_null_pointer_dereference
  call void @_ZN4core9panicking30panic_null_pointer_dereference17hf718fcc86a223baaE(ptr align 8 @alloc_60c5e30d815d66a2ad0eabef9a44123b) #4
  unreachable

bb8:                                              ; preds = %bb14
  %_71 = ptrtoint ptr %_18 to i64
  %_74 = icmp eq i64 %_71, 0
  %_75 = and i1 %_74, true
  %_76 = xor i1 %_75, true
  br i1 %_76, label %bb15, label %panic7

panic6:                                           ; preds = %bb14
; call core::panicking::panic_misaligned_pointer_dereference
  call void @_ZN4core9panicking36panic_misaligned_pointer_dereference17hcc3cbded9382b6e5E(i64 8, i64 %_26, ptr align 8 @alloc_83ec356882fa0135c44d1ea7a6068a39) #4
  unreachable

bb15:                                             ; preds = %bb8
  %1 = getelementptr inbounds i8, ptr %_18, i64 8
  %_12 = load ptr, ptr %1, align 8
  %_20 = ptrtoint ptr %Q to i64
  %_23 = and i64 %_20, 7
  %_24 = icmp eq i64 %_23, 0
  br i1 %_24, label %bb7, label %panic8

panic7:                                           ; preds = %bb8
; call core::panicking::panic_null_pointer_dereference
  call void @_ZN4core9panicking30panic_null_pointer_dereference17hf718fcc86a223baaE(ptr align 8 @alloc_83ec356882fa0135c44d1ea7a6068a39) #4
  unreachable

bb7:                                              ; preds = %bb15
  %_78 = ptrtoint ptr %Q to i64
  %_81 = icmp eq i64 %_78, 0
  %_82 = and i1 %_81, true
  %_83 = xor i1 %_82, true
  br i1 %_83, label %bb16, label %panic9

panic8:                                           ; preds = %bb15
; call core::panicking::panic_misaligned_pointer_dereference
  call void @_ZN4core9panicking36panic_misaligned_pointer_dereference17hcc3cbded9382b6e5E(i64 8, i64 %_20, ptr align 8 @alloc_847817f60a835e11a29d83b54122ef92) #4
  unreachable

bb16:                                             ; preds = %bb7
  store ptr %_12, ptr %Q, align 8
  %_15 = load ptr, ptr %temp, align 8
  call void @free(ptr %_15) #3
  br label %bb1

panic9:                                           ; preds = %bb7
; call core::panicking::panic_null_pointer_dereference
  call void @_ZN4core9panicking30panic_null_pointer_dereference17hf718fcc86a223baaE(ptr align 8 @alloc_847817f60a835e11a29d83b54122ef92) #4
  unreachable
}

; Function Attrs: nounwind nonlazybind
declare ptr @malloc(i64) unnamed_addr #1

; core::panicking::panic_misaligned_pointer_dereference
; Function Attrs: cold minsize noinline noreturn nounwind nonlazybind optsize
declare void @_ZN4core9panicking36panic_misaligned_pointer_dereference17hcc3cbded9382b6e5E(i64, i64, ptr align 8) unnamed_addr #2

; core::panicking::panic_null_pointer_dereference
; Function Attrs: cold minsize noinline noreturn nounwind nonlazybind optsize
declare void @_ZN4core9panicking30panic_null_pointer_dereference17hf718fcc86a223baaE(ptr align 8) unnamed_addr #2

; Function Attrs: nounwind nonlazybind
declare i32 @printf(ptr, ...) unnamed_addr #1

; Function Attrs: nounwind nonlazybind
declare void @free(ptr) unnamed_addr #1

attributes #0 = { inlinehint nounwind nonlazybind "probe-stack"="inline-asm" "target-cpu"="x86-64" }
attributes #1 = { nounwind nonlazybind "probe-stack"="inline-asm" "target-cpu"="x86-64" }
attributes #2 = { cold minsize noinline noreturn nounwind nonlazybind optsize "probe-stack"="inline-asm" "target-cpu"="x86-64" }
attributes #3 = { nounwind }
attributes #4 = { noreturn nounwind }

!llvm.module.flags = !{!0, !1}
!llvm.ident = !{!2}

!0 = !{i32 8, !"PIC Level", i32 2}
!1 = !{i32 2, !"RtLibUseGOT", i32 1}
!2 = !{!"rustc version 1.88.0-nightly (0b45675cf 2025-03-31)"}
