; ModuleID = '76c22mnggecta7ejy3y75eqvz'
source_filename = "76c22mnggecta7ejy3y75eqvz"
target datalayout = "e-m:e-p270:32:32-p271:32:32-p272:64:64-i64:64-i128:128-f80:128-n8:16:32:64-S128"
target triple = "x86_64-unknown-linux-gnu"

@alloc_0ed0763d8bf93ac79247e07858374e35 = private unnamed_addr constant [210 x i8] c"unsafe precondition(s) violated: ptr::offset requires the address calculation to not overflow\0A\0AThis indicates a bug in the program. This Undefined Behavior check is optional, and cannot be relied on for safety.", align 1
@alloc_f5ffd2fd1476bab43ad89fb40c72d0c5 = private unnamed_addr constant [10 x i8] c"src/lib.rs", align 1
@alloc_11d27767637b4adaa4c8445c9abc6ad1 = private unnamed_addr constant <{ ptr, [16 x i8] }> <{ ptr @alloc_f5ffd2fd1476bab43ad89fb40c72d0c5, [16 x i8] c"\0A\00\00\00\00\00\00\00*\00\00\00\10\00\00\00" }>, align 8
@alloc_92db80129de087d2d7f61fddb6455d0e = private unnamed_addr constant <{ ptr, [16 x i8] }> <{ ptr @alloc_f5ffd2fd1476bab43ad89fb40c72d0c5, [16 x i8] c"\0A\00\00\00\00\00\00\00+\00\00\00\14\00\00\00" }>, align 8
@alloc_8cbec3e4ee77e1df0883321856619226 = private unnamed_addr constant <{ ptr, [16 x i8] }> <{ ptr @alloc_f5ffd2fd1476bab43ad89fb40c72d0c5, [16 x i8] c"\0A\00\00\00\00\00\00\00E\00\00\00\22\00\00\00" }>, align 8
@alloc_f3ea51a1e0221163c8528643a2456c05 = private unnamed_addr constant <{ ptr, [16 x i8] }> <{ ptr @alloc_f5ffd2fd1476bab43ad89fb40c72d0c5, [16 x i8] c"\0A\00\00\00\00\00\00\00B\00\00\00\0D\00\00\00" }>, align 8
@alloc_f3588b28b94f0809fcc8d717033d3e48 = private unnamed_addr constant [2 x i8] c"\0A\00", align 1
@alloc_b929c71616281bfd1be2bd4038d3ddf1 = private unnamed_addr constant [4 x i8] c"%d \00", align 1
@alloc_82c269c76d83016dabfe0e879afd8e67 = private unnamed_addr constant <{ ptr, [16 x i8] }> <{ ptr @alloc_f5ffd2fd1476bab43ad89fb40c72d0c5, [16 x i8] c"\0A\00\00\00\00\00\00\00W\00\00\00\11\00\00\00" }>, align 8
@alloc_7173a9f7e61423a8448fc3c3a28bf706 = private unnamed_addr constant <{ ptr, [16 x i8] }> <{ ptr @alloc_f5ffd2fd1476bab43ad89fb40c72d0c5, [16 x i8] c"\0A\00\00\00\00\00\00\00j\00\00\00\1A\00\00\00" }>, align 8
@alloc_0f71aacfd249cf47639d68c1334ec744 = private unnamed_addr constant <{ ptr, [16 x i8] }> <{ ptr @alloc_f5ffd2fd1476bab43ad89fb40c72d0c5, [16 x i8] c"\0A\00\00\00\00\00\00\00g\00\00\00\05\00\00\00" }>, align 8
@alloc_8ec59d216d65a3b54821efc7aabdb3bf = private unnamed_addr constant <{ ptr, [16 x i8] }> <{ ptr @alloc_f5ffd2fd1476bab43ad89fb40c72d0c5, [16 x i8] c"\0A\00\00\00\00\00\00\00k\00\00\00\05\00\00\00" }>, align 8
@alloc_9d8cfc076b51ea5c30c446c648b95d30 = private unnamed_addr constant <{ ptr, [16 x i8] }> <{ ptr @alloc_f5ffd2fd1476bab43ad89fb40c72d0c5, [16 x i8] c"\0A\00\00\00\00\00\00\00v\00\00\00\1A\00\00\00" }>, align 8
@alloc_4b6088dabf55f4504e258082b37bd7f6 = private unnamed_addr constant <{ ptr, [16 x i8] }> <{ ptr @alloc_f5ffd2fd1476bab43ad89fb40c72d0c5, [16 x i8] c"\0A\00\00\00\00\00\00\00s\00\00\00\05\00\00\00" }>, align 8
@alloc_33163a8e673ee25e32a7ea0cadee3b6e = private unnamed_addr constant <{ ptr, [16 x i8] }> <{ ptr @alloc_f5ffd2fd1476bab43ad89fb40c72d0c5, [16 x i8] c"\0A\00\00\00\00\00\00\00w\00\00\00\05\00\00\00" }>, align 8
@alloc_28e8e1525a2eafa85fa694e47fecad1b = private unnamed_addr constant <{ ptr, [16 x i8] }> <{ ptr @alloc_f5ffd2fd1476bab43ad89fb40c72d0c5, [16 x i8] c"\0A\00\00\00\00\00\00\00\82\00\00\00\1A\00\00\00" }>, align 8
@alloc_78d72a4cdf0453bbc786d377f6cb9ddc = private unnamed_addr constant <{ ptr, [16 x i8] }> <{ ptr @alloc_f5ffd2fd1476bab43ad89fb40c72d0c5, [16 x i8] c"\0A\00\00\00\00\00\00\00\7F\00\00\00\05\00\00\00" }>, align 8
@alloc_ff9152b01998611ba6bd446c3ae8be7e = private unnamed_addr constant <{ ptr, [16 x i8] }> <{ ptr @alloc_f5ffd2fd1476bab43ad89fb40c72d0c5, [16 x i8] c"\0A\00\00\00\00\00\00\00\83\00\00\00\05\00\00\00" }>, align 8
@alloc_0542af40fbae942683d4288fdedefb6a = private unnamed_addr constant <{ ptr, [16 x i8] }> <{ ptr @alloc_f5ffd2fd1476bab43ad89fb40c72d0c5, [16 x i8] c"\0A\00\00\00\00\00\00\00\8E\00\00\00\1A\00\00\00" }>, align 8
@alloc_8c61e494a7bb2e44e38e55aee768bf8f = private unnamed_addr constant <{ ptr, [16 x i8] }> <{ ptr @alloc_f5ffd2fd1476bab43ad89fb40c72d0c5, [16 x i8] c"\0A\00\00\00\00\00\00\00\8B\00\00\00\05\00\00\00" }>, align 8
@alloc_fef22c008e94e74eb08b32376ab6ec59 = private unnamed_addr constant <{ ptr, [16 x i8] }> <{ ptr @alloc_f5ffd2fd1476bab43ad89fb40c72d0c5, [16 x i8] c"\0A\00\00\00\00\00\00\00\8F\00\00\00\05\00\00\00" }>, align 8
@alloc_1fac5f588d6902e644a64c116697db10 = private unnamed_addr constant <{ ptr, [16 x i8] }> <{ ptr @alloc_f5ffd2fd1476bab43ad89fb40c72d0c5, [16 x i8] c"\0A\00\00\00\00\00\00\00\94\00\00\00\16\00\00\00" }>, align 8
@alloc_0255bdacfc758ed5f7f5c39e96c93d62 = private unnamed_addr constant [3 x i8] c"^\0A\00", align 1
@alloc_2ff733cc2a2a43d2d0fea2462fabe0b5 = private unnamed_addr constant <{ ptr, [16 x i8] }> <{ ptr @alloc_f5ffd2fd1476bab43ad89fb40c72d0c5, [16 x i8] c"\0A\00\00\00\00\00\00\00\98\00\00\00\10\00\00\00" }>, align 8
@alloc_a7b673b8cbd59b73d299e2502f00aba0 = private unnamed_addr constant <{ ptr, [16 x i8] }> <{ ptr @alloc_f5ffd2fd1476bab43ad89fb40c72d0c5, [16 x i8] c"\0A\00\00\00\00\00\00\00\A2\00\00\00\17\00\00\00" }>, align 8
@alloc_47a15cbfbb61285bf9c8a3ba25c73ae5 = private unnamed_addr constant <{ ptr, [16 x i8] }> <{ ptr @alloc_f5ffd2fd1476bab43ad89fb40c72d0c5, [16 x i8] c"\0A\00\00\00\00\00\00\00\A5\00\00\00\10\00\00\00" }>, align 8
@queue = global [80000 x i8] zeroinitializer, align 8
@head = global [4 x i8] zeroinitializer, align 4
@rear = global [4 x i8] zeroinitializer, align 4
@alloc_a70ec100bcefd4b16395ee0a0d86a900 = private unnamed_addr constant <{ ptr, [16 x i8] }> <{ ptr @alloc_f5ffd2fd1476bab43ad89fb40c72d0c5, [16 x i8] c"\0A\00\00\00\00\00\00\00\B1\00\00\00\0D\00\00\00" }>, align 8
@alloc_884257812a5c225c4fce7d83b0eb92a5 = private unnamed_addr constant <{ ptr, [16 x i8] }> <{ ptr @alloc_f5ffd2fd1476bab43ad89fb40c72d0c5, [16 x i8] c"\0A\00\00\00\00\00\00\00\B1\00\00\00\15\00\00\00" }>, align 8
@alloc_be6279a693becf20b72df92490ff40e8 = private unnamed_addr constant <{ ptr, [16 x i8] }> <{ ptr @alloc_f5ffd2fd1476bab43ad89fb40c72d0c5, [16 x i8] c"\0A\00\00\00\00\00\00\00\B5\00\00\00\0D\00\00\00" }>, align 8
@alloc_90d91b415a9572f5c7007241958882ec = private unnamed_addr constant <{ ptr, [16 x i8] }> <{ ptr @alloc_f5ffd2fd1476bab43ad89fb40c72d0c5, [16 x i8] c"\0A\00\00\00\00\00\00\00\B5\00\00\00\16\00\00\00" }>, align 8
@alloc_510340e89943ef184403cf23880a27a7 = private unnamed_addr constant <{ ptr, [16 x i8] }> <{ ptr @alloc_f5ffd2fd1476bab43ad89fb40c72d0c5, [16 x i8] c"\0A\00\00\00\00\00\00\00\B5\00\00\00\15\00\00\00" }>, align 8
@alloc_36483ba658c34da25cddbafe83f6459f = private unnamed_addr constant <{ ptr, [16 x i8] }> <{ ptr @alloc_f5ffd2fd1476bab43ad89fb40c72d0c5, [16 x i8] c"\0A\00\00\00\00\00\00\00\B9\00\00\00\0B\00\00\00" }>, align 8
@alloc_de85146eccb80b022b93681e7b8619b7 = private unnamed_addr constant <{ ptr, [16 x i8] }> <{ ptr @alloc_f5ffd2fd1476bab43ad89fb40c72d0c5, [16 x i8] c"\0A\00\00\00\00\00\00\00\B9\00\00\00\05\00\00\00" }>, align 8
@alloc_c4e60c585518a1b75d758fa1e1953090 = private unnamed_addr constant <{ ptr, [16 x i8] }> <{ ptr @alloc_f5ffd2fd1476bab43ad89fb40c72d0c5, [16 x i8] c"\0A\00\00\00\00\00\00\00\BA\00\00\00\0D\00\00\00" }>, align 8
@alloc_2d52299de4b8f1a386a72708b940d255 = private unnamed_addr constant <{ ptr, [16 x i8] }> <{ ptr @alloc_f5ffd2fd1476bab43ad89fb40c72d0c5, [16 x i8] c"\0A\00\00\00\00\00\00\00\BA\00\00\00\0C\00\00\00" }>, align 8
@alloc_be509998ec94cff816014bdf68a99c50 = private unnamed_addr constant <{ ptr, [16 x i8] }> <{ ptr @alloc_f5ffd2fd1476bab43ad89fb40c72d0c5, [16 x i8] c"\0A\00\00\00\00\00\00\00\BA\00\00\00\05\00\00\00" }>, align 8
@alloc_8240c01e0c7332af470d8bdc6ff21d77 = private unnamed_addr constant <{ ptr, [16 x i8] }> <{ ptr @alloc_f5ffd2fd1476bab43ad89fb40c72d0c5, [16 x i8] c"\0A\00\00\00\00\00\00\00\BE\00\00\00'\00\00\00" }>, align 8
@alloc_48895c837cb35f34d2416f0b5612b925 = private unnamed_addr constant <{ ptr, [16 x i8] }> <{ ptr @alloc_f5ffd2fd1476bab43ad89fb40c72d0c5, [16 x i8] c"\0A\00\00\00\00\00\00\00\BE\00\00\00!\00\00\00" }>, align 8
@alloc_c8cf0cb543b848005516a9c00dc52665 = private unnamed_addr constant <{ ptr, [16 x i8] }> <{ ptr @alloc_f5ffd2fd1476bab43ad89fb40c72d0c5, [16 x i8] c"\0A\00\00\00\00\00\00\00\BF\00\00\00\0D\00\00\00" }>, align 8
@alloc_51df26870d1bd0a228d9d2b4290cd406 = private unnamed_addr constant <{ ptr, [16 x i8] }> <{ ptr @alloc_f5ffd2fd1476bab43ad89fb40c72d0c5, [16 x i8] c"\0A\00\00\00\00\00\00\00\BF\00\00\00\0C\00\00\00" }>, align 8
@alloc_c01881f85b6a4a4ab2412266dc4b5054 = private unnamed_addr constant <{ ptr, [16 x i8] }> <{ ptr @alloc_f5ffd2fd1476bab43ad89fb40c72d0c5, [16 x i8] c"\0A\00\00\00\00\00\00\00\BF\00\00\00\05\00\00\00" }>, align 8
@alloc_cc8240fe084066f46b3a9a7251c0389f = private unnamed_addr constant <{ ptr, [16 x i8] }> <{ ptr @alloc_f5ffd2fd1476bab43ad89fb40c72d0c5, [16 x i8] c"\0A\00\00\00\00\00\00\00\C4\00\00\00\12\00\00\00" }>, align 8
@alloc_5089d260a801c47906212d1209e11a21 = private unnamed_addr constant <{ ptr, [16 x i8] }> <{ ptr @alloc_f5ffd2fd1476bab43ad89fb40c72d0c5, [16 x i8] c"\0A\00\00\00\00\00\00\00\C4\00\00\00\0C\00\00\00" }>, align 8
@alloc_f443cc2d3441c3a6ddb57f0ffd942122 = private unnamed_addr constant <{ ptr, [16 x i8] }> <{ ptr @alloc_f5ffd2fd1476bab43ad89fb40c72d0c5, [16 x i8] c"\0A\00\00\00\00\00\00\00\D0\00\00\00\05\00\00\00" }>, align 8
@alloc_5b2846cc75e6414a75a3500bd6480eaf = private unnamed_addr constant <{ ptr, [16 x i8] }> <{ ptr @alloc_f5ffd2fd1476bab43ad89fb40c72d0c5, [16 x i8] c"\0A\00\00\00\00\00\00\00\D1\00\00\00\05\00\00\00" }>, align 8
@alloc_e5fcfc3dd949b816ae0cf16057200ea2 = private unnamed_addr constant <{ ptr, [16 x i8] }> <{ ptr @alloc_f5ffd2fd1476bab43ad89fb40c72d0c5, [16 x i8] c"\0A\00\00\00\00\00\00\00\D2\00\00\00\05\00\00\00" }>, align 8
@alloc_80da3433daf8d783d77a0173b9c20fd2 = private unnamed_addr constant <{ ptr, [16 x i8] }> <{ ptr @alloc_f5ffd2fd1476bab43ad89fb40c72d0c5, [16 x i8] c"\0A\00\00\00\00\00\00\00\D3\00\00\00\15\00\00\00" }>, align 8
@alloc_792d2d2ccdb6a45736fa87edd1e9f799 = private unnamed_addr constant <{ ptr, [16 x i8] }> <{ ptr @alloc_f5ffd2fd1476bab43ad89fb40c72d0c5, [16 x i8] c"\0A\00\00\00\00\00\00\00\DA\00\00\00\17\00\00\00" }>, align 8
@alloc_e80d9cfd1219fa6556fb10cb46e5f4a8 = private unnamed_addr constant [18 x i8] c"One method .....\0A\00", align 1
@alloc_f46bbb0ea8c54321ad67c5fd891b35fa = private unnamed_addr constant <{ ptr, [16 x i8] }> <{ ptr @alloc_f5ffd2fd1476bab43ad89fb40c72d0c5, [16 x i8] c"\0A\00\00\00\00\00\00\00\E0\00\00\00\13\00\00\00" }>, align 8
@alloc_c94c7699aa55fa365b160063f87b89f0 = private unnamed_addr constant <{ ptr, [16 x i8] }> <{ ptr @alloc_f5ffd2fd1476bab43ad89fb40c72d0c5, [16 x i8] c"\0A\00\00\00\00\00\00\00\E1\00\00\00\0C\00\00\00" }>, align 8
@alloc_4db0a08b6081b5fdeb8e499d6927a23f = private unnamed_addr constant <{ ptr, [16 x i8] }> <{ ptr @alloc_f5ffd2fd1476bab43ad89fb40c72d0c5, [16 x i8] c"\0A\00\00\00\00\00\00\00\E2\00\00\00+\00\00\00" }>, align 8
@alloc_8ee04565a91b2f22786a96e360c45f8c = private unnamed_addr constant <{ ptr, [16 x i8] }> <{ ptr @alloc_f5ffd2fd1476bab43ad89fb40c72d0c5, [16 x i8] c"\0A\00\00\00\00\00\00\00\E2\00\00\00=\00\00\00" }>, align 8
@alloc_e0815fb668689eaaa0591352cc01e084 = private unnamed_addr constant <{ ptr, [16 x i8] }> <{ ptr @alloc_f5ffd2fd1476bab43ad89fb40c72d0c5, [16 x i8] c"\0A\00\00\00\00\00\00\00\E6\00\00\001\00\00\00" }>, align 8
@alloc_702aec88ca3c641f0269bae46468939c = private unnamed_addr constant <{ ptr, [16 x i8] }> <{ ptr @alloc_f5ffd2fd1476bab43ad89fb40c72d0c5, [16 x i8] c"\0A\00\00\00\00\00\00\00\E7\00\00\00\1D\00\00\00" }>, align 8
@alloc_1d2805e3f5f94bbb6f3cd653b7abc66a = private unnamed_addr constant <{ ptr, [16 x i8] }> <{ ptr @alloc_f5ffd2fd1476bab43ad89fb40c72d0c5, [16 x i8] c"\0A\00\00\00\00\00\00\00\E7\00\00\00\11\00\00\00" }>, align 8
@alloc_911ab9a328dd4a9fac51348747477b02 = private unnamed_addr constant <{ ptr, [16 x i8] }> <{ ptr @alloc_f5ffd2fd1476bab43ad89fb40c72d0c5, [16 x i8] c"\0A\00\00\00\00\00\00\00\E8\00\00\00\1D\00\00\00" }>, align 8
@alloc_d99bca0f8b39ac0cf748a598b474b26e = private unnamed_addr constant <{ ptr, [16 x i8] }> <{ ptr @alloc_f5ffd2fd1476bab43ad89fb40c72d0c5, [16 x i8] c"\0A\00\00\00\00\00\00\00\E8\00\00\00\11\00\00\00" }>, align 8
@alloc_1f5eaa04ebab4222c82f2ba40e76688e = private unnamed_addr constant <{ ptr, [16 x i8] }> <{ ptr @alloc_f5ffd2fd1476bab43ad89fb40c72d0c5, [16 x i8] c"\0A\00\00\00\00\00\00\00\E9\00\00\00\11\00\00\00" }>, align 8
@alloc_76a792bd0ee073160ca4274fa40d9261 = private unnamed_addr constant <{ ptr, [16 x i8] }> <{ ptr @alloc_f5ffd2fd1476bab43ad89fb40c72d0c5, [16 x i8] c"\0A\00\00\00\00\00\00\00\ED\00\00\00\13\00\00\00" }>, align 8
@alloc_d68fc1c9dce4a9f7007b94be508ea47d = private unnamed_addr constant <{ ptr, [16 x i8] }> <{ ptr @alloc_f5ffd2fd1476bab43ad89fb40c72d0c5, [16 x i8] c"\0A\00\00\00\00\00\00\00\EE\00\00\00\0C\00\00\00" }>, align 8
@alloc_0725c2397a98401dbfe1fc691afaa2fe = private unnamed_addr constant <{ ptr, [16 x i8] }> <{ ptr @alloc_f5ffd2fd1476bab43ad89fb40c72d0c5, [16 x i8] c"\0A\00\00\00\00\00\00\00\EF\00\00\00-\00\00\00" }>, align 8
@alloc_2dbe52eeb9888471c67eb7efac40ca21 = private unnamed_addr constant <{ ptr, [16 x i8] }> <{ ptr @alloc_f5ffd2fd1476bab43ad89fb40c72d0c5, [16 x i8] c"\0A\00\00\00\00\00\00\00\EF\00\00\00?\00\00\00" }>, align 8
@alloc_2123c6d48d6ca9b6a1b93db419aafcb3 = private unnamed_addr constant <{ ptr, [16 x i8] }> <{ ptr @alloc_f5ffd2fd1476bab43ad89fb40c72d0c5, [16 x i8] c"\0A\00\00\00\00\00\00\00\F3\00\00\001\00\00\00" }>, align 8
@alloc_b55a7bd6cd4997fafb52a00a027f6e3f = private unnamed_addr constant <{ ptr, [16 x i8] }> <{ ptr @alloc_f5ffd2fd1476bab43ad89fb40c72d0c5, [16 x i8] c"\0A\00\00\00\00\00\00\00\F4\00\00\00\1D\00\00\00" }>, align 8
@alloc_ded5413983ec61f5b1034da106fae239 = private unnamed_addr constant <{ ptr, [16 x i8] }> <{ ptr @alloc_f5ffd2fd1476bab43ad89fb40c72d0c5, [16 x i8] c"\0A\00\00\00\00\00\00\00\F4\00\00\00\11\00\00\00" }>, align 8
@alloc_f1de584a0c872e99d61cfe872492d4d1 = private unnamed_addr constant <{ ptr, [16 x i8] }> <{ ptr @alloc_f5ffd2fd1476bab43ad89fb40c72d0c5, [16 x i8] c"\0A\00\00\00\00\00\00\00\F5\00\00\00\1D\00\00\00" }>, align 8
@alloc_342b507c9beb093c6b1574affdc2c9fd = private unnamed_addr constant <{ ptr, [16 x i8] }> <{ ptr @alloc_f5ffd2fd1476bab43ad89fb40c72d0c5, [16 x i8] c"\0A\00\00\00\00\00\00\00\F5\00\00\00\11\00\00\00" }>, align 8
@alloc_7402d039b7728046ee7be7a8c6b35277 = private unnamed_addr constant <{ ptr, [16 x i8] }> <{ ptr @alloc_f5ffd2fd1476bab43ad89fb40c72d0c5, [16 x i8] c"\0A\00\00\00\00\00\00\00\F6\00\00\00\11\00\00\00" }>, align 8
@alloc_093be48527094cfb8c8aef3fd5e0983e = private unnamed_addr constant <{ ptr, [16 x i8] }> <{ ptr @alloc_f5ffd2fd1476bab43ad89fb40c72d0c5, [16 x i8] c"\0A\00\00\00\00\00\00\00\FA\00\00\00\13\00\00\00" }>, align 8
@alloc_0a744cbc1d514297e5a31e47c6424022 = private unnamed_addr constant <{ ptr, [16 x i8] }> <{ ptr @alloc_f5ffd2fd1476bab43ad89fb40c72d0c5, [16 x i8] c"\0A\00\00\00\00\00\00\00\FB\00\00\00\0C\00\00\00" }>, align 8
@alloc_97d44c7021ab93e204daed7439aec6b4 = private unnamed_addr constant <{ ptr, [16 x i8] }> <{ ptr @alloc_f5ffd2fd1476bab43ad89fb40c72d0c5, [16 x i8] c"\0A\00\00\00\00\00\00\00\FC\00\00\00-\00\00\00" }>, align 8
@alloc_b877d0398a0f4ec62ffdbbeb96c08202 = private unnamed_addr constant <{ ptr, [16 x i8] }> <{ ptr @alloc_f5ffd2fd1476bab43ad89fb40c72d0c5, [16 x i8] c"\0A\00\00\00\00\00\00\00\FC\00\00\00?\00\00\00" }>, align 8
@alloc_3651f6299d58671fa6ebc561c92e5c8c = private unnamed_addr constant <{ ptr, [16 x i8] }> <{ ptr @alloc_f5ffd2fd1476bab43ad89fb40c72d0c5, [16 x i8] c"\0A\00\00\00\00\00\00\00\00\01\00\001\00\00\00" }>, align 8
@alloc_c7ad0956d912f4e3af3ecb5e4cea3cd5 = private unnamed_addr constant <{ ptr, [16 x i8] }> <{ ptr @alloc_f5ffd2fd1476bab43ad89fb40c72d0c5, [16 x i8] c"\0A\00\00\00\00\00\00\00\01\01\00\00\1D\00\00\00" }>, align 8
@alloc_387001fe3b9e1d3b33494c42a5fc0980 = private unnamed_addr constant <{ ptr, [16 x i8] }> <{ ptr @alloc_f5ffd2fd1476bab43ad89fb40c72d0c5, [16 x i8] c"\0A\00\00\00\00\00\00\00\01\01\00\00\11\00\00\00" }>, align 8
@alloc_ba4b92c415e64a426ca26f13a3a7c83b = private unnamed_addr constant <{ ptr, [16 x i8] }> <{ ptr @alloc_f5ffd2fd1476bab43ad89fb40c72d0c5, [16 x i8] c"\0A\00\00\00\00\00\00\00\02\01\00\00\1D\00\00\00" }>, align 8
@alloc_f35d081fc2e0a0e2e59aed15f20ac779 = private unnamed_addr constant <{ ptr, [16 x i8] }> <{ ptr @alloc_f5ffd2fd1476bab43ad89fb40c72d0c5, [16 x i8] c"\0A\00\00\00\00\00\00\00\02\01\00\00\11\00\00\00" }>, align 8
@alloc_486b58557bcb7656916f2835599ae612 = private unnamed_addr constant <{ ptr, [16 x i8] }> <{ ptr @alloc_f5ffd2fd1476bab43ad89fb40c72d0c5, [16 x i8] c"\0A\00\00\00\00\00\00\00\03\01\00\00\11\00\00\00" }>, align 8
@alloc_a8dd501c36cf500e2dc8e12f8798ac32 = private unnamed_addr constant <{ ptr, [16 x i8] }> <{ ptr @alloc_f5ffd2fd1476bab43ad89fb40c72d0c5, [16 x i8] c"\0A\00\00\00\00\00\00\00\07\01\00\00\13\00\00\00" }>, align 8
@alloc_31a672835a7671232b8b97137027a6a0 = private unnamed_addr constant <{ ptr, [16 x i8] }> <{ ptr @alloc_f5ffd2fd1476bab43ad89fb40c72d0c5, [16 x i8] c"\0A\00\00\00\00\00\00\00\08\01\00\00\0C\00\00\00" }>, align 8
@alloc_76e6a54733ae3715cfc7cf292208bf4f = private unnamed_addr constant <{ ptr, [16 x i8] }> <{ ptr @alloc_f5ffd2fd1476bab43ad89fb40c72d0c5, [16 x i8] c"\0A\00\00\00\00\00\00\00\09\01\00\00.\00\00\00" }>, align 8
@alloc_0a21eccded7b79982114a326ddcf4f01 = private unnamed_addr constant <{ ptr, [16 x i8] }> <{ ptr @alloc_f5ffd2fd1476bab43ad89fb40c72d0c5, [16 x i8] c"\0A\00\00\00\00\00\00\00\09\01\00\00@\00\00\00" }>, align 8
@alloc_b79716a6b3b3da7c33abccffe5ad2766 = private unnamed_addr constant <{ ptr, [16 x i8] }> <{ ptr @alloc_f5ffd2fd1476bab43ad89fb40c72d0c5, [16 x i8] c"\0A\00\00\00\00\00\00\00\0D\01\00\001\00\00\00" }>, align 8
@alloc_00e6181096a439f67a5a7fc5dc2a557a = private unnamed_addr constant <{ ptr, [16 x i8] }> <{ ptr @alloc_f5ffd2fd1476bab43ad89fb40c72d0c5, [16 x i8] c"\0A\00\00\00\00\00\00\00\0E\01\00\00\1D\00\00\00" }>, align 8
@alloc_7e7eb7cbf027736cbd13353ddbabdb4e = private unnamed_addr constant <{ ptr, [16 x i8] }> <{ ptr @alloc_f5ffd2fd1476bab43ad89fb40c72d0c5, [16 x i8] c"\0A\00\00\00\00\00\00\00\0E\01\00\00\11\00\00\00" }>, align 8
@alloc_40ade551ddfd7c08adc70f4f3823a601 = private unnamed_addr constant <{ ptr, [16 x i8] }> <{ ptr @alloc_f5ffd2fd1476bab43ad89fb40c72d0c5, [16 x i8] c"\0A\00\00\00\00\00\00\00\0F\01\00\00\1D\00\00\00" }>, align 8
@alloc_b1b5711bbcbe759f83e18b97de6c28d9 = private unnamed_addr constant <{ ptr, [16 x i8] }> <{ ptr @alloc_f5ffd2fd1476bab43ad89fb40c72d0c5, [16 x i8] c"\0A\00\00\00\00\00\00\00\0F\01\00\00\11\00\00\00" }>, align 8
@alloc_5b6cbdbc35289acbaca9c93c25cfe354 = private unnamed_addr constant <{ ptr, [16 x i8] }> <{ ptr @alloc_f5ffd2fd1476bab43ad89fb40c72d0c5, [16 x i8] c"\0A\00\00\00\00\00\00\00\10\01\00\00\11\00\00\00" }>, align 8
@alloc_a7b3558027832338f1f25d8c4acbcd6a = private unnamed_addr constant [18 x i8] c"Total %d methods\0A\00", align 1

; core::intrinsics::cold_path
; Function Attrs: cold nounwind nonlazybind
define internal void @_ZN4core10intrinsics9cold_path17he04f4285bb120ae6E() unnamed_addr #0 {
start:
  ret void
}

; core::ptr::mut_ptr::<impl *mut T>::offset::precondition_check
; Function Attrs: inlinehint nounwind nonlazybind
define internal void @"_ZN4core3ptr7mut_ptr31_$LT$impl$u20$$BP$mut$u20$T$GT$6offset18precondition_check17h787de8df3ff9a9e7E"(ptr %this, i64 %count, i64 %size) unnamed_addr #1 {
start:
  %0 = call { i64, i1 } @llvm.smul.with.overflow.i64(i64 %count, i64 %size)
  %_10.0 = extractvalue { i64, i1 } %0, 0
  %_10.1 = extractvalue { i64, i1 } %0, 1
  br i1 %_10.1, label %bb3, label %bb5

bb5:                                              ; preds = %start
  %self = ptrtoint ptr %this to i64
  %1 = call { i64, i1 } @llvm.uadd.with.overflow.i64(i64 %self, i64 %_10.0)
  %_19.0 = extractvalue { i64, i1 } %1, 0
  %_19.1 = extractvalue { i64, i1 } %1, 1
  %_17 = icmp slt i64 %_10.0, 0
  %overflow = xor i1 %_19.1, %_17
  %_4 = xor i1 %overflow, true
  br i1 %_4, label %bb1, label %bb2

bb3:                                              ; preds = %start
  br label %bb2

bb2:                                              ; preds = %bb3, %bb5
; call core::panicking::panic_nounwind
  call void @_ZN4core9panicking14panic_nounwind17h211d9ce8d63f12e7E(ptr align 1 @alloc_0ed0763d8bf93ac79247e07858374e35, i64 210) #8
  unreachable

bb1:                                              ; preds = %bb5
  ret void
}

; core::ptr::mut_ptr::<impl *mut T>::is_null
; Function Attrs: inlinehint nounwind nonlazybind
define internal zeroext i1 @"_ZN4core3ptr7mut_ptr31_$LT$impl$u20$$BP$mut$u20$T$GT$7is_null17h522e9291b53aaf49E"(ptr %self) unnamed_addr #1 {
start:
  %_3 = ptrtoint ptr %self to i64
  %_0 = icmp eq i64 %_3, 0
  ret i1 %_0
}

; Function Attrs: nounwind nonlazybind
define i32 @cube_equal(ptr %m1, ptr %m2) unnamed_addr #2 {
start:
  %ok = alloca [4 x i8], align 4
  %j = alloca [4 x i8], align 4
  %i = alloca [4 x i8], align 4
  store i32 0, ptr %i, align 4
  store i32 0, ptr %j, align 4
  store i32 1, ptr %ok, align 4
  store i32 0, ptr %i, align 4
  br label %bb1

bb1:                                              ; preds = %bb13, %start
  %_7 = load i32, ptr %i, align 4
  %_6 = icmp slt i32 %_7, 3
  br i1 %_6, label %bb2, label %bb14

bb14:                                             ; preds = %bb2, %bb1
  %_0 = load i32, ptr %ok, align 4
  ret i32 %_0

bb2:                                              ; preds = %bb1
  %_8 = load i32, ptr %ok, align 4
  %0 = icmp eq i32 %_8, 0
  br i1 %0, label %bb14, label %bb3

bb3:                                              ; preds = %bb2
  store i32 0, ptr %j, align 4
  br label %bb4

bb4:                                              ; preds = %bb12, %bb3
  %_10 = load i32, ptr %j, align 4
  %_9 = icmp slt i32 %_10, 3
  br i1 %_9, label %bb5, label %bb13

bb13:                                             ; preds = %bb5, %bb4
  %1 = load i32, ptr %i, align 4
  %2 = add i32 %1, 1
  store i32 %2, ptr %i, align 4
  br label %bb1

bb5:                                              ; preds = %bb4
  %_11 = load i32, ptr %ok, align 4
  %3 = icmp eq i32 %_11, 0
  br i1 %3, label %bb13, label %bb6

bb6:                                              ; preds = %bb5
  %_16 = load i32, ptr %i, align 4
  %_15 = sext i32 %_16 to i64
; call core::ptr::mut_ptr::<impl *mut T>::offset::precondition_check
  call void @"_ZN4core3ptr7mut_ptr31_$LT$impl$u20$$BP$mut$u20$T$GT$6offset18precondition_check17h787de8df3ff9a9e7E"(ptr %m1, i64 %_15, i64 12) #9
  %_0.i6 = getelementptr inbounds [3 x i32], ptr %m1, i64 %_15
  %_18 = load i32, ptr %j, align 4
  %_17 = sext i32 %_18 to i64
  %_19 = icmp ult i64 %_17, 3
  br i1 %_19, label %bb8, label %panic

bb8:                                              ; preds = %bb6
  %_34 = ptrtoint ptr %_0.i6 to i64
  %_37 = and i64 %_34, 3
  %_38 = icmp eq i64 %_37, 0
  br i1 %_38, label %bb16, label %panic1

panic:                                            ; preds = %bb6
; call core::panicking::panic_bounds_check
  call void @_ZN4core9panicking18panic_bounds_check17h27d1e4f0cb1112dfE(i64 %_17, i64 3, ptr align 8 @alloc_11d27767637b4adaa4c8445c9abc6ad1) #8
  unreachable

bb16:                                             ; preds = %bb8
  %_40 = ptrtoint ptr %_0.i6 to i64
  %_43 = icmp eq i64 %_40, 0
  %_44 = and i1 %_43, true
  %_45 = xor i1 %_44, true
  br i1 %_45, label %bb17, label %panic2

panic1:                                           ; preds = %bb8
; call core::panicking::panic_misaligned_pointer_dereference
  call void @_ZN4core9panicking36panic_misaligned_pointer_dereference17hcc3cbded9382b6e5E(i64 4, i64 %_34, ptr align 8 @alloc_11d27767637b4adaa4c8445c9abc6ad1) #8
  unreachable

bb17:                                             ; preds = %bb16
  %4 = getelementptr inbounds nuw i32, ptr %_0.i6, i64 %_17
  %_13 = load i32, ptr %4, align 4
  %_23 = load i32, ptr %i, align 4
  %_22 = sext i32 %_23 to i64
; call core::ptr::mut_ptr::<impl *mut T>::offset::precondition_check
  call void @"_ZN4core3ptr7mut_ptr31_$LT$impl$u20$$BP$mut$u20$T$GT$6offset18precondition_check17h787de8df3ff9a9e7E"(ptr %m2, i64 %_22, i64 12) #9
  %_0.i = getelementptr inbounds [3 x i32], ptr %m2, i64 %_22
  %_25 = load i32, ptr %j, align 4
  %_24 = sext i32 %_25 to i64
  %_26 = icmp ult i64 %_24, 3
  br i1 %_26, label %bb10, label %panic3

panic2:                                           ; preds = %bb16
; call core::panicking::panic_null_pointer_dereference
  call void @_ZN4core9panicking30panic_null_pointer_dereference17hf718fcc86a223baaE(ptr align 8 @alloc_11d27767637b4adaa4c8445c9abc6ad1) #8
  unreachable

bb10:                                             ; preds = %bb17
  %_28 = ptrtoint ptr %_0.i to i64
  %_31 = and i64 %_28, 3
  %_32 = icmp eq i64 %_31, 0
  br i1 %_32, label %bb15, label %panic4

panic3:                                           ; preds = %bb17
; call core::panicking::panic_bounds_check
  call void @_ZN4core9panicking18panic_bounds_check17h27d1e4f0cb1112dfE(i64 %_24, i64 3, ptr align 8 @alloc_92db80129de087d2d7f61fddb6455d0e) #8
  unreachable

bb15:                                             ; preds = %bb10
  %_47 = ptrtoint ptr %_0.i to i64
  %_50 = icmp eq i64 %_47, 0
  %_51 = and i1 %_50, true
  %_52 = xor i1 %_51, true
  br i1 %_52, label %bb18, label %panic5

panic4:                                           ; preds = %bb10
; call core::panicking::panic_misaligned_pointer_dereference
  call void @_ZN4core9panicking36panic_misaligned_pointer_dereference17hcc3cbded9382b6e5E(i64 4, i64 %_28, ptr align 8 @alloc_92db80129de087d2d7f61fddb6455d0e) #8
  unreachable

bb18:                                             ; preds = %bb15
  %5 = getelementptr inbounds nuw i32, ptr %_0.i, i64 %_24
  %_20 = load i32, ptr %5, align 4
  %_12 = icmp ne i32 %_13, %_20
  br i1 %_12, label %bb11, label %bb12

panic5:                                           ; preds = %bb15
; call core::panicking::panic_null_pointer_dereference
  call void @_ZN4core9panicking30panic_null_pointer_dereference17hf718fcc86a223baaE(ptr align 8 @alloc_92db80129de087d2d7f61fddb6455d0e) #8
  unreachable

bb12:                                             ; preds = %bb11, %bb18
  %6 = load i32, ptr %j, align 4
  %7 = add i32 %6, 1
  store i32 %7, ptr %j, align 4
  br label %bb4

bb11:                                             ; preds = %bb18
  store i32 0, ptr %ok, align 4
  br label %bb12
}

; Function Attrs: nounwind nonlazybind
define void @cube_copy(ptr %source, ptr %dest) unnamed_addr #2 {
start:
  %j = alloca [4 x i8], align 4
  %i = alloca [4 x i8], align 4
  store i32 0, ptr %i, align 4
  store i32 0, ptr %j, align 4
  store i32 0, ptr %i, align 4
  br label %bb1

bb1:                                              ; preds = %bb9, %start
  %_6 = load i32, ptr %i, align 4
  %_5 = icmp slt i32 %_6, 3
  br i1 %_5, label %bb2, label %bb10

bb10:                                             ; preds = %bb1
  ret void

bb2:                                              ; preds = %bb1
  store i32 0, ptr %j, align 4
  br label %bb3

bb3:                                              ; preds = %bb14, %bb2
  %_8 = load i32, ptr %j, align 4
  %_7 = icmp slt i32 %_8, 3
  br i1 %_7, label %bb4, label %bb9

bb9:                                              ; preds = %bb3
  %0 = load i32, ptr %i, align 4
  %1 = add i32 %0, 1
  store i32 %1, ptr %i, align 4
  br label %bb1

bb4:                                              ; preds = %bb3
  %_12 = load i32, ptr %i, align 4
  %_11 = sext i32 %_12 to i64
; call core::ptr::mut_ptr::<impl *mut T>::offset::precondition_check
  call void @"_ZN4core3ptr7mut_ptr31_$LT$impl$u20$$BP$mut$u20$T$GT$6offset18precondition_check17h787de8df3ff9a9e7E"(ptr %source, i64 %_11, i64 12) #9
  %_0.i6 = getelementptr inbounds [3 x i32], ptr %source, i64 %_11
  %_14 = load i32, ptr %j, align 4
  %_13 = sext i32 %_14 to i64
  %_15 = icmp ult i64 %_13, 3
  br i1 %_15, label %bb6, label %panic

bb6:                                              ; preds = %bb4
  %_29 = ptrtoint ptr %_0.i6 to i64
  %_32 = and i64 %_29, 3
  %_33 = icmp eq i64 %_32, 0
  br i1 %_33, label %bb12, label %panic1

panic:                                            ; preds = %bb4
; call core::panicking::panic_bounds_check
  call void @_ZN4core9panicking18panic_bounds_check17h27d1e4f0cb1112dfE(i64 %_13, i64 3, ptr align 8 @alloc_8cbec3e4ee77e1df0883321856619226) #8
  unreachable

bb12:                                             ; preds = %bb6
  %_35 = ptrtoint ptr %_0.i6 to i64
  %_38 = icmp eq i64 %_35, 0
  %_39 = and i1 %_38, true
  %_40 = xor i1 %_39, true
  br i1 %_40, label %bb13, label %panic2

panic1:                                           ; preds = %bb6
; call core::panicking::panic_misaligned_pointer_dereference
  call void @_ZN4core9panicking36panic_misaligned_pointer_dereference17hcc3cbded9382b6e5E(i64 4, i64 %_29, ptr align 8 @alloc_8cbec3e4ee77e1df0883321856619226) #8
  unreachable

bb13:                                             ; preds = %bb12
  %2 = getelementptr inbounds nuw i32, ptr %_0.i6, i64 %_13
  %_9 = load i32, ptr %2, align 4
  %_18 = load i32, ptr %i, align 4
  %_17 = sext i32 %_18 to i64
; call core::ptr::mut_ptr::<impl *mut T>::offset::precondition_check
  call void @"_ZN4core3ptr7mut_ptr31_$LT$impl$u20$$BP$mut$u20$T$GT$6offset18precondition_check17h787de8df3ff9a9e7E"(ptr %dest, i64 %_17, i64 12) #9
  %_0.i = getelementptr inbounds [3 x i32], ptr %dest, i64 %_17
  %_20 = load i32, ptr %j, align 4
  %_19 = sext i32 %_20 to i64
  %_21 = icmp ult i64 %_19, 3
  br i1 %_21, label %bb8, label %panic3

panic2:                                           ; preds = %bb12
; call core::panicking::panic_null_pointer_dereference
  call void @_ZN4core9panicking30panic_null_pointer_dereference17hf718fcc86a223baaE(ptr align 8 @alloc_8cbec3e4ee77e1df0883321856619226) #8
  unreachable

bb8:                                              ; preds = %bb13
  %_23 = ptrtoint ptr %_0.i to i64
  %_26 = and i64 %_23, 3
  %_27 = icmp eq i64 %_26, 0
  br i1 %_27, label %bb11, label %panic4

panic3:                                           ; preds = %bb13
; call core::panicking::panic_bounds_check
  call void @_ZN4core9panicking18panic_bounds_check17h27d1e4f0cb1112dfE(i64 %_19, i64 3, ptr align 8 @alloc_f3ea51a1e0221163c8528643a2456c05) #8
  unreachable

bb11:                                             ; preds = %bb8
  %_42 = ptrtoint ptr %_0.i to i64
  %_45 = icmp eq i64 %_42, 0
  %_46 = and i1 %_45, true
  %_47 = xor i1 %_46, true
  br i1 %_47, label %bb14, label %panic5

panic4:                                           ; preds = %bb8
; call core::panicking::panic_misaligned_pointer_dereference
  call void @_ZN4core9panicking36panic_misaligned_pointer_dereference17hcc3cbded9382b6e5E(i64 4, i64 %_23, ptr align 8 @alloc_f3ea51a1e0221163c8528643a2456c05) #8
  unreachable

bb14:                                             ; preds = %bb11
  %3 = getelementptr inbounds nuw i32, ptr %_0.i, i64 %_19
  store i32 %_9, ptr %3, align 4
  %4 = load i32, ptr %j, align 4
  %5 = add i32 %4, 1
  store i32 %5, ptr %j, align 4
  br label %bb3

panic5:                                           ; preds = %bb11
; call core::panicking::panic_null_pointer_dereference
  call void @_ZN4core9panicking30panic_null_pointer_dereference17hf718fcc86a223baaE(ptr align 8 @alloc_f3ea51a1e0221163c8528643a2456c05) #8
  unreachable
}

; Function Attrs: nounwind nonlazybind
define void @cube_display(ptr %m) unnamed_addr #2 {
start:
  %j = alloca [4 x i8], align 4
  %i = alloca [4 x i8], align 4
  store i32 0, ptr %i, align 4
  store i32 0, ptr %j, align 4
  store i32 0, ptr %i, align 4
  br label %bb1

bb1:                                              ; preds = %bb8, %start
  %_5 = load i32, ptr %i, align 4
  %_4 = icmp slt i32 %_5, 3
  br i1 %_4, label %bb2, label %bb10

bb10:                                             ; preds = %bb1
  ret void

bb2:                                              ; preds = %bb1
  store i32 0, ptr %j, align 4
  br label %bb3

bb3:                                              ; preds = %bb12, %bb2
  %_7 = load i32, ptr %j, align 4
  %_6 = icmp slt i32 %_7, 3
  br i1 %_6, label %bb4, label %bb8

bb8:                                              ; preds = %bb3
  %_20 = call i32 (ptr, ...) @printf(ptr @alloc_f3588b28b94f0809fcc8d717033d3e48) #9
  %0 = load i32, ptr %i, align 4
  %1 = add i32 %0, 1
  store i32 %1, ptr %i, align 4
  br label %bb1

bb4:                                              ; preds = %bb3
  %_16 = load i32, ptr %i, align 4
  %_15 = sext i32 %_16 to i64
; call core::ptr::mut_ptr::<impl *mut T>::offset::precondition_check
  call void @"_ZN4core3ptr7mut_ptr31_$LT$impl$u20$$BP$mut$u20$T$GT$6offset18precondition_check17h787de8df3ff9a9e7E"(ptr %m, i64 %_15, i64 12) #9
  %_0.i = getelementptr inbounds [3 x i32], ptr %m, i64 %_15
  %_18 = load i32, ptr %j, align 4
  %_17 = sext i32 %_18 to i64
  %_19 = icmp ult i64 %_17, 3
  br i1 %_19, label %bb6, label %panic

bb6:                                              ; preds = %bb4
  %_26 = ptrtoint ptr %_0.i to i64
  %_29 = and i64 %_26, 3
  %_30 = icmp eq i64 %_29, 0
  br i1 %_30, label %bb11, label %panic1

panic:                                            ; preds = %bb4
; call core::panicking::panic_bounds_check
  call void @_ZN4core9panicking18panic_bounds_check17h27d1e4f0cb1112dfE(i64 %_17, i64 3, ptr align 8 @alloc_82c269c76d83016dabfe0e879afd8e67) #8
  unreachable

bb11:                                             ; preds = %bb6
  %_32 = ptrtoint ptr %_0.i to i64
  %_35 = icmp eq i64 %_32, 0
  %_36 = and i1 %_35, true
  %_37 = xor i1 %_36, true
  br i1 %_37, label %bb12, label %panic2

panic1:                                           ; preds = %bb6
; call core::panicking::panic_misaligned_pointer_dereference
  call void @_ZN4core9panicking36panic_misaligned_pointer_dereference17hcc3cbded9382b6e5E(i64 4, i64 %_26, ptr align 8 @alloc_82c269c76d83016dabfe0e879afd8e67) #8
  unreachable

bb12:                                             ; preds = %bb11
  %2 = getelementptr inbounds nuw i32, ptr %_0.i, i64 %_17
  %_13 = load i32, ptr %2, align 4
  %_8 = call i32 (ptr, ...) @printf(ptr @alloc_b929c71616281bfd1be2bd4038d3ddf1, i32 %_13) #9
  %3 = load i32, ptr %j, align 4
  %4 = add i32 %3, 1
  store i32 %4, ptr %j, align 4
  br label %bb3

panic2:                                           ; preds = %bb11
; call core::panicking::panic_null_pointer_dereference
  call void @_ZN4core9panicking30panic_null_pointer_dereference17hf718fcc86a223baaE(ptr align 8 @alloc_82c269c76d83016dabfe0e879afd8e67) #8
  unreachable
}

; Function Attrs: nounwind nonlazybind
define void @move_up(ptr %m, i32 %x, i32 %y) unnamed_addr #2 {
start:
  %_7 = sub i32 %x, 1
  %_6 = sext i32 %_7 to i64
; call core::ptr::mut_ptr::<impl *mut T>::offset::precondition_check
  call void @"_ZN4core3ptr7mut_ptr31_$LT$impl$u20$$BP$mut$u20$T$GT$6offset18precondition_check17h787de8df3ff9a9e7E"(ptr %m, i64 %_6, i64 12) #9
  %_0.i10 = getelementptr inbounds [3 x i32], ptr %m, i64 %_6
  %_8 = sext i32 %y to i64
  %_9 = icmp ult i64 %_8, 3
  br i1 %_9, label %bb2, label %panic

bb2:                                              ; preds = %start
  %_32 = ptrtoint ptr %_0.i10 to i64
  %_35 = and i64 %_32, 3
  %_36 = icmp eq i64 %_35, 0
  br i1 %_36, label %bb9, label %panic1

panic:                                            ; preds = %start
; call core::panicking::panic_bounds_check
  call void @_ZN4core9panicking18panic_bounds_check17h27d1e4f0cb1112dfE(i64 %_8, i64 3, ptr align 8 @alloc_7173a9f7e61423a8448fc3c3a28bf706) #8
  unreachable

bb9:                                              ; preds = %bb2
  %_38 = ptrtoint ptr %_0.i10 to i64
  %_41 = icmp eq i64 %_38, 0
  %_42 = and i1 %_41, true
  %_43 = xor i1 %_42, true
  br i1 %_43, label %bb10, label %panic2

panic1:                                           ; preds = %bb2
; call core::panicking::panic_misaligned_pointer_dereference
  call void @_ZN4core9panicking36panic_misaligned_pointer_dereference17hcc3cbded9382b6e5E(i64 4, i64 %_32, ptr align 8 @alloc_7173a9f7e61423a8448fc3c3a28bf706) #8
  unreachable

bb10:                                             ; preds = %bb9
  %0 = getelementptr inbounds nuw i32, ptr %_0.i10, i64 %_8
  %_4 = load i32, ptr %0, align 4
  %_11 = sext i32 %x to i64
; call core::ptr::mut_ptr::<impl *mut T>::offset::precondition_check
  call void @"_ZN4core3ptr7mut_ptr31_$LT$impl$u20$$BP$mut$u20$T$GT$6offset18precondition_check17h787de8df3ff9a9e7E"(ptr %m, i64 %_11, i64 12) #9
  %_0.i9 = getelementptr inbounds [3 x i32], ptr %m, i64 %_11
  %_12 = sext i32 %y to i64
  %_13 = icmp ult i64 %_12, 3
  br i1 %_13, label %bb4, label %panic3

panic2:                                           ; preds = %bb9
; call core::panicking::panic_null_pointer_dereference
  call void @_ZN4core9panicking30panic_null_pointer_dereference17hf718fcc86a223baaE(ptr align 8 @alloc_7173a9f7e61423a8448fc3c3a28bf706) #8
  unreachable

bb4:                                              ; preds = %bb10
  %_26 = ptrtoint ptr %_0.i9 to i64
  %_29 = and i64 %_26, 3
  %_30 = icmp eq i64 %_29, 0
  br i1 %_30, label %bb8, label %panic4

panic3:                                           ; preds = %bb10
; call core::panicking::panic_bounds_check
  call void @_ZN4core9panicking18panic_bounds_check17h27d1e4f0cb1112dfE(i64 %_12, i64 3, ptr align 8 @alloc_0f71aacfd249cf47639d68c1334ec744) #8
  unreachable

bb8:                                              ; preds = %bb4
  %_45 = ptrtoint ptr %_0.i9 to i64
  %_48 = icmp eq i64 %_45, 0
  %_49 = and i1 %_48, true
  %_50 = xor i1 %_49, true
  br i1 %_50, label %bb11, label %panic5

panic4:                                           ; preds = %bb4
; call core::panicking::panic_misaligned_pointer_dereference
  call void @_ZN4core9panicking36panic_misaligned_pointer_dereference17hcc3cbded9382b6e5E(i64 4, i64 %_26, ptr align 8 @alloc_0f71aacfd249cf47639d68c1334ec744) #8
  unreachable

bb11:                                             ; preds = %bb8
  %1 = getelementptr inbounds nuw i32, ptr %_0.i9, i64 %_12
  store i32 %_4, ptr %1, align 4
  %_16 = sub i32 %x, 1
  %_15 = sext i32 %_16 to i64
; call core::ptr::mut_ptr::<impl *mut T>::offset::precondition_check
  call void @"_ZN4core3ptr7mut_ptr31_$LT$impl$u20$$BP$mut$u20$T$GT$6offset18precondition_check17h787de8df3ff9a9e7E"(ptr %m, i64 %_15, i64 12) #9
  %_0.i = getelementptr inbounds [3 x i32], ptr %m, i64 %_15
  %_17 = sext i32 %y to i64
  %_18 = icmp ult i64 %_17, 3
  br i1 %_18, label %bb6, label %panic6

panic5:                                           ; preds = %bb8
; call core::panicking::panic_null_pointer_dereference
  call void @_ZN4core9panicking30panic_null_pointer_dereference17hf718fcc86a223baaE(ptr align 8 @alloc_0f71aacfd249cf47639d68c1334ec744) #8
  unreachable

bb6:                                              ; preds = %bb11
  %_20 = ptrtoint ptr %_0.i to i64
  %_23 = and i64 %_20, 3
  %_24 = icmp eq i64 %_23, 0
  br i1 %_24, label %bb7, label %panic7

panic6:                                           ; preds = %bb11
; call core::panicking::panic_bounds_check
  call void @_ZN4core9panicking18panic_bounds_check17h27d1e4f0cb1112dfE(i64 %_17, i64 3, ptr align 8 @alloc_8ec59d216d65a3b54821efc7aabdb3bf) #8
  unreachable

bb7:                                              ; preds = %bb6
  %_52 = ptrtoint ptr %_0.i to i64
  %_55 = icmp eq i64 %_52, 0
  %_56 = and i1 %_55, true
  %_57 = xor i1 %_56, true
  br i1 %_57, label %bb12, label %panic8

panic7:                                           ; preds = %bb6
; call core::panicking::panic_misaligned_pointer_dereference
  call void @_ZN4core9panicking36panic_misaligned_pointer_dereference17hcc3cbded9382b6e5E(i64 4, i64 %_20, ptr align 8 @alloc_8ec59d216d65a3b54821efc7aabdb3bf) #8
  unreachable

bb12:                                             ; preds = %bb7
  %2 = getelementptr inbounds nuw i32, ptr %_0.i, i64 %_17
  store i32 -1, ptr %2, align 4
  ret void

panic8:                                           ; preds = %bb7
; call core::panicking::panic_null_pointer_dereference
  call void @_ZN4core9panicking30panic_null_pointer_dereference17hf718fcc86a223baaE(ptr align 8 @alloc_8ec59d216d65a3b54821efc7aabdb3bf) #8
  unreachable
}

; Function Attrs: nounwind nonlazybind
define void @move_down(ptr %m, i32 %x, i32 %y) unnamed_addr #2 {
start:
  %_7 = add i32 %x, 1
  %_6 = sext i32 %_7 to i64
; call core::ptr::mut_ptr::<impl *mut T>::offset::precondition_check
  call void @"_ZN4core3ptr7mut_ptr31_$LT$impl$u20$$BP$mut$u20$T$GT$6offset18precondition_check17h787de8df3ff9a9e7E"(ptr %m, i64 %_6, i64 12) #9
  %_0.i10 = getelementptr inbounds [3 x i32], ptr %m, i64 %_6
  %_8 = sext i32 %y to i64
  %_9 = icmp ult i64 %_8, 3
  br i1 %_9, label %bb2, label %panic

bb2:                                              ; preds = %start
  %_32 = ptrtoint ptr %_0.i10 to i64
  %_35 = and i64 %_32, 3
  %_36 = icmp eq i64 %_35, 0
  br i1 %_36, label %bb9, label %panic1

panic:                                            ; preds = %start
; call core::panicking::panic_bounds_check
  call void @_ZN4core9panicking18panic_bounds_check17h27d1e4f0cb1112dfE(i64 %_8, i64 3, ptr align 8 @alloc_9d8cfc076b51ea5c30c446c648b95d30) #8
  unreachable

bb9:                                              ; preds = %bb2
  %_38 = ptrtoint ptr %_0.i10 to i64
  %_41 = icmp eq i64 %_38, 0
  %_42 = and i1 %_41, true
  %_43 = xor i1 %_42, true
  br i1 %_43, label %bb10, label %panic2

panic1:                                           ; preds = %bb2
; call core::panicking::panic_misaligned_pointer_dereference
  call void @_ZN4core9panicking36panic_misaligned_pointer_dereference17hcc3cbded9382b6e5E(i64 4, i64 %_32, ptr align 8 @alloc_9d8cfc076b51ea5c30c446c648b95d30) #8
  unreachable

bb10:                                             ; preds = %bb9
  %0 = getelementptr inbounds nuw i32, ptr %_0.i10, i64 %_8
  %_4 = load i32, ptr %0, align 4
  %_11 = sext i32 %x to i64
; call core::ptr::mut_ptr::<impl *mut T>::offset::precondition_check
  call void @"_ZN4core3ptr7mut_ptr31_$LT$impl$u20$$BP$mut$u20$T$GT$6offset18precondition_check17h787de8df3ff9a9e7E"(ptr %m, i64 %_11, i64 12) #9
  %_0.i9 = getelementptr inbounds [3 x i32], ptr %m, i64 %_11
  %_12 = sext i32 %y to i64
  %_13 = icmp ult i64 %_12, 3
  br i1 %_13, label %bb4, label %panic3

panic2:                                           ; preds = %bb9
; call core::panicking::panic_null_pointer_dereference
  call void @_ZN4core9panicking30panic_null_pointer_dereference17hf718fcc86a223baaE(ptr align 8 @alloc_9d8cfc076b51ea5c30c446c648b95d30) #8
  unreachable

bb4:                                              ; preds = %bb10
  %_26 = ptrtoint ptr %_0.i9 to i64
  %_29 = and i64 %_26, 3
  %_30 = icmp eq i64 %_29, 0
  br i1 %_30, label %bb8, label %panic4

panic3:                                           ; preds = %bb10
; call core::panicking::panic_bounds_check
  call void @_ZN4core9panicking18panic_bounds_check17h27d1e4f0cb1112dfE(i64 %_12, i64 3, ptr align 8 @alloc_4b6088dabf55f4504e258082b37bd7f6) #8
  unreachable

bb8:                                              ; preds = %bb4
  %_45 = ptrtoint ptr %_0.i9 to i64
  %_48 = icmp eq i64 %_45, 0
  %_49 = and i1 %_48, true
  %_50 = xor i1 %_49, true
  br i1 %_50, label %bb11, label %panic5

panic4:                                           ; preds = %bb4
; call core::panicking::panic_misaligned_pointer_dereference
  call void @_ZN4core9panicking36panic_misaligned_pointer_dereference17hcc3cbded9382b6e5E(i64 4, i64 %_26, ptr align 8 @alloc_4b6088dabf55f4504e258082b37bd7f6) #8
  unreachable

bb11:                                             ; preds = %bb8
  %1 = getelementptr inbounds nuw i32, ptr %_0.i9, i64 %_12
  store i32 %_4, ptr %1, align 4
  %_16 = add i32 %x, 1
  %_15 = sext i32 %_16 to i64
; call core::ptr::mut_ptr::<impl *mut T>::offset::precondition_check
  call void @"_ZN4core3ptr7mut_ptr31_$LT$impl$u20$$BP$mut$u20$T$GT$6offset18precondition_check17h787de8df3ff9a9e7E"(ptr %m, i64 %_15, i64 12) #9
  %_0.i = getelementptr inbounds [3 x i32], ptr %m, i64 %_15
  %_17 = sext i32 %y to i64
  %_18 = icmp ult i64 %_17, 3
  br i1 %_18, label %bb6, label %panic6

panic5:                                           ; preds = %bb8
; call core::panicking::panic_null_pointer_dereference
  call void @_ZN4core9panicking30panic_null_pointer_dereference17hf718fcc86a223baaE(ptr align 8 @alloc_4b6088dabf55f4504e258082b37bd7f6) #8
  unreachable

bb6:                                              ; preds = %bb11
  %_20 = ptrtoint ptr %_0.i to i64
  %_23 = and i64 %_20, 3
  %_24 = icmp eq i64 %_23, 0
  br i1 %_24, label %bb7, label %panic7

panic6:                                           ; preds = %bb11
; call core::panicking::panic_bounds_check
  call void @_ZN4core9panicking18panic_bounds_check17h27d1e4f0cb1112dfE(i64 %_17, i64 3, ptr align 8 @alloc_33163a8e673ee25e32a7ea0cadee3b6e) #8
  unreachable

bb7:                                              ; preds = %bb6
  %_52 = ptrtoint ptr %_0.i to i64
  %_55 = icmp eq i64 %_52, 0
  %_56 = and i1 %_55, true
  %_57 = xor i1 %_56, true
  br i1 %_57, label %bb12, label %panic8

panic7:                                           ; preds = %bb6
; call core::panicking::panic_misaligned_pointer_dereference
  call void @_ZN4core9panicking36panic_misaligned_pointer_dereference17hcc3cbded9382b6e5E(i64 4, i64 %_20, ptr align 8 @alloc_33163a8e673ee25e32a7ea0cadee3b6e) #8
  unreachable

bb12:                                             ; preds = %bb7
  %2 = getelementptr inbounds nuw i32, ptr %_0.i, i64 %_17
  store i32 -1, ptr %2, align 4
  ret void

panic8:                                           ; preds = %bb7
; call core::panicking::panic_null_pointer_dereference
  call void @_ZN4core9panicking30panic_null_pointer_dereference17hf718fcc86a223baaE(ptr align 8 @alloc_33163a8e673ee25e32a7ea0cadee3b6e) #8
  unreachable
}

; Function Attrs: nounwind nonlazybind
define void @move_left(ptr %m, i32 %x, i32 %y) unnamed_addr #2 {
start:
  %_6 = sext i32 %x to i64
; call core::ptr::mut_ptr::<impl *mut T>::offset::precondition_check
  call void @"_ZN4core3ptr7mut_ptr31_$LT$impl$u20$$BP$mut$u20$T$GT$6offset18precondition_check17h787de8df3ff9a9e7E"(ptr %m, i64 %_6, i64 12) #9
  %_0.i10 = getelementptr inbounds [3 x i32], ptr %m, i64 %_6
  %_8 = sub i32 %y, 1
  %_7 = sext i32 %_8 to i64
  %_9 = icmp ult i64 %_7, 3
  br i1 %_9, label %bb2, label %panic

bb2:                                              ; preds = %start
  %_32 = ptrtoint ptr %_0.i10 to i64
  %_35 = and i64 %_32, 3
  %_36 = icmp eq i64 %_35, 0
  br i1 %_36, label %bb9, label %panic1

panic:                                            ; preds = %start
; call core::panicking::panic_bounds_check
  call void @_ZN4core9panicking18panic_bounds_check17h27d1e4f0cb1112dfE(i64 %_7, i64 3, ptr align 8 @alloc_28e8e1525a2eafa85fa694e47fecad1b) #8
  unreachable

bb9:                                              ; preds = %bb2
  %_38 = ptrtoint ptr %_0.i10 to i64
  %_41 = icmp eq i64 %_38, 0
  %_42 = and i1 %_41, true
  %_43 = xor i1 %_42, true
  br i1 %_43, label %bb10, label %panic2

panic1:                                           ; preds = %bb2
; call core::panicking::panic_misaligned_pointer_dereference
  call void @_ZN4core9panicking36panic_misaligned_pointer_dereference17hcc3cbded9382b6e5E(i64 4, i64 %_32, ptr align 8 @alloc_28e8e1525a2eafa85fa694e47fecad1b) #8
  unreachable

bb10:                                             ; preds = %bb9
  %0 = getelementptr inbounds nuw i32, ptr %_0.i10, i64 %_7
  %_4 = load i32, ptr %0, align 4
  %_11 = sext i32 %x to i64
; call core::ptr::mut_ptr::<impl *mut T>::offset::precondition_check
  call void @"_ZN4core3ptr7mut_ptr31_$LT$impl$u20$$BP$mut$u20$T$GT$6offset18precondition_check17h787de8df3ff9a9e7E"(ptr %m, i64 %_11, i64 12) #9
  %_0.i9 = getelementptr inbounds [3 x i32], ptr %m, i64 %_11
  %_12 = sext i32 %y to i64
  %_13 = icmp ult i64 %_12, 3
  br i1 %_13, label %bb4, label %panic3

panic2:                                           ; preds = %bb9
; call core::panicking::panic_null_pointer_dereference
  call void @_ZN4core9panicking30panic_null_pointer_dereference17hf718fcc86a223baaE(ptr align 8 @alloc_28e8e1525a2eafa85fa694e47fecad1b) #8
  unreachable

bb4:                                              ; preds = %bb10
  %_26 = ptrtoint ptr %_0.i9 to i64
  %_29 = and i64 %_26, 3
  %_30 = icmp eq i64 %_29, 0
  br i1 %_30, label %bb8, label %panic4

panic3:                                           ; preds = %bb10
; call core::panicking::panic_bounds_check
  call void @_ZN4core9panicking18panic_bounds_check17h27d1e4f0cb1112dfE(i64 %_12, i64 3, ptr align 8 @alloc_78d72a4cdf0453bbc786d377f6cb9ddc) #8
  unreachable

bb8:                                              ; preds = %bb4
  %_45 = ptrtoint ptr %_0.i9 to i64
  %_48 = icmp eq i64 %_45, 0
  %_49 = and i1 %_48, true
  %_50 = xor i1 %_49, true
  br i1 %_50, label %bb11, label %panic5

panic4:                                           ; preds = %bb4
; call core::panicking::panic_misaligned_pointer_dereference
  call void @_ZN4core9panicking36panic_misaligned_pointer_dereference17hcc3cbded9382b6e5E(i64 4, i64 %_26, ptr align 8 @alloc_78d72a4cdf0453bbc786d377f6cb9ddc) #8
  unreachable

bb11:                                             ; preds = %bb8
  %1 = getelementptr inbounds nuw i32, ptr %_0.i9, i64 %_12
  store i32 %_4, ptr %1, align 4
  %_15 = sext i32 %x to i64
; call core::ptr::mut_ptr::<impl *mut T>::offset::precondition_check
  call void @"_ZN4core3ptr7mut_ptr31_$LT$impl$u20$$BP$mut$u20$T$GT$6offset18precondition_check17h787de8df3ff9a9e7E"(ptr %m, i64 %_15, i64 12) #9
  %_0.i = getelementptr inbounds [3 x i32], ptr %m, i64 %_15
  %_17 = sub i32 %y, 1
  %_16 = sext i32 %_17 to i64
  %_18 = icmp ult i64 %_16, 3
  br i1 %_18, label %bb6, label %panic6

panic5:                                           ; preds = %bb8
; call core::panicking::panic_null_pointer_dereference
  call void @_ZN4core9panicking30panic_null_pointer_dereference17hf718fcc86a223baaE(ptr align 8 @alloc_78d72a4cdf0453bbc786d377f6cb9ddc) #8
  unreachable

bb6:                                              ; preds = %bb11
  %_20 = ptrtoint ptr %_0.i to i64
  %_23 = and i64 %_20, 3
  %_24 = icmp eq i64 %_23, 0
  br i1 %_24, label %bb7, label %panic7

panic6:                                           ; preds = %bb11
; call core::panicking::panic_bounds_check
  call void @_ZN4core9panicking18panic_bounds_check17h27d1e4f0cb1112dfE(i64 %_16, i64 3, ptr align 8 @alloc_ff9152b01998611ba6bd446c3ae8be7e) #8
  unreachable

bb7:                                              ; preds = %bb6
  %_52 = ptrtoint ptr %_0.i to i64
  %_55 = icmp eq i64 %_52, 0
  %_56 = and i1 %_55, true
  %_57 = xor i1 %_56, true
  br i1 %_57, label %bb12, label %panic8

panic7:                                           ; preds = %bb6
; call core::panicking::panic_misaligned_pointer_dereference
  call void @_ZN4core9panicking36panic_misaligned_pointer_dereference17hcc3cbded9382b6e5E(i64 4, i64 %_20, ptr align 8 @alloc_ff9152b01998611ba6bd446c3ae8be7e) #8
  unreachable

bb12:                                             ; preds = %bb7
  %2 = getelementptr inbounds nuw i32, ptr %_0.i, i64 %_16
  store i32 -1, ptr %2, align 4
  ret void

panic8:                                           ; preds = %bb7
; call core::panicking::panic_null_pointer_dereference
  call void @_ZN4core9panicking30panic_null_pointer_dereference17hf718fcc86a223baaE(ptr align 8 @alloc_ff9152b01998611ba6bd446c3ae8be7e) #8
  unreachable
}

; Function Attrs: nounwind nonlazybind
define void @move_right(ptr %m, i32 %x, i32 %y) unnamed_addr #2 {
start:
  %_6 = sext i32 %x to i64
; call core::ptr::mut_ptr::<impl *mut T>::offset::precondition_check
  call void @"_ZN4core3ptr7mut_ptr31_$LT$impl$u20$$BP$mut$u20$T$GT$6offset18precondition_check17h787de8df3ff9a9e7E"(ptr %m, i64 %_6, i64 12) #9
  %_0.i10 = getelementptr inbounds [3 x i32], ptr %m, i64 %_6
  %_8 = add i32 %y, 1
  %_7 = sext i32 %_8 to i64
  %_9 = icmp ult i64 %_7, 3
  br i1 %_9, label %bb2, label %panic

bb2:                                              ; preds = %start
  %_32 = ptrtoint ptr %_0.i10 to i64
  %_35 = and i64 %_32, 3
  %_36 = icmp eq i64 %_35, 0
  br i1 %_36, label %bb9, label %panic1

panic:                                            ; preds = %start
; call core::panicking::panic_bounds_check
  call void @_ZN4core9panicking18panic_bounds_check17h27d1e4f0cb1112dfE(i64 %_7, i64 3, ptr align 8 @alloc_0542af40fbae942683d4288fdedefb6a) #8
  unreachable

bb9:                                              ; preds = %bb2
  %_38 = ptrtoint ptr %_0.i10 to i64
  %_41 = icmp eq i64 %_38, 0
  %_42 = and i1 %_41, true
  %_43 = xor i1 %_42, true
  br i1 %_43, label %bb10, label %panic2

panic1:                                           ; preds = %bb2
; call core::panicking::panic_misaligned_pointer_dereference
  call void @_ZN4core9panicking36panic_misaligned_pointer_dereference17hcc3cbded9382b6e5E(i64 4, i64 %_32, ptr align 8 @alloc_0542af40fbae942683d4288fdedefb6a) #8
  unreachable

bb10:                                             ; preds = %bb9
  %0 = getelementptr inbounds nuw i32, ptr %_0.i10, i64 %_7
  %_4 = load i32, ptr %0, align 4
  %_11 = sext i32 %x to i64
; call core::ptr::mut_ptr::<impl *mut T>::offset::precondition_check
  call void @"_ZN4core3ptr7mut_ptr31_$LT$impl$u20$$BP$mut$u20$T$GT$6offset18precondition_check17h787de8df3ff9a9e7E"(ptr %m, i64 %_11, i64 12) #9
  %_0.i9 = getelementptr inbounds [3 x i32], ptr %m, i64 %_11
  %_12 = sext i32 %y to i64
  %_13 = icmp ult i64 %_12, 3
  br i1 %_13, label %bb4, label %panic3

panic2:                                           ; preds = %bb9
; call core::panicking::panic_null_pointer_dereference
  call void @_ZN4core9panicking30panic_null_pointer_dereference17hf718fcc86a223baaE(ptr align 8 @alloc_0542af40fbae942683d4288fdedefb6a) #8
  unreachable

bb4:                                              ; preds = %bb10
  %_26 = ptrtoint ptr %_0.i9 to i64
  %_29 = and i64 %_26, 3
  %_30 = icmp eq i64 %_29, 0
  br i1 %_30, label %bb8, label %panic4

panic3:                                           ; preds = %bb10
; call core::panicking::panic_bounds_check
  call void @_ZN4core9panicking18panic_bounds_check17h27d1e4f0cb1112dfE(i64 %_12, i64 3, ptr align 8 @alloc_8c61e494a7bb2e44e38e55aee768bf8f) #8
  unreachable

bb8:                                              ; preds = %bb4
  %_45 = ptrtoint ptr %_0.i9 to i64
  %_48 = icmp eq i64 %_45, 0
  %_49 = and i1 %_48, true
  %_50 = xor i1 %_49, true
  br i1 %_50, label %bb11, label %panic5

panic4:                                           ; preds = %bb4
; call core::panicking::panic_misaligned_pointer_dereference
  call void @_ZN4core9panicking36panic_misaligned_pointer_dereference17hcc3cbded9382b6e5E(i64 4, i64 %_26, ptr align 8 @alloc_8c61e494a7bb2e44e38e55aee768bf8f) #8
  unreachable

bb11:                                             ; preds = %bb8
  %1 = getelementptr inbounds nuw i32, ptr %_0.i9, i64 %_12
  store i32 %_4, ptr %1, align 4
  %_15 = sext i32 %x to i64
; call core::ptr::mut_ptr::<impl *mut T>::offset::precondition_check
  call void @"_ZN4core3ptr7mut_ptr31_$LT$impl$u20$$BP$mut$u20$T$GT$6offset18precondition_check17h787de8df3ff9a9e7E"(ptr %m, i64 %_15, i64 12) #9
  %_0.i = getelementptr inbounds [3 x i32], ptr %m, i64 %_15
  %_17 = add i32 %y, 1
  %_16 = sext i32 %_17 to i64
  %_18 = icmp ult i64 %_16, 3
  br i1 %_18, label %bb6, label %panic6

panic5:                                           ; preds = %bb8
; call core::panicking::panic_null_pointer_dereference
  call void @_ZN4core9panicking30panic_null_pointer_dereference17hf718fcc86a223baaE(ptr align 8 @alloc_8c61e494a7bb2e44e38e55aee768bf8f) #8
  unreachable

bb6:                                              ; preds = %bb11
  %_20 = ptrtoint ptr %_0.i to i64
  %_23 = and i64 %_20, 3
  %_24 = icmp eq i64 %_23, 0
  br i1 %_24, label %bb7, label %panic7

panic6:                                           ; preds = %bb11
; call core::panicking::panic_bounds_check
  call void @_ZN4core9panicking18panic_bounds_check17h27d1e4f0cb1112dfE(i64 %_16, i64 3, ptr align 8 @alloc_fef22c008e94e74eb08b32376ab6ec59) #8
  unreachable

bb7:                                              ; preds = %bb6
  %_52 = ptrtoint ptr %_0.i to i64
  %_55 = icmp eq i64 %_52, 0
  %_56 = and i1 %_55, true
  %_57 = xor i1 %_56, true
  br i1 %_57, label %bb12, label %panic8

panic7:                                           ; preds = %bb6
; call core::panicking::panic_misaligned_pointer_dereference
  call void @_ZN4core9panicking36panic_misaligned_pointer_dereference17hcc3cbded9382b6e5E(i64 4, i64 %_20, ptr align 8 @alloc_fef22c008e94e74eb08b32376ab6ec59) #8
  unreachable

bb12:                                             ; preds = %bb7
  %2 = getelementptr inbounds nuw i32, ptr %_0.i, i64 %_16
  store i32 -1, ptr %2, align 4
  ret void

panic8:                                           ; preds = %bb7
; call core::panicking::panic_null_pointer_dereference
  call void @_ZN4core9panicking30panic_null_pointer_dereference17hf718fcc86a223baaE(ptr align 8 @alloc_fef22c008e94e74eb08b32376ab6ec59) #8
  unreachable
}

; Function Attrs: nounwind nonlazybind
define void @displayoutcome(ptr %0) unnamed_addr #2 {
start:
  %node = alloca [8 x i8], align 8
  store ptr %0, ptr %node, align 8
  br label %bb1

bb1:                                              ; preds = %bb11, %start
  %_3 = load ptr, ptr %node, align 8
; call core::ptr::mut_ptr::<impl *mut T>::is_null
  %_2 = call zeroext i1 @"_ZN4core3ptr7mut_ptr31_$LT$impl$u20$$BP$mut$u20$T$GT$7is_null17h522e9291b53aaf49E"(ptr %_3) #9
  br i1 %_2, label %bb3, label %bb4

bb4:                                              ; preds = %bb1
  %_37 = load ptr, ptr %node, align 8
  %_38 = ptrtoint ptr %_37 to i64
  %_39 = icmp eq i64 %_38, 0
  %_40 = and i1 %_39, true
  %_41 = xor i1 %_40, true
  br i1 %_41, label %bb12, label %panic

bb3:                                              ; preds = %bb1
  ret void

bb12:                                             ; preds = %bb4
  %_7 = load ptr, ptr %node, align 8
  call void @cube_display(ptr %_7) #9
  %_8 = call i32 (ptr, ...) @printf(ptr @alloc_0255bdacfc758ed5f7f5c39e96c93d62) #9
  %_13 = call i32 (ptr, ...) @printf(ptr @alloc_0255bdacfc758ed5f7f5c39e96c93d62) #9
  %_18 = call i32 (ptr, ...) @printf(ptr @alloc_0255bdacfc758ed5f7f5c39e96c93d62) #9
  %_24 = load ptr, ptr %node, align 8
  %_25 = ptrtoint ptr %_24 to i64
  %_28 = and i64 %_25, 7
  %_29 = icmp eq i64 %_28, 0
  br i1 %_29, label %bb10, label %panic1

panic:                                            ; preds = %bb4
; call core::panicking::panic_null_pointer_dereference
  call void @_ZN4core9panicking30panic_null_pointer_dereference17hf718fcc86a223baaE(ptr align 8 @alloc_1fac5f588d6902e644a64c116697db10) #8
  unreachable

bb10:                                             ; preds = %bb12
  %_30 = load ptr, ptr %node, align 8
  %_31 = ptrtoint ptr %_30 to i64
  %_34 = icmp eq i64 %_31, 0
  %_35 = and i1 %_34, true
  %_36 = xor i1 %_35, true
  br i1 %_36, label %bb11, label %panic2

panic1:                                           ; preds = %bb12
; call core::panicking::panic_misaligned_pointer_dereference
  call void @_ZN4core9panicking36panic_misaligned_pointer_dereference17hcc3cbded9382b6e5E(i64 8, i64 %_25, ptr align 8 @alloc_2ff733cc2a2a43d2d0fea2462fabe0b5) #8
  unreachable

bb11:                                             ; preds = %bb10
  %1 = load ptr, ptr %node, align 8
  %2 = getelementptr inbounds i8, ptr %1, i64 48
  %_23 = load ptr, ptr %2, align 8
  store ptr %_23, ptr %node, align 8
  br label %bb1

panic2:                                           ; preds = %bb10
; call core::panicking::panic_null_pointer_dereference
  call void @_ZN4core9panicking30panic_null_pointer_dereference17hf718fcc86a223baaE(ptr align 8 @alloc_2ff733cc2a2a43d2d0fea2462fabe0b5) #8
  unreachable
}

; Function Attrs: nounwind nonlazybind
define i32 @inme(ptr %0, ptr %m) unnamed_addr #2 {
start:
  %ok = alloca [4 x i8], align 4
  %node = alloca [8 x i8], align 8
  store ptr %0, ptr %node, align 8
  store i32 0, ptr %ok, align 4
  br label %bb1

bb1:                                              ; preds = %bb11, %start
  %_5 = load ptr, ptr %node, align 8
; call core::ptr::mut_ptr::<impl *mut T>::is_null
  %_4 = call zeroext i1 @"_ZN4core3ptr7mut_ptr31_$LT$impl$u20$$BP$mut$u20$T$GT$7is_null17h522e9291b53aaf49E"(ptr %_5) #9
  br i1 %_4, label %bb9, label %bb3

bb3:                                              ; preds = %bb1
  %_6 = load i32, ptr %ok, align 4
  %1 = icmp eq i32 %_6, 0
  br i1 %1, label %bb4, label %bb9

bb9:                                              ; preds = %bb3, %bb1
  %_0 = load i32, ptr %ok, align 4
  ret i32 %_0

bb4:                                              ; preds = %bb3
  %_25 = load ptr, ptr %node, align 8
  %_26 = ptrtoint ptr %_25 to i64
  %_27 = icmp eq i64 %_26, 0
  %_28 = and i1 %_27, true
  %_29 = xor i1 %_28, true
  br i1 %_29, label %bb12, label %panic

bb12:                                             ; preds = %bb4
  %_10 = load ptr, ptr %node, align 8
  %_7 = call i32 @cube_equal(ptr %_10, ptr %m) #9
  %2 = icmp eq i32 %_7, 0
  br i1 %2, label %bb8, label %bb7

panic:                                            ; preds = %bb4
; call core::panicking::panic_null_pointer_dereference
  call void @_ZN4core9panicking30panic_null_pointer_dereference17hf718fcc86a223baaE(ptr align 8 @alloc_a7b673b8cbd59b73d299e2502f00aba0) #8
  unreachable

bb8:                                              ; preds = %bb7, %bb12
  %_12 = load ptr, ptr %node, align 8
  %_13 = ptrtoint ptr %_12 to i64
  %_16 = and i64 %_13, 7
  %_17 = icmp eq i64 %_16, 0
  br i1 %_17, label %bb10, label %panic1

bb7:                                              ; preds = %bb12
  store i32 1, ptr %ok, align 4
  br label %bb8

bb10:                                             ; preds = %bb8
  %_18 = load ptr, ptr %node, align 8
  %_19 = ptrtoint ptr %_18 to i64
  %_22 = icmp eq i64 %_19, 0
  %_23 = and i1 %_22, true
  %_24 = xor i1 %_23, true
  br i1 %_24, label %bb11, label %panic2

panic1:                                           ; preds = %bb8
; call core::panicking::panic_misaligned_pointer_dereference
  call void @_ZN4core9panicking36panic_misaligned_pointer_dereference17hcc3cbded9382b6e5E(i64 8, i64 %_13, ptr align 8 @alloc_47a15cbfbb61285bf9c8a3ba25c73ae5) #8
  unreachable

bb11:                                             ; preds = %bb10
  %3 = load ptr, ptr %node, align 8
  %4 = getelementptr inbounds i8, ptr %3, i64 48
  %_11 = load ptr, ptr %4, align 8
  store ptr %_11, ptr %node, align 8
  br label %bb1

panic2:                                           ; preds = %bb10
; call core::panicking::panic_null_pointer_dereference
  call void @_ZN4core9panicking30panic_null_pointer_dereference17hf718fcc86a223baaE(ptr align 8 @alloc_47a15cbfbb61285bf9c8a3ba25c73ae5) #8
  unreachable
}

; Function Attrs: nounwind nonlazybind
define i32 @queue_empty() unnamed_addr #2 {
start:
  %_22 = icmp eq i64 ptrtoint (ptr @head to i64), 0
  %_23 = and i1 %_22, true
  %_24 = xor i1 %_23, true
  br i1 %_24, label %bb3, label %panic

bb3:                                              ; preds = %start
  %_2 = load i32, ptr @head, align 4
  %_29 = icmp eq i64 ptrtoint (ptr @rear to i64), 0
  %_30 = and i1 %_29, true
  %_31 = xor i1 %_30, true
  br i1 %_31, label %bb4, label %panic1

panic:                                            ; preds = %start
; call core::panicking::panic_null_pointer_dereference
  call void @_ZN4core9panicking30panic_null_pointer_dereference17hf718fcc86a223baaE(ptr align 8 @alloc_a70ec100bcefd4b16395ee0a0d86a900) #8
  unreachable

bb4:                                              ; preds = %bb3
  %_4 = load i32, ptr @rear, align 4
  %_1 = icmp eq i32 %_2, %_4
  %_0 = zext i1 %_1 to i32
  ret i32 %_0

panic1:                                           ; preds = %bb3
; call core::panicking::panic_null_pointer_dereference
  call void @_ZN4core9panicking30panic_null_pointer_dereference17hf718fcc86a223baaE(ptr align 8 @alloc_884257812a5c225c4fce7d83b0eb92a5) #8
  unreachable
}

; Function Attrs: nounwind nonlazybind
define i32 @full() unnamed_addr #2 {
start:
  %_29 = icmp eq i64 ptrtoint (ptr @head to i64), 0
  %_30 = and i1 %_29, true
  %_31 = xor i1 %_30, true
  br i1 %_31, label %bb5, label %panic

bb5:                                              ; preds = %start
  %_2 = load i32, ptr @head, align 4
  %_36 = icmp eq i64 ptrtoint (ptr @rear to i64), 0
  %_37 = and i1 %_36, true
  %_38 = xor i1 %_37, true
  br i1 %_38, label %bb6, label %panic1

panic:                                            ; preds = %start
; call core::panicking::panic_null_pointer_dereference
  call void @_ZN4core9panicking30panic_null_pointer_dereference17hf718fcc86a223baaE(ptr align 8 @alloc_be6279a693becf20b72df92490ff40e8) #8
  unreachable

bb6:                                              ; preds = %bb5
  %_6 = load i32, ptr @rear, align 4
  %_5 = add i32 %_6, 1
  %_11 = icmp eq i32 %_5, -2147483648
  %_12 = and i1 false, %_11
  br i1 %_12, label %panic2, label %bb2

panic1:                                           ; preds = %bb5
; call core::panicking::panic_null_pointer_dereference
  call void @_ZN4core9panicking30panic_null_pointer_dereference17hf718fcc86a223baaE(ptr align 8 @alloc_90d91b415a9572f5c7007241958882ec) #8
  unreachable

bb2:                                              ; preds = %bb6
  %_4 = srem i32 %_5, 10000
  %_1 = icmp eq i32 %_2, %_4
  %_0 = zext i1 %_1 to i32
  ret i32 %_0

panic2:                                           ; preds = %bb6
; call core::panicking::panic_const::panic_const_rem_overflow
  call void @_ZN4core9panicking11panic_const24panic_const_rem_overflow17h799fde26ff2294a6E(ptr align 8 @alloc_510340e89943ef184403cf23880a27a7) #8
  unreachable
}

; Function Attrs: nounwind nonlazybind
define void @enqueue(ptr %item) unnamed_addr #2 {
start:
  %_44 = icmp eq i64 ptrtoint (ptr @rear to i64), 0
  %_45 = and i1 %_44, true
  %_46 = xor i1 %_45, true
  br i1 %_46, label %bb8, label %panic

bb8:                                              ; preds = %start
  %_4 = load i32, ptr @rear, align 4
  %_3 = sext i32 %_4 to i64
  %_6 = icmp ult i64 %_3, 10000
  br i1 %_6, label %bb1, label %panic1

panic:                                            ; preds = %start
; call core::panicking::panic_null_pointer_dereference
  call void @_ZN4core9panicking30panic_null_pointer_dereference17hf718fcc86a223baaE(ptr align 8 @alloc_36483ba658c34da25cddbafe83f6459f) #8
  unreachable

bb1:                                              ; preds = %bb8
  %_51 = icmp eq i64 ptrtoint (ptr @queue to i64), 0
  %_52 = and i1 %_51, true
  %_53 = xor i1 %_52, true
  br i1 %_53, label %bb9, label %panic2

panic1:                                           ; preds = %bb8
; call core::panicking::panic_bounds_check
  call void @_ZN4core9panicking18panic_bounds_check17h27d1e4f0cb1112dfE(i64 %_3, i64 10000, ptr align 8 @alloc_de85146eccb80b022b93681e7b8619b7) #8
  unreachable

bb9:                                              ; preds = %bb1
  %0 = getelementptr inbounds nuw ptr, ptr @queue, i64 %_3
  store ptr %item, ptr %0, align 8
  %_58 = icmp eq i64 ptrtoint (ptr @rear to i64), 0
  %_59 = and i1 %_58, true
  %_60 = xor i1 %_59, true
  br i1 %_60, label %bb10, label %panic3

panic2:                                           ; preds = %bb1
; call core::panicking::panic_null_pointer_dereference
  call void @_ZN4core9panicking30panic_null_pointer_dereference17hf718fcc86a223baaE(ptr align 8 @alloc_de85146eccb80b022b93681e7b8619b7) #8
  unreachable

bb10:                                             ; preds = %bb9
  %_8 = load i32, ptr @rear, align 4
  %_7 = add i32 %_8, 1
  %_13 = icmp eq i32 %_7, -2147483648
  %_14 = and i1 false, %_13
  br i1 %_14, label %panic4, label %bb3

panic3:                                           ; preds = %bb9
; call core::panicking::panic_null_pointer_dereference
  call void @_ZN4core9panicking30panic_null_pointer_dereference17hf718fcc86a223baaE(ptr align 8 @alloc_c4e60c585518a1b75d758fa1e1953090) #8
  unreachable

bb3:                                              ; preds = %bb10
  %_65 = icmp eq i64 ptrtoint (ptr @rear to i64), 0
  %_66 = and i1 %_65, true
  %_67 = xor i1 %_66, true
  br i1 %_67, label %bb11, label %panic5

panic4:                                           ; preds = %bb10
; call core::panicking::panic_const::panic_const_rem_overflow
  call void @_ZN4core9panicking11panic_const24panic_const_rem_overflow17h799fde26ff2294a6E(ptr align 8 @alloc_2d52299de4b8f1a386a72708b940d255) #8
  unreachable

bb11:                                             ; preds = %bb3
  %1 = srem i32 %_7, 10000
  store i32 %1, ptr @rear, align 4
  ret void

panic5:                                           ; preds = %bb3
; call core::panicking::panic_null_pointer_dereference
  call void @_ZN4core9panicking30panic_null_pointer_dereference17hf718fcc86a223baaE(ptr align 8 @alloc_be509998ec94cff816014bdf68a99c50) #8
  unreachable
}

; Function Attrs: nounwind nonlazybind
define ptr @dequeue() unnamed_addr #2 {
start:
  %_43 = icmp eq i64 ptrtoint (ptr @head to i64), 0
  %_44 = and i1 %_43, true
  %_45 = xor i1 %_44, true
  br i1 %_45, label %bb8, label %panic

bb8:                                              ; preds = %start
  %_3 = load i32, ptr @head, align 4
  %_2 = sext i32 %_3 to i64
  %_5 = icmp ult i64 %_2, 10000
  br i1 %_5, label %bb1, label %panic1

panic:                                            ; preds = %start
; call core::panicking::panic_null_pointer_dereference
  call void @_ZN4core9panicking30panic_null_pointer_dereference17hf718fcc86a223baaE(ptr align 8 @alloc_8240c01e0c7332af470d8bdc6ff21d77) #8
  unreachable

bb1:                                              ; preds = %bb8
  %_50 = icmp eq i64 ptrtoint (ptr @queue to i64), 0
  %_51 = and i1 %_50, true
  %_52 = xor i1 %_51, true
  br i1 %_52, label %bb9, label %panic2

panic1:                                           ; preds = %bb8
; call core::panicking::panic_bounds_check
  call void @_ZN4core9panicking18panic_bounds_check17h27d1e4f0cb1112dfE(i64 %_2, i64 10000, ptr align 8 @alloc_48895c837cb35f34d2416f0b5612b925) #8
  unreachable

bb9:                                              ; preds = %bb1
  %0 = getelementptr inbounds nuw ptr, ptr @queue, i64 %_2
  %retval = load ptr, ptr %0, align 8
  %_57 = icmp eq i64 ptrtoint (ptr @head to i64), 0
  %_58 = and i1 %_57, true
  %_59 = xor i1 %_58, true
  br i1 %_59, label %bb10, label %panic3

panic2:                                           ; preds = %bb1
; call core::panicking::panic_null_pointer_dereference
  call void @_ZN4core9panicking30panic_null_pointer_dereference17hf718fcc86a223baaE(ptr align 8 @alloc_48895c837cb35f34d2416f0b5612b925) #8
  unreachable

bb10:                                             ; preds = %bb9
  %_7 = load i32, ptr @head, align 4
  %_6 = add i32 %_7, 1
  %_12 = icmp eq i32 %_6, -2147483648
  %_13 = and i1 false, %_12
  br i1 %_13, label %panic4, label %bb3

panic3:                                           ; preds = %bb9
; call core::panicking::panic_null_pointer_dereference
  call void @_ZN4core9panicking30panic_null_pointer_dereference17hf718fcc86a223baaE(ptr align 8 @alloc_c8cf0cb543b848005516a9c00dc52665) #8
  unreachable

bb3:                                              ; preds = %bb10
  %_64 = icmp eq i64 ptrtoint (ptr @head to i64), 0
  %_65 = and i1 %_64, true
  %_66 = xor i1 %_65, true
  br i1 %_66, label %bb11, label %panic5

panic4:                                           ; preds = %bb10
; call core::panicking::panic_const::panic_const_rem_overflow
  call void @_ZN4core9panicking11panic_const24panic_const_rem_overflow17h799fde26ff2294a6E(ptr align 8 @alloc_51df26870d1bd0a228d9d2b4290cd406) #8
  unreachable

bb11:                                             ; preds = %bb3
  %1 = srem i32 %_6, 10000
  store i32 %1, ptr @head, align 4
  ret ptr %retval

panic5:                                           ; preds = %bb3
; call core::panicking::panic_null_pointer_dereference
  call void @_ZN4core9panicking30panic_null_pointer_dereference17hf718fcc86a223baaE(ptr align 8 @alloc_c01881f85b6a4a4ab2412266dc4b5054) #8
  unreachable
}

; Function Attrs: nounwind nonlazybind
define ptr @queue_top() unnamed_addr #2 {
start:
  %_22 = icmp eq i64 ptrtoint (ptr @head to i64), 0
  %_23 = and i1 %_22, true
  %_24 = xor i1 %_23, true
  br i1 %_24, label %bb4, label %panic

bb4:                                              ; preds = %start
  %_3 = load i32, ptr @head, align 4
  %_2 = sext i32 %_3 to i64
  %_5 = icmp ult i64 %_2, 10000
  br i1 %_5, label %bb1, label %panic1

panic:                                            ; preds = %start
; call core::panicking::panic_null_pointer_dereference
  call void @_ZN4core9panicking30panic_null_pointer_dereference17hf718fcc86a223baaE(ptr align 8 @alloc_cc8240fe084066f46b3a9a7251c0389f) #8
  unreachable

bb1:                                              ; preds = %bb4
  %_29 = icmp eq i64 ptrtoint (ptr @queue to i64), 0
  %_30 = and i1 %_29, true
  %_31 = xor i1 %_30, true
  br i1 %_31, label %bb5, label %panic2

panic1:                                           ; preds = %bb4
; call core::panicking::panic_bounds_check
  call void @_ZN4core9panicking18panic_bounds_check17h27d1e4f0cb1112dfE(i64 %_2, i64 10000, ptr align 8 @alloc_5089d260a801c47906212d1209e11a21) #8
  unreachable

bb5:                                              ; preds = %bb1
  %0 = getelementptr inbounds nuw ptr, ptr @queue, i64 %_2
  %_0 = load ptr, ptr %0, align 8
  ret ptr %_0

panic2:                                           ; preds = %bb1
; call core::panicking::panic_null_pointer_dereference
  call void @_ZN4core9panicking30panic_null_pointer_dereference17hf718fcc86a223baaE(ptr align 8 @alloc_5089d260a801c47906212d1209e11a21) #8
  unreachable
}

; Function Attrs: nounwind nonlazybind
define void @bfs_search(ptr %cube, i32 %x, i32 %y, ptr %target) unnamed_addr #2 {
start:
  %counter = alloca [4 x i8], align 4
  %_17 = alloca [12 x i8], align 4
  %tmpcube = alloca [36 x i8], align 4
  %node = alloca [8 x i8], align 8
  %currentnode = alloca [8 x i8], align 8
  %_6 = call ptr @malloc(i64 56) #9
  store ptr %_6, ptr %currentnode, align 8
  %_385 = load ptr, ptr %currentnode, align 8
  %_386 = ptrtoint ptr %_385 to i64
  %_389 = and i64 %_386, 7
  %_390 = icmp eq i64 %_389, 0
  br i1 %_390, label %bb112, label %panic

bb112:                                            ; preds = %start
  %_391 = load ptr, ptr %currentnode, align 8
  %_392 = ptrtoint ptr %_391 to i64
  %_395 = icmp eq i64 %_392, 0
  %_396 = and i1 %_395, true
  %_397 = xor i1 %_396, true
  br i1 %_397, label %bb113, label %panic1

panic:                                            ; preds = %start
; call core::panicking::panic_misaligned_pointer_dereference
  call void @_ZN4core9panicking36panic_misaligned_pointer_dereference17hcc3cbded9382b6e5E(i64 8, i64 %_386, ptr align 8 @alloc_f443cc2d3441c3a6ddb57f0ffd942122) #8
  unreachable

bb113:                                            ; preds = %bb112
  %0 = load ptr, ptr %currentnode, align 8
  %1 = getelementptr inbounds i8, ptr %0, i64 36
  store i32 %x, ptr %1, align 4
  %_379 = load ptr, ptr %currentnode, align 8
  %_380 = ptrtoint ptr %_379 to i64
  %_383 = and i64 %_380, 7
  %_384 = icmp eq i64 %_383, 0
  br i1 %_384, label %bb111, label %panic2

panic1:                                           ; preds = %bb112
; call core::panicking::panic_null_pointer_dereference
  call void @_ZN4core9panicking30panic_null_pointer_dereference17hf718fcc86a223baaE(ptr align 8 @alloc_f443cc2d3441c3a6ddb57f0ffd942122) #8
  unreachable

bb111:                                            ; preds = %bb113
  %_398 = load ptr, ptr %currentnode, align 8
  %_399 = ptrtoint ptr %_398 to i64
  %_402 = icmp eq i64 %_399, 0
  %_403 = and i1 %_402, true
  %_404 = xor i1 %_403, true
  br i1 %_404, label %bb114, label %panic3

panic2:                                           ; preds = %bb113
; call core::panicking::panic_misaligned_pointer_dereference
  call void @_ZN4core9panicking36panic_misaligned_pointer_dereference17hcc3cbded9382b6e5E(i64 8, i64 %_380, ptr align 8 @alloc_5b2846cc75e6414a75a3500bd6480eaf) #8
  unreachable

bb114:                                            ; preds = %bb111
  %2 = load ptr, ptr %currentnode, align 8
  %3 = getelementptr inbounds i8, ptr %2, i64 40
  store i32 %y, ptr %3, align 8
  %_373 = load ptr, ptr %currentnode, align 8
  %_374 = ptrtoint ptr %_373 to i64
  %_377 = and i64 %_374, 7
  %_378 = icmp eq i64 %_377, 0
  br i1 %_378, label %bb110, label %panic4

panic3:                                           ; preds = %bb111
; call core::panicking::panic_null_pointer_dereference
  call void @_ZN4core9panicking30panic_null_pointer_dereference17hf718fcc86a223baaE(ptr align 8 @alloc_5b2846cc75e6414a75a3500bd6480eaf) #8
  unreachable

bb110:                                            ; preds = %bb114
  %_410 = load ptr, ptr %currentnode, align 8
  %_411 = ptrtoint ptr %_410 to i64
  %_414 = icmp eq i64 %_411, 0
  %_415 = and i1 %_414, true
  %_416 = xor i1 %_415, true
  br i1 %_416, label %bb116, label %panic5

panic4:                                           ; preds = %bb114
; call core::panicking::panic_misaligned_pointer_dereference
  call void @_ZN4core9panicking36panic_misaligned_pointer_dereference17hcc3cbded9382b6e5E(i64 8, i64 %_374, ptr align 8 @alloc_e5fcfc3dd949b816ae0cf16057200ea2) #8
  unreachable

bb116:                                            ; preds = %bb110
  %4 = load ptr, ptr %currentnode, align 8
  %5 = getelementptr inbounds i8, ptr %4, i64 48
  store ptr null, ptr %5, align 8
  %_405 = load ptr, ptr %currentnode, align 8
  %_406 = ptrtoint ptr %_405 to i64
  %_407 = icmp eq i64 %_406, 0
  %_408 = and i1 %_407, true
  %_409 = xor i1 %_408, true
  br i1 %_409, label %bb115, label %panic6

panic5:                                           ; preds = %bb110
; call core::panicking::panic_null_pointer_dereference
  call void @_ZN4core9panicking30panic_null_pointer_dereference17hf718fcc86a223baaE(ptr align 8 @alloc_e5fcfc3dd949b816ae0cf16057200ea2) #8
  unreachable

bb115:                                            ; preds = %bb116
  %_12 = load ptr, ptr %currentnode, align 8
  call void @cube_copy(ptr %cube, ptr %_12) #9
  %_14 = load ptr, ptr %currentnode, align 8
  call void @enqueue(ptr %_14) #9
  store ptr null, ptr %node, align 8
  call void @llvm.memset.p0.i64(ptr align 4 %_17, i8 0, i64 12, i1 false)
  br label %repeat_loop_header

panic6:                                           ; preds = %bb116
; call core::panicking::panic_null_pointer_dereference
  call void @_ZN4core9panicking30panic_null_pointer_dereference17hf718fcc86a223baaE(ptr align 8 @alloc_80da3433daf8d783d77a0173b9c20fd2) #8
  unreachable

repeat_loop_header:                               ; preds = %repeat_loop_body, %bb115
  %6 = phi i64 [ 0, %bb115 ], [ %9, %repeat_loop_body ]
  %7 = icmp ult i64 %6, 3
  br i1 %7, label %repeat_loop_body, label %repeat_loop_next

repeat_loop_body:                                 ; preds = %repeat_loop_header
  %8 = getelementptr inbounds nuw [3 x i32], ptr %tmpcube, i64 %6
  call void @llvm.memcpy.p0.p0.i64(ptr align 4 %8, ptr align 4 %_17, i64 12, i1 false)
  %9 = add nuw i64 %6, 1
  br label %repeat_loop_header

repeat_loop_next:                                 ; preds = %repeat_loop_header
  store i32 0, ptr %counter, align 4
  br label %bb6

bb6:                                              ; preds = %bb148, %bb143, %bb141, %repeat_loop_next
  %_19 = call i32 @queue_empty() #9
  %10 = icmp eq i32 %_19, 0
  br i1 %10, label %bb8, label %bb76

bb8:                                              ; preds = %bb6
  %_20 = call ptr @queue_top() #9
  store ptr %_20, ptr %currentnode, align 8
  %_681 = load ptr, ptr %currentnode, align 8
  %_682 = ptrtoint ptr %_681 to i64
  %_683 = icmp eq i64 %_682, 0
  %_684 = and i1 %_683, true
  %_685 = xor i1 %_684, true
  br i1 %_685, label %bb157, label %panic7

bb76:                                             ; preds = %bb6
  %_180 = load i32, ptr %counter, align 4
  %_175 = call i32 (ptr, ...) @printf(ptr @alloc_a7b3558027832338f1f25d8c4acbcd6a, i32 %_180) #9
  ret void

bb157:                                            ; preds = %bb8
  %_24 = load ptr, ptr %currentnode, align 8
  %_21 = call i32 @cube_equal(ptr %_24, ptr %target) #9
  %11 = icmp eq i32 %_21, 0
  br i1 %11, label %bb15, label %bb12

panic7:                                           ; preds = %bb8
; call core::panicking::panic_null_pointer_dereference
  call void @_ZN4core9panicking30panic_null_pointer_dereference17hf718fcc86a223baaE(ptr align 8 @alloc_792d2d2ccdb6a45736fa87edd1e9f799) #8
  unreachable

bb15:                                             ; preds = %bb12, %bb157
  %_32 = call ptr @dequeue() #9
  %_676 = load ptr, ptr %currentnode, align 8
  %_677 = ptrtoint ptr %_676 to i64
  %_678 = icmp eq i64 %_677, 0
  %_679 = and i1 %_678, true
  %_680 = xor i1 %_679, true
  br i1 %_680, label %bb156, label %panic8

bb12:                                             ; preds = %bb157
  %_25 = call i32 (ptr, ...) @printf(ptr @alloc_e80d9cfd1219fa6556fb10cb46e5f4a8) #9
  %_31 = load ptr, ptr %currentnode, align 8
  call void @displayoutcome(ptr %_31) #9
  %12 = load i32, ptr %counter, align 4
  %13 = add i32 %12, 1
  store i32 %13, ptr %counter, align 4
  br label %bb15

bb156:                                            ; preds = %bb15
  %_36 = load ptr, ptr %currentnode, align 8
  call void @cube_copy(ptr %_36, ptr %tmpcube) #9
  %_367 = load ptr, ptr %currentnode, align 8
  %_368 = ptrtoint ptr %_367 to i64
  %_371 = and i64 %_368, 7
  %_372 = icmp eq i64 %_371, 0
  br i1 %_372, label %bb109, label %panic9

panic8:                                           ; preds = %bb15
; call core::panicking::panic_null_pointer_dereference
  call void @_ZN4core9panicking30panic_null_pointer_dereference17hf718fcc86a223baaE(ptr align 8 @alloc_f46bbb0ea8c54321ad67c5fd891b35fa) #8
  unreachable

bb109:                                            ; preds = %bb156
  %_417 = load ptr, ptr %currentnode, align 8
  %_418 = ptrtoint ptr %_417 to i64
  %_421 = icmp eq i64 %_418, 0
  %_422 = and i1 %_421, true
  %_423 = xor i1 %_422, true
  br i1 %_423, label %bb117, label %panic10

panic9:                                           ; preds = %bb156
; call core::panicking::panic_misaligned_pointer_dereference
  call void @_ZN4core9panicking36panic_misaligned_pointer_dereference17hcc3cbded9382b6e5E(i64 8, i64 %_368, ptr align 8 @alloc_c94c7699aa55fa365b160063f87b89f0) #8
  unreachable

bb117:                                            ; preds = %bb109
  %14 = load ptr, ptr %currentnode, align 8
  %15 = getelementptr inbounds i8, ptr %14, i64 36
  %_41 = load i32, ptr %15, align 4
  %_40 = icmp sgt i32 %_41, 0
  br i1 %_40, label %bb20, label %bb31

panic10:                                          ; preds = %bb109
; call core::panicking::panic_null_pointer_dereference
  call void @_ZN4core9panicking30panic_null_pointer_dereference17hf718fcc86a223baaE(ptr align 8 @alloc_c94c7699aa55fa365b160063f87b89f0) #8
  unreachable

bb31:                                             ; preds = %bb124, %bb119, %bb117
  %_666 = load ptr, ptr %currentnode, align 8
  %_667 = ptrtoint ptr %_666 to i64
  %_668 = icmp eq i64 %_667, 0
  %_669 = and i1 %_668, true
  %_670 = xor i1 %_669, true
  br i1 %_670, label %bb154, label %panic26

bb20:                                             ; preds = %bb117
  %_361 = load ptr, ptr %currentnode, align 8
  %_362 = ptrtoint ptr %_361 to i64
  %_365 = and i64 %_362, 7
  %_366 = icmp eq i64 %_365, 0
  br i1 %_366, label %bb108, label %panic11

bb108:                                            ; preds = %bb20
  %_424 = load ptr, ptr %currentnode, align 8
  %_425 = ptrtoint ptr %_424 to i64
  %_428 = icmp eq i64 %_425, 0
  %_429 = and i1 %_428, true
  %_430 = xor i1 %_429, true
  br i1 %_430, label %bb118, label %panic12

panic11:                                          ; preds = %bb20
; call core::panicking::panic_misaligned_pointer_dereference
  call void @_ZN4core9panicking36panic_misaligned_pointer_dereference17hcc3cbded9382b6e5E(i64 8, i64 %_362, ptr align 8 @alloc_4db0a08b6081b5fdeb8e499d6927a23f) #8
  unreachable

bb118:                                            ; preds = %bb108
  %16 = load ptr, ptr %currentnode, align 8
  %17 = getelementptr inbounds i8, ptr %16, i64 36
  %_46 = load i32, ptr %17, align 4
  %_355 = load ptr, ptr %currentnode, align 8
  %_356 = ptrtoint ptr %_355 to i64
  %_359 = and i64 %_356, 7
  %_360 = icmp eq i64 %_359, 0
  br i1 %_360, label %bb107, label %panic13

panic12:                                          ; preds = %bb108
; call core::panicking::panic_null_pointer_dereference
  call void @_ZN4core9panicking30panic_null_pointer_dereference17hf718fcc86a223baaE(ptr align 8 @alloc_4db0a08b6081b5fdeb8e499d6927a23f) #8
  unreachable

bb107:                                            ; preds = %bb118
  %_431 = load ptr, ptr %currentnode, align 8
  %_432 = ptrtoint ptr %_431 to i64
  %_435 = icmp eq i64 %_432, 0
  %_436 = and i1 %_435, true
  %_437 = xor i1 %_436, true
  br i1 %_437, label %bb119, label %panic14

panic13:                                          ; preds = %bb118
; call core::panicking::panic_misaligned_pointer_dereference
  call void @_ZN4core9panicking36panic_misaligned_pointer_dereference17hcc3cbded9382b6e5E(i64 8, i64 %_356, ptr align 8 @alloc_8ee04565a91b2f22786a96e360c45f8c) #8
  unreachable

bb119:                                            ; preds = %bb107
  %18 = load ptr, ptr %currentnode, align 8
  %19 = getelementptr inbounds i8, ptr %18, i64 40
  %_47 = load i32, ptr %19, align 8
  call void @move_up(ptr %tmpcube, i32 %_46, i32 %_47) #9
  %_49 = load ptr, ptr %currentnode, align 8
  %_48 = call i32 @inme(ptr %_49, ptr %tmpcube) #9
  %20 = icmp eq i32 %_48, 0
  br i1 %20, label %bb25, label %bb31

panic14:                                          ; preds = %bb107
; call core::panicking::panic_null_pointer_dereference
  call void @_ZN4core9panicking30panic_null_pointer_dereference17hf718fcc86a223baaE(ptr align 8 @alloc_8ee04565a91b2f22786a96e360c45f8c) #8
  unreachable

bb25:                                             ; preds = %bb119
  %_53 = call ptr @malloc(i64 56) #9
  store ptr %_53, ptr %node, align 8
  %_671 = load ptr, ptr %node, align 8
  %_672 = ptrtoint ptr %_671 to i64
  %_673 = icmp eq i64 %_672, 0
  %_674 = and i1 %_673, true
  %_675 = xor i1 %_674, true
  br i1 %_675, label %bb155, label %panic15

bb155:                                            ; preds = %bb25
  %_62 = load ptr, ptr %node, align 8
  call void @cube_copy(ptr %tmpcube, ptr %_62) #9
  %_349 = load ptr, ptr %currentnode, align 8
  %_350 = ptrtoint ptr %_349 to i64
  %_353 = and i64 %_350, 7
  %_354 = icmp eq i64 %_353, 0
  br i1 %_354, label %bb106, label %panic16

panic15:                                          ; preds = %bb25
; call core::panicking::panic_null_pointer_dereference
  call void @_ZN4core9panicking30panic_null_pointer_dereference17hf718fcc86a223baaE(ptr align 8 @alloc_e0815fb668689eaaa0591352cc01e084) #8
  unreachable

bb106:                                            ; preds = %bb155
  %_438 = load ptr, ptr %currentnode, align 8
  %_439 = ptrtoint ptr %_438 to i64
  %_442 = icmp eq i64 %_439, 0
  %_443 = and i1 %_442, true
  %_444 = xor i1 %_443, true
  br i1 %_444, label %bb120, label %panic17

panic16:                                          ; preds = %bb155
; call core::panicking::panic_misaligned_pointer_dereference
  call void @_ZN4core9panicking36panic_misaligned_pointer_dereference17hcc3cbded9382b6e5E(i64 8, i64 %_350, ptr align 8 @alloc_702aec88ca3c641f0269bae46468939c) #8
  unreachable

bb120:                                            ; preds = %bb106
  %21 = load ptr, ptr %currentnode, align 8
  %22 = getelementptr inbounds i8, ptr %21, i64 36
  %_63 = load i32, ptr %22, align 4
  %_343 = load ptr, ptr %node, align 8
  %_344 = ptrtoint ptr %_343 to i64
  %_347 = and i64 %_344, 7
  %_348 = icmp eq i64 %_347, 0
  br i1 %_348, label %bb105, label %panic18

panic17:                                          ; preds = %bb106
; call core::panicking::panic_null_pointer_dereference
  call void @_ZN4core9panicking30panic_null_pointer_dereference17hf718fcc86a223baaE(ptr align 8 @alloc_702aec88ca3c641f0269bae46468939c) #8
  unreachable

bb105:                                            ; preds = %bb120
  %_445 = load ptr, ptr %node, align 8
  %_446 = ptrtoint ptr %_445 to i64
  %_449 = icmp eq i64 %_446, 0
  %_450 = and i1 %_449, true
  %_451 = xor i1 %_450, true
  br i1 %_451, label %bb121, label %panic19

panic18:                                          ; preds = %bb120
; call core::panicking::panic_misaligned_pointer_dereference
  call void @_ZN4core9panicking36panic_misaligned_pointer_dereference17hcc3cbded9382b6e5E(i64 8, i64 %_344, ptr align 8 @alloc_1d2805e3f5f94bbb6f3cd653b7abc66a) #8
  unreachable

bb121:                                            ; preds = %bb105
  %23 = load ptr, ptr %node, align 8
  %24 = getelementptr inbounds i8, ptr %23, i64 36
  %25 = sub i32 %_63, 1
  store i32 %25, ptr %24, align 4
  %_337 = load ptr, ptr %currentnode, align 8
  %_338 = ptrtoint ptr %_337 to i64
  %_341 = and i64 %_338, 7
  %_342 = icmp eq i64 %_341, 0
  br i1 %_342, label %bb104, label %panic20

panic19:                                          ; preds = %bb105
; call core::panicking::panic_null_pointer_dereference
  call void @_ZN4core9panicking30panic_null_pointer_dereference17hf718fcc86a223baaE(ptr align 8 @alloc_1d2805e3f5f94bbb6f3cd653b7abc66a) #8
  unreachable

bb104:                                            ; preds = %bb121
  %_452 = load ptr, ptr %currentnode, align 8
  %_453 = ptrtoint ptr %_452 to i64
  %_456 = icmp eq i64 %_453, 0
  %_457 = and i1 %_456, true
  %_458 = xor i1 %_457, true
  br i1 %_458, label %bb122, label %panic21

panic20:                                          ; preds = %bb121
; call core::panicking::panic_misaligned_pointer_dereference
  call void @_ZN4core9panicking36panic_misaligned_pointer_dereference17hcc3cbded9382b6e5E(i64 8, i64 %_338, ptr align 8 @alloc_911ab9a328dd4a9fac51348747477b02) #8
  unreachable

bb122:                                            ; preds = %bb104
  %26 = load ptr, ptr %currentnode, align 8
  %27 = getelementptr inbounds i8, ptr %26, i64 40
  %_64 = load i32, ptr %27, align 8
  %_331 = load ptr, ptr %node, align 8
  %_332 = ptrtoint ptr %_331 to i64
  %_335 = and i64 %_332, 7
  %_336 = icmp eq i64 %_335, 0
  br i1 %_336, label %bb103, label %panic22

panic21:                                          ; preds = %bb104
; call core::panicking::panic_null_pointer_dereference
  call void @_ZN4core9panicking30panic_null_pointer_dereference17hf718fcc86a223baaE(ptr align 8 @alloc_911ab9a328dd4a9fac51348747477b02) #8
  unreachable

bb103:                                            ; preds = %bb122
  %_459 = load ptr, ptr %node, align 8
  %_460 = ptrtoint ptr %_459 to i64
  %_463 = icmp eq i64 %_460, 0
  %_464 = and i1 %_463, true
  %_465 = xor i1 %_464, true
  br i1 %_465, label %bb123, label %panic23

panic22:                                          ; preds = %bb122
; call core::panicking::panic_misaligned_pointer_dereference
  call void @_ZN4core9panicking36panic_misaligned_pointer_dereference17hcc3cbded9382b6e5E(i64 8, i64 %_332, ptr align 8 @alloc_d99bca0f8b39ac0cf748a598b474b26e) #8
  unreachable

bb123:                                            ; preds = %bb103
  %28 = load ptr, ptr %node, align 8
  %29 = getelementptr inbounds i8, ptr %28, i64 40
  store i32 %_64, ptr %29, align 8
  %_65 = load ptr, ptr %currentnode, align 8
  %_325 = load ptr, ptr %node, align 8
  %_326 = ptrtoint ptr %_325 to i64
  %_329 = and i64 %_326, 7
  %_330 = icmp eq i64 %_329, 0
  br i1 %_330, label %bb102, label %panic24

panic23:                                          ; preds = %bb103
; call core::panicking::panic_null_pointer_dereference
  call void @_ZN4core9panicking30panic_null_pointer_dereference17hf718fcc86a223baaE(ptr align 8 @alloc_d99bca0f8b39ac0cf748a598b474b26e) #8
  unreachable

bb102:                                            ; preds = %bb123
  %_466 = load ptr, ptr %node, align 8
  %_467 = ptrtoint ptr %_466 to i64
  %_470 = icmp eq i64 %_467, 0
  %_471 = and i1 %_470, true
  %_472 = xor i1 %_471, true
  br i1 %_472, label %bb124, label %panic25

panic24:                                          ; preds = %bb123
; call core::panicking::panic_misaligned_pointer_dereference
  call void @_ZN4core9panicking36panic_misaligned_pointer_dereference17hcc3cbded9382b6e5E(i64 8, i64 %_326, ptr align 8 @alloc_1f5eaa04ebab4222c82f2ba40e76688e) #8
  unreachable

bb124:                                            ; preds = %bb102
  %30 = load ptr, ptr %node, align 8
  %31 = getelementptr inbounds i8, ptr %30, i64 48
  store ptr %_65, ptr %31, align 8
  %_67 = load ptr, ptr %node, align 8
  call void @enqueue(ptr %_67) #9
  br label %bb31

panic25:                                          ; preds = %bb102
; call core::panicking::panic_null_pointer_dereference
  call void @_ZN4core9panicking30panic_null_pointer_dereference17hf718fcc86a223baaE(ptr align 8 @alloc_1f5eaa04ebab4222c82f2ba40e76688e) #8
  unreachable

bb154:                                            ; preds = %bb31
  %_71 = load ptr, ptr %currentnode, align 8
  call void @cube_copy(ptr %_71, ptr %tmpcube) #9
  %_319 = load ptr, ptr %currentnode, align 8
  %_320 = ptrtoint ptr %_319 to i64
  %_323 = and i64 %_320, 7
  %_324 = icmp eq i64 %_323, 0
  br i1 %_324, label %bb101, label %panic27

panic26:                                          ; preds = %bb31
; call core::panicking::panic_null_pointer_dereference
  call void @_ZN4core9panicking30panic_null_pointer_dereference17hf718fcc86a223baaE(ptr align 8 @alloc_76a792bd0ee073160ca4274fa40d9261) #8
  unreachable

bb101:                                            ; preds = %bb154
  %_473 = load ptr, ptr %currentnode, align 8
  %_474 = ptrtoint ptr %_473 to i64
  %_477 = icmp eq i64 %_474, 0
  %_478 = and i1 %_477, true
  %_479 = xor i1 %_478, true
  br i1 %_479, label %bb125, label %panic28

panic27:                                          ; preds = %bb154
; call core::panicking::panic_misaligned_pointer_dereference
  call void @_ZN4core9panicking36panic_misaligned_pointer_dereference17hcc3cbded9382b6e5E(i64 8, i64 %_320, ptr align 8 @alloc_d68fc1c9dce4a9f7007b94be508ea47d) #8
  unreachable

bb125:                                            ; preds = %bb101
  %32 = load ptr, ptr %currentnode, align 8
  %33 = getelementptr inbounds i8, ptr %32, i64 36
  %_76 = load i32, ptr %33, align 4
  %_75 = icmp slt i32 %_76, 2
  br i1 %_75, label %bb35, label %bb46

panic28:                                          ; preds = %bb101
; call core::panicking::panic_null_pointer_dereference
  call void @_ZN4core9panicking30panic_null_pointer_dereference17hf718fcc86a223baaE(ptr align 8 @alloc_d68fc1c9dce4a9f7007b94be508ea47d) #8
  unreachable

bb46:                                             ; preds = %bb132, %bb127, %bb125
  %_656 = load ptr, ptr %currentnode, align 8
  %_657 = ptrtoint ptr %_656 to i64
  %_658 = icmp eq i64 %_657, 0
  %_659 = and i1 %_658, true
  %_660 = xor i1 %_659, true
  br i1 %_660, label %bb152, label %panic44

bb35:                                             ; preds = %bb125
  %_313 = load ptr, ptr %currentnode, align 8
  %_314 = ptrtoint ptr %_313 to i64
  %_317 = and i64 %_314, 7
  %_318 = icmp eq i64 %_317, 0
  br i1 %_318, label %bb100, label %panic29

bb100:                                            ; preds = %bb35
  %_480 = load ptr, ptr %currentnode, align 8
  %_481 = ptrtoint ptr %_480 to i64
  %_484 = icmp eq i64 %_481, 0
  %_485 = and i1 %_484, true
  %_486 = xor i1 %_485, true
  br i1 %_486, label %bb126, label %panic30

panic29:                                          ; preds = %bb35
; call core::panicking::panic_misaligned_pointer_dereference
  call void @_ZN4core9panicking36panic_misaligned_pointer_dereference17hcc3cbded9382b6e5E(i64 8, i64 %_314, ptr align 8 @alloc_0725c2397a98401dbfe1fc691afaa2fe) #8
  unreachable

bb126:                                            ; preds = %bb100
  %34 = load ptr, ptr %currentnode, align 8
  %35 = getelementptr inbounds i8, ptr %34, i64 36
  %_82 = load i32, ptr %35, align 4
  %_307 = load ptr, ptr %currentnode, align 8
  %_308 = ptrtoint ptr %_307 to i64
  %_311 = and i64 %_308, 7
  %_312 = icmp eq i64 %_311, 0
  br i1 %_312, label %bb99, label %panic31

panic30:                                          ; preds = %bb100
; call core::panicking::panic_null_pointer_dereference
  call void @_ZN4core9panicking30panic_null_pointer_dereference17hf718fcc86a223baaE(ptr align 8 @alloc_0725c2397a98401dbfe1fc691afaa2fe) #8
  unreachable

bb99:                                             ; preds = %bb126
  %_487 = load ptr, ptr %currentnode, align 8
  %_488 = ptrtoint ptr %_487 to i64
  %_491 = icmp eq i64 %_488, 0
  %_492 = and i1 %_491, true
  %_493 = xor i1 %_492, true
  br i1 %_493, label %bb127, label %panic32

panic31:                                          ; preds = %bb126
; call core::panicking::panic_misaligned_pointer_dereference
  call void @_ZN4core9panicking36panic_misaligned_pointer_dereference17hcc3cbded9382b6e5E(i64 8, i64 %_308, ptr align 8 @alloc_2dbe52eeb9888471c67eb7efac40ca21) #8
  unreachable

bb127:                                            ; preds = %bb99
  %36 = load ptr, ptr %currentnode, align 8
  %37 = getelementptr inbounds i8, ptr %36, i64 40
  %_83 = load i32, ptr %37, align 8
  call void @move_down(ptr %tmpcube, i32 %_82, i32 %_83) #9
  %_85 = load ptr, ptr %currentnode, align 8
  %_84 = call i32 @inme(ptr %_85, ptr %tmpcube) #9
  %38 = icmp eq i32 %_84, 0
  br i1 %38, label %bb40, label %bb46

panic32:                                          ; preds = %bb99
; call core::panicking::panic_null_pointer_dereference
  call void @_ZN4core9panicking30panic_null_pointer_dereference17hf718fcc86a223baaE(ptr align 8 @alloc_2dbe52eeb9888471c67eb7efac40ca21) #8
  unreachable

bb40:                                             ; preds = %bb127
  %_89 = call ptr @malloc(i64 56) #9
  store ptr %_89, ptr %node, align 8
  %_661 = load ptr, ptr %node, align 8
  %_662 = ptrtoint ptr %_661 to i64
  %_663 = icmp eq i64 %_662, 0
  %_664 = and i1 %_663, true
  %_665 = xor i1 %_664, true
  br i1 %_665, label %bb153, label %panic33

bb153:                                            ; preds = %bb40
  %_98 = load ptr, ptr %node, align 8
  call void @cube_copy(ptr %tmpcube, ptr %_98) #9
  %_301 = load ptr, ptr %currentnode, align 8
  %_302 = ptrtoint ptr %_301 to i64
  %_305 = and i64 %_302, 7
  %_306 = icmp eq i64 %_305, 0
  br i1 %_306, label %bb98, label %panic34

panic33:                                          ; preds = %bb40
; call core::panicking::panic_null_pointer_dereference
  call void @_ZN4core9panicking30panic_null_pointer_dereference17hf718fcc86a223baaE(ptr align 8 @alloc_2123c6d48d6ca9b6a1b93db419aafcb3) #8
  unreachable

bb98:                                             ; preds = %bb153
  %_494 = load ptr, ptr %currentnode, align 8
  %_495 = ptrtoint ptr %_494 to i64
  %_498 = icmp eq i64 %_495, 0
  %_499 = and i1 %_498, true
  %_500 = xor i1 %_499, true
  br i1 %_500, label %bb128, label %panic35

panic34:                                          ; preds = %bb153
; call core::panicking::panic_misaligned_pointer_dereference
  call void @_ZN4core9panicking36panic_misaligned_pointer_dereference17hcc3cbded9382b6e5E(i64 8, i64 %_302, ptr align 8 @alloc_b55a7bd6cd4997fafb52a00a027f6e3f) #8
  unreachable

bb128:                                            ; preds = %bb98
  %39 = load ptr, ptr %currentnode, align 8
  %40 = getelementptr inbounds i8, ptr %39, i64 36
  %_99 = load i32, ptr %40, align 4
  %_295 = load ptr, ptr %node, align 8
  %_296 = ptrtoint ptr %_295 to i64
  %_299 = and i64 %_296, 7
  %_300 = icmp eq i64 %_299, 0
  br i1 %_300, label %bb97, label %panic36

panic35:                                          ; preds = %bb98
; call core::panicking::panic_null_pointer_dereference
  call void @_ZN4core9panicking30panic_null_pointer_dereference17hf718fcc86a223baaE(ptr align 8 @alloc_b55a7bd6cd4997fafb52a00a027f6e3f) #8
  unreachable

bb97:                                             ; preds = %bb128
  %_501 = load ptr, ptr %node, align 8
  %_502 = ptrtoint ptr %_501 to i64
  %_505 = icmp eq i64 %_502, 0
  %_506 = and i1 %_505, true
  %_507 = xor i1 %_506, true
  br i1 %_507, label %bb129, label %panic37

panic36:                                          ; preds = %bb128
; call core::panicking::panic_misaligned_pointer_dereference
  call void @_ZN4core9panicking36panic_misaligned_pointer_dereference17hcc3cbded9382b6e5E(i64 8, i64 %_296, ptr align 8 @alloc_ded5413983ec61f5b1034da106fae239) #8
  unreachable

bb129:                                            ; preds = %bb97
  %41 = load ptr, ptr %node, align 8
  %42 = getelementptr inbounds i8, ptr %41, i64 36
  %43 = add i32 %_99, 1
  store i32 %43, ptr %42, align 4
  %_289 = load ptr, ptr %currentnode, align 8
  %_290 = ptrtoint ptr %_289 to i64
  %_293 = and i64 %_290, 7
  %_294 = icmp eq i64 %_293, 0
  br i1 %_294, label %bb96, label %panic38

panic37:                                          ; preds = %bb97
; call core::panicking::panic_null_pointer_dereference
  call void @_ZN4core9panicking30panic_null_pointer_dereference17hf718fcc86a223baaE(ptr align 8 @alloc_ded5413983ec61f5b1034da106fae239) #8
  unreachable

bb96:                                             ; preds = %bb129
  %_508 = load ptr, ptr %currentnode, align 8
  %_509 = ptrtoint ptr %_508 to i64
  %_512 = icmp eq i64 %_509, 0
  %_513 = and i1 %_512, true
  %_514 = xor i1 %_513, true
  br i1 %_514, label %bb130, label %panic39

panic38:                                          ; preds = %bb129
; call core::panicking::panic_misaligned_pointer_dereference
  call void @_ZN4core9panicking36panic_misaligned_pointer_dereference17hcc3cbded9382b6e5E(i64 8, i64 %_290, ptr align 8 @alloc_f1de584a0c872e99d61cfe872492d4d1) #8
  unreachable

bb130:                                            ; preds = %bb96
  %44 = load ptr, ptr %currentnode, align 8
  %45 = getelementptr inbounds i8, ptr %44, i64 40
  %_100 = load i32, ptr %45, align 8
  %_283 = load ptr, ptr %node, align 8
  %_284 = ptrtoint ptr %_283 to i64
  %_287 = and i64 %_284, 7
  %_288 = icmp eq i64 %_287, 0
  br i1 %_288, label %bb95, label %panic40

panic39:                                          ; preds = %bb96
; call core::panicking::panic_null_pointer_dereference
  call void @_ZN4core9panicking30panic_null_pointer_dereference17hf718fcc86a223baaE(ptr align 8 @alloc_f1de584a0c872e99d61cfe872492d4d1) #8
  unreachable

bb95:                                             ; preds = %bb130
  %_515 = load ptr, ptr %node, align 8
  %_516 = ptrtoint ptr %_515 to i64
  %_519 = icmp eq i64 %_516, 0
  %_520 = and i1 %_519, true
  %_521 = xor i1 %_520, true
  br i1 %_521, label %bb131, label %panic41

panic40:                                          ; preds = %bb130
; call core::panicking::panic_misaligned_pointer_dereference
  call void @_ZN4core9panicking36panic_misaligned_pointer_dereference17hcc3cbded9382b6e5E(i64 8, i64 %_284, ptr align 8 @alloc_342b507c9beb093c6b1574affdc2c9fd) #8
  unreachable

bb131:                                            ; preds = %bb95
  %46 = load ptr, ptr %node, align 8
  %47 = getelementptr inbounds i8, ptr %46, i64 40
  store i32 %_100, ptr %47, align 8
  %_101 = load ptr, ptr %currentnode, align 8
  %_277 = load ptr, ptr %node, align 8
  %_278 = ptrtoint ptr %_277 to i64
  %_281 = and i64 %_278, 7
  %_282 = icmp eq i64 %_281, 0
  br i1 %_282, label %bb94, label %panic42

panic41:                                          ; preds = %bb95
; call core::panicking::panic_null_pointer_dereference
  call void @_ZN4core9panicking30panic_null_pointer_dereference17hf718fcc86a223baaE(ptr align 8 @alloc_342b507c9beb093c6b1574affdc2c9fd) #8
  unreachable

bb94:                                             ; preds = %bb131
  %_522 = load ptr, ptr %node, align 8
  %_523 = ptrtoint ptr %_522 to i64
  %_526 = icmp eq i64 %_523, 0
  %_527 = and i1 %_526, true
  %_528 = xor i1 %_527, true
  br i1 %_528, label %bb132, label %panic43

panic42:                                          ; preds = %bb131
; call core::panicking::panic_misaligned_pointer_dereference
  call void @_ZN4core9panicking36panic_misaligned_pointer_dereference17hcc3cbded9382b6e5E(i64 8, i64 %_278, ptr align 8 @alloc_7402d039b7728046ee7be7a8c6b35277) #8
  unreachable

bb132:                                            ; preds = %bb94
  %48 = load ptr, ptr %node, align 8
  %49 = getelementptr inbounds i8, ptr %48, i64 48
  store ptr %_101, ptr %49, align 8
  %_103 = load ptr, ptr %node, align 8
  call void @enqueue(ptr %_103) #9
  br label %bb46

panic43:                                          ; preds = %bb94
; call core::panicking::panic_null_pointer_dereference
  call void @_ZN4core9panicking30panic_null_pointer_dereference17hf718fcc86a223baaE(ptr align 8 @alloc_7402d039b7728046ee7be7a8c6b35277) #8
  unreachable

bb152:                                            ; preds = %bb46
  %_107 = load ptr, ptr %currentnode, align 8
  call void @cube_copy(ptr %_107, ptr %tmpcube) #9
  %_271 = load ptr, ptr %currentnode, align 8
  %_272 = ptrtoint ptr %_271 to i64
  %_275 = and i64 %_272, 7
  %_276 = icmp eq i64 %_275, 0
  br i1 %_276, label %bb93, label %panic45

panic44:                                          ; preds = %bb46
; call core::panicking::panic_null_pointer_dereference
  call void @_ZN4core9panicking30panic_null_pointer_dereference17hf718fcc86a223baaE(ptr align 8 @alloc_093be48527094cfb8c8aef3fd5e0983e) #8
  unreachable

bb93:                                             ; preds = %bb152
  %_529 = load ptr, ptr %currentnode, align 8
  %_530 = ptrtoint ptr %_529 to i64
  %_533 = icmp eq i64 %_530, 0
  %_534 = and i1 %_533, true
  %_535 = xor i1 %_534, true
  br i1 %_535, label %bb133, label %panic46

panic45:                                          ; preds = %bb152
; call core::panicking::panic_misaligned_pointer_dereference
  call void @_ZN4core9panicking36panic_misaligned_pointer_dereference17hcc3cbded9382b6e5E(i64 8, i64 %_272, ptr align 8 @alloc_0a744cbc1d514297e5a31e47c6424022) #8
  unreachable

bb133:                                            ; preds = %bb93
  %50 = load ptr, ptr %currentnode, align 8
  %51 = getelementptr inbounds i8, ptr %50, i64 40
  %_112 = load i32, ptr %51, align 8
  %_111 = icmp sgt i32 %_112, 0
  br i1 %_111, label %bb50, label %bb61

panic46:                                          ; preds = %bb93
; call core::panicking::panic_null_pointer_dereference
  call void @_ZN4core9panicking30panic_null_pointer_dereference17hf718fcc86a223baaE(ptr align 8 @alloc_0a744cbc1d514297e5a31e47c6424022) #8
  unreachable

bb61:                                             ; preds = %bb140, %bb135, %bb133
  %_646 = load ptr, ptr %currentnode, align 8
  %_647 = ptrtoint ptr %_646 to i64
  %_648 = icmp eq i64 %_647, 0
  %_649 = and i1 %_648, true
  %_650 = xor i1 %_649, true
  br i1 %_650, label %bb150, label %panic62

bb50:                                             ; preds = %bb133
  %_265 = load ptr, ptr %currentnode, align 8
  %_266 = ptrtoint ptr %_265 to i64
  %_269 = and i64 %_266, 7
  %_270 = icmp eq i64 %_269, 0
  br i1 %_270, label %bb92, label %panic47

bb92:                                             ; preds = %bb50
  %_536 = load ptr, ptr %currentnode, align 8
  %_537 = ptrtoint ptr %_536 to i64
  %_540 = icmp eq i64 %_537, 0
  %_541 = and i1 %_540, true
  %_542 = xor i1 %_541, true
  br i1 %_542, label %bb134, label %panic48

panic47:                                          ; preds = %bb50
; call core::panicking::panic_misaligned_pointer_dereference
  call void @_ZN4core9panicking36panic_misaligned_pointer_dereference17hcc3cbded9382b6e5E(i64 8, i64 %_266, ptr align 8 @alloc_97d44c7021ab93e204daed7439aec6b4) #8
  unreachable

bb134:                                            ; preds = %bb92
  %52 = load ptr, ptr %currentnode, align 8
  %53 = getelementptr inbounds i8, ptr %52, i64 36
  %_117 = load i32, ptr %53, align 4
  %_259 = load ptr, ptr %currentnode, align 8
  %_260 = ptrtoint ptr %_259 to i64
  %_263 = and i64 %_260, 7
  %_264 = icmp eq i64 %_263, 0
  br i1 %_264, label %bb91, label %panic49

panic48:                                          ; preds = %bb92
; call core::panicking::panic_null_pointer_dereference
  call void @_ZN4core9panicking30panic_null_pointer_dereference17hf718fcc86a223baaE(ptr align 8 @alloc_97d44c7021ab93e204daed7439aec6b4) #8
  unreachable

bb91:                                             ; preds = %bb134
  %_543 = load ptr, ptr %currentnode, align 8
  %_544 = ptrtoint ptr %_543 to i64
  %_547 = icmp eq i64 %_544, 0
  %_548 = and i1 %_547, true
  %_549 = xor i1 %_548, true
  br i1 %_549, label %bb135, label %panic50

panic49:                                          ; preds = %bb134
; call core::panicking::panic_misaligned_pointer_dereference
  call void @_ZN4core9panicking36panic_misaligned_pointer_dereference17hcc3cbded9382b6e5E(i64 8, i64 %_260, ptr align 8 @alloc_b877d0398a0f4ec62ffdbbeb96c08202) #8
  unreachable

bb135:                                            ; preds = %bb91
  %54 = load ptr, ptr %currentnode, align 8
  %55 = getelementptr inbounds i8, ptr %54, i64 40
  %_118 = load i32, ptr %55, align 8
  call void @move_left(ptr %tmpcube, i32 %_117, i32 %_118) #9
  %_120 = load ptr, ptr %currentnode, align 8
  %_119 = call i32 @inme(ptr %_120, ptr %tmpcube) #9
  %56 = icmp eq i32 %_119, 0
  br i1 %56, label %bb55, label %bb61

panic50:                                          ; preds = %bb91
; call core::panicking::panic_null_pointer_dereference
  call void @_ZN4core9panicking30panic_null_pointer_dereference17hf718fcc86a223baaE(ptr align 8 @alloc_b877d0398a0f4ec62ffdbbeb96c08202) #8
  unreachable

bb55:                                             ; preds = %bb135
  %_124 = call ptr @malloc(i64 56) #9
  store ptr %_124, ptr %node, align 8
  %_651 = load ptr, ptr %node, align 8
  %_652 = ptrtoint ptr %_651 to i64
  %_653 = icmp eq i64 %_652, 0
  %_654 = and i1 %_653, true
  %_655 = xor i1 %_654, true
  br i1 %_655, label %bb151, label %panic51

bb151:                                            ; preds = %bb55
  %_133 = load ptr, ptr %node, align 8
  call void @cube_copy(ptr %tmpcube, ptr %_133) #9
  %_253 = load ptr, ptr %currentnode, align 8
  %_254 = ptrtoint ptr %_253 to i64
  %_257 = and i64 %_254, 7
  %_258 = icmp eq i64 %_257, 0
  br i1 %_258, label %bb90, label %panic52

panic51:                                          ; preds = %bb55
; call core::panicking::panic_null_pointer_dereference
  call void @_ZN4core9panicking30panic_null_pointer_dereference17hf718fcc86a223baaE(ptr align 8 @alloc_3651f6299d58671fa6ebc561c92e5c8c) #8
  unreachable

bb90:                                             ; preds = %bb151
  %_550 = load ptr, ptr %currentnode, align 8
  %_551 = ptrtoint ptr %_550 to i64
  %_554 = icmp eq i64 %_551, 0
  %_555 = and i1 %_554, true
  %_556 = xor i1 %_555, true
  br i1 %_556, label %bb136, label %panic53

panic52:                                          ; preds = %bb151
; call core::panicking::panic_misaligned_pointer_dereference
  call void @_ZN4core9panicking36panic_misaligned_pointer_dereference17hcc3cbded9382b6e5E(i64 8, i64 %_254, ptr align 8 @alloc_c7ad0956d912f4e3af3ecb5e4cea3cd5) #8
  unreachable

bb136:                                            ; preds = %bb90
  %57 = load ptr, ptr %currentnode, align 8
  %58 = getelementptr inbounds i8, ptr %57, i64 36
  %_134 = load i32, ptr %58, align 4
  %_247 = load ptr, ptr %node, align 8
  %_248 = ptrtoint ptr %_247 to i64
  %_251 = and i64 %_248, 7
  %_252 = icmp eq i64 %_251, 0
  br i1 %_252, label %bb89, label %panic54

panic53:                                          ; preds = %bb90
; call core::panicking::panic_null_pointer_dereference
  call void @_ZN4core9panicking30panic_null_pointer_dereference17hf718fcc86a223baaE(ptr align 8 @alloc_c7ad0956d912f4e3af3ecb5e4cea3cd5) #8
  unreachable

bb89:                                             ; preds = %bb136
  %_557 = load ptr, ptr %node, align 8
  %_558 = ptrtoint ptr %_557 to i64
  %_561 = icmp eq i64 %_558, 0
  %_562 = and i1 %_561, true
  %_563 = xor i1 %_562, true
  br i1 %_563, label %bb137, label %panic55

panic54:                                          ; preds = %bb136
; call core::panicking::panic_misaligned_pointer_dereference
  call void @_ZN4core9panicking36panic_misaligned_pointer_dereference17hcc3cbded9382b6e5E(i64 8, i64 %_248, ptr align 8 @alloc_387001fe3b9e1d3b33494c42a5fc0980) #8
  unreachable

bb137:                                            ; preds = %bb89
  %59 = load ptr, ptr %node, align 8
  %60 = getelementptr inbounds i8, ptr %59, i64 36
  store i32 %_134, ptr %60, align 4
  %_241 = load ptr, ptr %currentnode, align 8
  %_242 = ptrtoint ptr %_241 to i64
  %_245 = and i64 %_242, 7
  %_246 = icmp eq i64 %_245, 0
  br i1 %_246, label %bb88, label %panic56

panic55:                                          ; preds = %bb89
; call core::panicking::panic_null_pointer_dereference
  call void @_ZN4core9panicking30panic_null_pointer_dereference17hf718fcc86a223baaE(ptr align 8 @alloc_387001fe3b9e1d3b33494c42a5fc0980) #8
  unreachable

bb88:                                             ; preds = %bb137
  %_564 = load ptr, ptr %currentnode, align 8
  %_565 = ptrtoint ptr %_564 to i64
  %_568 = icmp eq i64 %_565, 0
  %_569 = and i1 %_568, true
  %_570 = xor i1 %_569, true
  br i1 %_570, label %bb138, label %panic57

panic56:                                          ; preds = %bb137
; call core::panicking::panic_misaligned_pointer_dereference
  call void @_ZN4core9panicking36panic_misaligned_pointer_dereference17hcc3cbded9382b6e5E(i64 8, i64 %_242, ptr align 8 @alloc_ba4b92c415e64a426ca26f13a3a7c83b) #8
  unreachable

bb138:                                            ; preds = %bb88
  %61 = load ptr, ptr %currentnode, align 8
  %62 = getelementptr inbounds i8, ptr %61, i64 40
  %_135 = load i32, ptr %62, align 8
  %_235 = load ptr, ptr %node, align 8
  %_236 = ptrtoint ptr %_235 to i64
  %_239 = and i64 %_236, 7
  %_240 = icmp eq i64 %_239, 0
  br i1 %_240, label %bb87, label %panic58

panic57:                                          ; preds = %bb88
; call core::panicking::panic_null_pointer_dereference
  call void @_ZN4core9panicking30panic_null_pointer_dereference17hf718fcc86a223baaE(ptr align 8 @alloc_ba4b92c415e64a426ca26f13a3a7c83b) #8
  unreachable

bb87:                                             ; preds = %bb138
  %_571 = load ptr, ptr %node, align 8
  %_572 = ptrtoint ptr %_571 to i64
  %_575 = icmp eq i64 %_572, 0
  %_576 = and i1 %_575, true
  %_577 = xor i1 %_576, true
  br i1 %_577, label %bb139, label %panic59

panic58:                                          ; preds = %bb138
; call core::panicking::panic_misaligned_pointer_dereference
  call void @_ZN4core9panicking36panic_misaligned_pointer_dereference17hcc3cbded9382b6e5E(i64 8, i64 %_236, ptr align 8 @alloc_f35d081fc2e0a0e2e59aed15f20ac779) #8
  unreachable

bb139:                                            ; preds = %bb87
  %63 = load ptr, ptr %node, align 8
  %64 = getelementptr inbounds i8, ptr %63, i64 40
  %65 = sub i32 %_135, 1
  store i32 %65, ptr %64, align 8
  %_136 = load ptr, ptr %currentnode, align 8
  %_229 = load ptr, ptr %node, align 8
  %_230 = ptrtoint ptr %_229 to i64
  %_233 = and i64 %_230, 7
  %_234 = icmp eq i64 %_233, 0
  br i1 %_234, label %bb86, label %panic60

panic59:                                          ; preds = %bb87
; call core::panicking::panic_null_pointer_dereference
  call void @_ZN4core9panicking30panic_null_pointer_dereference17hf718fcc86a223baaE(ptr align 8 @alloc_f35d081fc2e0a0e2e59aed15f20ac779) #8
  unreachable

bb86:                                             ; preds = %bb139
  %_578 = load ptr, ptr %node, align 8
  %_579 = ptrtoint ptr %_578 to i64
  %_582 = icmp eq i64 %_579, 0
  %_583 = and i1 %_582, true
  %_584 = xor i1 %_583, true
  br i1 %_584, label %bb140, label %panic61

panic60:                                          ; preds = %bb139
; call core::panicking::panic_misaligned_pointer_dereference
  call void @_ZN4core9panicking36panic_misaligned_pointer_dereference17hcc3cbded9382b6e5E(i64 8, i64 %_230, ptr align 8 @alloc_486b58557bcb7656916f2835599ae612) #8
  unreachable

bb140:                                            ; preds = %bb86
  %66 = load ptr, ptr %node, align 8
  %67 = getelementptr inbounds i8, ptr %66, i64 48
  store ptr %_136, ptr %67, align 8
  %_138 = load ptr, ptr %node, align 8
  call void @enqueue(ptr %_138) #9
  br label %bb61

panic61:                                          ; preds = %bb86
; call core::panicking::panic_null_pointer_dereference
  call void @_ZN4core9panicking30panic_null_pointer_dereference17hf718fcc86a223baaE(ptr align 8 @alloc_486b58557bcb7656916f2835599ae612) #8
  unreachable

bb150:                                            ; preds = %bb61
  %_142 = load ptr, ptr %currentnode, align 8
  call void @cube_copy(ptr %_142, ptr %tmpcube) #9
  %_223 = load ptr, ptr %currentnode, align 8
  %_224 = ptrtoint ptr %_223 to i64
  %_227 = and i64 %_224, 7
  %_228 = icmp eq i64 %_227, 0
  br i1 %_228, label %bb85, label %panic63

panic62:                                          ; preds = %bb61
; call core::panicking::panic_null_pointer_dereference
  call void @_ZN4core9panicking30panic_null_pointer_dereference17hf718fcc86a223baaE(ptr align 8 @alloc_a8dd501c36cf500e2dc8e12f8798ac32) #8
  unreachable

bb85:                                             ; preds = %bb150
  %_585 = load ptr, ptr %currentnode, align 8
  %_586 = ptrtoint ptr %_585 to i64
  %_589 = icmp eq i64 %_586, 0
  %_590 = and i1 %_589, true
  %_591 = xor i1 %_590, true
  br i1 %_591, label %bb141, label %panic64

panic63:                                          ; preds = %bb150
; call core::panicking::panic_misaligned_pointer_dereference
  call void @_ZN4core9panicking36panic_misaligned_pointer_dereference17hcc3cbded9382b6e5E(i64 8, i64 %_224, ptr align 8 @alloc_31a672835a7671232b8b97137027a6a0) #8
  unreachable

bb141:                                            ; preds = %bb85
  %68 = load ptr, ptr %currentnode, align 8
  %69 = getelementptr inbounds i8, ptr %68, i64 40
  %_147 = load i32, ptr %69, align 8
  %_146 = icmp slt i32 %_147, 2
  br i1 %_146, label %bb65, label %bb6

panic64:                                          ; preds = %bb85
; call core::panicking::panic_null_pointer_dereference
  call void @_ZN4core9panicking30panic_null_pointer_dereference17hf718fcc86a223baaE(ptr align 8 @alloc_31a672835a7671232b8b97137027a6a0) #8
  unreachable

bb65:                                             ; preds = %bb141
  %_217 = load ptr, ptr %currentnode, align 8
  %_218 = ptrtoint ptr %_217 to i64
  %_221 = and i64 %_218, 7
  %_222 = icmp eq i64 %_221, 0
  br i1 %_222, label %bb84, label %panic65

bb84:                                             ; preds = %bb65
  %_592 = load ptr, ptr %currentnode, align 8
  %_593 = ptrtoint ptr %_592 to i64
  %_596 = icmp eq i64 %_593, 0
  %_597 = and i1 %_596, true
  %_598 = xor i1 %_597, true
  br i1 %_598, label %bb142, label %panic66

panic65:                                          ; preds = %bb65
; call core::panicking::panic_misaligned_pointer_dereference
  call void @_ZN4core9panicking36panic_misaligned_pointer_dereference17hcc3cbded9382b6e5E(i64 8, i64 %_218, ptr align 8 @alloc_76e6a54733ae3715cfc7cf292208bf4f) #8
  unreachable

bb142:                                            ; preds = %bb84
  %70 = load ptr, ptr %currentnode, align 8
  %71 = getelementptr inbounds i8, ptr %70, i64 36
  %_153 = load i32, ptr %71, align 4
  %_211 = load ptr, ptr %currentnode, align 8
  %_212 = ptrtoint ptr %_211 to i64
  %_215 = and i64 %_212, 7
  %_216 = icmp eq i64 %_215, 0
  br i1 %_216, label %bb83, label %panic67

panic66:                                          ; preds = %bb84
; call core::panicking::panic_null_pointer_dereference
  call void @_ZN4core9panicking30panic_null_pointer_dereference17hf718fcc86a223baaE(ptr align 8 @alloc_76e6a54733ae3715cfc7cf292208bf4f) #8
  unreachable

bb83:                                             ; preds = %bb142
  %_599 = load ptr, ptr %currentnode, align 8
  %_600 = ptrtoint ptr %_599 to i64
  %_603 = icmp eq i64 %_600, 0
  %_604 = and i1 %_603, true
  %_605 = xor i1 %_604, true
  br i1 %_605, label %bb143, label %panic68

panic67:                                          ; preds = %bb142
; call core::panicking::panic_misaligned_pointer_dereference
  call void @_ZN4core9panicking36panic_misaligned_pointer_dereference17hcc3cbded9382b6e5E(i64 8, i64 %_212, ptr align 8 @alloc_0a21eccded7b79982114a326ddcf4f01) #8
  unreachable

bb143:                                            ; preds = %bb83
  %72 = load ptr, ptr %currentnode, align 8
  %73 = getelementptr inbounds i8, ptr %72, i64 40
  %_154 = load i32, ptr %73, align 8
  call void @move_right(ptr %tmpcube, i32 %_153, i32 %_154) #9
  %_156 = load ptr, ptr %currentnode, align 8
  %_155 = call i32 @inme(ptr %_156, ptr %tmpcube) #9
  %74 = icmp eq i32 %_155, 0
  br i1 %74, label %bb70, label %bb6

panic68:                                          ; preds = %bb83
; call core::panicking::panic_null_pointer_dereference
  call void @_ZN4core9panicking30panic_null_pointer_dereference17hf718fcc86a223baaE(ptr align 8 @alloc_0a21eccded7b79982114a326ddcf4f01) #8
  unreachable

bb70:                                             ; preds = %bb143
  %_160 = call ptr @malloc(i64 56) #9
  store ptr %_160, ptr %node, align 8
  %_641 = load ptr, ptr %node, align 8
  %_642 = ptrtoint ptr %_641 to i64
  %_643 = icmp eq i64 %_642, 0
  %_644 = and i1 %_643, true
  %_645 = xor i1 %_644, true
  br i1 %_645, label %bb149, label %panic69

bb149:                                            ; preds = %bb70
  %_169 = load ptr, ptr %node, align 8
  call void @cube_copy(ptr %tmpcube, ptr %_169) #9
  %_205 = load ptr, ptr %currentnode, align 8
  %_206 = ptrtoint ptr %_205 to i64
  %_209 = and i64 %_206, 7
  %_210 = icmp eq i64 %_209, 0
  br i1 %_210, label %bb82, label %panic70

panic69:                                          ; preds = %bb70
; call core::panicking::panic_null_pointer_dereference
  call void @_ZN4core9panicking30panic_null_pointer_dereference17hf718fcc86a223baaE(ptr align 8 @alloc_b79716a6b3b3da7c33abccffe5ad2766) #8
  unreachable

bb82:                                             ; preds = %bb149
  %_606 = load ptr, ptr %currentnode, align 8
  %_607 = ptrtoint ptr %_606 to i64
  %_610 = icmp eq i64 %_607, 0
  %_611 = and i1 %_610, true
  %_612 = xor i1 %_611, true
  br i1 %_612, label %bb144, label %panic71

panic70:                                          ; preds = %bb149
; call core::panicking::panic_misaligned_pointer_dereference
  call void @_ZN4core9panicking36panic_misaligned_pointer_dereference17hcc3cbded9382b6e5E(i64 8, i64 %_206, ptr align 8 @alloc_00e6181096a439f67a5a7fc5dc2a557a) #8
  unreachable

bb144:                                            ; preds = %bb82
  %75 = load ptr, ptr %currentnode, align 8
  %76 = getelementptr inbounds i8, ptr %75, i64 36
  %_170 = load i32, ptr %76, align 4
  %_199 = load ptr, ptr %node, align 8
  %_200 = ptrtoint ptr %_199 to i64
  %_203 = and i64 %_200, 7
  %_204 = icmp eq i64 %_203, 0
  br i1 %_204, label %bb81, label %panic72

panic71:                                          ; preds = %bb82
; call core::panicking::panic_null_pointer_dereference
  call void @_ZN4core9panicking30panic_null_pointer_dereference17hf718fcc86a223baaE(ptr align 8 @alloc_00e6181096a439f67a5a7fc5dc2a557a) #8
  unreachable

bb81:                                             ; preds = %bb144
  %_613 = load ptr, ptr %node, align 8
  %_614 = ptrtoint ptr %_613 to i64
  %_617 = icmp eq i64 %_614, 0
  %_618 = and i1 %_617, true
  %_619 = xor i1 %_618, true
  br i1 %_619, label %bb145, label %panic73

panic72:                                          ; preds = %bb144
; call core::panicking::panic_misaligned_pointer_dereference
  call void @_ZN4core9panicking36panic_misaligned_pointer_dereference17hcc3cbded9382b6e5E(i64 8, i64 %_200, ptr align 8 @alloc_7e7eb7cbf027736cbd13353ddbabdb4e) #8
  unreachable

bb145:                                            ; preds = %bb81
  %77 = load ptr, ptr %node, align 8
  %78 = getelementptr inbounds i8, ptr %77, i64 36
  store i32 %_170, ptr %78, align 4
  %_193 = load ptr, ptr %currentnode, align 8
  %_194 = ptrtoint ptr %_193 to i64
  %_197 = and i64 %_194, 7
  %_198 = icmp eq i64 %_197, 0
  br i1 %_198, label %bb80, label %panic74

panic73:                                          ; preds = %bb81
; call core::panicking::panic_null_pointer_dereference
  call void @_ZN4core9panicking30panic_null_pointer_dereference17hf718fcc86a223baaE(ptr align 8 @alloc_7e7eb7cbf027736cbd13353ddbabdb4e) #8
  unreachable

bb80:                                             ; preds = %bb145
  %_620 = load ptr, ptr %currentnode, align 8
  %_621 = ptrtoint ptr %_620 to i64
  %_624 = icmp eq i64 %_621, 0
  %_625 = and i1 %_624, true
  %_626 = xor i1 %_625, true
  br i1 %_626, label %bb146, label %panic75

panic74:                                          ; preds = %bb145
; call core::panicking::panic_misaligned_pointer_dereference
  call void @_ZN4core9panicking36panic_misaligned_pointer_dereference17hcc3cbded9382b6e5E(i64 8, i64 %_194, ptr align 8 @alloc_40ade551ddfd7c08adc70f4f3823a601) #8
  unreachable

bb146:                                            ; preds = %bb80
  %79 = load ptr, ptr %currentnode, align 8
  %80 = getelementptr inbounds i8, ptr %79, i64 40
  %_171 = load i32, ptr %80, align 8
  %_187 = load ptr, ptr %node, align 8
  %_188 = ptrtoint ptr %_187 to i64
  %_191 = and i64 %_188, 7
  %_192 = icmp eq i64 %_191, 0
  br i1 %_192, label %bb79, label %panic76

panic75:                                          ; preds = %bb80
; call core::panicking::panic_null_pointer_dereference
  call void @_ZN4core9panicking30panic_null_pointer_dereference17hf718fcc86a223baaE(ptr align 8 @alloc_40ade551ddfd7c08adc70f4f3823a601) #8
  unreachable

bb79:                                             ; preds = %bb146
  %_627 = load ptr, ptr %node, align 8
  %_628 = ptrtoint ptr %_627 to i64
  %_631 = icmp eq i64 %_628, 0
  %_632 = and i1 %_631, true
  %_633 = xor i1 %_632, true
  br i1 %_633, label %bb147, label %panic77

panic76:                                          ; preds = %bb146
; call core::panicking::panic_misaligned_pointer_dereference
  call void @_ZN4core9panicking36panic_misaligned_pointer_dereference17hcc3cbded9382b6e5E(i64 8, i64 %_188, ptr align 8 @alloc_b1b5711bbcbe759f83e18b97de6c28d9) #8
  unreachable

bb147:                                            ; preds = %bb79
  %81 = load ptr, ptr %node, align 8
  %82 = getelementptr inbounds i8, ptr %81, i64 40
  %83 = add i32 %_171, 1
  store i32 %83, ptr %82, align 8
  %_172 = load ptr, ptr %currentnode, align 8
  %_181 = load ptr, ptr %node, align 8
  %_182 = ptrtoint ptr %_181 to i64
  %_185 = and i64 %_182, 7
  %_186 = icmp eq i64 %_185, 0
  br i1 %_186, label %bb78, label %panic78

panic77:                                          ; preds = %bb79
; call core::panicking::panic_null_pointer_dereference
  call void @_ZN4core9panicking30panic_null_pointer_dereference17hf718fcc86a223baaE(ptr align 8 @alloc_b1b5711bbcbe759f83e18b97de6c28d9) #8
  unreachable

bb78:                                             ; preds = %bb147
  %_634 = load ptr, ptr %node, align 8
  %_635 = ptrtoint ptr %_634 to i64
  %_638 = icmp eq i64 %_635, 0
  %_639 = and i1 %_638, true
  %_640 = xor i1 %_639, true
  br i1 %_640, label %bb148, label %panic79

panic78:                                          ; preds = %bb147
; call core::panicking::panic_misaligned_pointer_dereference
  call void @_ZN4core9panicking36panic_misaligned_pointer_dereference17hcc3cbded9382b6e5E(i64 8, i64 %_182, ptr align 8 @alloc_5b6cbdbc35289acbaca9c93c25cfe354) #8
  unreachable

bb148:                                            ; preds = %bb78
  %84 = load ptr, ptr %node, align 8
  %85 = getelementptr inbounds i8, ptr %84, i64 48
  store ptr %_172, ptr %85, align 8
  %_174 = load ptr, ptr %node, align 8
  call void @enqueue(ptr %_174) #9
  br label %bb6

panic79:                                          ; preds = %bb78
; call core::panicking::panic_null_pointer_dereference
  call void @_ZN4core9panicking30panic_null_pointer_dereference17hf718fcc86a223baaE(ptr align 8 @alloc_5b6cbdbc35289acbaca9c93c25cfe354) #8
  unreachable
}

; Function Attrs: nocallback nofree nosync nounwind speculatable willreturn memory(none)
declare { i64, i1 } @llvm.smul.with.overflow.i64(i64, i64) #3

; Function Attrs: nocallback nofree nosync nounwind speculatable willreturn memory(none)
declare { i64, i1 } @llvm.uadd.with.overflow.i64(i64, i64) #3

; core::panicking::panic_nounwind
; Function Attrs: cold noinline noreturn nounwind nonlazybind
declare void @_ZN4core9panicking14panic_nounwind17h211d9ce8d63f12e7E(ptr align 1, i64) unnamed_addr #4

; core::panicking::panic_bounds_check
; Function Attrs: cold minsize noinline noreturn nounwind nonlazybind optsize
declare void @_ZN4core9panicking18panic_bounds_check17h27d1e4f0cb1112dfE(i64, i64, ptr align 8) unnamed_addr #5

; core::panicking::panic_misaligned_pointer_dereference
; Function Attrs: cold minsize noinline noreturn nounwind nonlazybind optsize
declare void @_ZN4core9panicking36panic_misaligned_pointer_dereference17hcc3cbded9382b6e5E(i64, i64, ptr align 8) unnamed_addr #5

; core::panicking::panic_null_pointer_dereference
; Function Attrs: cold minsize noinline noreturn nounwind nonlazybind optsize
declare void @_ZN4core9panicking30panic_null_pointer_dereference17hf718fcc86a223baaE(ptr align 8) unnamed_addr #5

; Function Attrs: nounwind nonlazybind
declare i32 @printf(ptr, ...) unnamed_addr #2

; core::panicking::panic_const::panic_const_rem_overflow
; Function Attrs: cold noinline noreturn nounwind nonlazybind
declare void @_ZN4core9panicking11panic_const24panic_const_rem_overflow17h799fde26ff2294a6E(ptr align 8) unnamed_addr #4

; Function Attrs: nounwind nonlazybind
declare ptr @malloc(i64) unnamed_addr #2

; Function Attrs: nocallback nofree nounwind willreturn memory(argmem: write)
declare void @llvm.memset.p0.i64(ptr nocapture writeonly, i8, i64, i1 immarg) #6

; Function Attrs: nocallback nofree nounwind willreturn memory(argmem: readwrite)
declare void @llvm.memcpy.p0.p0.i64(ptr noalias nocapture writeonly, ptr noalias nocapture readonly, i64, i1 immarg) #7

attributes #0 = { cold nounwind nonlazybind "probe-stack"="inline-asm" "target-cpu"="x86-64" }
attributes #1 = { inlinehint nounwind nonlazybind "probe-stack"="inline-asm" "target-cpu"="x86-64" }
attributes #2 = { nounwind nonlazybind "probe-stack"="inline-asm" "target-cpu"="x86-64" }
attributes #3 = { nocallback nofree nosync nounwind speculatable willreturn memory(none) }
attributes #4 = { cold noinline noreturn nounwind nonlazybind "probe-stack"="inline-asm" "target-cpu"="x86-64" }
attributes #5 = { cold minsize noinline noreturn nounwind nonlazybind optsize "probe-stack"="inline-asm" "target-cpu"="x86-64" }
attributes #6 = { nocallback nofree nounwind willreturn memory(argmem: write) }
attributes #7 = { nocallback nofree nounwind willreturn memory(argmem: readwrite) }
attributes #8 = { noreturn nounwind }
attributes #9 = { nounwind }

!llvm.module.flags = !{!0, !1}
!llvm.ident = !{!2}

!0 = !{i32 8, !"PIC Level", i32 2}
!1 = !{i32 2, !"RtLibUseGOT", i32 1}
!2 = !{!"rustc version 1.88.0-nightly (0b45675cf 2025-03-31)"}
