; ModuleID = '7g9sryf67z0refzawj8eub2vg'
source_filename = "7g9sryf67z0refzawj8eub2vg"
target datalayout = "e-m:e-p270:32:32-p271:32:32-p272:64:64-i64:64-i128:128-f80:128-n8:16:32:64-S128"
target triple = "x86_64-unknown-linux-gnu"

@head = global [8 x i8] zeroinitializer, align 8
@tail = global [8 x i8] zeroinitializer, align 8
@alloc_f5ffd2fd1476bab43ad89fb40c72d0c5 = private unnamed_addr constant [10 x i8] c"src/lib.rs", align 1
@alloc_450171e86de59dbae00fbb1e9c5a45bc = private unnamed_addr constant <{ ptr, [16 x i8] }> <{ ptr @alloc_f5ffd2fd1476bab43ad89fb40c72d0c5, [16 x i8] c"\0A\00\00\00\00\00\00\00e\00\00\00\05\00\00\00" }>, align 8
@alloc_ed842d3a2a3e93c7ae0fc91ef014b45f = private unnamed_addr constant <{ ptr, [16 x i8] }> <{ ptr @alloc_f5ffd2fd1476bab43ad89fb40c72d0c5, [16 x i8] c"\0A\00\00\00\00\00\00\00f\00\00\00\05\00\00\00" }>, align 8
@alloc_0f71aacfd249cf47639d68c1334ec744 = private unnamed_addr constant <{ ptr, [16 x i8] }> <{ ptr @alloc_f5ffd2fd1476bab43ad89fb40c72d0c5, [16 x i8] c"\0A\00\00\00\00\00\00\00g\00\00\00\05\00\00\00" }>, align 8
@alloc_6548fd5edd167dc358ac7e2d3ae81c19 = private unnamed_addr constant <{ ptr, [16 x i8] }> <{ ptr @alloc_f5ffd2fd1476bab43ad89fb40c72d0c5, [16 x i8] c"\0A\00\00\00\00\00\00\00h\00\00\00\08\00\00\00" }>, align 8
@alloc_f96ffe5e0e78ab6ae4127bc4a43d3d72 = private unnamed_addr constant <{ ptr, [16 x i8] }> <{ ptr @alloc_f5ffd2fd1476bab43ad89fb40c72d0c5, [16 x i8] c"\0A\00\00\00\00\00\00\00l\00\00\00\1B\00\00\00" }>, align 8
@alloc_f60bb59bae9fdbf37b53969edd55058a = private unnamed_addr constant <{ ptr, [16 x i8] }> <{ ptr @alloc_f5ffd2fd1476bab43ad89fb40c72d0c5, [16 x i8] c"\0A\00\00\00\00\00\00\00l\00\00\00\09\00\00\00" }>, align 8
@alloc_ee81d6510c6768edeba642981490817f = private unnamed_addr constant <{ ptr, [16 x i8] }> <{ ptr @alloc_f5ffd2fd1476bab43ad89fb40c72d0c5, [16 x i8] c"\0A\00\00\00\00\00\00\00m\00\00\00\1F\00\00\00" }>, align 8
@alloc_8aaf0cbe5467e4838b8bc1d98e57daa9 = private unnamed_addr constant <{ ptr, [16 x i8] }> <{ ptr @alloc_f5ffd2fd1476bab43ad89fb40c72d0c5, [16 x i8] c"\0A\00\00\00\00\00\00\00m\00\00\00\09\00\00\00" }>, align 8
@alloc_cc7279f3bbb8e42b3a30909382c83dde = private unnamed_addr constant <{ ptr, [16 x i8] }> <{ ptr @alloc_f5ffd2fd1476bab43ad89fb40c72d0c5, [16 x i8] c"\0A\00\00\00\00\00\00\00n\00\00\00\09\00\00\00" }>, align 8
@alloc_35903e2beae833791f15e8c3785889c6 = private unnamed_addr constant <{ ptr, [16 x i8] }> <{ ptr @alloc_f5ffd2fd1476bab43ad89fb40c72d0c5, [16 x i8] c"\0A\00\00\00\00\00\00\00o\00\00\00\09\00\00\00" }>, align 8
@alloc_f2f081886f331dc949da0f4fbdad1cbe = private unnamed_addr constant <{ ptr, [16 x i8] }> <{ ptr @alloc_f5ffd2fd1476bab43ad89fb40c72d0c5, [16 x i8] c"\0A\00\00\00\00\00\00\00p\00\00\00\09\00\00\00" }>, align 8
@alloc_adf1c524da88c689910ca147895919eb = private unnamed_addr constant <{ ptr, [16 x i8] }> <{ ptr @alloc_f5ffd2fd1476bab43ad89fb40c72d0c5, [16 x i8] c"\0A\00\00\00\00\00\00\00i\00\00\00\09\00\00\00" }>, align 8
@alloc_fdc5f6fe634689cdbcb2296e8963e5df = private unnamed_addr constant <{ ptr, [16 x i8] }> <{ ptr @alloc_f5ffd2fd1476bab43ad89fb40c72d0c5, [16 x i8] c"\0A\00\00\00\00\00\00\00j\00\00\00\09\00\00\00" }>, align 8
@alloc_33163a8e673ee25e32a7ea0cadee3b6e = private unnamed_addr constant <{ ptr, [16 x i8] }> <{ ptr @alloc_f5ffd2fd1476bab43ad89fb40c72d0c5, [16 x i8] c"\0A\00\00\00\00\00\00\00w\00\00\00\05\00\00\00" }>, align 8
@alloc_82ebe0b2887610993564a06c073564b8 = private unnamed_addr constant <{ ptr, [16 x i8] }> <{ ptr @alloc_f5ffd2fd1476bab43ad89fb40c72d0c5, [16 x i8] c"\0A\00\00\00\00\00\00\00x\00\00\00\05\00\00\00" }>, align 8
@alloc_69d1daf5dfd60dd92e8de43345645869 = private unnamed_addr constant <{ ptr, [16 x i8] }> <{ ptr @alloc_f5ffd2fd1476bab43ad89fb40c72d0c5, [16 x i8] c"\0A\00\00\00\00\00\00\00y\00\00\00\05\00\00\00" }>, align 8
@alloc_a883a68596bb157e102413ab605ef1ca = private unnamed_addr constant <{ ptr, [16 x i8] }> <{ ptr @alloc_f5ffd2fd1476bab43ad89fb40c72d0c5, [16 x i8] c"\0A\00\00\00\00\00\00\00z\00\00\00\08\00\00\00" }>, align 8
@alloc_a36005e6c8643271d28bd8edf2a6f760 = private unnamed_addr constant <{ ptr, [16 x i8] }> <{ ptr @alloc_f5ffd2fd1476bab43ad89fb40c72d0c5, [16 x i8] c"\0A\00\00\00\00\00\00\00~\00\00\00\09\00\00\00" }>, align 8
@alloc_b6b05efdf379e3d226c1425357c1e8ca = private unnamed_addr constant <{ ptr, [16 x i8] }> <{ ptr @alloc_f5ffd2fd1476bab43ad89fb40c72d0c5, [16 x i8] c"\0A\00\00\00\00\00\00\00\7F\00\00\00\1B\00\00\00" }>, align 8
@alloc_be7452df8c180fa1736a845b90103292 = private unnamed_addr constant <{ ptr, [16 x i8] }> <{ ptr @alloc_f5ffd2fd1476bab43ad89fb40c72d0c5, [16 x i8] c"\0A\00\00\00\00\00\00\00\7F\00\00\00\09\00\00\00" }>, align 8
@alloc_a86b2a11f4dfe1a4992b7c8c26814959 = private unnamed_addr constant <{ ptr, [16 x i8] }> <{ ptr @alloc_f5ffd2fd1476bab43ad89fb40c72d0c5, [16 x i8] c"\0A\00\00\00\00\00\00\00\80\00\00\00\1F\00\00\00" }>, align 8
@alloc_c91a969fee8b35d49ac947e0e6685f66 = private unnamed_addr constant <{ ptr, [16 x i8] }> <{ ptr @alloc_f5ffd2fd1476bab43ad89fb40c72d0c5, [16 x i8] c"\0A\00\00\00\00\00\00\00\80\00\00\00\09\00\00\00" }>, align 8
@alloc_89961032cc8c4a7dcdb0a48b5861b468 = private unnamed_addr constant <{ ptr, [16 x i8] }> <{ ptr @alloc_f5ffd2fd1476bab43ad89fb40c72d0c5, [16 x i8] c"\0A\00\00\00\00\00\00\00\81\00\00\00\09\00\00\00" }>, align 8
@alloc_ba992de63af5cd43b3dd1f237651ae62 = private unnamed_addr constant <{ ptr, [16 x i8] }> <{ ptr @alloc_f5ffd2fd1476bab43ad89fb40c72d0c5, [16 x i8] c"\0A\00\00\00\00\00\00\00\82\00\00\00\1C\00\00\00" }>, align 8
@alloc_3aefe61f9c9227222ff0845684ee9c96 = private unnamed_addr constant <{ ptr, [16 x i8] }> <{ ptr @alloc_f5ffd2fd1476bab43ad89fb40c72d0c5, [16 x i8] c"\0A\00\00\00\00\00\00\00\82\00\00\00\09\00\00\00" }>, align 8
@alloc_faa77273d412a3370397282c48abd832 = private unnamed_addr constant <{ ptr, [16 x i8] }> <{ ptr @alloc_f5ffd2fd1476bab43ad89fb40c72d0c5, [16 x i8] c"\0A\00\00\00\00\00\00\00{\00\00\00\09\00\00\00" }>, align 8
@alloc_6315b79dba6f789e11adb693d3b81db7 = private unnamed_addr constant <{ ptr, [16 x i8] }> <{ ptr @alloc_f5ffd2fd1476bab43ad89fb40c72d0c5, [16 x i8] c"\0A\00\00\00\00\00\00\00|\00\00\00\09\00\00\00" }>, align 8
@alloc_d21f69c11108631f60cd143fb78821ba = private unnamed_addr constant <{ ptr, [16 x i8] }> <{ ptr @alloc_f5ffd2fd1476bab43ad89fb40c72d0c5, [16 x i8] c"\0A\00\00\00\00\00\00\00\8D\00\00\00/\00\00\00" }>, align 8
@alloc_bb619a9c7b728d947048be801e7ea3ce = private unnamed_addr constant <{ ptr, [16 x i8] }> <{ ptr @alloc_f5ffd2fd1476bab43ad89fb40c72d0c5, [16 x i8] c"\0A\00\00\00\00\00\00\00\8E\00\00\00&\00\00\00" }>, align 8
@alloc_a0a20824664c1531f05b248e12c758f2 = private unnamed_addr constant <{ ptr, [16 x i8] }> <{ ptr @alloc_f5ffd2fd1476bab43ad89fb40c72d0c5, [16 x i8] c"\0A\00\00\00\00\00\00\00\96\00\00\00\17\00\00\00" }>, align 8
@alloc_cf352b42dc381e6c757143e5619b4a40 = private unnamed_addr constant <{ ptr, [16 x i8] }> <{ ptr @alloc_f5ffd2fd1476bab43ad89fb40c72d0c5, [16 x i8] c"\0A\00\00\00\00\00\00\00\97\00\00\00\12\00\00\00" }>, align 8
@alloc_b1fb624e6ba780a4f92528284607fbb6 = private unnamed_addr constant <{ ptr, [16 x i8] }> <{ ptr @alloc_f5ffd2fd1476bab43ad89fb40c72d0c5, [16 x i8] c"\0A\00\00\00\00\00\00\00\97\00\00\00%\00\00\00" }>, align 8
@alloc_a90f35b7b4b4f216cf27a4e7b6d989f3 = private unnamed_addr constant <{ ptr, [16 x i8] }> <{ ptr @alloc_f5ffd2fd1476bab43ad89fb40c72d0c5, [16 x i8] c"\0A\00\00\00\00\00\00\00\9C\00\00\00\18\00\00\00" }>, align 8
@alloc_355951375ed3ecab77da4ec7761081a3 = private unnamed_addr constant <{ ptr, [16 x i8] }> <{ ptr @alloc_f5ffd2fd1476bab43ad89fb40c72d0c5, [16 x i8] c"\0A\00\00\00\00\00\00\00\A2\00\00\00\11\00\00\00" }>, align 8
@alloc_b4de1deadbc7394533c305a1e46a67e2 = private unnamed_addr constant <{ ptr, [16 x i8] }> <{ ptr @alloc_f5ffd2fd1476bab43ad89fb40c72d0c5, [16 x i8] c"\0A\00\00\00\00\00\00\00\A3\00\00\00\11\00\00\00" }>, align 8
@alloc_65c030de5a93a5087ce4e26a720a77ea = private unnamed_addr constant <{ ptr, [16 x i8] }> <{ ptr @alloc_f5ffd2fd1476bab43ad89fb40c72d0c5, [16 x i8] c"\0A\00\00\00\00\00\00\00\A4\00\00\00\11\00\00\00" }>, align 8
@alloc_9d47ec4948a652aba595c7719557a627 = private unnamed_addr constant <{ ptr, [16 x i8] }> <{ ptr @alloc_f5ffd2fd1476bab43ad89fb40c72d0c5, [16 x i8] c"\0A\00\00\00\00\00\00\00\A5\00\00\00\11\00\00\00" }>, align 8
@alloc_f2f8356ab6888f6d01c31575640571ec = private unnamed_addr constant <{ ptr, [16 x i8] }> <{ ptr @alloc_f5ffd2fd1476bab43ad89fb40c72d0c5, [16 x i8] c"\0A\00\00\00\00\00\00\00\A6\00\00\00\11\00\00\00" }>, align 8
@alloc_a5da04c27b3cdb26543d2fd3b65cc73f = private unnamed_addr constant [26 x i8] c"Position does not exist!\0A\00", align 1
@alloc_6ed8ead5c3180de3c836418e748d1daf = private unnamed_addr constant <{ ptr, [16 x i8] }> <{ ptr @alloc_f5ffd2fd1476bab43ad89fb40c72d0c5, [16 x i8] c"\0A\00\00\00\00\00\00\00\AF\00\00\00\08\00\00\00" }>, align 8
@alloc_2978b4375b1665d56f1f5878a2f019e6 = private unnamed_addr constant <{ ptr, [16 x i8] }> <{ ptr @alloc_f5ffd2fd1476bab43ad89fb40c72d0c5, [16 x i8] c"\0A\00\00\00\00\00\00\00\B2\00\00\00\1F\00\00\00" }>, align 8
@alloc_c9a82c472d6ecf619845d44aa92d6c49 = private unnamed_addr constant <{ ptr, [16 x i8] }> <{ ptr @alloc_f5ffd2fd1476bab43ad89fb40c72d0c5, [16 x i8] c"\0A\00\00\00\00\00\00\00\B3\00\00\00\14\00\00\00" }>, align 8
@alloc_71707608417539c29b58e3851d893895 = private unnamed_addr constant <{ ptr, [16 x i8] }> <{ ptr @alloc_f5ffd2fd1476bab43ad89fb40c72d0c5, [16 x i8] c"\0A\00\00\00\00\00\00\00\B3\00\00\00\05\00\00\00" }>, align 8
@alloc_0b91bd9d6a03156f76814c5e8c64139a = private unnamed_addr constant <{ ptr, [16 x i8] }> <{ ptr @alloc_f5ffd2fd1476bab43ad89fb40c72d0c5, [16 x i8] c"\0A\00\00\00\00\00\00\00\B4\00\00\00\0C\00\00\00" }>, align 8
@alloc_ab86c8f6a6b652fd93739bb1556d653e = private unnamed_addr constant <{ ptr, [16 x i8] }> <{ ptr @alloc_f5ffd2fd1476bab43ad89fb40c72d0c5, [16 x i8] c"\0A\00\00\00\00\00\00\00\B4\00\00\00\05\00\00\00" }>, align 8
@alloc_50362e451ddc5886c9dc50b1085c0ada = private unnamed_addr constant <{ ptr, [16 x i8] }> <{ ptr @alloc_f5ffd2fd1476bab43ad89fb40c72d0c5, [16 x i8] c"\0A\00\00\00\00\00\00\00\B5\00\00\00\18\00\00\00" }>, align 8
@alloc_c3edc0ffc4aa51f1633091e8f18b4b70 = private unnamed_addr constant <{ ptr, [16 x i8] }> <{ ptr @alloc_f5ffd2fd1476bab43ad89fb40c72d0c5, [16 x i8] c"\0A\00\00\00\00\00\00\00\B5\00\00\00\05\00\00\00" }>, align 8
@alloc_fa90242e2cb441ec7f8e3f97ece32513 = private unnamed_addr constant <{ ptr, [16 x i8] }> <{ ptr @alloc_f5ffd2fd1476bab43ad89fb40c72d0c5, [16 x i8] c"\0A\00\00\00\00\00\00\00\BA\00\00\00\08\00\00\00" }>, align 8
@alloc_f56664b669b6e451158a745293135050 = private unnamed_addr constant <{ ptr, [16 x i8] }> <{ ptr @alloc_f5ffd2fd1476bab43ad89fb40c72d0c5, [16 x i8] c"\0A\00\00\00\00\00\00\00\BD\00\00\00\1F\00\00\00" }>, align 8
@alloc_fa3425b16780da2a262d3858504140f2 = private unnamed_addr constant <{ ptr, [16 x i8] }> <{ ptr @alloc_f5ffd2fd1476bab43ad89fb40c72d0c5, [16 x i8] c"\0A\00\00\00\00\00\00\00\BE\00\00\00\22\00\00\00" }>, align 8
@alloc_70608c544a4aa19d445d5d6b04723e08 = private unnamed_addr constant <{ ptr, [16 x i8] }> <{ ptr @alloc_f5ffd2fd1476bab43ad89fb40c72d0c5, [16 x i8] c"\0A\00\00\00\00\00\00\00\BF\00\00\00\0B\00\00\00" }>, align 8
@alloc_68e5471e3547dbc76eb9cb13a542ec37 = private unnamed_addr constant <{ ptr, [16 x i8] }> <{ ptr @alloc_f5ffd2fd1476bab43ad89fb40c72d0c5, [16 x i8] c"\0A\00\00\00\00\00\00\00\BF\00\00\00\1E\00\00\00" }>, align 8
@alloc_f0456c312cf3032ae153c2d204b7ea3a = private unnamed_addr constant <{ ptr, [16 x i8] }> <{ ptr @alloc_f5ffd2fd1476bab43ad89fb40c72d0c5, [16 x i8] c"\0A\00\00\00\00\00\00\00\C3\00\00\00\14\00\00\00" }>, align 8
@alloc_8c10ced135ffc3554774c32cb4497baf = private unnamed_addr constant <{ ptr, [16 x i8] }> <{ ptr @alloc_f5ffd2fd1476bab43ad89fb40c72d0c5, [16 x i8] c"\0A\00\00\00\00\00\00\00\C3\00\00\00\05\00\00\00" }>, align 8
@alloc_b95678b168d07cea34a0ff987b0c895a = private unnamed_addr constant <{ ptr, [16 x i8] }> <{ ptr @alloc_f5ffd2fd1476bab43ad89fb40c72d0c5, [16 x i8] c"\0A\00\00\00\00\00\00\00\C4\00\00\00\05\00\00\00" }>, align 8
@alloc_de7fbc27e8c2b1bc792382c84a88b2f8 = private unnamed_addr constant <{ ptr, [16 x i8] }> <{ ptr @alloc_f5ffd2fd1476bab43ad89fb40c72d0c5, [16 x i8] c"\0A\00\00\00\00\00\00\00\C5\00\00\00\18\00\00\00" }>, align 8
@alloc_2220bf3e825dcf5e8b10475ddeec841c = private unnamed_addr constant <{ ptr, [16 x i8] }> <{ ptr @alloc_f5ffd2fd1476bab43ad89fb40c72d0c5, [16 x i8] c"\0A\00\00\00\00\00\00\00\C5\00\00\00\05\00\00\00" }>, align 8
@alloc_13fc5aa4894ce47d282f8655111de22b = private unnamed_addr constant <{ ptr, [16 x i8] }> <{ ptr @alloc_f5ffd2fd1476bab43ad89fb40c72d0c5, [16 x i8] c"\0A\00\00\00\00\00\00\00\C1\00\00\00\13\00\00\00" }>, align 8
@alloc_ba76a924a157cf0aec3264eefcb08eee = private unnamed_addr constant <{ ptr, [16 x i8] }> <{ ptr @alloc_f5ffd2fd1476bab43ad89fb40c72d0c5, [16 x i8] c"\0A\00\00\00\00\00\00\00\CA\00\00\00\08\00\00\00" }>, align 8
@alloc_bbfb6625f8ab318ece997118cb7a8a0f = private unnamed_addr constant <{ ptr, [16 x i8] }> <{ ptr @alloc_f5ffd2fd1476bab43ad89fb40c72d0c5, [16 x i8] c"\0A\00\00\00\00\00\00\00\D1\00\00\00\22\00\00\00" }>, align 8
@alloc_a7e383493ccde870363ccfee916ae1da = private unnamed_addr constant <{ ptr, [16 x i8] }> <{ ptr @alloc_f5ffd2fd1476bab43ad89fb40c72d0c5, [16 x i8] c"\0A\00\00\00\00\00\00\00\D8\00\00\00\13\00\00\00" }>, align 8
@alloc_5388c769c3760e27b250a2c6827d2d32 = private unnamed_addr constant <{ ptr, [16 x i8] }> <{ ptr @alloc_f5ffd2fd1476bab43ad89fb40c72d0c5, [16 x i8] c"\0A\00\00\00\00\00\00\00\D9\00\00\00\0E\00\00\00" }>, align 8
@alloc_48baa7ececea38e1d199739ab1930fde = private unnamed_addr constant <{ ptr, [16 x i8] }> <{ ptr @alloc_f5ffd2fd1476bab43ad89fb40c72d0c5, [16 x i8] c"\0A\00\00\00\00\00\00\00\D9\00\00\00!\00\00\00" }>, align 8
@alloc_b62b0b346d31c31a080ca9aac96351fb = private unnamed_addr constant [31 x i8] c"Position (%d) does not exist!\0A\00", align 1
@alloc_9b6728cc7ecd85e3b33804d7e66aac7e = private unnamed_addr constant <{ ptr, [16 x i8] }> <{ ptr @alloc_f5ffd2fd1476bab43ad89fb40c72d0c5, [16 x i8] c"\0A\00\00\00\00\00\00\00\DE\00\00\00\17\00\00\00" }>, align 8
@alloc_74cb72d65ed30245a0cc3dae50006405 = private unnamed_addr constant <{ ptr, [16 x i8] }> <{ ptr @alloc_f5ffd2fd1476bab43ad89fb40c72d0c5, [16 x i8] c"\0A\00\00\00\00\00\00\00\E2\00\00\00\18\00\00\00" }>, align 8
@alloc_d9d817104817e5e98d0a7a1cc71f15a0 = private unnamed_addr constant <{ ptr, [16 x i8] }> <{ ptr @alloc_f5ffd2fd1476bab43ad89fb40c72d0c5, [16 x i8] c"\0A\00\00\00\00\00\00\00\E2\00\00\00\09\00\00\00" }>, align 8
@alloc_f9aa1dc2f16d91743895f6c95f2d1353 = private unnamed_addr constant <{ ptr, [16 x i8] }> <{ ptr @alloc_f5ffd2fd1476bab43ad89fb40c72d0c5, [16 x i8] c"\0A\00\00\00\00\00\00\00\E3\00\00\00\09\00\00\00" }>, align 8
@alloc_531ab79e86bd92dc5d9b5b9612c19bc1 = private unnamed_addr constant [22 x i8] c"FORWARD order print:\0A\00", align 1
@alloc_08532cf19473de36071eda972a5a789a = private unnamed_addr constant [22 x i8] c"REVERSE order print:\0A\00", align 1
@alloc_82a212cd166eab6460b52ae6b0d46b55 = private unnamed_addr constant <{ ptr, [16 x i8] }> <{ ptr @alloc_f5ffd2fd1476bab43ad89fb40c72d0c5, [16 x i8] c"\0A\00\00\00\00\00\00\00\F5\00\00\00\08\00\00\00" }>, align 8
@alloc_ec2c7a32c4d9fbacc6d5997bd065e78e = private unnamed_addr constant <{ ptr, [16 x i8] }> <{ ptr @alloc_f5ffd2fd1476bab43ad89fb40c72d0c5, [16 x i8] c"\0A\00\00\00\00\00\00\00\F8\00\00\00\22\00\00\00" }>, align 8
@alloc_b929c71616281bfd1be2bd4038d3ddf1 = private unnamed_addr constant [4 x i8] c"%d \00", align 1
@alloc_38c992e3f9834b992144140c452a82d4 = private unnamed_addr constant <{ ptr, [16 x i8] }> <{ ptr @alloc_f5ffd2fd1476bab43ad89fb40c72d0c5, [16 x i8] c"\0A\00\00\00\00\00\00\00\FA\00\00\00>\00\00\00" }>, align 8
@alloc_bd57fe0e8b0349105e86d536dca2dc6d = private unnamed_addr constant <{ ptr, [16 x i8] }> <{ ptr @alloc_f5ffd2fd1476bab43ad89fb40c72d0c5, [16 x i8] c"\0A\00\00\00\00\00\00\00\FB\00\00\00\13\00\00\00" }>, align 8
@alloc_75d67612afcfeea0114e437681f952f0 = private unnamed_addr constant <{ ptr, [16 x i8] }> <{ ptr @alloc_f5ffd2fd1476bab43ad89fb40c72d0c5, [16 x i8] c"\0A\00\00\00\00\00\00\00\FC\00\00\00\19\00\00\00" }>, align 8
@alloc_de0e21f5e8cca6812e598f2feea3cc12 = private unnamed_addr constant [18 x i8] c"\0AList Length: %d\0A\00", align 1
@alloc_d788d3620b517ebe058162c2bc802344 = private unnamed_addr constant <{ ptr, [16 x i8] }> <{ ptr @alloc_f5ffd2fd1476bab43ad89fb40c72d0c5, [16 x i8] c"\0A\00\00\00\00\00\00\00\07\01\00\00\08\00\00\00" }>, align 8
@alloc_c73c5d20882ff1365f55db55eb33f9ee = private unnamed_addr constant <{ ptr, [16 x i8] }> <{ ptr @alloc_f5ffd2fd1476bab43ad89fb40c72d0c5, [16 x i8] c"\0A\00\00\00\00\00\00\00\0A\01\00\00\22\00\00\00" }>, align 8
@alloc_f06c01163e4f55e4ca9ca54955b0c1f1 = private unnamed_addr constant <{ ptr, [16 x i8] }> <{ ptr @alloc_f5ffd2fd1476bab43ad89fb40c72d0c5, [16 x i8] c"\0A\00\00\00\00\00\00\00\0C\01\00\00>\00\00\00" }>, align 8
@alloc_262207e94bcd3a4be51c0792329b59a5 = private unnamed_addr constant <{ ptr, [16 x i8] }> <{ ptr @alloc_f5ffd2fd1476bab43ad89fb40c72d0c5, [16 x i8] c"\0A\00\00\00\00\00\00\00\0D\01\00\00\13\00\00\00" }>, align 8
@alloc_6d787abcee2d568452a17d8d84b711c0 = private unnamed_addr constant <{ ptr, [16 x i8] }> <{ ptr @alloc_f5ffd2fd1476bab43ad89fb40c72d0c5, [16 x i8] c"\0A\00\00\00\00\00\00\00\0E\01\00\00\19\00\00\00" }>, align 8
@alloc_f3588b28b94f0809fcc8d717033d3e48 = private unnamed_addr constant [2 x i8] c"\0A\00", align 1
@alloc_3b60be5cdcf657c2bcea70624bf75fe7 = private unnamed_addr constant <{ ptr, [16 x i8] }> <{ ptr @alloc_f5ffd2fd1476bab43ad89fb40c72d0c5, [16 x i8] c"\0A\00\00\00\00\00\00\00\1A\01\00\00\08\00\00\00" }>, align 8
@alloc_eeb27bb533a028ab4691f3df73df7c94 = private unnamed_addr constant <{ ptr, [16 x i8] }> <{ ptr @alloc_f5ffd2fd1476bab43ad89fb40c72d0c5, [16 x i8] c"\0A\00\00\00\00\00\00\00\1E\01\00\00\22\00\00\00" }>, align 8
@alloc_fb275da98637fce18a31e24c4d83c050 = private unnamed_addr constant <{ ptr, [16 x i8] }> <{ ptr @alloc_f5ffd2fd1476bab43ad89fb40c72d0c5, [16 x i8] c"\0A\00\00\00\00\00\00\00\22\01\00\00\13\00\00\00" }>, align 8
@alloc_b58348d1999f591ca6cce161ff3ac674 = private unnamed_addr constant <{ ptr, [16 x i8] }> <{ ptr @alloc_f5ffd2fd1476bab43ad89fb40c72d0c5, [16 x i8] c"\0A\00\00\00\00\00\00\00#\01\00\00\19\00\00\00" }>, align 8

; core::ptr::mut_ptr::<impl *mut T>::is_null
; Function Attrs: inlinehint nounwind nonlazybind
define internal zeroext i1 @"_ZN4core3ptr7mut_ptr31_$LT$impl$u20$$BP$mut$u20$T$GT$7is_null17h14ddcb72bb02f7c1E"(ptr %self) unnamed_addr #0 {
start:
  %_3 = ptrtoint ptr %self to i64
  %_0 = icmp eq i64 %_3, 0
  ret i1 %_0
}

; Function Attrs: nounwind nonlazybind
define void @insert_at_head(i32 %number) unnamed_addr #1 {
start:
  %_3 = call ptr @malloc(i64 24) #3
  %_93 = ptrtoint ptr %_3 to i64
  %_96 = and i64 %_93, 7
  %_97 = icmp eq i64 %_96, 0
  br i1 %_97, label %bb19, label %panic

bb19:                                             ; preds = %start
  %_99 = ptrtoint ptr %_3 to i64
  %_102 = icmp eq i64 %_99, 0
  %_103 = and i1 %_102, true
  %_104 = xor i1 %_103, true
  br i1 %_104, label %bb20, label %panic1

panic:                                            ; preds = %start
; call core::panicking::panic_misaligned_pointer_dereference
  call void @_ZN4core9panicking36panic_misaligned_pointer_dereference17hcc3cbded9382b6e5E(i64 8, i64 %_93, ptr align 8 @alloc_450171e86de59dbae00fbb1e9c5a45bc) #4
  unreachable

bb20:                                             ; preds = %bb19
  store i32 %number, ptr %_3, align 8
  %_87 = ptrtoint ptr %_3 to i64
  %_90 = and i64 %_87, 7
  %_91 = icmp eq i64 %_90, 0
  br i1 %_91, label %bb18, label %panic2

panic1:                                           ; preds = %bb19
; call core::panicking::panic_null_pointer_dereference
  call void @_ZN4core9panicking30panic_null_pointer_dereference17hf718fcc86a223baaE(ptr align 8 @alloc_450171e86de59dbae00fbb1e9c5a45bc) #4
  unreachable

bb18:                                             ; preds = %bb20
  %_106 = ptrtoint ptr %_3 to i64
  %_109 = icmp eq i64 %_106, 0
  %_110 = and i1 %_109, true
  %_111 = xor i1 %_110, true
  br i1 %_111, label %bb21, label %panic3

panic2:                                           ; preds = %bb20
; call core::panicking::panic_misaligned_pointer_dereference
  call void @_ZN4core9panicking36panic_misaligned_pointer_dereference17hcc3cbded9382b6e5E(i64 8, i64 %_87, ptr align 8 @alloc_ed842d3a2a3e93c7ae0fc91ef014b45f) #4
  unreachable

bb21:                                             ; preds = %bb18
  %0 = getelementptr inbounds i8, ptr %_3, i64 8
  store ptr %_3, ptr %0, align 8
  %_81 = ptrtoint ptr %_3 to i64
  %_84 = and i64 %_81, 7
  %_85 = icmp eq i64 %_84, 0
  br i1 %_85, label %bb17, label %panic4

panic3:                                           ; preds = %bb18
; call core::panicking::panic_null_pointer_dereference
  call void @_ZN4core9panicking30panic_null_pointer_dereference17hf718fcc86a223baaE(ptr align 8 @alloc_ed842d3a2a3e93c7ae0fc91ef014b45f) #4
  unreachable

bb17:                                             ; preds = %bb21
  %_113 = ptrtoint ptr %_3 to i64
  %_116 = icmp eq i64 %_113, 0
  %_117 = and i1 %_116, true
  %_118 = xor i1 %_117, true
  br i1 %_118, label %bb22, label %panic5

panic4:                                           ; preds = %bb21
; call core::panicking::panic_misaligned_pointer_dereference
  call void @_ZN4core9panicking36panic_misaligned_pointer_dereference17hcc3cbded9382b6e5E(i64 8, i64 %_81, ptr align 8 @alloc_0f71aacfd249cf47639d68c1334ec744) #4
  unreachable

bb22:                                             ; preds = %bb17
  %1 = getelementptr inbounds i8, ptr %_3, i64 16
  store ptr %_3, ptr %1, align 8
  %_123 = icmp eq i64 ptrtoint (ptr @head to i64), 0
  %_124 = and i1 %_123, true
  %_125 = xor i1 %_124, true
  br i1 %_125, label %bb23, label %panic6

panic5:                                           ; preds = %bb17
; call core::panicking::panic_null_pointer_dereference
  call void @_ZN4core9panicking30panic_null_pointer_dereference17hf718fcc86a223baaE(ptr align 8 @alloc_0f71aacfd249cf47639d68c1334ec744) #4
  unreachable

bb23:                                             ; preds = %bb22
  %_7 = load ptr, ptr @head, align 8
; call core::ptr::mut_ptr::<impl *mut T>::is_null
  %_6 = call zeroext i1 @"_ZN4core3ptr7mut_ptr31_$LT$impl$u20$$BP$mut$u20$T$GT$7is_null17h14ddcb72bb02f7c1E"(ptr %_7) #3
  br i1 %_6, label %bb4, label %bb5

panic6:                                           ; preds = %bb22
; call core::panicking::panic_null_pointer_dereference
  call void @_ZN4core9panicking30panic_null_pointer_dereference17hf718fcc86a223baaE(ptr align 8 @alloc_6548fd5edd167dc358ac7e2d3ae81c19) #4
  unreachable

bb5:                                              ; preds = %bb23
  %_144 = icmp eq i64 ptrtoint (ptr @head to i64), 0
  %_145 = and i1 %_144, true
  %_146 = xor i1 %_145, true
  br i1 %_146, label %bb26, label %panic7

bb4:                                              ; preds = %bb23
  %_130 = icmp eq i64 ptrtoint (ptr @head to i64), 0
  %_131 = and i1 %_130, true
  %_132 = xor i1 %_131, true
  br i1 %_132, label %bb24, label %panic18

bb26:                                             ; preds = %bb5
  %_11 = load ptr, ptr @head, align 8
  %_51 = ptrtoint ptr %_3 to i64
  %_54 = and i64 %_51, 7
  %_55 = icmp eq i64 %_54, 0
  br i1 %_55, label %bb12, label %panic8

panic7:                                           ; preds = %bb5
; call core::panicking::panic_null_pointer_dereference
  call void @_ZN4core9panicking30panic_null_pointer_dereference17hf718fcc86a223baaE(ptr align 8 @alloc_f96ffe5e0e78ab6ae4127bc4a43d3d72) #4
  unreachable

bb12:                                             ; preds = %bb26
  %_148 = ptrtoint ptr %_3 to i64
  %_151 = icmp eq i64 %_148, 0
  %_152 = and i1 %_151, true
  %_153 = xor i1 %_152, true
  br i1 %_153, label %bb27, label %panic9

panic8:                                           ; preds = %bb26
; call core::panicking::panic_misaligned_pointer_dereference
  call void @_ZN4core9panicking36panic_misaligned_pointer_dereference17hcc3cbded9382b6e5E(i64 8, i64 %_51, ptr align 8 @alloc_f60bb59bae9fdbf37b53969edd55058a) #4
  unreachable

bb27:                                             ; preds = %bb12
  %2 = getelementptr inbounds i8, ptr %_3, i64 8
  store ptr %_11, ptr %2, align 8
  %_158 = icmp eq i64 ptrtoint (ptr @tail to i64), 0
  %_159 = and i1 %_158, true
  %_160 = xor i1 %_159, true
  br i1 %_160, label %bb28, label %panic10

panic9:                                           ; preds = %bb12
; call core::panicking::panic_null_pointer_dereference
  call void @_ZN4core9panicking30panic_null_pointer_dereference17hf718fcc86a223baaE(ptr align 8 @alloc_f60bb59bae9fdbf37b53969edd55058a) #4
  unreachable

bb28:                                             ; preds = %bb27
  %_13 = load ptr, ptr @tail, align 8
  %_39 = ptrtoint ptr %_3 to i64
  %_42 = and i64 %_39, 7
  %_43 = icmp eq i64 %_42, 0
  br i1 %_43, label %bb10, label %panic11

panic10:                                          ; preds = %bb27
; call core::panicking::panic_null_pointer_dereference
  call void @_ZN4core9panicking30panic_null_pointer_dereference17hf718fcc86a223baaE(ptr align 8 @alloc_ee81d6510c6768edeba642981490817f) #4
  unreachable

bb10:                                             ; preds = %bb28
  %_162 = ptrtoint ptr %_3 to i64
  %_165 = icmp eq i64 %_162, 0
  %_166 = and i1 %_165, true
  %_167 = xor i1 %_166, true
  br i1 %_167, label %bb29, label %panic12

panic11:                                          ; preds = %bb28
; call core::panicking::panic_misaligned_pointer_dereference
  call void @_ZN4core9panicking36panic_misaligned_pointer_dereference17hcc3cbded9382b6e5E(i64 8, i64 %_39, ptr align 8 @alloc_8aaf0cbe5467e4838b8bc1d98e57daa9) #4
  unreachable

bb29:                                             ; preds = %bb10
  %3 = getelementptr inbounds i8, ptr %_3, i64 16
  store ptr %_13, ptr %3, align 8
  %_18 = load ptr, ptr @head, align 8
  %_33 = ptrtoint ptr %_18 to i64
  %_36 = and i64 %_33, 7
  %_37 = icmp eq i64 %_36, 0
  br i1 %_37, label %bb9, label %panic13

panic12:                                          ; preds = %bb10
; call core::panicking::panic_null_pointer_dereference
  call void @_ZN4core9panicking30panic_null_pointer_dereference17hf718fcc86a223baaE(ptr align 8 @alloc_8aaf0cbe5467e4838b8bc1d98e57daa9) #4
  unreachable

bb9:                                              ; preds = %bb29
  %_169 = ptrtoint ptr %_18 to i64
  %_172 = icmp eq i64 %_169, 0
  %_173 = and i1 %_172, true
  %_174 = xor i1 %_173, true
  br i1 %_174, label %bb30, label %panic14

panic13:                                          ; preds = %bb29
; call core::panicking::panic_misaligned_pointer_dereference
  call void @_ZN4core9panicking36panic_misaligned_pointer_dereference17hcc3cbded9382b6e5E(i64 8, i64 %_33, ptr align 8 @alloc_cc7279f3bbb8e42b3a30909382c83dde) #4
  unreachable

bb30:                                             ; preds = %bb9
  %4 = getelementptr inbounds i8, ptr %_18, i64 16
  store ptr %_3, ptr %4, align 8
  %_19 = load ptr, ptr @tail, align 8
  %_27 = ptrtoint ptr %_19 to i64
  %_30 = and i64 %_27, 7
  %_31 = icmp eq i64 %_30, 0
  br i1 %_31, label %bb8, label %panic15

panic14:                                          ; preds = %bb9
; call core::panicking::panic_null_pointer_dereference
  call void @_ZN4core9panicking30panic_null_pointer_dereference17hf718fcc86a223baaE(ptr align 8 @alloc_cc7279f3bbb8e42b3a30909382c83dde) #4
  unreachable

bb8:                                              ; preds = %bb30
  %_176 = ptrtoint ptr %_19 to i64
  %_179 = icmp eq i64 %_176, 0
  %_180 = and i1 %_179, true
  %_181 = xor i1 %_180, true
  br i1 %_181, label %bb31, label %panic16

panic15:                                          ; preds = %bb30
; call core::panicking::panic_misaligned_pointer_dereference
  call void @_ZN4core9panicking36panic_misaligned_pointer_dereference17hcc3cbded9382b6e5E(i64 8, i64 %_27, ptr align 8 @alloc_35903e2beae833791f15e8c3785889c6) #4
  unreachable

bb31:                                             ; preds = %bb8
  %5 = getelementptr inbounds i8, ptr %_19, i64 8
  store ptr %_3, ptr %5, align 8
  %_186 = icmp eq i64 ptrtoint (ptr @head to i64), 0
  %_187 = and i1 %_186, true
  %_188 = xor i1 %_187, true
  br i1 %_188, label %bb32, label %panic17

panic16:                                          ; preds = %bb8
; call core::panicking::panic_null_pointer_dereference
  call void @_ZN4core9panicking30panic_null_pointer_dereference17hf718fcc86a223baaE(ptr align 8 @alloc_35903e2beae833791f15e8c3785889c6) #4
  unreachable

bb32:                                             ; preds = %bb31
  store ptr %_3, ptr @head, align 8
  br label %bb6

panic17:                                          ; preds = %bb31
; call core::panicking::panic_null_pointer_dereference
  call void @_ZN4core9panicking30panic_null_pointer_dereference17hf718fcc86a223baaE(ptr align 8 @alloc_f2f081886f331dc949da0f4fbdad1cbe) #4
  unreachable

bb6:                                              ; preds = %bb25, %bb32
  ret void

bb24:                                             ; preds = %bb4
  store ptr %_3, ptr @head, align 8
  %_137 = icmp eq i64 ptrtoint (ptr @tail to i64), 0
  %_138 = and i1 %_137, true
  %_139 = xor i1 %_138, true
  br i1 %_139, label %bb25, label %panic19

panic18:                                          ; preds = %bb4
; call core::panicking::panic_null_pointer_dereference
  call void @_ZN4core9panicking30panic_null_pointer_dereference17hf718fcc86a223baaE(ptr align 8 @alloc_adf1c524da88c689910ca147895919eb) #4
  unreachable

bb25:                                             ; preds = %bb24
  store ptr %_3, ptr @tail, align 8
  br label %bb6

panic19:                                          ; preds = %bb24
; call core::panicking::panic_null_pointer_dereference
  call void @_ZN4core9panicking30panic_null_pointer_dereference17hf718fcc86a223baaE(ptr align 8 @alloc_fdc5f6fe634689cdbcb2296e8963e5df) #4
  unreachable
}

; Function Attrs: nounwind nonlazybind
define void @insert_at_tail(i32 %number) unnamed_addr #1 {
start:
  %_3 = call ptr @malloc(i64 24) #3
  %_101 = ptrtoint ptr %_3 to i64
  %_104 = and i64 %_101, 7
  %_105 = icmp eq i64 %_104, 0
  br i1 %_105, label %bb20, label %panic

bb20:                                             ; preds = %start
  %_107 = ptrtoint ptr %_3 to i64
  %_110 = icmp eq i64 %_107, 0
  %_111 = and i1 %_110, true
  %_112 = xor i1 %_111, true
  br i1 %_112, label %bb21, label %panic1

panic:                                            ; preds = %start
; call core::panicking::panic_misaligned_pointer_dereference
  call void @_ZN4core9panicking36panic_misaligned_pointer_dereference17hcc3cbded9382b6e5E(i64 8, i64 %_101, ptr align 8 @alloc_33163a8e673ee25e32a7ea0cadee3b6e) #4
  unreachable

bb21:                                             ; preds = %bb20
  store i32 %number, ptr %_3, align 8
  %_95 = ptrtoint ptr %_3 to i64
  %_98 = and i64 %_95, 7
  %_99 = icmp eq i64 %_98, 0
  br i1 %_99, label %bb19, label %panic2

panic1:                                           ; preds = %bb20
; call core::panicking::panic_null_pointer_dereference
  call void @_ZN4core9panicking30panic_null_pointer_dereference17hf718fcc86a223baaE(ptr align 8 @alloc_33163a8e673ee25e32a7ea0cadee3b6e) #4
  unreachable

bb19:                                             ; preds = %bb21
  %_114 = ptrtoint ptr %_3 to i64
  %_117 = icmp eq i64 %_114, 0
  %_118 = and i1 %_117, true
  %_119 = xor i1 %_118, true
  br i1 %_119, label %bb22, label %panic3

panic2:                                           ; preds = %bb21
; call core::panicking::panic_misaligned_pointer_dereference
  call void @_ZN4core9panicking36panic_misaligned_pointer_dereference17hcc3cbded9382b6e5E(i64 8, i64 %_95, ptr align 8 @alloc_82ebe0b2887610993564a06c073564b8) #4
  unreachable

bb22:                                             ; preds = %bb19
  %0 = getelementptr inbounds i8, ptr %_3, i64 8
  store ptr %_3, ptr %0, align 8
  %_89 = ptrtoint ptr %_3 to i64
  %_92 = and i64 %_89, 7
  %_93 = icmp eq i64 %_92, 0
  br i1 %_93, label %bb18, label %panic4

panic3:                                           ; preds = %bb19
; call core::panicking::panic_null_pointer_dereference
  call void @_ZN4core9panicking30panic_null_pointer_dereference17hf718fcc86a223baaE(ptr align 8 @alloc_82ebe0b2887610993564a06c073564b8) #4
  unreachable

bb18:                                             ; preds = %bb22
  %_121 = ptrtoint ptr %_3 to i64
  %_124 = icmp eq i64 %_121, 0
  %_125 = and i1 %_124, true
  %_126 = xor i1 %_125, true
  br i1 %_126, label %bb23, label %panic5

panic4:                                           ; preds = %bb22
; call core::panicking::panic_misaligned_pointer_dereference
  call void @_ZN4core9panicking36panic_misaligned_pointer_dereference17hcc3cbded9382b6e5E(i64 8, i64 %_89, ptr align 8 @alloc_69d1daf5dfd60dd92e8de43345645869) #4
  unreachable

bb23:                                             ; preds = %bb18
  %1 = getelementptr inbounds i8, ptr %_3, i64 16
  store ptr %_3, ptr %1, align 8
  %_131 = icmp eq i64 ptrtoint (ptr @head to i64), 0
  %_132 = and i1 %_131, true
  %_133 = xor i1 %_132, true
  br i1 %_133, label %bb24, label %panic6

panic5:                                           ; preds = %bb18
; call core::panicking::panic_null_pointer_dereference
  call void @_ZN4core9panicking30panic_null_pointer_dereference17hf718fcc86a223baaE(ptr align 8 @alloc_69d1daf5dfd60dd92e8de43345645869) #4
  unreachable

bb24:                                             ; preds = %bb23
  %_7 = load ptr, ptr @head, align 8
; call core::ptr::mut_ptr::<impl *mut T>::is_null
  %_6 = call zeroext i1 @"_ZN4core3ptr7mut_ptr31_$LT$impl$u20$$BP$mut$u20$T$GT$7is_null17h14ddcb72bb02f7c1E"(ptr %_7) #3
  br i1 %_6, label %bb4, label %bb5

panic6:                                           ; preds = %bb23
; call core::panicking::panic_null_pointer_dereference
  call void @_ZN4core9panicking30panic_null_pointer_dereference17hf718fcc86a223baaE(ptr align 8 @alloc_a883a68596bb157e102413ab605ef1ca) #4
  unreachable

bb5:                                              ; preds = %bb24
  %_20 = load ptr, ptr @tail, align 8
  %_65 = ptrtoint ptr %_20 to i64
  %_68 = and i64 %_65, 7
  %_69 = icmp eq i64 %_68, 0
  br i1 %_69, label %bb14, label %panic7

bb4:                                              ; preds = %bb24
  %_138 = icmp eq i64 ptrtoint (ptr @head to i64), 0
  %_139 = and i1 %_138, true
  %_140 = xor i1 %_139, true
  br i1 %_140, label %bb25, label %panic19

bb14:                                             ; preds = %bb5
  %_149 = ptrtoint ptr %_20 to i64
  %_152 = icmp eq i64 %_149, 0
  %_153 = and i1 %_152, true
  %_154 = xor i1 %_153, true
  br i1 %_154, label %bb27, label %panic8

panic7:                                           ; preds = %bb5
; call core::panicking::panic_misaligned_pointer_dereference
  call void @_ZN4core9panicking36panic_misaligned_pointer_dereference17hcc3cbded9382b6e5E(i64 8, i64 %_65, ptr align 8 @alloc_a36005e6c8643271d28bd8edf2a6f760) #4
  unreachable

bb27:                                             ; preds = %bb14
  %2 = getelementptr inbounds i8, ptr %_20, i64 8
  store ptr %_3, ptr %2, align 8
  %_159 = icmp eq i64 ptrtoint (ptr @head to i64), 0
  %_160 = and i1 %_159, true
  %_161 = xor i1 %_160, true
  br i1 %_161, label %bb28, label %panic9

panic8:                                           ; preds = %bb14
; call core::panicking::panic_null_pointer_dereference
  call void @_ZN4core9panicking30panic_null_pointer_dereference17hf718fcc86a223baaE(ptr align 8 @alloc_a36005e6c8643271d28bd8edf2a6f760) #4
  unreachable

bb28:                                             ; preds = %bb27
  %_12 = load ptr, ptr @head, align 8
  %_53 = ptrtoint ptr %_3 to i64
  %_56 = and i64 %_53, 7
  %_57 = icmp eq i64 %_56, 0
  br i1 %_57, label %bb12, label %panic10

panic9:                                           ; preds = %bb27
; call core::panicking::panic_null_pointer_dereference
  call void @_ZN4core9panicking30panic_null_pointer_dereference17hf718fcc86a223baaE(ptr align 8 @alloc_b6b05efdf379e3d226c1425357c1e8ca) #4
  unreachable

bb12:                                             ; preds = %bb28
  %_163 = ptrtoint ptr %_3 to i64
  %_166 = icmp eq i64 %_163, 0
  %_167 = and i1 %_166, true
  %_168 = xor i1 %_167, true
  br i1 %_168, label %bb29, label %panic11

panic10:                                          ; preds = %bb28
; call core::panicking::panic_misaligned_pointer_dereference
  call void @_ZN4core9panicking36panic_misaligned_pointer_dereference17hcc3cbded9382b6e5E(i64 8, i64 %_53, ptr align 8 @alloc_be7452df8c180fa1736a845b90103292) #4
  unreachable

bb29:                                             ; preds = %bb12
  %3 = getelementptr inbounds i8, ptr %_3, i64 8
  store ptr %_12, ptr %3, align 8
  %_173 = icmp eq i64 ptrtoint (ptr @tail to i64), 0
  %_174 = and i1 %_173, true
  %_175 = xor i1 %_174, true
  br i1 %_175, label %bb30, label %panic12

panic11:                                          ; preds = %bb12
; call core::panicking::panic_null_pointer_dereference
  call void @_ZN4core9panicking30panic_null_pointer_dereference17hf718fcc86a223baaE(ptr align 8 @alloc_be7452df8c180fa1736a845b90103292) #4
  unreachable

bb30:                                             ; preds = %bb29
  %_14 = load ptr, ptr @tail, align 8
  %_41 = ptrtoint ptr %_3 to i64
  %_44 = and i64 %_41, 7
  %_45 = icmp eq i64 %_44, 0
  br i1 %_45, label %bb10, label %panic13

panic12:                                          ; preds = %bb29
; call core::panicking::panic_null_pointer_dereference
  call void @_ZN4core9panicking30panic_null_pointer_dereference17hf718fcc86a223baaE(ptr align 8 @alloc_a86b2a11f4dfe1a4992b7c8c26814959) #4
  unreachable

bb10:                                             ; preds = %bb30
  %_177 = ptrtoint ptr %_3 to i64
  %_180 = icmp eq i64 %_177, 0
  %_181 = and i1 %_180, true
  %_182 = xor i1 %_181, true
  br i1 %_182, label %bb31, label %panic14

panic13:                                          ; preds = %bb30
; call core::panicking::panic_misaligned_pointer_dereference
  call void @_ZN4core9panicking36panic_misaligned_pointer_dereference17hcc3cbded9382b6e5E(i64 8, i64 %_41, ptr align 8 @alloc_c91a969fee8b35d49ac947e0e6685f66) #4
  unreachable

bb31:                                             ; preds = %bb10
  %4 = getelementptr inbounds i8, ptr %_3, i64 16
  store ptr %_14, ptr %4, align 8
  %_187 = icmp eq i64 ptrtoint (ptr @tail to i64), 0
  %_188 = and i1 %_187, true
  %_189 = xor i1 %_188, true
  br i1 %_189, label %bb32, label %panic15

panic14:                                          ; preds = %bb10
; call core::panicking::panic_null_pointer_dereference
  call void @_ZN4core9panicking30panic_null_pointer_dereference17hf718fcc86a223baaE(ptr align 8 @alloc_c91a969fee8b35d49ac947e0e6685f66) #4
  unreachable

bb32:                                             ; preds = %bb31
  store ptr %_3, ptr @tail, align 8
  %_194 = icmp eq i64 ptrtoint (ptr @tail to i64), 0
  %_195 = and i1 %_194, true
  %_196 = xor i1 %_195, true
  br i1 %_196, label %bb33, label %panic16

panic15:                                          ; preds = %bb31
; call core::panicking::panic_null_pointer_dereference
  call void @_ZN4core9panicking30panic_null_pointer_dereference17hf718fcc86a223baaE(ptr align 8 @alloc_89961032cc8c4a7dcdb0a48b5861b468) #4
  unreachable

bb33:                                             ; preds = %bb32
  %_17 = load ptr, ptr @tail, align 8
  %_21 = load ptr, ptr @head, align 8
  %_23 = ptrtoint ptr %_21 to i64
  %_26 = and i64 %_23, 7
  %_27 = icmp eq i64 %_26, 0
  br i1 %_27, label %bb7, label %panic17

panic16:                                          ; preds = %bb32
; call core::panicking::panic_null_pointer_dereference
  call void @_ZN4core9panicking30panic_null_pointer_dereference17hf718fcc86a223baaE(ptr align 8 @alloc_ba992de63af5cd43b3dd1f237651ae62) #4
  unreachable

bb7:                                              ; preds = %bb33
  %_198 = ptrtoint ptr %_21 to i64
  %_201 = icmp eq i64 %_198, 0
  %_202 = and i1 %_201, true
  %_203 = xor i1 %_202, true
  br i1 %_203, label %bb34, label %panic18

panic17:                                          ; preds = %bb33
; call core::panicking::panic_misaligned_pointer_dereference
  call void @_ZN4core9panicking36panic_misaligned_pointer_dereference17hcc3cbded9382b6e5E(i64 8, i64 %_23, ptr align 8 @alloc_3aefe61f9c9227222ff0845684ee9c96) #4
  unreachable

bb34:                                             ; preds = %bb7
  %5 = getelementptr inbounds i8, ptr %_21, i64 16
  store ptr %_17, ptr %5, align 8
  br label %bb6

panic18:                                          ; preds = %bb7
; call core::panicking::panic_null_pointer_dereference
  call void @_ZN4core9panicking30panic_null_pointer_dereference17hf718fcc86a223baaE(ptr align 8 @alloc_3aefe61f9c9227222ff0845684ee9c96) #4
  unreachable

bb6:                                              ; preds = %bb26, %bb34
  ret void

bb25:                                             ; preds = %bb4
  store ptr %_3, ptr @head, align 8
  %_145 = icmp eq i64 ptrtoint (ptr @tail to i64), 0
  %_146 = and i1 %_145, true
  %_147 = xor i1 %_146, true
  br i1 %_147, label %bb26, label %panic20

panic19:                                          ; preds = %bb4
; call core::panicking::panic_null_pointer_dereference
  call void @_ZN4core9panicking30panic_null_pointer_dereference17hf718fcc86a223baaE(ptr align 8 @alloc_faa77273d412a3370397282c48abd832) #4
  unreachable

bb26:                                             ; preds = %bb25
  store ptr %_3, ptr @tail, align 8
  br label %bb6

panic20:                                          ; preds = %bb25
; call core::panicking::panic_null_pointer_dereference
  call void @_ZN4core9panicking30panic_null_pointer_dereference17hf718fcc86a223baaE(ptr align 8 @alloc_6315b79dba6f789e11adb693d3b81db7) #4
  unreachable
}

; Function Attrs: nounwind nonlazybind
define void @insert_at_middle(i32 %number, i32 %position) unnamed_addr #1 {
start:
  %count = alloca [4 x i8], align 4
  %temp = alloca [8 x i8], align 8
  %current = alloca [8 x i8], align 8
  %0 = icmp eq i32 %position, 1
  br i1 %0, label %bb1, label %bb2

bb1:                                              ; preds = %start
  call void @insert_at_head(i32 %number) #3
  br label %bb17

bb2:                                              ; preds = %start
  %_4 = icmp sgt i32 %position, 1
  br i1 %_4, label %bb3, label %bb16

bb17:                                             ; preds = %bb16, %bb12, %bb39, %bb1
  ret void

bb16:                                             ; preds = %bb10, %bb29, %bb2
  %_38 = call i32 (ptr, ...) @printf(ptr @alloc_a5da04c27b3cdb26543d2fd3b65cc73f) #3
  br label %bb17

bb3:                                              ; preds = %bb2
  %_113 = icmp eq i64 ptrtoint (ptr @head to i64), 0
  %_114 = and i1 %_113, true
  %_115 = xor i1 %_114, true
  br i1 %_115, label %bb29, label %panic

bb29:                                             ; preds = %bb3
  %_6 = load ptr, ptr @head, align 8
; call core::ptr::mut_ptr::<impl *mut T>::is_null
  %_5 = call zeroext i1 @"_ZN4core3ptr7mut_ptr31_$LT$impl$u20$$BP$mut$u20$T$GT$7is_null17h14ddcb72bb02f7c1E"(ptr %_6) #3
  br i1 %_5, label %bb16, label %bb5

panic:                                            ; preds = %bb3
; call core::panicking::panic_null_pointer_dereference
  call void @_ZN4core9panicking30panic_null_pointer_dereference17hf718fcc86a223baaE(ptr align 8 @alloc_d21f69c11108631f60cd143fb78821ba) #4
  unreachable

bb5:                                              ; preds = %bb29
  %_120 = icmp eq i64 ptrtoint (ptr @head to i64), 0
  %_121 = and i1 %_120, true
  %_122 = xor i1 %_121, true
  br i1 %_122, label %bb30, label %panic1

bb30:                                             ; preds = %bb5
  %1 = load ptr, ptr @head, align 8
  store ptr %1, ptr %current, align 8
  %_11 = call ptr @malloc(i64 24) #3
  store ptr %_11, ptr %temp, align 8
  store i32 0, ptr %count, align 4
  br label %bb8

panic1:                                           ; preds = %bb5
; call core::panicking::panic_null_pointer_dereference
  call void @_ZN4core9panicking30panic_null_pointer_dereference17hf718fcc86a223baaE(ptr align 8 @alloc_bb619a9c7b728d947048be801e7ea3ce) #4
  unreachable

bb8:                                              ; preds = %bb9, %bb30
  %2 = load i32, ptr %count, align 4
  %3 = add i32 %2, 1
  store i32 %3, ptr %count, align 4
  %_15 = load ptr, ptr %current, align 8
  store ptr %_15, ptr %temp, align 8
  %_91 = load ptr, ptr %current, align 8
  %_92 = ptrtoint ptr %_91 to i64
  %_95 = and i64 %_92, 7
  %_96 = icmp eq i64 %_95, 0
  br i1 %_96, label %bb26, label %panic2

bb26:                                             ; preds = %bb8
  %_123 = load ptr, ptr %current, align 8
  %_124 = ptrtoint ptr %_123 to i64
  %_127 = icmp eq i64 %_124, 0
  %_128 = and i1 %_127, true
  %_129 = xor i1 %_128, true
  br i1 %_129, label %bb31, label %panic3

panic2:                                           ; preds = %bb8
; call core::panicking::panic_misaligned_pointer_dereference
  call void @_ZN4core9panicking36panic_misaligned_pointer_dereference17hcc3cbded9382b6e5E(i64 8, i64 %_92, ptr align 8 @alloc_a0a20824664c1531f05b248e12c758f2) #4
  unreachable

bb31:                                             ; preds = %bb26
  %4 = load ptr, ptr %current, align 8
  %5 = getelementptr inbounds i8, ptr %4, i64 8
  %_16 = load ptr, ptr %5, align 8
  store ptr %_16, ptr %current, align 8
  %_85 = load ptr, ptr %current, align 8
  %_86 = ptrtoint ptr %_85 to i64
  %_89 = and i64 %_86, 7
  %_90 = icmp eq i64 %_89, 0
  br i1 %_90, label %bb25, label %panic4

panic3:                                           ; preds = %bb26
; call core::panicking::panic_null_pointer_dereference
  call void @_ZN4core9panicking30panic_null_pointer_dereference17hf718fcc86a223baaE(ptr align 8 @alloc_a0a20824664c1531f05b248e12c758f2) #4
  unreachable

bb25:                                             ; preds = %bb31
  %_130 = load ptr, ptr %current, align 8
  %_131 = ptrtoint ptr %_130 to i64
  %_134 = icmp eq i64 %_131, 0
  %_135 = and i1 %_134, true
  %_136 = xor i1 %_135, true
  br i1 %_136, label %bb32, label %panic5

panic4:                                           ; preds = %bb31
; call core::panicking::panic_misaligned_pointer_dereference
  call void @_ZN4core9panicking36panic_misaligned_pointer_dereference17hcc3cbded9382b6e5E(i64 8, i64 %_86, ptr align 8 @alloc_cf352b42dc381e6c757143e5619b4a40) #4
  unreachable

bb32:                                             ; preds = %bb25
  %6 = load ptr, ptr %current, align 8
  %7 = getelementptr inbounds i8, ptr %6, i64 8
  %_18 = load ptr, ptr %7, align 8
  %_141 = icmp eq i64 ptrtoint (ptr @head to i64), 0
  %_142 = and i1 %_141, true
  %_143 = xor i1 %_142, true
  br i1 %_143, label %bb33, label %panic6

panic5:                                           ; preds = %bb25
; call core::panicking::panic_null_pointer_dereference
  call void @_ZN4core9panicking30panic_null_pointer_dereference17hf718fcc86a223baaE(ptr align 8 @alloc_cf352b42dc381e6c757143e5619b4a40) #4
  unreachable

bb33:                                             ; preds = %bb32
  %_19 = load ptr, ptr @head, align 8
  %_17 = icmp ne ptr %_18, %_19
  br i1 %_17, label %bb9, label %bb10

panic6:                                           ; preds = %bb32
; call core::panicking::panic_null_pointer_dereference
  call void @_ZN4core9panicking30panic_null_pointer_dereference17hf718fcc86a223baaE(ptr align 8 @alloc_b1fb624e6ba780a4f92528284607fbb6) #4
  unreachable

bb10:                                             ; preds = %bb9, %bb33
  %_25 = load i32, ptr %count, align 4
  %_26 = sub i32 %position, 1
  %_24 = icmp eq i32 %_25, %_26
  br i1 %_24, label %bb11, label %bb16

bb9:                                              ; preds = %bb33
  %_22 = load i32, ptr %count, align 4
  %_23 = sub i32 %position, 1
  %_21 = icmp slt i32 %_22, %_23
  br i1 %_21, label %bb8, label %bb10

bb11:                                             ; preds = %bb10
  %_28 = load ptr, ptr %temp, align 8
  %_148 = icmp eq i64 ptrtoint (ptr @tail to i64), 0
  %_149 = and i1 %_148, true
  %_150 = xor i1 %_149, true
  br i1 %_150, label %bb34, label %panic7

bb34:                                             ; preds = %bb11
  %_29 = load ptr, ptr @tail, align 8
  %_27 = icmp eq ptr %_28, %_29
  br i1 %_27, label %bb12, label %bb13

panic7:                                           ; preds = %bb11
; call core::panicking::panic_null_pointer_dereference
  call void @_ZN4core9panicking30panic_null_pointer_dereference17hf718fcc86a223baaE(ptr align 8 @alloc_a90f35b7b4b4f216cf27a4e7b6d989f3) #4
  unreachable

bb13:                                             ; preds = %bb34
  %_33 = call ptr @malloc(i64 24) #3
  %_68 = ptrtoint ptr %_33 to i64
  %_71 = and i64 %_68, 7
  %_72 = icmp eq i64 %_71, 0
  br i1 %_72, label %bb22, label %panic8

bb12:                                             ; preds = %bb34
  call void @insert_at_tail(i32 %number) #3
  br label %bb17

bb22:                                             ; preds = %bb13
  %_152 = ptrtoint ptr %_33 to i64
  %_155 = icmp eq i64 %_152, 0
  %_156 = and i1 %_155, true
  %_157 = xor i1 %_156, true
  br i1 %_157, label %bb35, label %panic9

panic8:                                           ; preds = %bb13
; call core::panicking::panic_misaligned_pointer_dereference
  call void @_ZN4core9panicking36panic_misaligned_pointer_dereference17hcc3cbded9382b6e5E(i64 8, i64 %_68, ptr align 8 @alloc_355951375ed3ecab77da4ec7761081a3) #4
  unreachable

bb35:                                             ; preds = %bb22
  store i32 %number, ptr %_33, align 8
  %_61 = load ptr, ptr %temp, align 8
  %_62 = ptrtoint ptr %_61 to i64
  %_65 = and i64 %_62, 7
  %_66 = icmp eq i64 %_65, 0
  br i1 %_66, label %bb21, label %panic10

panic9:                                           ; preds = %bb22
; call core::panicking::panic_null_pointer_dereference
  call void @_ZN4core9panicking30panic_null_pointer_dereference17hf718fcc86a223baaE(ptr align 8 @alloc_355951375ed3ecab77da4ec7761081a3) #4
  unreachable

bb21:                                             ; preds = %bb35
  %_158 = load ptr, ptr %temp, align 8
  %_159 = ptrtoint ptr %_158 to i64
  %_162 = icmp eq i64 %_159, 0
  %_163 = and i1 %_162, true
  %_164 = xor i1 %_163, true
  br i1 %_164, label %bb36, label %panic11

panic10:                                          ; preds = %bb35
; call core::panicking::panic_misaligned_pointer_dereference
  call void @_ZN4core9panicking36panic_misaligned_pointer_dereference17hcc3cbded9382b6e5E(i64 8, i64 %_62, ptr align 8 @alloc_b4de1deadbc7394533c305a1e46a67e2) #4
  unreachable

bb36:                                             ; preds = %bb21
  %8 = load ptr, ptr %temp, align 8
  %9 = getelementptr inbounds i8, ptr %8, i64 8
  store ptr %_33, ptr %9, align 8
  %_36 = load ptr, ptr %current, align 8
  %_56 = ptrtoint ptr %_33 to i64
  %_59 = and i64 %_56, 7
  %_60 = icmp eq i64 %_59, 0
  br i1 %_60, label %bb20, label %panic12

panic11:                                          ; preds = %bb21
; call core::panicking::panic_null_pointer_dereference
  call void @_ZN4core9panicking30panic_null_pointer_dereference17hf718fcc86a223baaE(ptr align 8 @alloc_b4de1deadbc7394533c305a1e46a67e2) #4
  unreachable

bb20:                                             ; preds = %bb36
  %_166 = ptrtoint ptr %_33 to i64
  %_169 = icmp eq i64 %_166, 0
  %_170 = and i1 %_169, true
  %_171 = xor i1 %_170, true
  br i1 %_171, label %bb37, label %panic13

panic12:                                          ; preds = %bb36
; call core::panicking::panic_misaligned_pointer_dereference
  call void @_ZN4core9panicking36panic_misaligned_pointer_dereference17hcc3cbded9382b6e5E(i64 8, i64 %_56, ptr align 8 @alloc_65c030de5a93a5087ce4e26a720a77ea) #4
  unreachable

bb37:                                             ; preds = %bb20
  %10 = getelementptr inbounds i8, ptr %_33, i64 8
  store ptr %_36, ptr %10, align 8
  %_37 = load ptr, ptr %temp, align 8
  %_50 = ptrtoint ptr %_33 to i64
  %_53 = and i64 %_50, 7
  %_54 = icmp eq i64 %_53, 0
  br i1 %_54, label %bb19, label %panic14

panic13:                                          ; preds = %bb20
; call core::panicking::panic_null_pointer_dereference
  call void @_ZN4core9panicking30panic_null_pointer_dereference17hf718fcc86a223baaE(ptr align 8 @alloc_65c030de5a93a5087ce4e26a720a77ea) #4
  unreachable

bb19:                                             ; preds = %bb37
  %_173 = ptrtoint ptr %_33 to i64
  %_176 = icmp eq i64 %_173, 0
  %_177 = and i1 %_176, true
  %_178 = xor i1 %_177, true
  br i1 %_178, label %bb38, label %panic15

panic14:                                          ; preds = %bb37
; call core::panicking::panic_misaligned_pointer_dereference
  call void @_ZN4core9panicking36panic_misaligned_pointer_dereference17hcc3cbded9382b6e5E(i64 8, i64 %_50, ptr align 8 @alloc_9d47ec4948a652aba595c7719557a627) #4
  unreachable

bb38:                                             ; preds = %bb19
  %11 = getelementptr inbounds i8, ptr %_33, i64 16
  store ptr %_37, ptr %11, align 8
  %_43 = load ptr, ptr %current, align 8
  %_44 = ptrtoint ptr %_43 to i64
  %_47 = and i64 %_44, 7
  %_48 = icmp eq i64 %_47, 0
  br i1 %_48, label %bb18, label %panic16

panic15:                                          ; preds = %bb19
; call core::panicking::panic_null_pointer_dereference
  call void @_ZN4core9panicking30panic_null_pointer_dereference17hf718fcc86a223baaE(ptr align 8 @alloc_9d47ec4948a652aba595c7719557a627) #4
  unreachable

bb18:                                             ; preds = %bb38
  %_179 = load ptr, ptr %current, align 8
  %_180 = ptrtoint ptr %_179 to i64
  %_183 = icmp eq i64 %_180, 0
  %_184 = and i1 %_183, true
  %_185 = xor i1 %_184, true
  br i1 %_185, label %bb39, label %panic17

panic16:                                          ; preds = %bb38
; call core::panicking::panic_misaligned_pointer_dereference
  call void @_ZN4core9panicking36panic_misaligned_pointer_dereference17hcc3cbded9382b6e5E(i64 8, i64 %_44, ptr align 8 @alloc_f2f8356ab6888f6d01c31575640571ec) #4
  unreachable

bb39:                                             ; preds = %bb18
  %12 = load ptr, ptr %current, align 8
  %13 = getelementptr inbounds i8, ptr %12, i64 16
  store ptr %_33, ptr %13, align 8
  br label %bb17

panic17:                                          ; preds = %bb18
; call core::panicking::panic_null_pointer_dereference
  call void @_ZN4core9panicking30panic_null_pointer_dereference17hf718fcc86a223baaE(ptr align 8 @alloc_f2f8356ab6888f6d01c31575640571ec) #4
  unreachable
}

; Function Attrs: nounwind nonlazybind
define void @delete_head() unnamed_addr #1 {
start:
  %_73 = icmp eq i64 ptrtoint (ptr @head to i64), 0
  %_74 = and i1 %_73, true
  %_75 = xor i1 %_74, true
  br i1 %_75, label %bb12, label %panic

bb12:                                             ; preds = %start
  %_2 = load ptr, ptr @head, align 8
; call core::ptr::mut_ptr::<impl *mut T>::is_null
  %_1 = call zeroext i1 @"_ZN4core3ptr7mut_ptr31_$LT$impl$u20$$BP$mut$u20$T$GT$7is_null17h14ddcb72bb02f7c1E"(ptr %_2) #3
  br i1 %_1, label %bb3, label %bb2

panic:                                            ; preds = %start
; call core::panicking::panic_null_pointer_dereference
  call void @_ZN4core9panicking30panic_null_pointer_dereference17hf718fcc86a223baaE(ptr align 8 @alloc_6ed8ead5c3180de3c836418e748d1daf) #4
  unreachable

bb2:                                              ; preds = %bb12
  %_80 = icmp eq i64 ptrtoint (ptr @head to i64), 0
  %_81 = and i1 %_80, true
  %_82 = xor i1 %_81, true
  br i1 %_82, label %bb13, label %panic1

bb3:                                              ; preds = %bb19, %bb12
  ret void

bb13:                                             ; preds = %bb2
  %temp = load ptr, ptr @head, align 8
  %_17 = load ptr, ptr @head, align 8
  %_52 = ptrtoint ptr %_17 to i64
  %_55 = and i64 %_52, 7
  %_56 = icmp eq i64 %_55, 0
  br i1 %_56, label %bb9, label %panic2

panic1:                                           ; preds = %bb2
; call core::panicking::panic_null_pointer_dereference
  call void @_ZN4core9panicking30panic_null_pointer_dereference17hf718fcc86a223baaE(ptr align 8 @alloc_2978b4375b1665d56f1f5878a2f019e6) #4
  unreachable

bb9:                                              ; preds = %bb13
  %_84 = ptrtoint ptr %_17 to i64
  %_87 = icmp eq i64 %_84, 0
  %_88 = and i1 %_87, true
  %_89 = xor i1 %_88, true
  br i1 %_89, label %bb14, label %panic3

panic2:                                           ; preds = %bb13
; call core::panicking::panic_misaligned_pointer_dereference
  call void @_ZN4core9panicking36panic_misaligned_pointer_dereference17hcc3cbded9382b6e5E(i64 8, i64 %_52, ptr align 8 @alloc_c9a82c472d6ecf619845d44aa92d6c49) #4
  unreachable

bb14:                                             ; preds = %bb9
  %0 = getelementptr inbounds i8, ptr %_17, i64 8
  %_6 = load ptr, ptr %0, align 8
  %_18 = load ptr, ptr @tail, align 8
  %_46 = ptrtoint ptr %_18 to i64
  %_49 = and i64 %_46, 7
  %_50 = icmp eq i64 %_49, 0
  br i1 %_50, label %bb8, label %panic4

panic3:                                           ; preds = %bb9
; call core::panicking::panic_null_pointer_dereference
  call void @_ZN4core9panicking30panic_null_pointer_dereference17hf718fcc86a223baaE(ptr align 8 @alloc_c9a82c472d6ecf619845d44aa92d6c49) #4
  unreachable

bb8:                                              ; preds = %bb14
  %_91 = ptrtoint ptr %_18 to i64
  %_94 = icmp eq i64 %_91, 0
  %_95 = and i1 %_94, true
  %_96 = xor i1 %_95, true
  br i1 %_96, label %bb15, label %panic5

panic4:                                           ; preds = %bb14
; call core::panicking::panic_misaligned_pointer_dereference
  call void @_ZN4core9panicking36panic_misaligned_pointer_dereference17hcc3cbded9382b6e5E(i64 8, i64 %_46, ptr align 8 @alloc_71707608417539c29b58e3851d893895) #4
  unreachable

bb15:                                             ; preds = %bb8
  %1 = getelementptr inbounds i8, ptr %_18, i64 8
  store ptr %_6, ptr %1, align 8
  %_19 = load ptr, ptr @head, align 8
  %_40 = ptrtoint ptr %_19 to i64
  %_43 = and i64 %_40, 7
  %_44 = icmp eq i64 %_43, 0
  br i1 %_44, label %bb7, label %panic6

panic5:                                           ; preds = %bb8
; call core::panicking::panic_null_pointer_dereference
  call void @_ZN4core9panicking30panic_null_pointer_dereference17hf718fcc86a223baaE(ptr align 8 @alloc_71707608417539c29b58e3851d893895) #4
  unreachable

bb7:                                              ; preds = %bb15
  %_98 = ptrtoint ptr %_19 to i64
  %_101 = icmp eq i64 %_98, 0
  %_102 = and i1 %_101, true
  %_103 = xor i1 %_102, true
  br i1 %_103, label %bb16, label %panic7

panic6:                                           ; preds = %bb15
; call core::panicking::panic_misaligned_pointer_dereference
  call void @_ZN4core9panicking36panic_misaligned_pointer_dereference17hcc3cbded9382b6e5E(i64 8, i64 %_40, ptr align 8 @alloc_0b91bd9d6a03156f76814c5e8c64139a) #4
  unreachable

bb16:                                             ; preds = %bb7
  %2 = getelementptr inbounds i8, ptr %_19, i64 8
  %_9 = load ptr, ptr %2, align 8
  %_108 = icmp eq i64 ptrtoint (ptr @head to i64), 0
  %_109 = and i1 %_108, true
  %_110 = xor i1 %_109, true
  br i1 %_110, label %bb17, label %panic8

panic7:                                           ; preds = %bb7
; call core::panicking::panic_null_pointer_dereference
  call void @_ZN4core9panicking30panic_null_pointer_dereference17hf718fcc86a223baaE(ptr align 8 @alloc_0b91bd9d6a03156f76814c5e8c64139a) #4
  unreachable

bb17:                                             ; preds = %bb16
  store ptr %_9, ptr @head, align 8
  %_115 = icmp eq i64 ptrtoint (ptr @tail to i64), 0
  %_116 = and i1 %_115, true
  %_117 = xor i1 %_116, true
  br i1 %_117, label %bb18, label %panic9

panic8:                                           ; preds = %bb16
; call core::panicking::panic_null_pointer_dereference
  call void @_ZN4core9panicking30panic_null_pointer_dereference17hf718fcc86a223baaE(ptr align 8 @alloc_ab86c8f6a6b652fd93739bb1556d653e) #4
  unreachable

bb18:                                             ; preds = %bb17
  %_12 = load ptr, ptr @tail, align 8
  %_20 = load ptr, ptr @head, align 8
  %_22 = ptrtoint ptr %_20 to i64
  %_25 = and i64 %_22, 7
  %_26 = icmp eq i64 %_25, 0
  br i1 %_26, label %bb4, label %panic10

panic9:                                           ; preds = %bb17
; call core::panicking::panic_null_pointer_dereference
  call void @_ZN4core9panicking30panic_null_pointer_dereference17hf718fcc86a223baaE(ptr align 8 @alloc_50362e451ddc5886c9dc50b1085c0ada) #4
  unreachable

bb4:                                              ; preds = %bb18
  %_119 = ptrtoint ptr %_20 to i64
  %_122 = icmp eq i64 %_119, 0
  %_123 = and i1 %_122, true
  %_124 = xor i1 %_123, true
  br i1 %_124, label %bb19, label %panic11

panic10:                                          ; preds = %bb18
; call core::panicking::panic_misaligned_pointer_dereference
  call void @_ZN4core9panicking36panic_misaligned_pointer_dereference17hcc3cbded9382b6e5E(i64 8, i64 %_22, ptr align 8 @alloc_c3edc0ffc4aa51f1633091e8f18b4b70) #4
  unreachable

bb19:                                             ; preds = %bb4
  %3 = getelementptr inbounds i8, ptr %_20, i64 16
  store ptr %_12, ptr %3, align 8
  call void @free(ptr %temp) #3
  br label %bb3

panic11:                                          ; preds = %bb4
; call core::panicking::panic_null_pointer_dereference
  call void @_ZN4core9panicking30panic_null_pointer_dereference17hf718fcc86a223baaE(ptr align 8 @alloc_c3edc0ffc4aa51f1633091e8f18b4b70) #4
  unreachable
}

; Function Attrs: nounwind nonlazybind
define void @delete_tail() unnamed_addr #1 {
start:
  %current = alloca [8 x i8], align 8
  %temp = alloca [8 x i8], align 8
  %_95 = icmp eq i64 ptrtoint (ptr @head to i64), 0
  %_96 = and i1 %_95, true
  %_97 = xor i1 %_96, true
  br i1 %_97, label %bb18, label %panic

bb18:                                             ; preds = %start
  %_2 = load ptr, ptr @head, align 8
; call core::ptr::mut_ptr::<impl *mut T>::is_null
  %_1 = call zeroext i1 @"_ZN4core3ptr7mut_ptr31_$LT$impl$u20$$BP$mut$u20$T$GT$7is_null17h14ddcb72bb02f7c1E"(ptr %_2) #3
  br i1 %_1, label %bb6, label %bb2

panic:                                            ; preds = %start
; call core::panicking::panic_null_pointer_dereference
  call void @_ZN4core9panicking30panic_null_pointer_dereference17hf718fcc86a223baaE(ptr align 8 @alloc_fa90242e2cb441ec7f8e3f97ece32513) #4
  unreachable

bb2:                                              ; preds = %bb18
  %_102 = icmp eq i64 ptrtoint (ptr @head to i64), 0
  %_103 = and i1 %_102, true
  %_104 = xor i1 %_103, true
  br i1 %_104, label %bb19, label %panic1

bb6:                                              ; preds = %bb28, %bb18
  ret void

bb19:                                             ; preds = %bb2
  %0 = load ptr, ptr @head, align 8
  store ptr %0, ptr %temp, align 8
  %_109 = icmp eq i64 ptrtoint (ptr @head to i64), 0
  %_110 = and i1 %_109, true
  %_111 = xor i1 %_110, true
  br i1 %_111, label %bb20, label %panic2

panic1:                                           ; preds = %bb2
; call core::panicking::panic_null_pointer_dereference
  call void @_ZN4core9panicking30panic_null_pointer_dereference17hf718fcc86a223baaE(ptr align 8 @alloc_f56664b669b6e451158a745293135050) #4
  unreachable

bb20:                                             ; preds = %bb19
  %1 = load ptr, ptr @head, align 8
  store ptr %1, ptr %current, align 8
  br label %bb3

panic2:                                           ; preds = %bb19
; call core::panicking::panic_null_pointer_dereference
  call void @_ZN4core9panicking30panic_null_pointer_dereference17hf718fcc86a223baaE(ptr align 8 @alloc_fa3425b16780da2a262d3858504140f2) #4
  unreachable

bb3:                                              ; preds = %bb23, %bb20
  %_67 = load ptr, ptr %current, align 8
  %_68 = ptrtoint ptr %_67 to i64
  %_71 = and i64 %_68, 7
  %_72 = icmp eq i64 %_71, 0
  br i1 %_72, label %bb14, label %panic3

bb14:                                             ; preds = %bb3
  %_112 = load ptr, ptr %current, align 8
  %_113 = ptrtoint ptr %_112 to i64
  %_116 = icmp eq i64 %_113, 0
  %_117 = and i1 %_116, true
  %_118 = xor i1 %_117, true
  br i1 %_118, label %bb21, label %panic4

panic3:                                           ; preds = %bb3
; call core::panicking::panic_misaligned_pointer_dereference
  call void @_ZN4core9panicking36panic_misaligned_pointer_dereference17hcc3cbded9382b6e5E(i64 8, i64 %_68, ptr align 8 @alloc_70608c544a4aa19d445d5d6b04723e08) #4
  unreachable

bb21:                                             ; preds = %bb14
  %2 = load ptr, ptr %current, align 8
  %3 = getelementptr inbounds i8, ptr %2, i64 8
  %_9 = load ptr, ptr %3, align 8
  %_123 = icmp eq i64 ptrtoint (ptr @head to i64), 0
  %_124 = and i1 %_123, true
  %_125 = xor i1 %_124, true
  br i1 %_125, label %bb22, label %panic5

panic4:                                           ; preds = %bb14
; call core::panicking::panic_null_pointer_dereference
  call void @_ZN4core9panicking30panic_null_pointer_dereference17hf718fcc86a223baaE(ptr align 8 @alloc_70608c544a4aa19d445d5d6b04723e08) #4
  unreachable

bb22:                                             ; preds = %bb21
  %_10 = load ptr, ptr @head, align 8
  %_8 = icmp ne ptr %_9, %_10
  br i1 %_8, label %bb4, label %bb5

panic5:                                           ; preds = %bb21
; call core::panicking::panic_null_pointer_dereference
  call void @_ZN4core9panicking30panic_null_pointer_dereference17hf718fcc86a223baaE(ptr align 8 @alloc_68e5471e3547dbc76eb9cb13a542ec37) #4
  unreachable

bb5:                                              ; preds = %bb22
  %_137 = icmp eq i64 ptrtoint (ptr @head to i64), 0
  %_138 = and i1 %_137, true
  %_139 = xor i1 %_138, true
  br i1 %_139, label %bb24, label %panic6

bb4:                                              ; preds = %bb22
  %_12 = load ptr, ptr %current, align 8
  store ptr %_12, ptr %temp, align 8
  %_55 = load ptr, ptr %current, align 8
  %_56 = ptrtoint ptr %_55 to i64
  %_59 = and i64 %_56, 7
  %_60 = icmp eq i64 %_59, 0
  br i1 %_60, label %bb12, label %panic13

bb24:                                             ; preds = %bb5
  %_14 = load ptr, ptr @head, align 8
  %_43 = load ptr, ptr %temp, align 8
  %_44 = ptrtoint ptr %_43 to i64
  %_47 = and i64 %_44, 7
  %_48 = icmp eq i64 %_47, 0
  br i1 %_48, label %bb10, label %panic7

panic6:                                           ; preds = %bb5
; call core::panicking::panic_null_pointer_dereference
  call void @_ZN4core9panicking30panic_null_pointer_dereference17hf718fcc86a223baaE(ptr align 8 @alloc_f0456c312cf3032ae153c2d204b7ea3a) #4
  unreachable

bb10:                                             ; preds = %bb24
  %_140 = load ptr, ptr %temp, align 8
  %_141 = ptrtoint ptr %_140 to i64
  %_144 = icmp eq i64 %_141, 0
  %_145 = and i1 %_144, true
  %_146 = xor i1 %_145, true
  br i1 %_146, label %bb25, label %panic8

panic7:                                           ; preds = %bb24
; call core::panicking::panic_misaligned_pointer_dereference
  call void @_ZN4core9panicking36panic_misaligned_pointer_dereference17hcc3cbded9382b6e5E(i64 8, i64 %_44, ptr align 8 @alloc_8c10ced135ffc3554774c32cb4497baf) #4
  unreachable

bb25:                                             ; preds = %bb10
  %4 = load ptr, ptr %temp, align 8
  %5 = getelementptr inbounds i8, ptr %4, i64 8
  store ptr %_14, ptr %5, align 8
  %_16 = load ptr, ptr %temp, align 8
  %_151 = icmp eq i64 ptrtoint (ptr @tail to i64), 0
  %_152 = and i1 %_151, true
  %_153 = xor i1 %_152, true
  br i1 %_153, label %bb26, label %panic9

panic8:                                           ; preds = %bb10
; call core::panicking::panic_null_pointer_dereference
  call void @_ZN4core9panicking30panic_null_pointer_dereference17hf718fcc86a223baaE(ptr align 8 @alloc_8c10ced135ffc3554774c32cb4497baf) #4
  unreachable

bb26:                                             ; preds = %bb25
  store ptr %_16, ptr @tail, align 8
  %_158 = icmp eq i64 ptrtoint (ptr @tail to i64), 0
  %_159 = and i1 %_158, true
  %_160 = xor i1 %_159, true
  br i1 %_160, label %bb27, label %panic10

panic9:                                           ; preds = %bb25
; call core::panicking::panic_null_pointer_dereference
  call void @_ZN4core9panicking30panic_null_pointer_dereference17hf718fcc86a223baaE(ptr align 8 @alloc_b95678b168d07cea34a0ff987b0c895a) #4
  unreachable

bb27:                                             ; preds = %bb26
  %_18 = load ptr, ptr @tail, align 8
  %_24 = load ptr, ptr @head, align 8
  %_26 = ptrtoint ptr %_24 to i64
  %_29 = and i64 %_26, 7
  %_30 = icmp eq i64 %_29, 0
  br i1 %_30, label %bb7, label %panic11

panic10:                                          ; preds = %bb26
; call core::panicking::panic_null_pointer_dereference
  call void @_ZN4core9panicking30panic_null_pointer_dereference17hf718fcc86a223baaE(ptr align 8 @alloc_de7fbc27e8c2b1bc792382c84a88b2f8) #4
  unreachable

bb7:                                              ; preds = %bb27
  %_162 = ptrtoint ptr %_24 to i64
  %_165 = icmp eq i64 %_162, 0
  %_166 = and i1 %_165, true
  %_167 = xor i1 %_166, true
  br i1 %_167, label %bb28, label %panic12

panic11:                                          ; preds = %bb27
; call core::panicking::panic_misaligned_pointer_dereference
  call void @_ZN4core9panicking36panic_misaligned_pointer_dereference17hcc3cbded9382b6e5E(i64 8, i64 %_26, ptr align 8 @alloc_2220bf3e825dcf5e8b10475ddeec841c) #4
  unreachable

bb28:                                             ; preds = %bb7
  %6 = getelementptr inbounds i8, ptr %_24, i64 16
  store ptr %_18, ptr %6, align 8
  %_23 = load ptr, ptr %current, align 8
  call void @free(ptr %_23) #3
  br label %bb6

panic12:                                          ; preds = %bb7
; call core::panicking::panic_null_pointer_dereference
  call void @_ZN4core9panicking30panic_null_pointer_dereference17hf718fcc86a223baaE(ptr align 8 @alloc_2220bf3e825dcf5e8b10475ddeec841c) #4
  unreachable

bb12:                                             ; preds = %bb4
  %_126 = load ptr, ptr %current, align 8
  %_127 = ptrtoint ptr %_126 to i64
  %_130 = icmp eq i64 %_127, 0
  %_131 = and i1 %_130, true
  %_132 = xor i1 %_131, true
  br i1 %_132, label %bb23, label %panic14

panic13:                                          ; preds = %bb4
; call core::panicking::panic_misaligned_pointer_dereference
  call void @_ZN4core9panicking36panic_misaligned_pointer_dereference17hcc3cbded9382b6e5E(i64 8, i64 %_56, ptr align 8 @alloc_13fc5aa4894ce47d282f8655111de22b) #4
  unreachable

bb23:                                             ; preds = %bb12
  %7 = load ptr, ptr %current, align 8
  %8 = getelementptr inbounds i8, ptr %7, i64 8
  %_13 = load ptr, ptr %8, align 8
  store ptr %_13, ptr %current, align 8
  br label %bb3

panic14:                                          ; preds = %bb12
; call core::panicking::panic_null_pointer_dereference
  call void @_ZN4core9panicking30panic_null_pointer_dereference17hf718fcc86a223baaE(ptr align 8 @alloc_13fc5aa4894ce47d282f8655111de22b) #4
  unreachable
}

; Function Attrs: nounwind nonlazybind
define void @delete_middle(i32 %position) unnamed_addr #1 {
start:
  %count = alloca [4 x i8], align 4
  %temp = alloca [8 x i8], align 8
  %current = alloca [8 x i8], align 8
  %_96 = icmp eq i64 ptrtoint (ptr @head to i64), 0
  %_97 = and i1 %_96, true
  %_98 = xor i1 %_97, true
  br i1 %_98, label %bb22, label %panic

bb22:                                             ; preds = %start
  %_3 = load ptr, ptr @head, align 8
; call core::ptr::mut_ptr::<impl *mut T>::is_null
  %_2 = call zeroext i1 @"_ZN4core3ptr7mut_ptr31_$LT$impl$u20$$BP$mut$u20$T$GT$7is_null17h14ddcb72bb02f7c1E"(ptr %_3) #3
  br i1 %_2, label %bb12, label %bb2

panic:                                            ; preds = %start
; call core::panicking::panic_null_pointer_dereference
  call void @_ZN4core9panicking30panic_null_pointer_dereference17hf718fcc86a223baaE(ptr align 8 @alloc_ba76a924a157cf0aec3264eefcb08eee) #4
  unreachable

bb2:                                              ; preds = %bb22
  %0 = icmp eq i32 %position, 1
  br i1 %0, label %bb3, label %bb4

bb12:                                             ; preds = %bb10, %bb30, %bb9, %bb3, %bb22
  ret void

bb3:                                              ; preds = %bb2
  call void @delete_head() #3
  br label %bb12

bb4:                                              ; preds = %bb2
  %_103 = icmp eq i64 ptrtoint (ptr @head to i64), 0
  %_104 = and i1 %_103, true
  %_105 = xor i1 %_104, true
  br i1 %_105, label %bb23, label %panic1

bb23:                                             ; preds = %bb4
  %1 = load ptr, ptr @head, align 8
  store ptr %1, ptr %current, align 8
  store ptr null, ptr %temp, align 8
  store i32 0, ptr %count, align 4
  br label %bb5

panic1:                                           ; preds = %bb4
; call core::panicking::panic_null_pointer_dereference
  call void @_ZN4core9panicking30panic_null_pointer_dereference17hf718fcc86a223baaE(ptr align 8 @alloc_bbfb6625f8ab318ece997118cb7a8a0f) #4
  unreachable

bb5:                                              ; preds = %bb6, %bb23
  %2 = load i32, ptr %count, align 4
  %3 = add i32 %2, 1
  store i32 %3, ptr %count, align 4
  %_10 = load ptr, ptr %current, align 8
  store ptr %_10, ptr %temp, align 8
  %_74 = load ptr, ptr %current, align 8
  %_75 = ptrtoint ptr %_74 to i64
  %_78 = and i64 %_75, 7
  %_79 = icmp eq i64 %_78, 0
  br i1 %_79, label %bb19, label %panic2

bb19:                                             ; preds = %bb5
  %_106 = load ptr, ptr %current, align 8
  %_107 = ptrtoint ptr %_106 to i64
  %_110 = icmp eq i64 %_107, 0
  %_111 = and i1 %_110, true
  %_112 = xor i1 %_111, true
  br i1 %_112, label %bb24, label %panic3

panic2:                                           ; preds = %bb5
; call core::panicking::panic_misaligned_pointer_dereference
  call void @_ZN4core9panicking36panic_misaligned_pointer_dereference17hcc3cbded9382b6e5E(i64 8, i64 %_75, ptr align 8 @alloc_a7e383493ccde870363ccfee916ae1da) #4
  unreachable

bb24:                                             ; preds = %bb19
  %4 = load ptr, ptr %current, align 8
  %5 = getelementptr inbounds i8, ptr %4, i64 8
  %_11 = load ptr, ptr %5, align 8
  store ptr %_11, ptr %current, align 8
  %_68 = load ptr, ptr %current, align 8
  %_69 = ptrtoint ptr %_68 to i64
  %_72 = and i64 %_69, 7
  %_73 = icmp eq i64 %_72, 0
  br i1 %_73, label %bb18, label %panic4

panic3:                                           ; preds = %bb19
; call core::panicking::panic_null_pointer_dereference
  call void @_ZN4core9panicking30panic_null_pointer_dereference17hf718fcc86a223baaE(ptr align 8 @alloc_a7e383493ccde870363ccfee916ae1da) #4
  unreachable

bb18:                                             ; preds = %bb24
  %_113 = load ptr, ptr %current, align 8
  %_114 = ptrtoint ptr %_113 to i64
  %_117 = icmp eq i64 %_114, 0
  %_118 = and i1 %_117, true
  %_119 = xor i1 %_118, true
  br i1 %_119, label %bb25, label %panic5

panic4:                                           ; preds = %bb24
; call core::panicking::panic_misaligned_pointer_dereference
  call void @_ZN4core9panicking36panic_misaligned_pointer_dereference17hcc3cbded9382b6e5E(i64 8, i64 %_69, ptr align 8 @alloc_5388c769c3760e27b250a2c6827d2d32) #4
  unreachable

bb25:                                             ; preds = %bb18
  %6 = load ptr, ptr %current, align 8
  %7 = getelementptr inbounds i8, ptr %6, i64 8
  %_13 = load ptr, ptr %7, align 8
  %_124 = icmp eq i64 ptrtoint (ptr @head to i64), 0
  %_125 = and i1 %_124, true
  %_126 = xor i1 %_125, true
  br i1 %_126, label %bb26, label %panic6

panic5:                                           ; preds = %bb18
; call core::panicking::panic_null_pointer_dereference
  call void @_ZN4core9panicking30panic_null_pointer_dereference17hf718fcc86a223baaE(ptr align 8 @alloc_5388c769c3760e27b250a2c6827d2d32) #4
  unreachable

bb26:                                             ; preds = %bb25
  %_14 = load ptr, ptr @head, align 8
  %_12 = icmp ne ptr %_13, %_14
  br i1 %_12, label %bb6, label %bb7

panic6:                                           ; preds = %bb25
; call core::panicking::panic_null_pointer_dereference
  call void @_ZN4core9panicking30panic_null_pointer_dereference17hf718fcc86a223baaE(ptr align 8 @alloc_48baa7ececea38e1d199739ab1930fde) #4
  unreachable

bb7:                                              ; preds = %bb6, %bb26
  %_20 = load i32, ptr %count, align 4
  %_21 = sub i32 %position, 1
  %_19 = icmp eq i32 %_20, %_21
  br i1 %_19, label %bb8, label %bb9

bb6:                                              ; preds = %bb26
  %_17 = load i32, ptr %count, align 4
  %_18 = sub i32 %position, 1
  %_16 = icmp slt i32 %_17, %_18
  br i1 %_16, label %bb5, label %bb7

bb9:                                              ; preds = %bb7
  %_32 = call i32 (ptr, ...) @printf(ptr @alloc_b62b0b346d31c31a080ca9aac96351fb, i32 %position) #3
  br label %bb12

bb8:                                              ; preds = %bb7
  %_23 = load ptr, ptr %current, align 8
  %_131 = icmp eq i64 ptrtoint (ptr @tail to i64), 0
  %_132 = and i1 %_131, true
  %_133 = xor i1 %_132, true
  br i1 %_133, label %bb27, label %panic7

bb27:                                             ; preds = %bb8
  %_24 = load ptr, ptr @tail, align 8
  %_22 = icmp eq ptr %_23, %_24
  br i1 %_22, label %bb10, label %bb11

panic7:                                           ; preds = %bb8
; call core::panicking::panic_null_pointer_dereference
  call void @_ZN4core9panicking30panic_null_pointer_dereference17hf718fcc86a223baaE(ptr align 8 @alloc_9b6728cc7ecd85e3b33804d7e66aac7e) #4
  unreachable

bb11:                                             ; preds = %bb27
  %_50 = load ptr, ptr %current, align 8
  %_51 = ptrtoint ptr %_50 to i64
  %_54 = and i64 %_51, 7
  %_55 = icmp eq i64 %_54, 0
  br i1 %_55, label %bb15, label %panic8

bb10:                                             ; preds = %bb27
  call void @delete_tail() #3
  br label %bb12

bb15:                                             ; preds = %bb11
  %_134 = load ptr, ptr %current, align 8
  %_135 = ptrtoint ptr %_134 to i64
  %_138 = icmp eq i64 %_135, 0
  %_139 = and i1 %_138, true
  %_140 = xor i1 %_139, true
  br i1 %_140, label %bb28, label %panic9

panic8:                                           ; preds = %bb11
; call core::panicking::panic_misaligned_pointer_dereference
  call void @_ZN4core9panicking36panic_misaligned_pointer_dereference17hcc3cbded9382b6e5E(i64 8, i64 %_51, ptr align 8 @alloc_74cb72d65ed30245a0cc3dae50006405) #4
  unreachable

bb28:                                             ; preds = %bb15
  %8 = load ptr, ptr %current, align 8
  %9 = getelementptr inbounds i8, ptr %8, i64 8
  %_27 = load ptr, ptr %9, align 8
  %_44 = load ptr, ptr %temp, align 8
  %_45 = ptrtoint ptr %_44 to i64
  %_48 = and i64 %_45, 7
  %_49 = icmp eq i64 %_48, 0
  br i1 %_49, label %bb14, label %panic10

panic9:                                           ; preds = %bb15
; call core::panicking::panic_null_pointer_dereference
  call void @_ZN4core9panicking30panic_null_pointer_dereference17hf718fcc86a223baaE(ptr align 8 @alloc_74cb72d65ed30245a0cc3dae50006405) #4
  unreachable

bb14:                                             ; preds = %bb28
  %_141 = load ptr, ptr %temp, align 8
  %_142 = ptrtoint ptr %_141 to i64
  %_145 = icmp eq i64 %_142, 0
  %_146 = and i1 %_145, true
  %_147 = xor i1 %_146, true
  br i1 %_147, label %bb29, label %panic11

panic10:                                          ; preds = %bb28
; call core::panicking::panic_misaligned_pointer_dereference
  call void @_ZN4core9panicking36panic_misaligned_pointer_dereference17hcc3cbded9382b6e5E(i64 8, i64 %_45, ptr align 8 @alloc_d9d817104817e5e98d0a7a1cc71f15a0) #4
  unreachable

bb29:                                             ; preds = %bb14
  %10 = load ptr, ptr %temp, align 8
  %11 = getelementptr inbounds i8, ptr %10, i64 8
  store ptr %_27, ptr %11, align 8
  %_28 = load ptr, ptr %temp, align 8
  %12 = load ptr, ptr %current, align 8
  %13 = getelementptr inbounds i8, ptr %12, i64 8
  %_37 = load ptr, ptr %13, align 8
  %_39 = ptrtoint ptr %_37 to i64
  %_42 = and i64 %_39, 7
  %_43 = icmp eq i64 %_42, 0
  br i1 %_43, label %bb13, label %panic12

panic11:                                          ; preds = %bb14
; call core::panicking::panic_null_pointer_dereference
  call void @_ZN4core9panicking30panic_null_pointer_dereference17hf718fcc86a223baaE(ptr align 8 @alloc_d9d817104817e5e98d0a7a1cc71f15a0) #4
  unreachable

bb13:                                             ; preds = %bb29
  %_149 = ptrtoint ptr %_37 to i64
  %_152 = icmp eq i64 %_149, 0
  %_153 = and i1 %_152, true
  %_154 = xor i1 %_153, true
  br i1 %_154, label %bb30, label %panic13

panic12:                                          ; preds = %bb29
; call core::panicking::panic_misaligned_pointer_dereference
  call void @_ZN4core9panicking36panic_misaligned_pointer_dereference17hcc3cbded9382b6e5E(i64 8, i64 %_39, ptr align 8 @alloc_f9aa1dc2f16d91743895f6c95f2d1353) #4
  unreachable

bb30:                                             ; preds = %bb13
  %14 = getelementptr inbounds i8, ptr %_37, i64 16
  store ptr %_28, ptr %14, align 8
  %_31 = load ptr, ptr %current, align 8
  call void @free(ptr %_31) #3
  br label %bb12

panic13:                                          ; preds = %bb13
; call core::panicking::panic_null_pointer_dereference
  call void @_ZN4core9panicking30panic_null_pointer_dereference17hf718fcc86a223baaE(ptr align 8 @alloc_f9aa1dc2f16d91743895f6c95f2d1353) #4
  unreachable
}

; Function Attrs: nounwind nonlazybind
define void @print_list() unnamed_addr #1 {
start:
  %_1 = call i32 (ptr, ...) @printf(ptr @alloc_531ab79e86bd92dc5d9b5b9612c19bc1) #3
  call void @print_forward_order() #3
  %_7 = call i32 (ptr, ...) @printf(ptr @alloc_08532cf19473de36071eda972a5a789a) #3
  call void @print_reverse_order() #3
  ret void
}

; Function Attrs: nounwind nonlazybind
define void @print_forward_order() unnamed_addr #1 {
start:
  %current = alloca [8 x i8], align 8
  %_57 = icmp eq i64 ptrtoint (ptr @head to i64), 0
  %_58 = and i1 %_57, true
  %_59 = xor i1 %_58, true
  br i1 %_59, label %bb13, label %panic

bb13:                                             ; preds = %start
  %_2 = load ptr, ptr @head, align 8
; call core::ptr::mut_ptr::<impl *mut T>::is_null
  %_1 = call zeroext i1 @"_ZN4core3ptr7mut_ptr31_$LT$impl$u20$$BP$mut$u20$T$GT$7is_null17h14ddcb72bb02f7c1E"(ptr %_2) #3
  br i1 %_1, label %bb7, label %bb2

panic:                                            ; preds = %start
; call core::panicking::panic_null_pointer_dereference
  call void @_ZN4core9panicking30panic_null_pointer_dereference17hf718fcc86a223baaE(ptr align 8 @alloc_82a212cd166eab6460b52ae6b0d46b55) #4
  unreachable

bb2:                                              ; preds = %bb13
  %_64 = icmp eq i64 ptrtoint (ptr @head to i64), 0
  %_65 = and i1 %_64, true
  %_66 = xor i1 %_65, true
  br i1 %_66, label %bb14, label %panic1

bb7:                                              ; preds = %bb5, %bb13
  ret void

bb14:                                             ; preds = %bb2
  %0 = load ptr, ptr @head, align 8
  store ptr %0, ptr %current, align 8
  br label %bb3

panic1:                                           ; preds = %bb2
; call core::panicking::panic_null_pointer_dereference
  call void @_ZN4core9panicking30panic_null_pointer_dereference17hf718fcc86a223baaE(ptr align 8 @alloc_ec2c7a32c4d9fbacc6d5997bd065e78e) #4
  unreachable

bb3:                                              ; preds = %bb17, %bb14
  %_35 = load ptr, ptr %current, align 8
  %_36 = ptrtoint ptr %_35 to i64
  %_39 = and i64 %_36, 7
  %_40 = icmp eq i64 %_39, 0
  br i1 %_40, label %bb10, label %panic2

bb10:                                             ; preds = %bb3
  %_67 = load ptr, ptr %current, align 8
  %_68 = ptrtoint ptr %_67 to i64
  %_71 = icmp eq i64 %_68, 0
  %_72 = and i1 %_71, true
  %_73 = xor i1 %_72, true
  br i1 %_73, label %bb15, label %panic3

panic2:                                           ; preds = %bb3
; call core::panicking::panic_misaligned_pointer_dereference
  call void @_ZN4core9panicking36panic_misaligned_pointer_dereference17hcc3cbded9382b6e5E(i64 8, i64 %_36, ptr align 8 @alloc_38c992e3f9834b992144140c452a82d4) #4
  unreachable

bb15:                                             ; preds = %bb10
  %1 = load ptr, ptr %current, align 8
  %_11 = load i32, ptr %1, align 8
  %_6 = call i32 (ptr, ...) @printf(ptr @alloc_b929c71616281bfd1be2bd4038d3ddf1, i32 %_11) #3
  %_29 = load ptr, ptr %current, align 8
  %_30 = ptrtoint ptr %_29 to i64
  %_33 = and i64 %_30, 7
  %_34 = icmp eq i64 %_33, 0
  br i1 %_34, label %bb9, label %panic4

panic3:                                           ; preds = %bb10
; call core::panicking::panic_null_pointer_dereference
  call void @_ZN4core9panicking30panic_null_pointer_dereference17hf718fcc86a223baaE(ptr align 8 @alloc_38c992e3f9834b992144140c452a82d4) #4
  unreachable

bb9:                                              ; preds = %bb15
  %_74 = load ptr, ptr %current, align 8
  %_75 = ptrtoint ptr %_74 to i64
  %_78 = icmp eq i64 %_75, 0
  %_79 = and i1 %_78, true
  %_80 = xor i1 %_79, true
  br i1 %_80, label %bb16, label %panic5

panic4:                                           ; preds = %bb15
; call core::panicking::panic_misaligned_pointer_dereference
  call void @_ZN4core9panicking36panic_misaligned_pointer_dereference17hcc3cbded9382b6e5E(i64 8, i64 %_30, ptr align 8 @alloc_bd57fe0e8b0349105e86d536dca2dc6d) #4
  unreachable

bb16:                                             ; preds = %bb9
  %2 = load ptr, ptr %current, align 8
  %3 = getelementptr inbounds i8, ptr %2, i64 8
  %_12 = load ptr, ptr %3, align 8
  store ptr %_12, ptr %current, align 8
  %_14 = load ptr, ptr %current, align 8
  %_85 = icmp eq i64 ptrtoint (ptr @head to i64), 0
  %_86 = and i1 %_85, true
  %_87 = xor i1 %_86, true
  br i1 %_87, label %bb17, label %panic6

panic5:                                           ; preds = %bb9
; call core::panicking::panic_null_pointer_dereference
  call void @_ZN4core9panicking30panic_null_pointer_dereference17hf718fcc86a223baaE(ptr align 8 @alloc_bd57fe0e8b0349105e86d536dca2dc6d) #4
  unreachable

bb17:                                             ; preds = %bb16
  %_15 = load ptr, ptr @head, align 8
  %_13 = icmp ne ptr %_14, %_15
  br i1 %_13, label %bb3, label %bb5

panic6:                                           ; preds = %bb16
; call core::panicking::panic_null_pointer_dereference
  call void @_ZN4core9panicking30panic_null_pointer_dereference17hf718fcc86a223baaE(ptr align 8 @alloc_75d67612afcfeea0114e437681f952f0) #4
  unreachable

bb5:                                              ; preds = %bb17
  %_22 = call i32 @getListLength() #3
  %_17 = call i32 (ptr, ...) @printf(ptr @alloc_de0e21f5e8cca6812e598f2feea3cc12, i32 %_22) #3
  br label %bb7
}

; Function Attrs: nounwind nonlazybind
define void @print_reverse_order() unnamed_addr #1 {
start:
  %current = alloca [8 x i8], align 8
  %_62 = icmp eq i64 ptrtoint (ptr @head to i64), 0
  %_63 = and i1 %_62, true
  %_64 = xor i1 %_63, true
  br i1 %_64, label %bb14, label %panic

bb14:                                             ; preds = %start
  %_2 = load ptr, ptr @head, align 8
; call core::ptr::mut_ptr::<impl *mut T>::is_null
  %_1 = call zeroext i1 @"_ZN4core3ptr7mut_ptr31_$LT$impl$u20$$BP$mut$u20$T$GT$7is_null17h14ddcb72bb02f7c1E"(ptr %_2) #3
  br i1 %_1, label %bb8, label %bb2

panic:                                            ; preds = %start
; call core::panicking::panic_null_pointer_dereference
  call void @_ZN4core9panicking30panic_null_pointer_dereference17hf718fcc86a223baaE(ptr align 8 @alloc_d788d3620b517ebe058162c2bc802344) #4
  unreachable

bb2:                                              ; preds = %bb14
  %_69 = icmp eq i64 ptrtoint (ptr @tail to i64), 0
  %_70 = and i1 %_69, true
  %_71 = xor i1 %_70, true
  br i1 %_71, label %bb15, label %panic1

bb8:                                              ; preds = %bb5, %bb14
  ret void

bb15:                                             ; preds = %bb2
  %0 = load ptr, ptr @tail, align 8
  store ptr %0, ptr %current, align 8
  br label %bb3

panic1:                                           ; preds = %bb2
; call core::panicking::panic_null_pointer_dereference
  call void @_ZN4core9panicking30panic_null_pointer_dereference17hf718fcc86a223baaE(ptr align 8 @alloc_c73c5d20882ff1365f55db55eb33f9ee) #4
  unreachable

bb3:                                              ; preds = %bb18, %bb15
  %_40 = load ptr, ptr %current, align 8
  %_41 = ptrtoint ptr %_40 to i64
  %_44 = and i64 %_41, 7
  %_45 = icmp eq i64 %_44, 0
  br i1 %_45, label %bb11, label %panic2

bb11:                                             ; preds = %bb3
  %_72 = load ptr, ptr %current, align 8
  %_73 = ptrtoint ptr %_72 to i64
  %_76 = icmp eq i64 %_73, 0
  %_77 = and i1 %_76, true
  %_78 = xor i1 %_77, true
  br i1 %_78, label %bb16, label %panic3

panic2:                                           ; preds = %bb3
; call core::panicking::panic_misaligned_pointer_dereference
  call void @_ZN4core9panicking36panic_misaligned_pointer_dereference17hcc3cbded9382b6e5E(i64 8, i64 %_41, ptr align 8 @alloc_f06c01163e4f55e4ca9ca54955b0c1f1) #4
  unreachable

bb16:                                             ; preds = %bb11
  %1 = load ptr, ptr %current, align 8
  %_11 = load i32, ptr %1, align 8
  %_6 = call i32 (ptr, ...) @printf(ptr @alloc_b929c71616281bfd1be2bd4038d3ddf1, i32 %_11) #3
  %_34 = load ptr, ptr %current, align 8
  %_35 = ptrtoint ptr %_34 to i64
  %_38 = and i64 %_35, 7
  %_39 = icmp eq i64 %_38, 0
  br i1 %_39, label %bb10, label %panic4

panic3:                                           ; preds = %bb11
; call core::panicking::panic_null_pointer_dereference
  call void @_ZN4core9panicking30panic_null_pointer_dereference17hf718fcc86a223baaE(ptr align 8 @alloc_f06c01163e4f55e4ca9ca54955b0c1f1) #4
  unreachable

bb10:                                             ; preds = %bb16
  %_79 = load ptr, ptr %current, align 8
  %_80 = ptrtoint ptr %_79 to i64
  %_83 = icmp eq i64 %_80, 0
  %_84 = and i1 %_83, true
  %_85 = xor i1 %_84, true
  br i1 %_85, label %bb17, label %panic5

panic4:                                           ; preds = %bb16
; call core::panicking::panic_misaligned_pointer_dereference
  call void @_ZN4core9panicking36panic_misaligned_pointer_dereference17hcc3cbded9382b6e5E(i64 8, i64 %_35, ptr align 8 @alloc_262207e94bcd3a4be51c0792329b59a5) #4
  unreachable

bb17:                                             ; preds = %bb10
  %2 = load ptr, ptr %current, align 8
  %3 = getelementptr inbounds i8, ptr %2, i64 16
  %_12 = load ptr, ptr %3, align 8
  store ptr %_12, ptr %current, align 8
  %_14 = load ptr, ptr %current, align 8
  %_90 = icmp eq i64 ptrtoint (ptr @tail to i64), 0
  %_91 = and i1 %_90, true
  %_92 = xor i1 %_91, true
  br i1 %_92, label %bb18, label %panic6

panic5:                                           ; preds = %bb10
; call core::panicking::panic_null_pointer_dereference
  call void @_ZN4core9panicking30panic_null_pointer_dereference17hf718fcc86a223baaE(ptr align 8 @alloc_262207e94bcd3a4be51c0792329b59a5) #4
  unreachable

bb18:                                             ; preds = %bb17
  %_15 = load ptr, ptr @tail, align 8
  %_13 = icmp ne ptr %_14, %_15
  br i1 %_13, label %bb3, label %bb5

panic6:                                           ; preds = %bb17
; call core::panicking::panic_null_pointer_dereference
  call void @_ZN4core9panicking30panic_null_pointer_dereference17hf718fcc86a223baaE(ptr align 8 @alloc_6d787abcee2d568452a17d8d84b711c0) #4
  unreachable

bb5:                                              ; preds = %bb18
  %_22 = call i32 @getListLength() #3
  %_17 = call i32 (ptr, ...) @printf(ptr @alloc_de0e21f5e8cca6812e598f2feea3cc12, i32 %_22) #3
  %_23 = call i32 @puts(ptr @alloc_f3588b28b94f0809fcc8d717033d3e48) #3
  br label %bb8
}

; Function Attrs: nounwind nonlazybind
define i32 @getListLength() unnamed_addr #1 {
start:
  %current = alloca [8 x i8], align 8
  %count = alloca [4 x i8], align 4
  %_0 = alloca [4 x i8], align 4
  %_40 = icmp eq i64 ptrtoint (ptr @head to i64), 0
  %_41 = and i1 %_40, true
  %_42 = xor i1 %_41, true
  br i1 %_42, label %bb11, label %panic

bb11:                                             ; preds = %start
  %_2 = load ptr, ptr @head, align 8
; call core::ptr::mut_ptr::<impl *mut T>::is_null
  %_1 = call zeroext i1 @"_ZN4core3ptr7mut_ptr31_$LT$impl$u20$$BP$mut$u20$T$GT$7is_null17h14ddcb72bb02f7c1E"(ptr %_2) #3
  br i1 %_1, label %bb2, label %bb3

panic:                                            ; preds = %start
; call core::panicking::panic_null_pointer_dereference
  call void @_ZN4core9panicking30panic_null_pointer_dereference17hf718fcc86a223baaE(ptr align 8 @alloc_3b60be5cdcf657c2bcea70624bf75fe7) #4
  unreachable

bb3:                                              ; preds = %bb11
  store i32 0, ptr %count, align 4
  %_47 = icmp eq i64 ptrtoint (ptr @head to i64), 0
  %_48 = and i1 %_47, true
  %_49 = xor i1 %_48, true
  br i1 %_49, label %bb12, label %panic1

bb2:                                              ; preds = %bb11
  store i32 0, ptr %_0, align 4
  br label %bb6

bb12:                                             ; preds = %bb3
  %0 = load ptr, ptr @head, align 8
  store ptr %0, ptr %current, align 8
  br label %bb4

panic1:                                           ; preds = %bb3
; call core::panicking::panic_null_pointer_dereference
  call void @_ZN4core9panicking30panic_null_pointer_dereference17hf718fcc86a223baaE(ptr align 8 @alloc_eeb27bb533a028ab4691f3df73df7c94) #4
  unreachable

bb4:                                              ; preds = %bb14, %bb12
  %1 = load i32, ptr %count, align 4
  %2 = add i32 %1, 1
  store i32 %2, ptr %count, align 4
  %_18 = load ptr, ptr %current, align 8
  %_19 = ptrtoint ptr %_18 to i64
  %_22 = and i64 %_19, 7
  %_23 = icmp eq i64 %_22, 0
  br i1 %_23, label %bb8, label %panic2

bb8:                                              ; preds = %bb4
  %_50 = load ptr, ptr %current, align 8
  %_51 = ptrtoint ptr %_50 to i64
  %_54 = icmp eq i64 %_51, 0
  %_55 = and i1 %_54, true
  %_56 = xor i1 %_55, true
  br i1 %_56, label %bb13, label %panic3

panic2:                                           ; preds = %bb4
; call core::panicking::panic_misaligned_pointer_dereference
  call void @_ZN4core9panicking36panic_misaligned_pointer_dereference17hcc3cbded9382b6e5E(i64 8, i64 %_19, ptr align 8 @alloc_fb275da98637fce18a31e24c4d83c050) #4
  unreachable

bb13:                                             ; preds = %bb8
  %3 = load ptr, ptr %current, align 8
  %4 = getelementptr inbounds i8, ptr %3, i64 8
  %_7 = load ptr, ptr %4, align 8
  store ptr %_7, ptr %current, align 8
  %_9 = load ptr, ptr %current, align 8
  %_61 = icmp eq i64 ptrtoint (ptr @head to i64), 0
  %_62 = and i1 %_61, true
  %_63 = xor i1 %_62, true
  br i1 %_63, label %bb14, label %panic4

panic3:                                           ; preds = %bb8
; call core::panicking::panic_null_pointer_dereference
  call void @_ZN4core9panicking30panic_null_pointer_dereference17hf718fcc86a223baaE(ptr align 8 @alloc_fb275da98637fce18a31e24c4d83c050) #4
  unreachable

bb14:                                             ; preds = %bb13
  %_10 = load ptr, ptr @head, align 8
  %_8 = icmp ne ptr %_9, %_10
  br i1 %_8, label %bb4, label %bb5

panic4:                                           ; preds = %bb13
; call core::panicking::panic_null_pointer_dereference
  call void @_ZN4core9panicking30panic_null_pointer_dereference17hf718fcc86a223baaE(ptr align 8 @alloc_b58348d1999f591ca6cce161ff3ac674) #4
  unreachable

bb5:                                              ; preds = %bb14
  %5 = load i32, ptr %count, align 4
  store i32 %5, ptr %_0, align 4
  br label %bb6

bb6:                                              ; preds = %bb2, %bb5
  %6 = load i32, ptr %_0, align 4
  ret i32 %6
}

; Function Attrs: nounwind nonlazybind
declare ptr @malloc(i64) unnamed_addr #1

; core::panicking::panic_misaligned_pointer_dereference
; Function Attrs: cold minsize noinline noreturn nounwind nonlazybind optsize
declare void @_ZN4core9panicking36panic_misaligned_pointer_dereference17hcc3cbded9382b6e5E(i64, i64, ptr align 8) unnamed_addr #2

; core::panicking::panic_null_pointer_dereference
; Function Attrs: cold minsize noinline noreturn nounwind nonlazybind optsize
declare void @_ZN4core9panicking30panic_null_pointer_dereference17hf718fcc86a223baaE(ptr align 8) unnamed_addr #2

; Function Attrs: nounwind nonlazybind
declare i32 @printf(ptr, ...) unnamed_addr #1

; Function Attrs: nounwind nonlazybind
declare void @free(ptr) unnamed_addr #1

; Function Attrs: nounwind nonlazybind
declare i32 @puts(ptr) unnamed_addr #1

attributes #0 = { inlinehint nounwind nonlazybind "probe-stack"="inline-asm" "target-cpu"="x86-64" }
attributes #1 = { nounwind nonlazybind "probe-stack"="inline-asm" "target-cpu"="x86-64" }
attributes #2 = { cold minsize noinline noreturn nounwind nonlazybind optsize "probe-stack"="inline-asm" "target-cpu"="x86-64" }
attributes #3 = { nounwind }
attributes #4 = { noreturn nounwind }

!llvm.module.flags = !{!0, !1}
!llvm.ident = !{!2}

!0 = !{i32 8, !"PIC Level", i32 2}
!1 = !{i32 2, !"RtLibUseGOT", i32 1}
!2 = !{!"rustc version 1.88.0-nightly (0b45675cf 2025-03-31)"}
