; ModuleID = '28wx0cl7fi2lebkuvnbdqjvav'
source_filename = "28wx0cl7fi2lebkuvnbdqjvav"
target datalayout = "e-m:e-p270:32:32-p271:32:32-p272:64:64-i64:64-i128:128-f80:128-n8:16:32:64-S128"
target triple = "x86_64-unknown-linux-gnu"

@alloc_0ed0763d8bf93ac79247e07858374e35 = private unnamed_addr constant [210 x i8] c"unsafe precondition(s) violated: ptr::offset requires the address calculation to not overflow\0A\0AThis indicates a bug in the program. This Undefined Behavior check is optional, and cannot be relied on for safety.", align 1
@Head = global [8 x i8] zeroinitializer, align 8
@alloc_f5ffd2fd1476bab43ad89fb40c72d0c5 = private unnamed_addr constant [10 x i8] c"src/lib.rs", align 1
@alloc_1246e0776b198dcc257b8c1ce1bfa04e = private unnamed_addr constant <{ ptr, [16 x i8] }> <{ ptr @alloc_f5ffd2fd1476bab43ad89fb40c72d0c5, [16 x i8] c"\0A\00\00\00\00\00\00\00$\00\00\00\05\00\00\00" }>, align 8
@alloc_c03669db9c32bfa16e488e52e956abbc = private unnamed_addr constant <{ ptr, [16 x i8] }> <{ ptr @alloc_f5ffd2fd1476bab43ad89fb40c72d0c5, [16 x i8] c"\0A\00\00\00\00\00\00\00%\00\00\00\05\00\00\00" }>, align 8
@alloc_0b50959ea5d314dc6ee942953635721f = private unnamed_addr constant <{ ptr, [16 x i8] }> <{ ptr @alloc_f5ffd2fd1476bab43ad89fb40c72d0c5, [16 x i8] c"\0A\00\00\00\00\00\00\00&\00\00\00\05\00\00\00" }>, align 8
@alloc_78d1f23f99f96dc6ba930f92f1d80217 = private unnamed_addr constant <{ ptr, [16 x i8] }> <{ ptr @alloc_f5ffd2fd1476bab43ad89fb40c72d0c5, [16 x i8] c"\0A\00\00\00\00\00\00\00.\00\00\00\17\00\00\00" }>, align 8
@alloc_7830c888f7e3366782590f9eab6adbed = private unnamed_addr constant <{ ptr, [16 x i8] }> <{ ptr @alloc_f5ffd2fd1476bab43ad89fb40c72d0c5, [16 x i8] c"\0A\00\00\00\00\00\00\00.\00\00\00\05\00\00\00" }>, align 8
@alloc_cd438b3af5b0e483afa190703e8a27aa = private unnamed_addr constant <{ ptr, [16 x i8] }> <{ ptr @alloc_f5ffd2fd1476bab43ad89fb40c72d0c5, [16 x i8] c"\0A\00\00\00\00\00\00\000\00\00\00\1F\00\00\00" }>, align 8
@alloc_ca20538c37cf777301e64f36757617b4 = private unnamed_addr constant <{ ptr, [16 x i8] }> <{ ptr @alloc_f5ffd2fd1476bab43ad89fb40c72d0c5, [16 x i8] c"\0A\00\00\00\00\00\00\003\00\00\00\1E\00\00\00" }>, align 8
@alloc_c0984e0c1315b13285c38c2571ace8bd = private unnamed_addr constant <{ ptr, [16 x i8] }> <{ ptr @alloc_f5ffd2fd1476bab43ad89fb40c72d0c5, [16 x i8] c"\0A\00\00\00\00\00\00\004\00\00\00\09\00\00\00" }>, align 8
@alloc_c0f90236b5e415c2ebc24f248a4af884 = private unnamed_addr constant <{ ptr, [16 x i8] }> <{ ptr @alloc_f5ffd2fd1476bab43ad89fb40c72d0c5, [16 x i8] c"\0A\00\00\00\00\00\00\005\00\00\00\09\00\00\00" }>, align 8
@alloc_4d3bc7dc2083a75a6c7a1b9f0639b2b3 = private unnamed_addr constant <{ ptr, [16 x i8] }> <{ ptr @alloc_f5ffd2fd1476bab43ad89fb40c72d0c5, [16 x i8] c"\0A\00\00\00\00\00\00\006\00\00\00\1B\00\00\00" }>, align 8
@alloc_de5d4d065e4298fb573aeebdbf8313ea = private unnamed_addr constant <{ ptr, [16 x i8] }> <{ ptr @alloc_f5ffd2fd1476bab43ad89fb40c72d0c5, [16 x i8] c"\0A\00\00\00\00\00\00\006\00\00\00\09\00\00\00" }>, align 8
@alloc_63188e69ffb2521d05f02437e1ad7f52 = private unnamed_addr constant <{ ptr, [16 x i8] }> <{ ptr @alloc_f5ffd2fd1476bab43ad89fb40c72d0c5, [16 x i8] c"\0A\00\00\00\00\00\00\007\00\00\00\09\00\00\00" }>, align 8
@alloc_a6d3c876957c2bdf5277f353b97f33e1 = private unnamed_addr constant <{ ptr, [16 x i8] }> <{ ptr @alloc_f5ffd2fd1476bab43ad89fb40c72d0c5, [16 x i8] c"\0A\00\00\00\00\00\00\00C\00\00\00\10\00\00\00" }>, align 8
@alloc_e1a26b527f3d4608adc698eaea020cd6 = private unnamed_addr constant <{ ptr, [16 x i8] }> <{ ptr @alloc_f5ffd2fd1476bab43ad89fb40c72d0c5, [16 x i8] c"\0A\00\00\00\00\00\00\00D\00\00\00\16\00\00\00" }>, align 8
@alloc_a67fe295c40a0c275413aa6172148ebc = private unnamed_addr constant <{ ptr, [16 x i8] }> <{ ptr @alloc_f5ffd2fd1476bab43ad89fb40c72d0c5, [16 x i8] c"\0A\00\00\00\00\00\00\00M\00\00\00\17\00\00\00" }>, align 8
@alloc_b0dc3419ba98fe2a0cdebecee6164449 = private unnamed_addr constant <{ ptr, [16 x i8] }> <{ ptr @alloc_f5ffd2fd1476bab43ad89fb40c72d0c5, [16 x i8] c"\0A\00\00\00\00\00\00\00M\00\00\00\05\00\00\00" }>, align 8
@alloc_d276e58b0b165cf6e7ab175535023059 = private unnamed_addr constant <{ ptr, [16 x i8] }> <{ ptr @alloc_f5ffd2fd1476bab43ad89fb40c72d0c5, [16 x i8] c"\0A\00\00\00\00\00\00\00N\00\00\00\05\00\00\00" }>, align 8
@alloc_c8392a7bb5e658e44a53db765233883d = private unnamed_addr constant <{ ptr, [16 x i8] }> <{ ptr @alloc_f5ffd2fd1476bab43ad89fb40c72d0c5, [16 x i8] c"\0A\00\00\00\00\00\00\00O\00\00\00\17\00\00\00" }>, align 8
@alloc_6fbbe498723ac7f1a024e3e35d079c2e = private unnamed_addr constant <{ ptr, [16 x i8] }> <{ ptr @alloc_f5ffd2fd1476bab43ad89fb40c72d0c5, [16 x i8] c"\0A\00\00\00\00\00\00\00O\00\00\00\05\00\00\00" }>, align 8
@alloc_b6e19de1f5151b51b8788bfc8ca6e5c9 = private unnamed_addr constant <{ ptr, [16 x i8] }> <{ ptr @alloc_f5ffd2fd1476bab43ad89fb40c72d0c5, [16 x i8] c"\0A\00\00\00\00\00\00\00P\00\00\00\05\00\00\00" }>, align 8
@alloc_21bab6856a00df07d869582a6654a89d = private unnamed_addr constant <{ ptr, [16 x i8] }> <{ ptr @alloc_f5ffd2fd1476bab43ad89fb40c72d0c5, [16 x i8] c"\0A\00\00\00\00\00\00\00Q\00\00\00\05\00\00\00" }>, align 8
@alloc_d472fafcedfe8f4a282500d54ddf6cf5 = private unnamed_addr constant <{ ptr, [16 x i8] }> <{ ptr @alloc_f5ffd2fd1476bab43ad89fb40c72d0c5, [16 x i8] c"\0A\00\00\00\00\00\00\00j\00\00\00\18\00\00\00" }>, align 8
@alloc_fdc5f6fe634689cdbcb2296e8963e5df = private unnamed_addr constant <{ ptr, [16 x i8] }> <{ ptr @alloc_f5ffd2fd1476bab43ad89fb40c72d0c5, [16 x i8] c"\0A\00\00\00\00\00\00\00j\00\00\00\09\00\00\00" }>, align 8
@alloc_0e4817f84c4ba2f42b24589c33fcfeb7 = private unnamed_addr constant <{ ptr, [16 x i8] }> <{ ptr @alloc_f5ffd2fd1476bab43ad89fb40c72d0c5, [16 x i8] c"\0A\00\00\00\00\00\00\00k\00\00\00\09\00\00\00" }>, align 8
@alloc_f60bb59bae9fdbf37b53969edd55058a = private unnamed_addr constant <{ ptr, [16 x i8] }> <{ ptr @alloc_f5ffd2fd1476bab43ad89fb40c72d0c5, [16 x i8] c"\0A\00\00\00\00\00\00\00l\00\00\00\09\00\00\00" }>, align 8
@alloc_8aaf0cbe5467e4838b8bc1d98e57daa9 = private unnamed_addr constant <{ ptr, [16 x i8] }> <{ ptr @alloc_f5ffd2fd1476bab43ad89fb40c72d0c5, [16 x i8] c"\0A\00\00\00\00\00\00\00m\00\00\00\09\00\00\00" }>, align 8
@alloc_190a572351fb27372e997653e6df2cb8 = private unnamed_addr constant <{ ptr, [16 x i8] }> <{ ptr @alloc_f5ffd2fd1476bab43ad89fb40c72d0c5, [16 x i8] c"\0A\00\00\00\00\00\00\00f\00\00\00\16\00\00\00" }>, align 8
@alloc_a6453793a4f3c961401faf7b9061379a = private unnamed_addr constant <{ ptr, [16 x i8] }> <{ ptr @alloc_f5ffd2fd1476bab43ad89fb40c72d0c5, [16 x i8] c"\0A\00\00\00\00\00\00\00v\00\00\00\1B\00\00\00" }>, align 8
@alloc_895efbad2db1396e235002dca0141b1a = private unnamed_addr constant <{ ptr, [16 x i8] }> <{ ptr @alloc_f5ffd2fd1476bab43ad89fb40c72d0c5, [16 x i8] c"\0A\00\00\00\00\00\00\00z\00\00\00 \00\00\00" }>, align 8
@alloc_4fce098e5e503b6bfe31d308e01624d7 = private unnamed_addr constant <{ ptr, [16 x i8] }> <{ ptr @alloc_f5ffd2fd1476bab43ad89fb40c72d0c5, [16 x i8] c"\0A\00\00\00\00\00\00\00z\00\00\00\09\00\00\00" }>, align 8
@alloc_48c557ee59b83a5e686aa613d9a7deae = private unnamed_addr constant <{ ptr, [16 x i8] }> <{ ptr @alloc_f5ffd2fd1476bab43ad89fb40c72d0c5, [16 x i8] c"\0A\00\00\00\00\00\00\00{\00\00\00\10\00\00\00" }>, align 8
@alloc_faa77273d412a3370397282c48abd832 = private unnamed_addr constant <{ ptr, [16 x i8] }> <{ ptr @alloc_f5ffd2fd1476bab43ad89fb40c72d0c5, [16 x i8] c"\0A\00\00\00\00\00\00\00{\00\00\00\09\00\00\00" }>, align 8
@alloc_5f249e5f3d2fe5c70c712fde84671346 = private unnamed_addr constant <{ ptr, [16 x i8] }> <{ ptr @alloc_f5ffd2fd1476bab43ad89fb40c72d0c5, [16 x i8] c"\0A\00\00\00\00\00\00\00|\00\00\00\18\00\00\00" }>, align 8
@alloc_6315b79dba6f789e11adb693d3b81db7 = private unnamed_addr constant <{ ptr, [16 x i8] }> <{ ptr @alloc_f5ffd2fd1476bab43ad89fb40c72d0c5, [16 x i8] c"\0A\00\00\00\00\00\00\00|\00\00\00\09\00\00\00" }>, align 8
@alloc_f1ae162b661c8b5bd8beb6c43adc6c9e = private unnamed_addr constant <{ ptr, [16 x i8] }> <{ ptr @alloc_f5ffd2fd1476bab43ad89fb40c72d0c5, [16 x i8] c"\0A\00\00\00\00\00\00\00}\00\00\00\13\00\00\00" }>, align 8
@alloc_05dbaaa78b758ff994a0921953d097ec = private unnamed_addr constant <{ ptr, [16 x i8] }> <{ ptr @alloc_f5ffd2fd1476bab43ad89fb40c72d0c5, [16 x i8] c"\0A\00\00\00\00\00\00\00\86\00\00\00 \00\00\00" }>, align 8
@alloc_693c2a8883c4b85731770c54313a3051 = private unnamed_addr constant <{ ptr, [16 x i8] }> <{ ptr @alloc_f5ffd2fd1476bab43ad89fb40c72d0c5, [16 x i8] c"\0A\00\00\00\00\00\00\00\86\00\00\00\09\00\00\00" }>, align 8
@alloc_5e5c890aa740a3eb9066ec17987945a7 = private unnamed_addr constant <{ ptr, [16 x i8] }> <{ ptr @alloc_f5ffd2fd1476bab43ad89fb40c72d0c5, [16 x i8] c"\0A\00\00\00\00\00\00\00\87\00\00\00 \00\00\00" }>, align 8
@alloc_fa7cb792d868834bda8b7d5900da621b = private unnamed_addr constant <{ ptr, [16 x i8] }> <{ ptr @alloc_f5ffd2fd1476bab43ad89fb40c72d0c5, [16 x i8] c"\0A\00\00\00\00\00\00\00\87\00\00\00\09\00\00\00" }>, align 8
@alloc_803f056882f7eebf2ec2da42a7f71618 = private unnamed_addr constant <{ ptr, [16 x i8] }> <{ ptr @alloc_f5ffd2fd1476bab43ad89fb40c72d0c5, [16 x i8] c"\0A\00\00\00\00\00\00\00\88\00\00\00\13\00\00\00" }>, align 8
@alloc_37e19761c75fdac2bfbcfd14138266e0 = private unnamed_addr constant <{ ptr, [16 x i8] }> <{ ptr @alloc_f5ffd2fd1476bab43ad89fb40c72d0c5, [16 x i8] c"\0A\00\00\00\00\00\00\00\82\00\00\00\14\00\00\00" }>, align 8
@alloc_b929c71616281bfd1be2bd4038d3ddf1 = private unnamed_addr constant [4 x i8] c"%d \00", align 1
@alloc_45fc568dd63b80d3cd80aaf5ae655264 = private unnamed_addr constant <{ ptr, [16 x i8] }> <{ ptr @alloc_f5ffd2fd1476bab43ad89fb40c72d0c5, [16 x i8] c"\0A\00\00\00\00\00\00\00\90\00\00\00>\00\00\00" }>, align 8
@alloc_80eebcf601c1bb14a8b3d1dda7348f7d = private unnamed_addr constant <{ ptr, [16 x i8] }> <{ ptr @alloc_f5ffd2fd1476bab43ad89fb40c72d0c5, [16 x i8] c"\0A\00\00\00\00\00\00\00\91\00\00\00\10\00\00\00" }>, align 8
@alloc_a92d6d589a030a9a6ddc3bbb929dfdec = private unnamed_addr constant <{ ptr, [16 x i8] }> <{ ptr @alloc_f5ffd2fd1476bab43ad89fb40c72d0c5, [16 x i8] c"\0A\00\00\00\00\00\00\00\92\00\00\00\16\00\00\00" }>, align 8
@alloc_f3588b28b94f0809fcc8d717033d3e48 = private unnamed_addr constant [2 x i8] c"\0A\00", align 1

; core::intrinsics::cold_path
; Function Attrs: cold nounwind nonlazybind
define internal void @_ZN4core10intrinsics9cold_path17hb1326adf33a70740E() unnamed_addr #0 {
start:
  ret void
}

; core::ptr::mut_ptr::<impl *mut T>::offset::precondition_check
; Function Attrs: inlinehint nounwind nonlazybind
define internal void @"_ZN4core3ptr7mut_ptr31_$LT$impl$u20$$BP$mut$u20$T$GT$6offset18precondition_check17h70aba3aa6b8f6a6dE"(ptr %this, i64 %count, i64 %size) unnamed_addr #1 {
start:
  %0 = call { i64, i1 } @llvm.smul.with.overflow.i64(i64 %count, i64 %size)
  %_10.0 = extractvalue { i64, i1 } %0, 0
  %_10.1 = extractvalue { i64, i1 } %0, 1
  br i1 %_10.1, label %bb3, label %bb5

bb5:                                              ; preds = %start
  %self = ptrtoint ptr %this to i64
  %1 = call { i64, i1 } @llvm.uadd.with.overflow.i64(i64 %self, i64 %_10.0)
  %_19.0 = extractvalue { i64, i1 } %1, 0
  %_19.1 = extractvalue { i64, i1 } %1, 1
  %_17 = icmp slt i64 %_10.0, 0
  %overflow = xor i1 %_19.1, %_17
  %_4 = xor i1 %overflow, true
  br i1 %_4, label %bb1, label %bb2

bb3:                                              ; preds = %start
  br label %bb2

bb2:                                              ; preds = %bb3, %bb5
; call core::panicking::panic_nounwind
  call void @_ZN4core9panicking14panic_nounwind17h211d9ce8d63f12e7E(ptr align 1 @alloc_0ed0763d8bf93ac79247e07858374e35, i64 210) #6
  unreachable

bb1:                                              ; preds = %bb5
  ret void
}

; core::ptr::mut_ptr::<impl *mut T>::is_null
; Function Attrs: inlinehint nounwind nonlazybind
define internal zeroext i1 @"_ZN4core3ptr7mut_ptr31_$LT$impl$u20$$BP$mut$u20$T$GT$7is_null17h8769b3fb25ae51baE"(ptr %self) unnamed_addr #1 {
start:
  %_3 = ptrtoint ptr %self to i64
  %_0 = icmp eq i64 %_3, 0
  ret i1 %_0
}

; Function Attrs: nounwind nonlazybind
define ptr @createNode(i32 %value) unnamed_addr #2 {
start:
  %_2 = call ptr @malloc(i64 24) #7
  %_18 = ptrtoint ptr %_2 to i64
  %_21 = and i64 %_18, 7
  %_22 = icmp eq i64 %_21, 0
  br i1 %_22, label %bb5, label %panic

bb5:                                              ; preds = %start
  %_24 = ptrtoint ptr %_2 to i64
  %_27 = icmp eq i64 %_24, 0
  %_28 = and i1 %_27, true
  %_29 = xor i1 %_28, true
  br i1 %_29, label %bb6, label %panic1

panic:                                            ; preds = %start
; call core::panicking::panic_misaligned_pointer_dereference
  call void @_ZN4core9panicking36panic_misaligned_pointer_dereference17hcc3cbded9382b6e5E(i64 8, i64 %_18, ptr align 8 @alloc_1246e0776b198dcc257b8c1ce1bfa04e) #6
  unreachable

bb6:                                              ; preds = %bb5
  store ptr %_2, ptr %_2, align 8
  %_12 = ptrtoint ptr %_2 to i64
  %_15 = and i64 %_12, 7
  %_16 = icmp eq i64 %_15, 0
  br i1 %_16, label %bb4, label %panic2

panic1:                                           ; preds = %bb5
; call core::panicking::panic_null_pointer_dereference
  call void @_ZN4core9panicking30panic_null_pointer_dereference17hf718fcc86a223baaE(ptr align 8 @alloc_1246e0776b198dcc257b8c1ce1bfa04e) #6
  unreachable

bb4:                                              ; preds = %bb6
  %_31 = ptrtoint ptr %_2 to i64
  %_34 = icmp eq i64 %_31, 0
  %_35 = and i1 %_34, true
  %_36 = xor i1 %_35, true
  br i1 %_36, label %bb7, label %panic3

panic2:                                           ; preds = %bb6
; call core::panicking::panic_misaligned_pointer_dereference
  call void @_ZN4core9panicking36panic_misaligned_pointer_dereference17hcc3cbded9382b6e5E(i64 8, i64 %_12, ptr align 8 @alloc_c03669db9c32bfa16e488e52e956abbc) #6
  unreachable

bb7:                                              ; preds = %bb4
  %0 = getelementptr inbounds i8, ptr %_2, i64 8
  store i32 %value, ptr %0, align 8
  %_6 = ptrtoint ptr %_2 to i64
  %_9 = and i64 %_6, 7
  %_10 = icmp eq i64 %_9, 0
  br i1 %_10, label %bb3, label %panic4

panic3:                                           ; preds = %bb4
; call core::panicking::panic_null_pointer_dereference
  call void @_ZN4core9panicking30panic_null_pointer_dereference17hf718fcc86a223baaE(ptr align 8 @alloc_c03669db9c32bfa16e488e52e956abbc) #6
  unreachable

bb3:                                              ; preds = %bb7
  %_38 = ptrtoint ptr %_2 to i64
  %_41 = icmp eq i64 %_38, 0
  %_42 = and i1 %_41, true
  %_43 = xor i1 %_42, true
  br i1 %_43, label %bb8, label %panic5

panic4:                                           ; preds = %bb7
; call core::panicking::panic_misaligned_pointer_dereference
  call void @_ZN4core9panicking36panic_misaligned_pointer_dereference17hcc3cbded9382b6e5E(i64 8, i64 %_6, ptr align 8 @alloc_0b50959ea5d314dc6ee942953635721f) #6
  unreachable

bb8:                                              ; preds = %bb3
  %1 = getelementptr inbounds i8, ptr %_2, i64 16
  store ptr %_2, ptr %1, align 8
  ret ptr %_2

panic5:                                           ; preds = %bb3
; call core::panicking::panic_null_pointer_dereference
  call void @_ZN4core9panicking30panic_null_pointer_dereference17hf718fcc86a223baaE(ptr align 8 @alloc_0b50959ea5d314dc6ee942953635721f) #6
  unreachable
}

; Function Attrs: nounwind nonlazybind
define void @createLinkList(ptr %values, i32 %length) unnamed_addr #2 {
start:
  %i = alloca [4 x i8], align 4
  %last = alloca [8 x i8], align 8
  %current = alloca [8 x i8], align 8
; call core::ptr::mut_ptr::<impl *mut T>::offset::precondition_check
  call void @"_ZN4core3ptr7mut_ptr31_$LT$impl$u20$$BP$mut$u20$T$GT$6offset18precondition_check17h70aba3aa6b8f6a6dE"(ptr %values, i64 0, i64 4) #7
  %_76 = ptrtoint ptr %values to i64
  %_79 = and i64 %_76, 3
  %_80 = icmp eq i64 %_79, 0
  br i1 %_80, label %bb16, label %panic

bb16:                                             ; preds = %start
  %_82 = ptrtoint ptr %values to i64
  %_85 = icmp eq i64 %_82, 0
  %_86 = and i1 %_85, true
  %_87 = xor i1 %_86, true
  br i1 %_87, label %bb17, label %panic1

panic:                                            ; preds = %start
; call core::panicking::panic_misaligned_pointer_dereference
  call void @_ZN4core9panicking36panic_misaligned_pointer_dereference17hcc3cbded9382b6e5E(i64 4, i64 %_76, ptr align 8 @alloc_78d1f23f99f96dc6ba930f92f1d80217) #6
  unreachable

bb17:                                             ; preds = %bb16
  %_4 = load i32, ptr %values, align 4
  %_3 = call ptr @createNode(i32 %_4) #7
  %_92 = icmp eq i64 ptrtoint (ptr @Head to i64), 0
  %_93 = and i1 %_92, true
  %_94 = xor i1 %_93, true
  br i1 %_94, label %bb18, label %panic2

panic1:                                           ; preds = %bb16
; call core::panicking::panic_null_pointer_dereference
  call void @_ZN4core9panicking30panic_null_pointer_dereference17hf718fcc86a223baaE(ptr align 8 @alloc_78d1f23f99f96dc6ba930f92f1d80217) #6
  unreachable

bb18:                                             ; preds = %bb17
  store ptr %_3, ptr @Head, align 8
  store ptr null, ptr %current, align 8
  %_99 = icmp eq i64 ptrtoint (ptr @Head to i64), 0
  %_100 = and i1 %_99, true
  %_101 = xor i1 %_100, true
  br i1 %_101, label %bb19, label %panic3

panic2:                                           ; preds = %bb17
; call core::panicking::panic_null_pointer_dereference
  call void @_ZN4core9panicking30panic_null_pointer_dereference17hf718fcc86a223baaE(ptr align 8 @alloc_7830c888f7e3366782590f9eab6adbed) #6
  unreachable

bb19:                                             ; preds = %bb18
  %0 = load ptr, ptr @Head, align 8
  store ptr %0, ptr %last, align 8
  store i32 1, ptr %i, align 4
  br label %bb3

panic3:                                           ; preds = %bb18
; call core::panicking::panic_null_pointer_dereference
  call void @_ZN4core9panicking30panic_null_pointer_dereference17hf718fcc86a223baaE(ptr align 8 @alloc_cd438b3af5b0e483afa190703e8a27aa) #6
  unreachable

bb3:                                              ; preds = %bb25, %bb19
  %_13 = load i32, ptr %i, align 4
  %_12 = icmp slt i32 %_13, %length
  br i1 %_12, label %bb4, label %bb7

bb7:                                              ; preds = %bb3
  ret void

bb4:                                              ; preds = %bb3
  %_18 = load i32, ptr %i, align 4
  %_17 = sext i32 %_18 to i64
; call core::ptr::mut_ptr::<impl *mut T>::offset::precondition_check
  call void @"_ZN4core3ptr7mut_ptr31_$LT$impl$u20$$BP$mut$u20$T$GT$6offset18precondition_check17h70aba3aa6b8f6a6dE"(ptr %values, i64 %_17, i64 4) #7
  %_0.i = getelementptr inbounds i32, ptr %values, i64 %_17
  %_58 = ptrtoint ptr %_0.i to i64
  %_61 = and i64 %_58, 3
  %_62 = icmp eq i64 %_61, 0
  br i1 %_62, label %bb13, label %panic4

bb13:                                             ; preds = %bb4
  %_103 = ptrtoint ptr %_0.i to i64
  %_106 = icmp eq i64 %_103, 0
  %_107 = and i1 %_106, true
  %_108 = xor i1 %_107, true
  br i1 %_108, label %bb20, label %panic5

panic4:                                           ; preds = %bb4
; call core::panicking::panic_misaligned_pointer_dereference
  call void @_ZN4core9panicking36panic_misaligned_pointer_dereference17hcc3cbded9382b6e5E(i64 4, i64 %_58, ptr align 8 @alloc_ca20538c37cf777301e64f36757617b4) #6
  unreachable

bb20:                                             ; preds = %bb13
  %_15 = load i32, ptr %_0.i, align 4
  %_14 = call ptr @createNode(i32 %_15) #7
  store ptr %_14, ptr %current, align 8
  %_19 = load ptr, ptr %current, align 8
  %_51 = load ptr, ptr %last, align 8
  %_52 = ptrtoint ptr %_51 to i64
  %_55 = and i64 %_52, 7
  %_56 = icmp eq i64 %_55, 0
  br i1 %_56, label %bb12, label %panic6

panic5:                                           ; preds = %bb13
; call core::panicking::panic_null_pointer_dereference
  call void @_ZN4core9panicking30panic_null_pointer_dereference17hf718fcc86a223baaE(ptr align 8 @alloc_ca20538c37cf777301e64f36757617b4) #6
  unreachable

bb12:                                             ; preds = %bb20
  %_109 = load ptr, ptr %last, align 8
  %_110 = ptrtoint ptr %_109 to i64
  %_113 = icmp eq i64 %_110, 0
  %_114 = and i1 %_113, true
  %_115 = xor i1 %_114, true
  br i1 %_115, label %bb21, label %panic7

panic6:                                           ; preds = %bb20
; call core::panicking::panic_misaligned_pointer_dereference
  call void @_ZN4core9panicking36panic_misaligned_pointer_dereference17hcc3cbded9382b6e5E(i64 8, i64 %_52, ptr align 8 @alloc_c0984e0c1315b13285c38c2571ace8bd) #6
  unreachable

bb21:                                             ; preds = %bb12
  %1 = load ptr, ptr %last, align 8
  %2 = getelementptr inbounds i8, ptr %1, i64 16
  store ptr %_19, ptr %2, align 8
  %_20 = load ptr, ptr %last, align 8
  %_45 = load ptr, ptr %current, align 8
  %_46 = ptrtoint ptr %_45 to i64
  %_49 = and i64 %_46, 7
  %_50 = icmp eq i64 %_49, 0
  br i1 %_50, label %bb11, label %panic8

panic7:                                           ; preds = %bb12
; call core::panicking::panic_null_pointer_dereference
  call void @_ZN4core9panicking30panic_null_pointer_dereference17hf718fcc86a223baaE(ptr align 8 @alloc_c0984e0c1315b13285c38c2571ace8bd) #6
  unreachable

bb11:                                             ; preds = %bb21
  %_116 = load ptr, ptr %current, align 8
  %_117 = ptrtoint ptr %_116 to i64
  %_120 = icmp eq i64 %_117, 0
  %_121 = and i1 %_120, true
  %_122 = xor i1 %_121, true
  br i1 %_122, label %bb22, label %panic9

panic8:                                           ; preds = %bb21
; call core::panicking::panic_misaligned_pointer_dereference
  call void @_ZN4core9panicking36panic_misaligned_pointer_dereference17hcc3cbded9382b6e5E(i64 8, i64 %_46, ptr align 8 @alloc_c0f90236b5e415c2ebc24f248a4af884) #6
  unreachable

bb22:                                             ; preds = %bb11
  %3 = load ptr, ptr %current, align 8
  store ptr %_20, ptr %3, align 8
  %_127 = icmp eq i64 ptrtoint (ptr @Head to i64), 0
  %_128 = and i1 %_127, true
  %_129 = xor i1 %_128, true
  br i1 %_129, label %bb23, label %panic10

panic9:                                           ; preds = %bb11
; call core::panicking::panic_null_pointer_dereference
  call void @_ZN4core9panicking30panic_null_pointer_dereference17hf718fcc86a223baaE(ptr align 8 @alloc_c0f90236b5e415c2ebc24f248a4af884) #6
  unreachable

bb23:                                             ; preds = %bb22
  %_21 = load ptr, ptr @Head, align 8
  %_33 = load ptr, ptr %current, align 8
  %_34 = ptrtoint ptr %_33 to i64
  %_37 = and i64 %_34, 7
  %_38 = icmp eq i64 %_37, 0
  br i1 %_38, label %bb9, label %panic11

panic10:                                          ; preds = %bb22
; call core::panicking::panic_null_pointer_dereference
  call void @_ZN4core9panicking30panic_null_pointer_dereference17hf718fcc86a223baaE(ptr align 8 @alloc_4d3bc7dc2083a75a6c7a1b9f0639b2b3) #6
  unreachable

bb9:                                              ; preds = %bb23
  %_130 = load ptr, ptr %current, align 8
  %_131 = ptrtoint ptr %_130 to i64
  %_134 = icmp eq i64 %_131, 0
  %_135 = and i1 %_134, true
  %_136 = xor i1 %_135, true
  br i1 %_136, label %bb24, label %panic12

panic11:                                          ; preds = %bb23
; call core::panicking::panic_misaligned_pointer_dereference
  call void @_ZN4core9panicking36panic_misaligned_pointer_dereference17hcc3cbded9382b6e5E(i64 8, i64 %_34, ptr align 8 @alloc_de5d4d065e4298fb573aeebdbf8313ea) #6
  unreachable

bb24:                                             ; preds = %bb9
  %4 = load ptr, ptr %current, align 8
  %5 = getelementptr inbounds i8, ptr %4, i64 16
  store ptr %_21, ptr %5, align 8
  %_23 = load ptr, ptr %current, align 8
  %_26 = load ptr, ptr @Head, align 8
  %_28 = ptrtoint ptr %_26 to i64
  %_31 = and i64 %_28, 7
  %_32 = icmp eq i64 %_31, 0
  br i1 %_32, label %bb8, label %panic13

panic12:                                          ; preds = %bb9
; call core::panicking::panic_null_pointer_dereference
  call void @_ZN4core9panicking30panic_null_pointer_dereference17hf718fcc86a223baaE(ptr align 8 @alloc_de5d4d065e4298fb573aeebdbf8313ea) #6
  unreachable

bb8:                                              ; preds = %bb24
  %_138 = ptrtoint ptr %_26 to i64
  %_141 = icmp eq i64 %_138, 0
  %_142 = and i1 %_141, true
  %_143 = xor i1 %_142, true
  br i1 %_143, label %bb25, label %panic14

panic13:                                          ; preds = %bb24
; call core::panicking::panic_misaligned_pointer_dereference
  call void @_ZN4core9panicking36panic_misaligned_pointer_dereference17hcc3cbded9382b6e5E(i64 8, i64 %_28, ptr align 8 @alloc_63188e69ffb2521d05f02437e1ad7f52) #6
  unreachable

bb25:                                             ; preds = %bb8
  store ptr %_23, ptr %_26, align 8
  %_25 = load ptr, ptr %current, align 8
  store ptr %_25, ptr %last, align 8
  %6 = load i32, ptr %i, align 4
  %7 = add i32 %6, 1
  store i32 %7, ptr %i, align 4
  br label %bb3

panic14:                                          ; preds = %bb8
; call core::panicking::panic_null_pointer_dereference
  call void @_ZN4core9panicking30panic_null_pointer_dereference17hf718fcc86a223baaE(ptr align 8 @alloc_63188e69ffb2521d05f02437e1ad7f52) #6
  unreachable
}

; Function Attrs: nounwind nonlazybind
define i32 @findLength(ptr %0) unnamed_addr #2 {
start:
  %length = alloca [4 x i8], align 4
  %node = alloca [8 x i8], align 8
  store ptr %0, ptr %node, align 8
  store i32 0, ptr %length, align 4
  br label %bb1

bb1:                                              ; preds = %bb6, %start
  %1 = load i32, ptr %length, align 4
  %2 = add i32 %1, 1
  store i32 %2, ptr %length, align 4
  %_14 = load ptr, ptr %node, align 8
  %_15 = ptrtoint ptr %_14 to i64
  %_18 = and i64 %_15, 7
  %_19 = icmp eq i64 %_18, 0
  br i1 %_19, label %bb4, label %panic

bb4:                                              ; preds = %bb1
  %_20 = load ptr, ptr %node, align 8
  %_21 = ptrtoint ptr %_20 to i64
  %_24 = icmp eq i64 %_21, 0
  %_25 = and i1 %_24, true
  %_26 = xor i1 %_25, true
  br i1 %_26, label %bb5, label %panic1

panic:                                            ; preds = %bb1
; call core::panicking::panic_misaligned_pointer_dereference
  call void @_ZN4core9panicking36panic_misaligned_pointer_dereference17hcc3cbded9382b6e5E(i64 8, i64 %_15, ptr align 8 @alloc_a6d3c876957c2bdf5277f353b97f33e1) #6
  unreachable

bb5:                                              ; preds = %bb4
  %3 = load ptr, ptr %node, align 8
  %4 = getelementptr inbounds i8, ptr %3, i64 16
  %_3 = load ptr, ptr %4, align 8
  store ptr %_3, ptr %node, align 8
  %_5 = load ptr, ptr %node, align 8
  %_31 = icmp eq i64 ptrtoint (ptr @Head to i64), 0
  %_32 = and i1 %_31, true
  %_33 = xor i1 %_32, true
  br i1 %_33, label %bb6, label %panic2

panic1:                                           ; preds = %bb4
; call core::panicking::panic_null_pointer_dereference
  call void @_ZN4core9panicking30panic_null_pointer_dereference17hf718fcc86a223baaE(ptr align 8 @alloc_a6d3c876957c2bdf5277f353b97f33e1) #6
  unreachable

bb6:                                              ; preds = %bb5
  %_6 = load ptr, ptr @Head, align 8
  %_4 = icmp ne ptr %_5, %_6
  br i1 %_4, label %bb1, label %bb2

panic2:                                           ; preds = %bb5
; call core::panicking::panic_null_pointer_dereference
  call void @_ZN4core9panicking30panic_null_pointer_dereference17hf718fcc86a223baaE(ptr align 8 @alloc_e1a26b527f3d4608adc698eaea020cd6) #6
  unreachable

bb2:                                              ; preds = %bb6
  %_0 = load i32, ptr %length, align 4
  ret i32 %_0
}

; Function Attrs: nounwind nonlazybind
define void @insertHead(ptr %0, i32 %value) unnamed_addr #2 {
start:
  %current = alloca [8 x i8], align 8
  store ptr %0, ptr %current, align 8
  %_3 = call ptr @createNode(i32 %value) #7
  store ptr %_3, ptr %current, align 8
  %_64 = icmp eq i64 ptrtoint (ptr @Head to i64), 0
  %_65 = and i1 %_64, true
  %_66 = xor i1 %_65, true
  br i1 %_66, label %bb9, label %panic

bb9:                                              ; preds = %start
  %_4 = load ptr, ptr @Head, align 8
  %_48 = load ptr, ptr %current, align 8
  %_49 = ptrtoint ptr %_48 to i64
  %_52 = and i64 %_49, 7
  %_53 = icmp eq i64 %_52, 0
  br i1 %_53, label %bb7, label %panic1

panic:                                            ; preds = %start
; call core::panicking::panic_null_pointer_dereference
  call void @_ZN4core9panicking30panic_null_pointer_dereference17hf718fcc86a223baaE(ptr align 8 @alloc_a67fe295c40a0c275413aa6172148ebc) #6
  unreachable

bb7:                                              ; preds = %bb9
  %_67 = load ptr, ptr %current, align 8
  %_68 = ptrtoint ptr %_67 to i64
  %_71 = icmp eq i64 %_68, 0
  %_72 = and i1 %_71, true
  %_73 = xor i1 %_72, true
  br i1 %_73, label %bb10, label %panic2

panic1:                                           ; preds = %bb9
; call core::panicking::panic_misaligned_pointer_dereference
  call void @_ZN4core9panicking36panic_misaligned_pointer_dereference17hcc3cbded9382b6e5E(i64 8, i64 %_49, ptr align 8 @alloc_b0dc3419ba98fe2a0cdebecee6164449) #6
  unreachable

bb10:                                             ; preds = %bb7
  %1 = load ptr, ptr %current, align 8
  %2 = getelementptr inbounds i8, ptr %1, i64 16
  store ptr %_4, ptr %2, align 8
  %_6 = load ptr, ptr %current, align 8
  %_14 = load ptr, ptr @Head, align 8
  %_15 = load ptr, ptr %_14, align 8
  %_43 = ptrtoint ptr %_15 to i64
  %_46 = and i64 %_43, 7
  %_47 = icmp eq i64 %_46, 0
  br i1 %_47, label %bb6, label %panic3

panic2:                                           ; preds = %bb7
; call core::panicking::panic_null_pointer_dereference
  call void @_ZN4core9panicking30panic_null_pointer_dereference17hf718fcc86a223baaE(ptr align 8 @alloc_b0dc3419ba98fe2a0cdebecee6164449) #6
  unreachable

bb6:                                              ; preds = %bb10
  %_75 = ptrtoint ptr %_15 to i64
  %_78 = icmp eq i64 %_75, 0
  %_79 = and i1 %_78, true
  %_80 = xor i1 %_79, true
  br i1 %_80, label %bb11, label %panic4

panic3:                                           ; preds = %bb10
; call core::panicking::panic_misaligned_pointer_dereference
  call void @_ZN4core9panicking36panic_misaligned_pointer_dereference17hcc3cbded9382b6e5E(i64 8, i64 %_43, ptr align 8 @alloc_d276e58b0b165cf6e7ab175535023059) #6
  unreachable

bb11:                                             ; preds = %bb6
  %3 = getelementptr inbounds i8, ptr %_15, i64 16
  store ptr %_6, ptr %3, align 8
  %_16 = load ptr, ptr @Head, align 8
  %_37 = ptrtoint ptr %_16 to i64
  %_40 = and i64 %_37, 7
  %_41 = icmp eq i64 %_40, 0
  br i1 %_41, label %bb5, label %panic5

panic4:                                           ; preds = %bb6
; call core::panicking::panic_null_pointer_dereference
  call void @_ZN4core9panicking30panic_null_pointer_dereference17hf718fcc86a223baaE(ptr align 8 @alloc_d276e58b0b165cf6e7ab175535023059) #6
  unreachable

bb5:                                              ; preds = %bb11
  %_82 = ptrtoint ptr %_16 to i64
  %_85 = icmp eq i64 %_82, 0
  %_86 = and i1 %_85, true
  %_87 = xor i1 %_86, true
  br i1 %_87, label %bb12, label %panic6

panic5:                                           ; preds = %bb11
; call core::panicking::panic_misaligned_pointer_dereference
  call void @_ZN4core9panicking36panic_misaligned_pointer_dereference17hcc3cbded9382b6e5E(i64 8, i64 %_37, ptr align 8 @alloc_c8392a7bb5e658e44a53db765233883d) #6
  unreachable

bb12:                                             ; preds = %bb5
  %_8 = load ptr, ptr %_16, align 8
  %_30 = load ptr, ptr %current, align 8
  %_31 = ptrtoint ptr %_30 to i64
  %_34 = and i64 %_31, 7
  %_35 = icmp eq i64 %_34, 0
  br i1 %_35, label %bb4, label %panic7

panic6:                                           ; preds = %bb5
; call core::panicking::panic_null_pointer_dereference
  call void @_ZN4core9panicking30panic_null_pointer_dereference17hf718fcc86a223baaE(ptr align 8 @alloc_c8392a7bb5e658e44a53db765233883d) #6
  unreachable

bb4:                                              ; preds = %bb12
  %_88 = load ptr, ptr %current, align 8
  %_89 = ptrtoint ptr %_88 to i64
  %_92 = icmp eq i64 %_89, 0
  %_93 = and i1 %_92, true
  %_94 = xor i1 %_93, true
  br i1 %_94, label %bb13, label %panic8

panic7:                                           ; preds = %bb12
; call core::panicking::panic_misaligned_pointer_dereference
  call void @_ZN4core9panicking36panic_misaligned_pointer_dereference17hcc3cbded9382b6e5E(i64 8, i64 %_31, ptr align 8 @alloc_6fbbe498723ac7f1a024e3e35d079c2e) #6
  unreachable

bb13:                                             ; preds = %bb4
  %4 = load ptr, ptr %current, align 8
  store ptr %_8, ptr %4, align 8
  %_10 = load ptr, ptr %current, align 8
  %_17 = load ptr, ptr @Head, align 8
  %_25 = ptrtoint ptr %_17 to i64
  %_28 = and i64 %_25, 7
  %_29 = icmp eq i64 %_28, 0
  br i1 %_29, label %bb3, label %panic9

panic8:                                           ; preds = %bb4
; call core::panicking::panic_null_pointer_dereference
  call void @_ZN4core9panicking30panic_null_pointer_dereference17hf718fcc86a223baaE(ptr align 8 @alloc_6fbbe498723ac7f1a024e3e35d079c2e) #6
  unreachable

bb3:                                              ; preds = %bb13
  %_96 = ptrtoint ptr %_17 to i64
  %_99 = icmp eq i64 %_96, 0
  %_100 = and i1 %_99, true
  %_101 = xor i1 %_100, true
  br i1 %_101, label %bb14, label %panic10

panic9:                                           ; preds = %bb13
; call core::panicking::panic_misaligned_pointer_dereference
  call void @_ZN4core9panicking36panic_misaligned_pointer_dereference17hcc3cbded9382b6e5E(i64 8, i64 %_25, ptr align 8 @alloc_b6e19de1f5151b51b8788bfc8ca6e5c9) #6
  unreachable

bb14:                                             ; preds = %bb3
  store ptr %_10, ptr %_17, align 8
  %_12 = load ptr, ptr %current, align 8
  %_106 = icmp eq i64 ptrtoint (ptr @Head to i64), 0
  %_107 = and i1 %_106, true
  %_108 = xor i1 %_107, true
  br i1 %_108, label %bb15, label %panic11

panic10:                                          ; preds = %bb3
; call core::panicking::panic_null_pointer_dereference
  call void @_ZN4core9panicking30panic_null_pointer_dereference17hf718fcc86a223baaE(ptr align 8 @alloc_b6e19de1f5151b51b8788bfc8ca6e5c9) #6
  unreachable

bb15:                                             ; preds = %bb14
  store ptr %_12, ptr @Head, align 8
  ret void

panic11:                                          ; preds = %bb14
; call core::panicking::panic_null_pointer_dereference
  call void @_ZN4core9panicking30panic_null_pointer_dereference17hf718fcc86a223baaE(ptr align 8 @alloc_21bab6856a00df07d869582a6654a89d) #6
  unreachable
}

; Function Attrs: nounwind nonlazybind
define void @insertNode(ptr %0, i32 %index, i32 %value) unnamed_addr #2 {
start:
  %i = alloca [4 x i8], align 4
  %Head_0 = alloca [8 x i8], align 8
  store ptr %0, ptr %Head_0, align 8
  %_4 = icmp slt i32 %index, 0
  br i1 %_4, label %bb14, label %bb1

bb1:                                              ; preds = %start
  %_7 = load ptr, ptr %Head_0, align 8
  %_6 = call i32 @findLength(ptr %_7) #7
  %_5 = icmp sgt i32 %index, %_6
  br i1 %_5, label %bb14, label %bb3

bb14:                                             ; preds = %bb26, %bb7, %bb9, %bb1, %start
  ret void

bb3:                                              ; preds = %bb1
  %1 = icmp eq i32 %index, 0
  br i1 %1, label %bb4, label %bb5

bb4:                                              ; preds = %bb3
  %_9 = load ptr, ptr %Head_0, align 8
; call core::ptr::mut_ptr::<impl *mut T>::is_null
  %_8 = call zeroext i1 @"_ZN4core3ptr7mut_ptr31_$LT$impl$u20$$BP$mut$u20$T$GT$7is_null17h8769b3fb25ae51baE"(ptr %_9) #7
  br i1 %_8, label %bb7, label %bb9

bb5:                                              ; preds = %bb3
  %node = call ptr @createNode(i32 %value) #7
  store i32 0, ptr %i, align 4
  br label %bb11

bb9:                                              ; preds = %bb4
  %_12 = load ptr, ptr %Head_0, align 8
  call void @insertHead(ptr %_12, i32 %value) #7
  br label %bb14

bb7:                                              ; preds = %bb4
  %_10 = call ptr @createNode(i32 %value) #7
  store ptr %_10, ptr %Head_0, align 8
  br label %bb14

bb11:                                             ; preds = %bb21, %bb5
  %_16 = load i32, ptr %i, align 4
  %_17 = sub i32 %index, 1
  %_15 = icmp slt i32 %_16, %_17
  br i1 %_15, label %bb12, label %bb13

bb13:                                             ; preds = %bb11
  %_46 = load ptr, ptr %Head_0, align 8
  %_47 = ptrtoint ptr %_46 to i64
  %_50 = and i64 %_47, 7
  %_51 = icmp eq i64 %_50, 0
  br i1 %_51, label %bb19, label %panic

bb12:                                             ; preds = %bb11
  %_52 = load ptr, ptr %Head_0, align 8
  %_53 = ptrtoint ptr %_52 to i64
  %_56 = and i64 %_53, 7
  %_57 = icmp eq i64 %_56, 0
  br i1 %_57, label %bb20, label %panic10

bb19:                                             ; preds = %bb13
  %_65 = load ptr, ptr %Head_0, align 8
  %_66 = ptrtoint ptr %_65 to i64
  %_69 = icmp eq i64 %_66, 0
  %_70 = and i1 %_69, true
  %_71 = xor i1 %_70, true
  br i1 %_71, label %bb22, label %panic1

panic:                                            ; preds = %bb13
; call core::panicking::panic_misaligned_pointer_dereference
  call void @_ZN4core9panicking36panic_misaligned_pointer_dereference17hcc3cbded9382b6e5E(i64 8, i64 %_47, ptr align 8 @alloc_d472fafcedfe8f4a282500d54ddf6cf5) #6
  unreachable

bb22:                                             ; preds = %bb19
  %2 = load ptr, ptr %Head_0, align 8
  %3 = getelementptr inbounds i8, ptr %2, i64 16
  %_19 = load ptr, ptr %3, align 8
  %_41 = ptrtoint ptr %node to i64
  %_44 = and i64 %_41, 7
  %_45 = icmp eq i64 %_44, 0
  br i1 %_45, label %bb18, label %panic2

panic1:                                           ; preds = %bb19
; call core::panicking::panic_null_pointer_dereference
  call void @_ZN4core9panicking30panic_null_pointer_dereference17hf718fcc86a223baaE(ptr align 8 @alloc_d472fafcedfe8f4a282500d54ddf6cf5) #6
  unreachable

bb18:                                             ; preds = %bb22
  %_73 = ptrtoint ptr %node to i64
  %_76 = icmp eq i64 %_73, 0
  %_77 = and i1 %_76, true
  %_78 = xor i1 %_77, true
  br i1 %_78, label %bb23, label %panic3

panic2:                                           ; preds = %bb22
; call core::panicking::panic_misaligned_pointer_dereference
  call void @_ZN4core9panicking36panic_misaligned_pointer_dereference17hcc3cbded9382b6e5E(i64 8, i64 %_41, ptr align 8 @alloc_fdc5f6fe634689cdbcb2296e8963e5df) #6
  unreachable

bb23:                                             ; preds = %bb18
  %4 = getelementptr inbounds i8, ptr %node, i64 16
  store ptr %_19, ptr %4, align 8
  %5 = load ptr, ptr %Head_0, align 8
  %6 = getelementptr inbounds i8, ptr %5, i64 16
  %_21 = load ptr, ptr %6, align 8
  %_35 = ptrtoint ptr %_21 to i64
  %_38 = and i64 %_35, 7
  %_39 = icmp eq i64 %_38, 0
  br i1 %_39, label %bb17, label %panic4

panic3:                                           ; preds = %bb18
; call core::panicking::panic_null_pointer_dereference
  call void @_ZN4core9panicking30panic_null_pointer_dereference17hf718fcc86a223baaE(ptr align 8 @alloc_fdc5f6fe634689cdbcb2296e8963e5df) #6
  unreachable

bb17:                                             ; preds = %bb23
  %_80 = ptrtoint ptr %_21 to i64
  %_83 = icmp eq i64 %_80, 0
  %_84 = and i1 %_83, true
  %_85 = xor i1 %_84, true
  br i1 %_85, label %bb24, label %panic5

panic4:                                           ; preds = %bb23
; call core::panicking::panic_misaligned_pointer_dereference
  call void @_ZN4core9panicking36panic_misaligned_pointer_dereference17hcc3cbded9382b6e5E(i64 8, i64 %_35, ptr align 8 @alloc_0e4817f84c4ba2f42b24589c33fcfeb7) #6
  unreachable

bb24:                                             ; preds = %bb17
  store ptr %node, ptr %_21, align 8
  %_28 = load ptr, ptr %Head_0, align 8
  %_29 = ptrtoint ptr %_28 to i64
  %_32 = and i64 %_29, 7
  %_33 = icmp eq i64 %_32, 0
  br i1 %_33, label %bb16, label %panic6

panic5:                                           ; preds = %bb17
; call core::panicking::panic_null_pointer_dereference
  call void @_ZN4core9panicking30panic_null_pointer_dereference17hf718fcc86a223baaE(ptr align 8 @alloc_0e4817f84c4ba2f42b24589c33fcfeb7) #6
  unreachable

bb16:                                             ; preds = %bb24
  %_86 = load ptr, ptr %Head_0, align 8
  %_87 = ptrtoint ptr %_86 to i64
  %_90 = icmp eq i64 %_87, 0
  %_91 = and i1 %_90, true
  %_92 = xor i1 %_91, true
  br i1 %_92, label %bb25, label %panic7

panic6:                                           ; preds = %bb24
; call core::panicking::panic_misaligned_pointer_dereference
  call void @_ZN4core9panicking36panic_misaligned_pointer_dereference17hcc3cbded9382b6e5E(i64 8, i64 %_29, ptr align 8 @alloc_f60bb59bae9fdbf37b53969edd55058a) #6
  unreachable

bb25:                                             ; preds = %bb16
  %7 = load ptr, ptr %Head_0, align 8
  %8 = getelementptr inbounds i8, ptr %7, i64 16
  store ptr %node, ptr %8, align 8
  %_20 = load ptr, ptr %Head_0, align 8
  %_23 = ptrtoint ptr %node to i64
  %_26 = and i64 %_23, 7
  %_27 = icmp eq i64 %_26, 0
  br i1 %_27, label %bb15, label %panic8

panic7:                                           ; preds = %bb16
; call core::panicking::panic_null_pointer_dereference
  call void @_ZN4core9panicking30panic_null_pointer_dereference17hf718fcc86a223baaE(ptr align 8 @alloc_f60bb59bae9fdbf37b53969edd55058a) #6
  unreachable

bb15:                                             ; preds = %bb25
  %_94 = ptrtoint ptr %node to i64
  %_97 = icmp eq i64 %_94, 0
  %_98 = and i1 %_97, true
  %_99 = xor i1 %_98, true
  br i1 %_99, label %bb26, label %panic9

panic8:                                           ; preds = %bb25
; call core::panicking::panic_misaligned_pointer_dereference
  call void @_ZN4core9panicking36panic_misaligned_pointer_dereference17hcc3cbded9382b6e5E(i64 8, i64 %_23, ptr align 8 @alloc_8aaf0cbe5467e4838b8bc1d98e57daa9) #6
  unreachable

bb26:                                             ; preds = %bb15
  store ptr %_20, ptr %node, align 8
  br label %bb14

panic9:                                           ; preds = %bb15
; call core::panicking::panic_null_pointer_dereference
  call void @_ZN4core9panicking30panic_null_pointer_dereference17hf718fcc86a223baaE(ptr align 8 @alloc_8aaf0cbe5467e4838b8bc1d98e57daa9) #6
  unreachable

bb20:                                             ; preds = %bb12
  %_58 = load ptr, ptr %Head_0, align 8
  %_59 = ptrtoint ptr %_58 to i64
  %_62 = icmp eq i64 %_59, 0
  %_63 = and i1 %_62, true
  %_64 = xor i1 %_63, true
  br i1 %_64, label %bb21, label %panic11

panic10:                                          ; preds = %bb12
; call core::panicking::panic_misaligned_pointer_dereference
  call void @_ZN4core9panicking36panic_misaligned_pointer_dereference17hcc3cbded9382b6e5E(i64 8, i64 %_53, ptr align 8 @alloc_190a572351fb27372e997653e6df2cb8) #6
  unreachable

bb21:                                             ; preds = %bb20
  %9 = load ptr, ptr %Head_0, align 8
  %10 = getelementptr inbounds i8, ptr %9, i64 16
  %_18 = load ptr, ptr %10, align 8
  store ptr %_18, ptr %Head_0, align 8
  %11 = load i32, ptr %i, align 4
  %12 = add i32 %11, 1
  store i32 %12, ptr %i, align 4
  br label %bb11

panic11:                                          ; preds = %bb20
; call core::panicking::panic_null_pointer_dereference
  call void @_ZN4core9panicking30panic_null_pointer_dereference17hf718fcc86a223baaE(ptr align 8 @alloc_190a572351fb27372e997653e6df2cb8) #6
  unreachable
}

; Function Attrs: nounwind nonlazybind
define i32 @removeNode(ptr %0, i32 %index) unnamed_addr #2 {
start:
  %i = alloca [4 x i8], align 4
  %removed = alloca [4 x i8], align 4
  %_0 = alloca [4 x i8], align 4
  %node = alloca [8 x i8], align 8
  store ptr %0, ptr %node, align 8
  store i32 -1, ptr %removed, align 4
  %_124 = icmp eq i64 ptrtoint (ptr @Head to i64), 0
  %_125 = and i1 %_124, true
  %_126 = xor i1 %_125, true
  br i1 %_126, label %bb26, label %panic

bb26:                                             ; preds = %start
  %_6 = load ptr, ptr @Head, align 8
  %_5 = call i32 @findLength(ptr %_6) #7
  %_4 = icmp sgt i32 %index, %_5
  br i1 %_4, label %bb3, label %bb2

panic:                                            ; preds = %start
; call core::panicking::panic_null_pointer_dereference
  call void @_ZN4core9panicking30panic_null_pointer_dereference17hf718fcc86a223baaE(ptr align 8 @alloc_a6453793a4f3c961401faf7b9061379a) #6
  unreachable

bb2:                                              ; preds = %bb26
  %_8 = icmp slt i32 %index, 0
  br i1 %_8, label %bb3, label %bb4

bb3:                                              ; preds = %bb2, %bb26
  store i32 -1, ptr %_0, align 4
  br label %bb11

bb4:                                              ; preds = %bb2
  %1 = icmp eq i32 %index, 0
  br i1 %1, label %bb5, label %bb6

bb5:                                              ; preds = %bb4
  %_30 = load ptr, ptr @Head, align 8
  %_109 = ptrtoint ptr %_30 to i64
  %_112 = and i64 %_109, 7
  %_113 = icmp eq i64 %_112, 0
  br i1 %_113, label %bb24, label %panic1

bb6:                                              ; preds = %bb4
  store i32 0, ptr %i, align 4
  br label %bb7

bb24:                                             ; preds = %bb5
  %_128 = ptrtoint ptr %_30 to i64
  %_131 = icmp eq i64 %_128, 0
  %_132 = and i1 %_131, true
  %_133 = xor i1 %_132, true
  br i1 %_133, label %bb27, label %panic2

panic1:                                           ; preds = %bb5
; call core::panicking::panic_misaligned_pointer_dereference
  call void @_ZN4core9panicking36panic_misaligned_pointer_dereference17hcc3cbded9382b6e5E(i64 8, i64 %_109, ptr align 8 @alloc_895efbad2db1396e235002dca0141b1a) #6
  unreachable

bb27:                                             ; preds = %bb24
  %2 = getelementptr inbounds i8, ptr %_30, i64 16
  %_9 = load ptr, ptr %2, align 8
  %3 = load ptr, ptr %node, align 8
  %_31 = load ptr, ptr %3, align 8
  %_103 = ptrtoint ptr %_31 to i64
  %_106 = and i64 %_103, 7
  %_107 = icmp eq i64 %_106, 0
  br i1 %_107, label %bb23, label %panic3

panic2:                                           ; preds = %bb24
; call core::panicking::panic_null_pointer_dereference
  call void @_ZN4core9panicking30panic_null_pointer_dereference17hf718fcc86a223baaE(ptr align 8 @alloc_895efbad2db1396e235002dca0141b1a) #6
  unreachable

bb23:                                             ; preds = %bb27
  %_135 = ptrtoint ptr %_31 to i64
  %_138 = icmp eq i64 %_135, 0
  %_139 = and i1 %_138, true
  %_140 = xor i1 %_139, true
  br i1 %_140, label %bb28, label %panic4

panic3:                                           ; preds = %bb27
; call core::panicking::panic_misaligned_pointer_dereference
  call void @_ZN4core9panicking36panic_misaligned_pointer_dereference17hcc3cbded9382b6e5E(i64 8, i64 %_103, ptr align 8 @alloc_4fce098e5e503b6bfe31d308e01624d7) #6
  unreachable

bb28:                                             ; preds = %bb23
  %4 = getelementptr inbounds i8, ptr %_31, i64 16
  store ptr %_9, ptr %4, align 8
  %_32 = load ptr, ptr @Head, align 8
  %_97 = ptrtoint ptr %_32 to i64
  %_100 = and i64 %_97, 7
  %_101 = icmp eq i64 %_100, 0
  br i1 %_101, label %bb22, label %panic5

panic4:                                           ; preds = %bb23
; call core::panicking::panic_null_pointer_dereference
  call void @_ZN4core9panicking30panic_null_pointer_dereference17hf718fcc86a223baaE(ptr align 8 @alloc_4fce098e5e503b6bfe31d308e01624d7) #6
  unreachable

bb22:                                             ; preds = %bb28
  %_142 = ptrtoint ptr %_32 to i64
  %_145 = icmp eq i64 %_142, 0
  %_146 = and i1 %_145, true
  %_147 = xor i1 %_146, true
  br i1 %_147, label %bb29, label %panic6

panic5:                                           ; preds = %bb28
; call core::panicking::panic_misaligned_pointer_dereference
  call void @_ZN4core9panicking36panic_misaligned_pointer_dereference17hcc3cbded9382b6e5E(i64 8, i64 %_97, ptr align 8 @alloc_48c557ee59b83a5e686aa613d9a7deae) #6
  unreachable

bb29:                                             ; preds = %bb22
  %5 = getelementptr inbounds i8, ptr %_32, i64 16
  %_11 = load ptr, ptr %5, align 8
  %_152 = icmp eq i64 ptrtoint (ptr @Head to i64), 0
  %_153 = and i1 %_152, true
  %_154 = xor i1 %_153, true
  br i1 %_154, label %bb30, label %panic7

panic6:                                           ; preds = %bb22
; call core::panicking::panic_null_pointer_dereference
  call void @_ZN4core9panicking30panic_null_pointer_dereference17hf718fcc86a223baaE(ptr align 8 @alloc_48c557ee59b83a5e686aa613d9a7deae) #6
  unreachable

bb30:                                             ; preds = %bb29
  store ptr %_11, ptr @Head, align 8
  %_84 = load ptr, ptr %node, align 8
  %_85 = ptrtoint ptr %_84 to i64
  %_88 = and i64 %_85, 7
  %_89 = icmp eq i64 %_88, 0
  br i1 %_89, label %bb20, label %panic8

panic7:                                           ; preds = %bb29
; call core::panicking::panic_null_pointer_dereference
  call void @_ZN4core9panicking30panic_null_pointer_dereference17hf718fcc86a223baaE(ptr align 8 @alloc_faa77273d412a3370397282c48abd832) #6
  unreachable

bb20:                                             ; preds = %bb30
  %_155 = load ptr, ptr %node, align 8
  %_156 = ptrtoint ptr %_155 to i64
  %_159 = icmp eq i64 %_156, 0
  %_160 = and i1 %_159, true
  %_161 = xor i1 %_160, true
  br i1 %_161, label %bb31, label %panic9

panic8:                                           ; preds = %bb30
; call core::panicking::panic_misaligned_pointer_dereference
  call void @_ZN4core9panicking36panic_misaligned_pointer_dereference17hcc3cbded9382b6e5E(i64 8, i64 %_85, ptr align 8 @alloc_5f249e5f3d2fe5c70c712fde84671346) #6
  unreachable

bb31:                                             ; preds = %bb20
  %6 = load ptr, ptr %node, align 8
  %_14 = load ptr, ptr %6, align 8
  %_33 = load ptr, ptr @Head, align 8
  %_79 = ptrtoint ptr %_33 to i64
  %_82 = and i64 %_79, 7
  %_83 = icmp eq i64 %_82, 0
  br i1 %_83, label %bb19, label %panic10

panic9:                                           ; preds = %bb20
; call core::panicking::panic_null_pointer_dereference
  call void @_ZN4core9panicking30panic_null_pointer_dereference17hf718fcc86a223baaE(ptr align 8 @alloc_5f249e5f3d2fe5c70c712fde84671346) #6
  unreachable

bb19:                                             ; preds = %bb31
  %_163 = ptrtoint ptr %_33 to i64
  %_166 = icmp eq i64 %_163, 0
  %_167 = and i1 %_166, true
  %_168 = xor i1 %_167, true
  br i1 %_168, label %bb32, label %panic11

panic10:                                          ; preds = %bb31
; call core::panicking::panic_misaligned_pointer_dereference
  call void @_ZN4core9panicking36panic_misaligned_pointer_dereference17hcc3cbded9382b6e5E(i64 8, i64 %_79, ptr align 8 @alloc_6315b79dba6f789e11adb693d3b81db7) #6
  unreachable

bb32:                                             ; preds = %bb19
  store ptr %_14, ptr %_33, align 8
  %_72 = load ptr, ptr %node, align 8
  %_73 = ptrtoint ptr %_72 to i64
  %_76 = and i64 %_73, 7
  %_77 = icmp eq i64 %_76, 0
  br i1 %_77, label %bb18, label %panic12

panic11:                                          ; preds = %bb19
; call core::panicking::panic_null_pointer_dereference
  call void @_ZN4core9panicking30panic_null_pointer_dereference17hf718fcc86a223baaE(ptr align 8 @alloc_6315b79dba6f789e11adb693d3b81db7) #6
  unreachable

bb18:                                             ; preds = %bb32
  %_169 = load ptr, ptr %node, align 8
  %_170 = ptrtoint ptr %_169 to i64
  %_173 = icmp eq i64 %_170, 0
  %_174 = and i1 %_173, true
  %_175 = xor i1 %_174, true
  br i1 %_175, label %bb33, label %panic13

panic12:                                          ; preds = %bb32
; call core::panicking::panic_misaligned_pointer_dereference
  call void @_ZN4core9panicking36panic_misaligned_pointer_dereference17hcc3cbded9382b6e5E(i64 8, i64 %_73, ptr align 8 @alloc_f1ae162b661c8b5bd8beb6c43adc6c9e) #6
  unreachable

bb33:                                             ; preds = %bb18
  %7 = load ptr, ptr %node, align 8
  %8 = getelementptr inbounds i8, ptr %7, i64 8
  %_16 = load i32, ptr %8, align 8
  store i32 %_16, ptr %removed, align 4
  %_19 = load ptr, ptr %node, align 8
  call void @free(ptr %_19) #7
  br label %bb10

panic13:                                          ; preds = %bb18
; call core::panicking::panic_null_pointer_dereference
  call void @_ZN4core9panicking30panic_null_pointer_dereference17hf718fcc86a223baaE(ptr align 8 @alloc_f1ae162b661c8b5bd8beb6c43adc6c9e) #6
  unreachable

bb10:                                             ; preds = %bb39, %bb33
  %9 = load i32, ptr %removed, align 4
  store i32 %9, ptr %_0, align 4
  br label %bb11

bb7:                                              ; preds = %bb34, %bb6
  %_22 = load i32, ptr %i, align 4
  %_21 = icmp slt i32 %_22, %index
  br i1 %_21, label %bb8, label %bb9

bb9:                                              ; preds = %bb7
  %_60 = load ptr, ptr %node, align 8
  %_61 = ptrtoint ptr %_60 to i64
  %_64 = and i64 %_61, 7
  %_65 = icmp eq i64 %_64, 0
  br i1 %_65, label %bb16, label %panic14

bb8:                                              ; preds = %bb7
  %_66 = load ptr, ptr %node, align 8
  %_67 = ptrtoint ptr %_66 to i64
  %_70 = and i64 %_67, 7
  %_71 = icmp eq i64 %_70, 0
  br i1 %_71, label %bb17, label %panic24

bb16:                                             ; preds = %bb9
  %_183 = load ptr, ptr %node, align 8
  %_184 = ptrtoint ptr %_183 to i64
  %_187 = icmp eq i64 %_184, 0
  %_188 = and i1 %_187, true
  %_189 = xor i1 %_188, true
  br i1 %_189, label %bb35, label %panic15

panic14:                                          ; preds = %bb9
; call core::panicking::panic_misaligned_pointer_dereference
  call void @_ZN4core9panicking36panic_misaligned_pointer_dereference17hcc3cbded9382b6e5E(i64 8, i64 %_61, ptr align 8 @alloc_05dbaaa78b758ff994a0921953d097ec) #6
  unreachable

bb35:                                             ; preds = %bb16
  %10 = load ptr, ptr %node, align 8
  %11 = getelementptr inbounds i8, ptr %10, i64 16
  %_24 = load ptr, ptr %11, align 8
  %12 = load ptr, ptr %node, align 8
  %_34 = load ptr, ptr %12, align 8
  %_55 = ptrtoint ptr %_34 to i64
  %_58 = and i64 %_55, 7
  %_59 = icmp eq i64 %_58, 0
  br i1 %_59, label %bb15, label %panic16

panic15:                                          ; preds = %bb16
; call core::panicking::panic_null_pointer_dereference
  call void @_ZN4core9panicking30panic_null_pointer_dereference17hf718fcc86a223baaE(ptr align 8 @alloc_05dbaaa78b758ff994a0921953d097ec) #6
  unreachable

bb15:                                             ; preds = %bb35
  %_191 = ptrtoint ptr %_34 to i64
  %_194 = icmp eq i64 %_191, 0
  %_195 = and i1 %_194, true
  %_196 = xor i1 %_195, true
  br i1 %_196, label %bb36, label %panic17

panic16:                                          ; preds = %bb35
; call core::panicking::panic_misaligned_pointer_dereference
  call void @_ZN4core9panicking36panic_misaligned_pointer_dereference17hcc3cbded9382b6e5E(i64 8, i64 %_55, ptr align 8 @alloc_693c2a8883c4b85731770c54313a3051) #6
  unreachable

bb36:                                             ; preds = %bb15
  %13 = getelementptr inbounds i8, ptr %_34, i64 16
  store ptr %_24, ptr %13, align 8
  %_48 = load ptr, ptr %node, align 8
  %_49 = ptrtoint ptr %_48 to i64
  %_52 = and i64 %_49, 7
  %_53 = icmp eq i64 %_52, 0
  br i1 %_53, label %bb14, label %panic18

panic17:                                          ; preds = %bb15
; call core::panicking::panic_null_pointer_dereference
  call void @_ZN4core9panicking30panic_null_pointer_dereference17hf718fcc86a223baaE(ptr align 8 @alloc_693c2a8883c4b85731770c54313a3051) #6
  unreachable

bb14:                                             ; preds = %bb36
  %_197 = load ptr, ptr %node, align 8
  %_198 = ptrtoint ptr %_197 to i64
  %_201 = icmp eq i64 %_198, 0
  %_202 = and i1 %_201, true
  %_203 = xor i1 %_202, true
  br i1 %_203, label %bb37, label %panic19

panic18:                                          ; preds = %bb36
; call core::panicking::panic_misaligned_pointer_dereference
  call void @_ZN4core9panicking36panic_misaligned_pointer_dereference17hcc3cbded9382b6e5E(i64 8, i64 %_49, ptr align 8 @alloc_5e5c890aa740a3eb9066ec17987945a7) #6
  unreachable

bb37:                                             ; preds = %bb14
  %14 = load ptr, ptr %node, align 8
  %_25 = load ptr, ptr %14, align 8
  %15 = load ptr, ptr %node, align 8
  %16 = getelementptr inbounds i8, ptr %15, i64 16
  %_35 = load ptr, ptr %16, align 8
  %_43 = ptrtoint ptr %_35 to i64
  %_46 = and i64 %_43, 7
  %_47 = icmp eq i64 %_46, 0
  br i1 %_47, label %bb13, label %panic20

panic19:                                          ; preds = %bb14
; call core::panicking::panic_null_pointer_dereference
  call void @_ZN4core9panicking30panic_null_pointer_dereference17hf718fcc86a223baaE(ptr align 8 @alloc_5e5c890aa740a3eb9066ec17987945a7) #6
  unreachable

bb13:                                             ; preds = %bb37
  %_205 = ptrtoint ptr %_35 to i64
  %_208 = icmp eq i64 %_205, 0
  %_209 = and i1 %_208, true
  %_210 = xor i1 %_209, true
  br i1 %_210, label %bb38, label %panic21

panic20:                                          ; preds = %bb37
; call core::panicking::panic_misaligned_pointer_dereference
  call void @_ZN4core9panicking36panic_misaligned_pointer_dereference17hcc3cbded9382b6e5E(i64 8, i64 %_43, ptr align 8 @alloc_fa7cb792d868834bda8b7d5900da621b) #6
  unreachable

bb38:                                             ; preds = %bb13
  store ptr %_25, ptr %_35, align 8
  %_36 = load ptr, ptr %node, align 8
  %_37 = ptrtoint ptr %_36 to i64
  %_40 = and i64 %_37, 7
  %_41 = icmp eq i64 %_40, 0
  br i1 %_41, label %bb12, label %panic22

panic21:                                          ; preds = %bb13
; call core::panicking::panic_null_pointer_dereference
  call void @_ZN4core9panicking30panic_null_pointer_dereference17hf718fcc86a223baaE(ptr align 8 @alloc_fa7cb792d868834bda8b7d5900da621b) #6
  unreachable

bb12:                                             ; preds = %bb38
  %_211 = load ptr, ptr %node, align 8
  %_212 = ptrtoint ptr %_211 to i64
  %_215 = icmp eq i64 %_212, 0
  %_216 = and i1 %_215, true
  %_217 = xor i1 %_216, true
  br i1 %_217, label %bb39, label %panic23

panic22:                                          ; preds = %bb38
; call core::panicking::panic_misaligned_pointer_dereference
  call void @_ZN4core9panicking36panic_misaligned_pointer_dereference17hcc3cbded9382b6e5E(i64 8, i64 %_37, ptr align 8 @alloc_803f056882f7eebf2ec2da42a7f71618) #6
  unreachable

bb39:                                             ; preds = %bb12
  %17 = load ptr, ptr %node, align 8
  %18 = getelementptr inbounds i8, ptr %17, i64 8
  %_26 = load i32, ptr %18, align 8
  store i32 %_26, ptr %removed, align 4
  %_29 = load ptr, ptr %node, align 8
  call void @free(ptr %_29) #7
  br label %bb10

panic23:                                          ; preds = %bb12
; call core::panicking::panic_null_pointer_dereference
  call void @_ZN4core9panicking30panic_null_pointer_dereference17hf718fcc86a223baaE(ptr align 8 @alloc_803f056882f7eebf2ec2da42a7f71618) #6
  unreachable

bb11:                                             ; preds = %bb3, %bb10
  %19 = load i32, ptr %_0, align 4
  ret i32 %19

bb17:                                             ; preds = %bb8
  %_176 = load ptr, ptr %node, align 8
  %_177 = ptrtoint ptr %_176 to i64
  %_180 = icmp eq i64 %_177, 0
  %_181 = and i1 %_180, true
  %_182 = xor i1 %_181, true
  br i1 %_182, label %bb34, label %panic25

panic24:                                          ; preds = %bb8
; call core::panicking::panic_misaligned_pointer_dereference
  call void @_ZN4core9panicking36panic_misaligned_pointer_dereference17hcc3cbded9382b6e5E(i64 8, i64 %_67, ptr align 8 @alloc_37e19761c75fdac2bfbcfd14138266e0) #6
  unreachable

bb34:                                             ; preds = %bb17
  %20 = load ptr, ptr %node, align 8
  %21 = getelementptr inbounds i8, ptr %20, i64 16
  %_23 = load ptr, ptr %21, align 8
  store ptr %_23, ptr %node, align 8
  %22 = load i32, ptr %i, align 4
  %23 = add i32 %22, 1
  store i32 %23, ptr %i, align 4
  br label %bb7

panic25:                                          ; preds = %bb17
; call core::panicking::panic_null_pointer_dereference
  call void @_ZN4core9panicking30panic_null_pointer_dereference17hf718fcc86a223baaE(ptr align 8 @alloc_37e19761c75fdac2bfbcfd14138266e0) #6
  unreachable
}

; Function Attrs: nounwind nonlazybind
define void @printList(ptr %0) unnamed_addr #2 {
start:
  %node = alloca [8 x i8], align 8
  store ptr %0, ptr %node, align 8
  br label %bb1

bb1:                                              ; preds = %bb10, %start
  %_30 = load ptr, ptr %node, align 8
  %_31 = ptrtoint ptr %_30 to i64
  %_34 = and i64 %_31, 7
  %_35 = icmp eq i64 %_34, 0
  br i1 %_35, label %bb7, label %panic

bb7:                                              ; preds = %bb1
  %_36 = load ptr, ptr %node, align 8
  %_37 = ptrtoint ptr %_36 to i64
  %_40 = icmp eq i64 %_37, 0
  %_41 = and i1 %_40, true
  %_42 = xor i1 %_41, true
  br i1 %_42, label %bb8, label %panic1

panic:                                            ; preds = %bb1
; call core::panicking::panic_misaligned_pointer_dereference
  call void @_ZN4core9panicking36panic_misaligned_pointer_dereference17hcc3cbded9382b6e5E(i64 8, i64 %_31, ptr align 8 @alloc_45fc568dd63b80d3cd80aaf5ae655264) #6
  unreachable

bb8:                                              ; preds = %bb7
  %1 = load ptr, ptr %node, align 8
  %2 = getelementptr inbounds i8, ptr %1, i64 8
  %_7 = load i32, ptr %2, align 8
  %_2 = call i32 (ptr, ...) @printf(ptr @alloc_b929c71616281bfd1be2bd4038d3ddf1, i32 %_7) #7
  %_24 = load ptr, ptr %node, align 8
  %_25 = ptrtoint ptr %_24 to i64
  %_28 = and i64 %_25, 7
  %_29 = icmp eq i64 %_28, 0
  br i1 %_29, label %bb6, label %panic2

panic1:                                           ; preds = %bb7
; call core::panicking::panic_null_pointer_dereference
  call void @_ZN4core9panicking30panic_null_pointer_dereference17hf718fcc86a223baaE(ptr align 8 @alloc_45fc568dd63b80d3cd80aaf5ae655264) #6
  unreachable

bb6:                                              ; preds = %bb8
  %_43 = load ptr, ptr %node, align 8
  %_44 = ptrtoint ptr %_43 to i64
  %_47 = icmp eq i64 %_44, 0
  %_48 = and i1 %_47, true
  %_49 = xor i1 %_48, true
  br i1 %_49, label %bb9, label %panic3

panic2:                                           ; preds = %bb8
; call core::panicking::panic_misaligned_pointer_dereference
  call void @_ZN4core9panicking36panic_misaligned_pointer_dereference17hcc3cbded9382b6e5E(i64 8, i64 %_25, ptr align 8 @alloc_80eebcf601c1bb14a8b3d1dda7348f7d) #6
  unreachable

bb9:                                              ; preds = %bb6
  %3 = load ptr, ptr %node, align 8
  %4 = getelementptr inbounds i8, ptr %3, i64 16
  %_8 = load ptr, ptr %4, align 8
  store ptr %_8, ptr %node, align 8
  %_10 = load ptr, ptr %node, align 8
  %_54 = icmp eq i64 ptrtoint (ptr @Head to i64), 0
  %_55 = and i1 %_54, true
  %_56 = xor i1 %_55, true
  br i1 %_56, label %bb10, label %panic4

panic3:                                           ; preds = %bb6
; call core::panicking::panic_null_pointer_dereference
  call void @_ZN4core9panicking30panic_null_pointer_dereference17hf718fcc86a223baaE(ptr align 8 @alloc_80eebcf601c1bb14a8b3d1dda7348f7d) #6
  unreachable

bb10:                                             ; preds = %bb9
  %_11 = load ptr, ptr @Head, align 8
  %_9 = icmp ne ptr %_10, %_11
  br i1 %_9, label %bb1, label %bb3

panic4:                                           ; preds = %bb9
; call core::panicking::panic_null_pointer_dereference
  call void @_ZN4core9panicking30panic_null_pointer_dereference17hf718fcc86a223baaE(ptr align 8 @alloc_a92d6d589a030a9a6ddc3bbb929dfdec) #6
  unreachable

bb3:                                              ; preds = %bb10
  %_13 = call i32 (ptr, ...) @printf(ptr @alloc_f3588b28b94f0809fcc8d717033d3e48) #7
  ret void
}

; Function Attrs: nocallback nofree nosync nounwind speculatable willreturn memory(none)
declare { i64, i1 } @llvm.smul.with.overflow.i64(i64, i64) #3

; Function Attrs: nocallback nofree nosync nounwind speculatable willreturn memory(none)
declare { i64, i1 } @llvm.uadd.with.overflow.i64(i64, i64) #3

; core::panicking::panic_nounwind
; Function Attrs: cold noinline noreturn nounwind nonlazybind
declare void @_ZN4core9panicking14panic_nounwind17h211d9ce8d63f12e7E(ptr align 1, i64) unnamed_addr #4

; Function Attrs: nounwind nonlazybind
declare ptr @malloc(i64) unnamed_addr #2

; core::panicking::panic_misaligned_pointer_dereference
; Function Attrs: cold minsize noinline noreturn nounwind nonlazybind optsize
declare void @_ZN4core9panicking36panic_misaligned_pointer_dereference17hcc3cbded9382b6e5E(i64, i64, ptr align 8) unnamed_addr #5

; core::panicking::panic_null_pointer_dereference
; Function Attrs: cold minsize noinline noreturn nounwind nonlazybind optsize
declare void @_ZN4core9panicking30panic_null_pointer_dereference17hf718fcc86a223baaE(ptr align 8) unnamed_addr #5

; Function Attrs: nounwind nonlazybind
declare void @free(ptr) unnamed_addr #2

; Function Attrs: nounwind nonlazybind
declare i32 @printf(ptr, ...) unnamed_addr #2

attributes #0 = { cold nounwind nonlazybind "probe-stack"="inline-asm" "target-cpu"="x86-64" }
attributes #1 = { inlinehint nounwind nonlazybind "probe-stack"="inline-asm" "target-cpu"="x86-64" }
attributes #2 = { nounwind nonlazybind "probe-stack"="inline-asm" "target-cpu"="x86-64" }
attributes #3 = { nocallback nofree nosync nounwind speculatable willreturn memory(none) }
attributes #4 = { cold noinline noreturn nounwind nonlazybind "probe-stack"="inline-asm" "target-cpu"="x86-64" }
attributes #5 = { cold minsize noinline noreturn nounwind nonlazybind optsize "probe-stack"="inline-asm" "target-cpu"="x86-64" }
attributes #6 = { noreturn nounwind }
attributes #7 = { nounwind }

!llvm.module.flags = !{!0, !1}
!llvm.ident = !{!2}

!0 = !{i32 8, !"PIC Level", i32 2}
!1 = !{i32 2, !"RtLibUseGOT", i32 1}
!2 = !{!"rustc version 1.88.0-nightly (0b45675cf 2025-03-31)"}
