; ModuleID = '62k8wmlcrd0umtrhpvyobptox'
source_filename = "62k8wmlcrd0umtrhpvyobptox"
target datalayout = "e-m:e-p270:32:32-p271:32:32-p272:64:64-i64:64-i128:128-f80:128-n8:16:32:64-S128"
target triple = "x86_64-unknown-linux-gnu"

@root = global [8 x i8] zeroinitializer, align 8
@alloc_f5ffd2fd1476bab43ad89fb40c72d0c5 = private unnamed_addr constant [10 x i8] c"src/lib.rs", align 1
@alloc_ec940dd61ef1a228c84ccc7cef8f4ad6 = private unnamed_addr constant <{ ptr, [16 x i8] }> <{ ptr @alloc_f5ffd2fd1476bab43ad89fb40c72d0c5, [16 x i8] c"\0A\00\00\00\00\00\00\00H\00\00\00\08\00\00\00" }>, align 8
@alloc_12c8a29fc651ea73759fe2d9e6b87c1b = private unnamed_addr constant <{ ptr, [16 x i8] }> <{ ptr @alloc_f5ffd2fd1476bab43ad89fb40c72d0c5, [16 x i8] c"\0A\00\00\00\00\00\00\00K\00\00\00\1D\00\00\00" }>, align 8
@alloc_5921127833b737e3ba66268e159f55f1 = private unnamed_addr constant <{ ptr, [16 x i8] }> <{ ptr @alloc_f5ffd2fd1476bab43ad89fb40c72d0c5, [16 x i8] c"\0A\00\00\00\00\00\00\00O\00\00\00\08\00\00\00" }>, align 8
@alloc_241fe7c5c207ff7e8121b13342d3b2f0 = private unnamed_addr constant <{ ptr, [16 x i8] }> <{ ptr @alloc_f5ffd2fd1476bab43ad89fb40c72d0c5, [16 x i8] c"\0A\00\00\00\00\00\00\00R\00\00\00\1D\00\00\00" }>, align 8
@alloc_79a1c52c0532fc2abedabfb8bb2903e5 = private unnamed_addr constant <{ ptr, [16 x i8] }> <{ ptr @alloc_f5ffd2fd1476bab43ad89fb40c72d0c5, [16 x i8] c"\0A\00\00\00\00\00\00\00Y\00\00\00\0C\00\00\00" }>, align 8
@alloc_8429c1a1f06e04cf85718db89044e5a8 = private unnamed_addr constant <{ ptr, [16 x i8] }> <{ ptr @alloc_f5ffd2fd1476bab43ad89fb40c72d0c5, [16 x i8] c"\0A\00\00\00\00\00\00\00Z\00\00\00\12\00\00\00" }>, align 8
@alloc_b2cb629e5a05031fe59ada3551738e7c = private unnamed_addr constant <{ ptr, [16 x i8] }> <{ ptr @alloc_f5ffd2fd1476bab43ad89fb40c72d0c5, [16 x i8] c"\0A\00\00\00\00\00\00\00c\00\00\00\0C\00\00\00" }>, align 8
@alloc_3f7a4cf7ad664436088e730884cdc850 = private unnamed_addr constant <{ ptr, [16 x i8] }> <{ ptr @alloc_f5ffd2fd1476bab43ad89fb40c72d0c5, [16 x i8] c"\0A\00\00\00\00\00\00\00d\00\00\00\12\00\00\00" }>, align 8
@alloc_0c11119822e4887e91c28a0407bde787 = private unnamed_addr constant <{ ptr, [16 x i8] }> <{ ptr @alloc_f5ffd2fd1476bab43ad89fb40c72d0c5, [16 x i8] c"\0A\00\00\00\00\00\00\00t\00\00\00\15\00\00\00" }>, align 8
@alloc_8f7db07fc1577b09d661c88ccf3e6ec2 = private unnamed_addr constant <{ ptr, [16 x i8] }> <{ ptr @alloc_f5ffd2fd1476bab43ad89fb40c72d0c5, [16 x i8] c"\0A\00\00\00\00\00\00\00w\00\00\009\00\00\00" }>, align 8
@alloc_2fc622b2ef8caa994bd13df8a6c1e1fc = private unnamed_addr constant <{ ptr, [16 x i8] }> <{ ptr @alloc_f5ffd2fd1476bab43ad89fb40c72d0c5, [16 x i8] c"\0A\00\00\00\00\00\00\00w\00\00\00\0D\00\00\00" }>, align 8
@alloc_fe5fa43ed1f8b621ceda3fa468ec1450 = private unnamed_addr constant <{ ptr, [16 x i8] }> <{ ptr @alloc_f5ffd2fd1476bab43ad89fb40c72d0c5, [16 x i8] c"\0A\00\00\00\00\00\00\00u\00\00\008\00\00\00" }>, align 8
@alloc_0882f91a599619b9fd464d5e2869844d = private unnamed_addr constant <{ ptr, [16 x i8] }> <{ ptr @alloc_f5ffd2fd1476bab43ad89fb40c72d0c5, [16 x i8] c"\0A\00\00\00\00\00\00\00u\00\00\00\0D\00\00\00" }>, align 8
@alloc_35903e2beae833791f15e8c3785889c6 = private unnamed_addr constant <{ ptr, [16 x i8] }> <{ ptr @alloc_f5ffd2fd1476bab43ad89fb40c72d0c5, [16 x i8] c"\0A\00\00\00\00\00\00\00o\00\00\00\09\00\00\00" }>, align 8
@alloc_f2f081886f331dc949da0f4fbdad1cbe = private unnamed_addr constant <{ ptr, [16 x i8] }> <{ ptr @alloc_f5ffd2fd1476bab43ad89fb40c72d0c5, [16 x i8] c"\0A\00\00\00\00\00\00\00p\00\00\00\09\00\00\00" }>, align 8
@alloc_13c7d6433f4d53ba2c9128965961cb67 = private unnamed_addr constant <{ ptr, [16 x i8] }> <{ ptr @alloc_f5ffd2fd1476bab43ad89fb40c72d0c5, [16 x i8] c"\0A\00\00\00\00\00\00\00q\00\00\00\09\00\00\00" }>, align 8
@alloc_3689581ac3e8ceaaaf9b37c8e542fe4a = private unnamed_addr constant <{ ptr, [16 x i8] }> <{ ptr @alloc_f5ffd2fd1476bab43ad89fb40c72d0c5, [16 x i8] c"\0A\00\00\00\00\00\00\00\82\00\00\00\05\00\00\00" }>, align 8
@alloc_ff9152b01998611ba6bd446c3ae8be7e = private unnamed_addr constant <{ ptr, [16 x i8] }> <{ ptr @alloc_f5ffd2fd1476bab43ad89fb40c72d0c5, [16 x i8] c"\0A\00\00\00\00\00\00\00\83\00\00\00\05\00\00\00" }>, align 8
@alloc_4c915bac303742f1dcbead2acc9529f0 = private unnamed_addr constant <{ ptr, [16 x i8] }> <{ ptr @alloc_f5ffd2fd1476bab43ad89fb40c72d0c5, [16 x i8] c"\0A\00\00\00\00\00\00\00\84\00\00\00\05\00\00\00" }>, align 8
@alloc_60e4a32858d32b1be171c53af1072a10 = private unnamed_addr constant <{ ptr, [16 x i8] }> <{ ptr @alloc_f5ffd2fd1476bab43ad89fb40c72d0c5, [16 x i8] c"\0A\00\00\00\00\00\00\00\85\00\00\00\08\00\00\00" }>, align 8
@alloc_0fc5270d6602d94baa051e7e9c6e16ae = private unnamed_addr constant <{ ptr, [16 x i8] }> <{ ptr @alloc_f5ffd2fd1476bab43ad89fb40c72d0c5, [16 x i8] c"\0A\00\00\00\00\00\00\00\88\00\00\00\17\00\00\00" }>, align 8
@alloc_4a6eda898bdde920aeb6902aaba4aae6 = private unnamed_addr constant <{ ptr, [16 x i8] }> <{ ptr @alloc_f5ffd2fd1476bab43ad89fb40c72d0c5, [16 x i8] c"\0A\00\00\00\00\00\00\00\8A\00\00\00\09\00\00\00" }>, align 8
@alloc_847817f60a835e11a29d83b54122ef92 = private unnamed_addr constant <{ ptr, [16 x i8] }> <{ ptr @alloc_f5ffd2fd1476bab43ad89fb40c72d0c5, [16 x i8] c"\0A\00\00\00\00\00\00\00\8B\00\00\00\09\00\00\00" }>, align 8
@alloc_5cbe45a25691a43188a68e96d0bbec21 = private unnamed_addr constant <{ ptr, [16 x i8] }> <{ ptr @alloc_f5ffd2fd1476bab43ad89fb40c72d0c5, [16 x i8] c"\0A\00\00\00\00\00\00\00\8E\00\00\00\19\00\00\00" }>, align 8
@alloc_28691bf122f63821510ef9994c298302 = private unnamed_addr constant <{ ptr, [16 x i8] }> <{ ptr @alloc_f5ffd2fd1476bab43ad89fb40c72d0c5, [16 x i8] c"\0A\00\00\00\00\00\00\00\95\00\00\00\1F\00\00\00" }>, align 8
@alloc_d873cee74fc9f3709a5d0e45c13a2182 = private unnamed_addr constant <{ ptr, [16 x i8] }> <{ ptr @alloc_f5ffd2fd1476bab43ad89fb40c72d0c5, [16 x i8] c"\0A\00\00\00\00\00\00\00\97\00\00\00\15\00\00\00" }>, align 8
@alloc_74208c4803cd2f5c2be131f221cb04f0 = private unnamed_addr constant <{ ptr, [16 x i8] }> <{ ptr @alloc_f5ffd2fd1476bab43ad89fb40c72d0c5, [16 x i8] c"\0A\00\00\00\00\00\00\00\8F\00\00\00\1F\00\00\00" }>, align 8
@alloc_e9f7a536f033111205a1d9f3b7b347ff = private unnamed_addr constant <{ ptr, [16 x i8] }> <{ ptr @alloc_f5ffd2fd1476bab43ad89fb40c72d0c5, [16 x i8] c"\0A\00\00\00\00\00\00\00\91\00\00\00\15\00\00\00" }>, align 8
@alloc_693c2a8883c4b85731770c54313a3051 = private unnamed_addr constant <{ ptr, [16 x i8] }> <{ ptr @alloc_f5ffd2fd1476bab43ad89fb40c72d0c5, [16 x i8] c"\0A\00\00\00\00\00\00\00\86\00\00\00\09\00\00\00" }>, align 8
@alloc_b929c71616281bfd1be2bd4038d3ddf1 = private unnamed_addr constant [4 x i8] c"%d \00", align 1
@alloc_92beb9bb7839846545c3540a4bf985a8 = private unnamed_addr constant <{ ptr, [16 x i8] }> <{ ptr @alloc_f5ffd2fd1476bab43ad89fb40c72d0c5, [16 x i8] c"\0A\00\00\00\00\00\00\00\A3\00\00\00:\00\00\00" }>, align 8
@alloc_dcb017e4470dec3ff44c129d775f999c = private unnamed_addr constant <{ ptr, [16 x i8] }> <{ ptr @alloc_f5ffd2fd1476bab43ad89fb40c72d0c5, [16 x i8] c"\0A\00\00\00\00\00\00\00\A4\00\00\00\13\00\00\00" }>, align 8
@alloc_34c142eb4e42c5e4e0763704ed6191be = private unnamed_addr constant <{ ptr, [16 x i8] }> <{ ptr @alloc_f5ffd2fd1476bab43ad89fb40c72d0c5, [16 x i8] c"\0A\00\00\00\00\00\00\00\A5\00\00\00\13\00\00\00" }>, align 8

; core::ptr::mut_ptr::<impl *mut T>::is_null
; Function Attrs: inlinehint nounwind nonlazybind
define internal zeroext i1 @"_ZN4core3ptr7mut_ptr31_$LT$impl$u20$$BP$mut$u20$T$GT$7is_null17h08c54dc430c63f86E"(ptr %self) unnamed_addr #0 {
start:
  %_3 = ptrtoint ptr %self to i64
  %_0 = icmp eq i64 %_3, 0
  ret i1 %_0
}

; Function Attrs: nounwind nonlazybind
define ptr @findMinRecursive(ptr %root_0) unnamed_addr #1 {
start:
  %_0 = alloca [8 x i8], align 8
  %_12 = ptrtoint ptr %root_0 to i64
  %_15 = and i64 %_12, 7
  %_16 = icmp eq i64 %_15, 0
  br i1 %_16, label %bb6, label %panic

bb6:                                              ; preds = %start
  %_18 = ptrtoint ptr %root_0 to i64
  %_21 = icmp eq i64 %_18, 0
  %_22 = and i1 %_21, true
  %_23 = xor i1 %_22, true
  br i1 %_23, label %bb7, label %panic1

panic:                                            ; preds = %start
; call core::panicking::panic_misaligned_pointer_dereference
  call void @_ZN4core9panicking36panic_misaligned_pointer_dereference17hcc3cbded9382b6e5E(i64 8, i64 %_12, ptr align 8 @alloc_ec940dd61ef1a228c84ccc7cef8f4ad6) #3
  unreachable

bb7:                                              ; preds = %bb6
  %0 = getelementptr inbounds i8, ptr %root_0, i64 8
  %_3 = load ptr, ptr %0, align 8
; call core::ptr::mut_ptr::<impl *mut T>::is_null
  %_2 = call zeroext i1 @"_ZN4core3ptr7mut_ptr31_$LT$impl$u20$$BP$mut$u20$T$GT$7is_null17h08c54dc430c63f86E"(ptr %_3) #4
  br i1 %_2, label %bb2, label %bb3

panic1:                                           ; preds = %bb6
; call core::panicking::panic_null_pointer_dereference
  call void @_ZN4core9panicking30panic_null_pointer_dereference17hf718fcc86a223baaE(ptr align 8 @alloc_ec940dd61ef1a228c84ccc7cef8f4ad6) #3
  unreachable

bb3:                                              ; preds = %bb7
  %_6 = ptrtoint ptr %root_0 to i64
  %_9 = and i64 %_6, 7
  %_10 = icmp eq i64 %_9, 0
  br i1 %_10, label %bb5, label %panic2

bb2:                                              ; preds = %bb7
  store ptr %root_0, ptr %_0, align 8
  br label %bb4

bb5:                                              ; preds = %bb3
  %_25 = ptrtoint ptr %root_0 to i64
  %_28 = icmp eq i64 %_25, 0
  %_29 = and i1 %_28, true
  %_30 = xor i1 %_29, true
  br i1 %_30, label %bb8, label %panic3

panic2:                                           ; preds = %bb3
; call core::panicking::panic_misaligned_pointer_dereference
  call void @_ZN4core9panicking36panic_misaligned_pointer_dereference17hcc3cbded9382b6e5E(i64 8, i64 %_6, ptr align 8 @alloc_12c8a29fc651ea73759fe2d9e6b87c1b) #3
  unreachable

bb8:                                              ; preds = %bb5
  %1 = getelementptr inbounds i8, ptr %root_0, i64 8
  %_4 = load ptr, ptr %1, align 8
  %2 = call ptr @findMinRecursive(ptr %_4) #4
  store ptr %2, ptr %_0, align 8
  br label %bb4

panic3:                                           ; preds = %bb5
; call core::panicking::panic_null_pointer_dereference
  call void @_ZN4core9panicking30panic_null_pointer_dereference17hf718fcc86a223baaE(ptr align 8 @alloc_12c8a29fc651ea73759fe2d9e6b87c1b) #3
  unreachable

bb4:                                              ; preds = %bb2, %bb8
  %3 = load ptr, ptr %_0, align 8
  ret ptr %3
}

; Function Attrs: nounwind nonlazybind
define ptr @findMaxRecursive(ptr %root_0) unnamed_addr #1 {
start:
  %_0 = alloca [8 x i8], align 8
  %_12 = ptrtoint ptr %root_0 to i64
  %_15 = and i64 %_12, 7
  %_16 = icmp eq i64 %_15, 0
  br i1 %_16, label %bb6, label %panic

bb6:                                              ; preds = %start
  %_18 = ptrtoint ptr %root_0 to i64
  %_21 = icmp eq i64 %_18, 0
  %_22 = and i1 %_21, true
  %_23 = xor i1 %_22, true
  br i1 %_23, label %bb7, label %panic1

panic:                                            ; preds = %start
; call core::panicking::panic_misaligned_pointer_dereference
  call void @_ZN4core9panicking36panic_misaligned_pointer_dereference17hcc3cbded9382b6e5E(i64 8, i64 %_12, ptr align 8 @alloc_5921127833b737e3ba66268e159f55f1) #3
  unreachable

bb7:                                              ; preds = %bb6
  %0 = getelementptr inbounds i8, ptr %root_0, i64 16
  %_3 = load ptr, ptr %0, align 8
; call core::ptr::mut_ptr::<impl *mut T>::is_null
  %_2 = call zeroext i1 @"_ZN4core3ptr7mut_ptr31_$LT$impl$u20$$BP$mut$u20$T$GT$7is_null17h08c54dc430c63f86E"(ptr %_3) #4
  br i1 %_2, label %bb2, label %bb3

panic1:                                           ; preds = %bb6
; call core::panicking::panic_null_pointer_dereference
  call void @_ZN4core9panicking30panic_null_pointer_dereference17hf718fcc86a223baaE(ptr align 8 @alloc_5921127833b737e3ba66268e159f55f1) #3
  unreachable

bb3:                                              ; preds = %bb7
  %_6 = ptrtoint ptr %root_0 to i64
  %_9 = and i64 %_6, 7
  %_10 = icmp eq i64 %_9, 0
  br i1 %_10, label %bb5, label %panic2

bb2:                                              ; preds = %bb7
  store ptr %root_0, ptr %_0, align 8
  br label %bb4

bb5:                                              ; preds = %bb3
  %_25 = ptrtoint ptr %root_0 to i64
  %_28 = icmp eq i64 %_25, 0
  %_29 = and i1 %_28, true
  %_30 = xor i1 %_29, true
  br i1 %_30, label %bb8, label %panic3

panic2:                                           ; preds = %bb3
; call core::panicking::panic_misaligned_pointer_dereference
  call void @_ZN4core9panicking36panic_misaligned_pointer_dereference17hcc3cbded9382b6e5E(i64 8, i64 %_6, ptr align 8 @alloc_241fe7c5c207ff7e8121b13342d3b2f0) #3
  unreachable

bb8:                                              ; preds = %bb5
  %1 = getelementptr inbounds i8, ptr %root_0, i64 16
  %_4 = load ptr, ptr %1, align 8
  %2 = call ptr @findMaxRecursive(ptr %_4) #4
  store ptr %2, ptr %_0, align 8
  br label %bb4

panic3:                                           ; preds = %bb5
; call core::panicking::panic_null_pointer_dereference
  call void @_ZN4core9panicking30panic_null_pointer_dereference17hf718fcc86a223baaE(ptr align 8 @alloc_241fe7c5c207ff7e8121b13342d3b2f0) #3
  unreachable

bb4:                                              ; preds = %bb2, %bb8
  %3 = load ptr, ptr %_0, align 8
  ret ptr %3
}

; Function Attrs: nounwind nonlazybind
define ptr @findMinIterative(ptr %0) unnamed_addr #1 {
start:
  %_0 = alloca [8 x i8], align 8
  %root_0 = alloca [8 x i8], align 8
  store ptr %0, ptr %root_0, align 8
  %_3 = load ptr, ptr %root_0, align 8
; call core::ptr::mut_ptr::<impl *mut T>::is_null
  %_2 = call zeroext i1 @"_ZN4core3ptr7mut_ptr31_$LT$impl$u20$$BP$mut$u20$T$GT$7is_null17h08c54dc430c63f86E"(ptr %_3) #4
  br i1 %_2, label %bb2, label %bb3

bb3:                                              ; preds = %bb11, %start
  %_13 = load ptr, ptr %root_0, align 8
  %_14 = ptrtoint ptr %_13 to i64
  %_17 = and i64 %_14, 7
  %_18 = icmp eq i64 %_17, 0
  br i1 %_18, label %bb9, label %panic

bb2:                                              ; preds = %start
  %1 = load ptr, ptr %root_0, align 8
  store ptr %1, ptr %_0, align 8
  br label %bb7

bb9:                                              ; preds = %bb3
  %_19 = load ptr, ptr %root_0, align 8
  %_20 = ptrtoint ptr %_19 to i64
  %_23 = icmp eq i64 %_20, 0
  %_24 = and i1 %_23, true
  %_25 = xor i1 %_24, true
  br i1 %_25, label %bb10, label %panic1

panic:                                            ; preds = %bb3
; call core::panicking::panic_misaligned_pointer_dereference
  call void @_ZN4core9panicking36panic_misaligned_pointer_dereference17hcc3cbded9382b6e5E(i64 8, i64 %_14, ptr align 8 @alloc_79a1c52c0532fc2abedabfb8bb2903e5) #3
  unreachable

bb10:                                             ; preds = %bb9
  %2 = load ptr, ptr %root_0, align 8
  %3 = getelementptr inbounds i8, ptr %2, i64 8
  %_5 = load ptr, ptr %3, align 8
; call core::ptr::mut_ptr::<impl *mut T>::is_null
  %_4 = call zeroext i1 @"_ZN4core3ptr7mut_ptr31_$LT$impl$u20$$BP$mut$u20$T$GT$7is_null17h08c54dc430c63f86E"(ptr %_5) #4
  br i1 %_4, label %bb5, label %bb6

panic1:                                           ; preds = %bb9
; call core::panicking::panic_null_pointer_dereference
  call void @_ZN4core9panicking30panic_null_pointer_dereference17hf718fcc86a223baaE(ptr align 8 @alloc_79a1c52c0532fc2abedabfb8bb2903e5) #3
  unreachable

bb6:                                              ; preds = %bb10
  %_7 = load ptr, ptr %root_0, align 8
  %_8 = ptrtoint ptr %_7 to i64
  %_11 = and i64 %_8, 7
  %_12 = icmp eq i64 %_11, 0
  br i1 %_12, label %bb8, label %panic2

bb5:                                              ; preds = %bb10
  %4 = load ptr, ptr %root_0, align 8
  store ptr %4, ptr %_0, align 8
  br label %bb7

bb8:                                              ; preds = %bb6
  %_26 = load ptr, ptr %root_0, align 8
  %_27 = ptrtoint ptr %_26 to i64
  %_30 = icmp eq i64 %_27, 0
  %_31 = and i1 %_30, true
  %_32 = xor i1 %_31, true
  br i1 %_32, label %bb11, label %panic3

panic2:                                           ; preds = %bb6
; call core::panicking::panic_misaligned_pointer_dereference
  call void @_ZN4core9panicking36panic_misaligned_pointer_dereference17hcc3cbded9382b6e5E(i64 8, i64 %_8, ptr align 8 @alloc_8429c1a1f06e04cf85718db89044e5a8) #3
  unreachable

bb11:                                             ; preds = %bb8
  %5 = load ptr, ptr %root_0, align 8
  %6 = getelementptr inbounds i8, ptr %5, i64 8
  %_6 = load ptr, ptr %6, align 8
  store ptr %_6, ptr %root_0, align 8
  br label %bb3

panic3:                                           ; preds = %bb8
; call core::panicking::panic_null_pointer_dereference
  call void @_ZN4core9panicking30panic_null_pointer_dereference17hf718fcc86a223baaE(ptr align 8 @alloc_8429c1a1f06e04cf85718db89044e5a8) #3
  unreachable

bb7:                                              ; preds = %bb2, %bb5
  %7 = load ptr, ptr %_0, align 8
  ret ptr %7
}

; Function Attrs: nounwind nonlazybind
define ptr @findMaxIterative(ptr %0) unnamed_addr #1 {
start:
  %_0 = alloca [8 x i8], align 8
  %root_0 = alloca [8 x i8], align 8
  store ptr %0, ptr %root_0, align 8
  %_3 = load ptr, ptr %root_0, align 8
; call core::ptr::mut_ptr::<impl *mut T>::is_null
  %_2 = call zeroext i1 @"_ZN4core3ptr7mut_ptr31_$LT$impl$u20$$BP$mut$u20$T$GT$7is_null17h08c54dc430c63f86E"(ptr %_3) #4
  br i1 %_2, label %bb2, label %bb3

bb3:                                              ; preds = %bb11, %start
  %_13 = load ptr, ptr %root_0, align 8
  %_14 = ptrtoint ptr %_13 to i64
  %_17 = and i64 %_14, 7
  %_18 = icmp eq i64 %_17, 0
  br i1 %_18, label %bb9, label %panic

bb2:                                              ; preds = %start
  %1 = load ptr, ptr %root_0, align 8
  store ptr %1, ptr %_0, align 8
  br label %bb7

bb9:                                              ; preds = %bb3
  %_19 = load ptr, ptr %root_0, align 8
  %_20 = ptrtoint ptr %_19 to i64
  %_23 = icmp eq i64 %_20, 0
  %_24 = and i1 %_23, true
  %_25 = xor i1 %_24, true
  br i1 %_25, label %bb10, label %panic1

panic:                                            ; preds = %bb3
; call core::panicking::panic_misaligned_pointer_dereference
  call void @_ZN4core9panicking36panic_misaligned_pointer_dereference17hcc3cbded9382b6e5E(i64 8, i64 %_14, ptr align 8 @alloc_b2cb629e5a05031fe59ada3551738e7c) #3
  unreachable

bb10:                                             ; preds = %bb9
  %2 = load ptr, ptr %root_0, align 8
  %3 = getelementptr inbounds i8, ptr %2, i64 16
  %_5 = load ptr, ptr %3, align 8
; call core::ptr::mut_ptr::<impl *mut T>::is_null
  %_4 = call zeroext i1 @"_ZN4core3ptr7mut_ptr31_$LT$impl$u20$$BP$mut$u20$T$GT$7is_null17h08c54dc430c63f86E"(ptr %_5) #4
  br i1 %_4, label %bb5, label %bb6

panic1:                                           ; preds = %bb9
; call core::panicking::panic_null_pointer_dereference
  call void @_ZN4core9panicking30panic_null_pointer_dereference17hf718fcc86a223baaE(ptr align 8 @alloc_b2cb629e5a05031fe59ada3551738e7c) #3
  unreachable

bb6:                                              ; preds = %bb10
  %_7 = load ptr, ptr %root_0, align 8
  %_8 = ptrtoint ptr %_7 to i64
  %_11 = and i64 %_8, 7
  %_12 = icmp eq i64 %_11, 0
  br i1 %_12, label %bb8, label %panic2

bb5:                                              ; preds = %bb10
  %4 = load ptr, ptr %root_0, align 8
  store ptr %4, ptr %_0, align 8
  br label %bb7

bb8:                                              ; preds = %bb6
  %_26 = load ptr, ptr %root_0, align 8
  %_27 = ptrtoint ptr %_26 to i64
  %_30 = icmp eq i64 %_27, 0
  %_31 = and i1 %_30, true
  %_32 = xor i1 %_31, true
  br i1 %_32, label %bb11, label %panic3

panic2:                                           ; preds = %bb6
; call core::panicking::panic_misaligned_pointer_dereference
  call void @_ZN4core9panicking36panic_misaligned_pointer_dereference17hcc3cbded9382b6e5E(i64 8, i64 %_8, ptr align 8 @alloc_3f7a4cf7ad664436088e730884cdc850) #3
  unreachable

bb11:                                             ; preds = %bb8
  %5 = load ptr, ptr %root_0, align 8
  %6 = getelementptr inbounds i8, ptr %5, i64 16
  %_6 = load ptr, ptr %6, align 8
  store ptr %_6, ptr %root_0, align 8
  br label %bb3

panic3:                                           ; preds = %bb8
; call core::panicking::panic_null_pointer_dereference
  call void @_ZN4core9panicking30panic_null_pointer_dereference17hf718fcc86a223baaE(ptr align 8 @alloc_3f7a4cf7ad664436088e730884cdc850) #3
  unreachable

bb7:                                              ; preds = %bb2, %bb5
  %7 = load ptr, ptr %_0, align 8
  ret ptr %7
}

; Function Attrs: nounwind nonlazybind
define ptr @insertNodeRecursive(ptr %0, i32 %value) unnamed_addr #1 {
start:
  %_0 = alloca [8 x i8], align 8
  %newNode = alloca [8 x i8], align 8
  store ptr %0, ptr %newNode, align 8
  %_4 = load ptr, ptr %newNode, align 8
; call core::ptr::mut_ptr::<impl *mut T>::is_null
  %_3 = call zeroext i1 @"_ZN4core3ptr7mut_ptr31_$LT$impl$u20$$BP$mut$u20$T$GT$7is_null17h08c54dc430c63f86E"(ptr %_4) #4
  br i1 %_3, label %bb2, label %bb5

bb5:                                              ; preds = %start
  %_38 = load ptr, ptr %newNode, align 8
  %_39 = ptrtoint ptr %_38 to i64
  %_42 = and i64 %_39, 7
  %_43 = icmp eq i64 %_42, 0
  br i1 %_43, label %bb16, label %panic

bb2:                                              ; preds = %start
  %_5 = call ptr @malloc(i64 24) #4
  store ptr %_5, ptr %newNode, align 8
  %_56 = load ptr, ptr %newNode, align 8
  %_57 = ptrtoint ptr %_56 to i64
  %_60 = and i64 %_57, 7
  %_61 = icmp eq i64 %_60, 0
  br i1 %_61, label %bb19, label %panic10

bb16:                                             ; preds = %bb5
  %_83 = load ptr, ptr %newNode, align 8
  %_84 = ptrtoint ptr %_83 to i64
  %_87 = icmp eq i64 %_84, 0
  %_88 = and i1 %_87, true
  %_89 = xor i1 %_88, true
  br i1 %_89, label %bb23, label %panic1

panic:                                            ; preds = %bb5
; call core::panicking::panic_misaligned_pointer_dereference
  call void @_ZN4core9panicking36panic_misaligned_pointer_dereference17hcc3cbded9382b6e5E(i64 8, i64 %_39, ptr align 8 @alloc_0c11119822e4887e91c28a0407bde787) #3
  unreachable

bb23:                                             ; preds = %bb16
  %1 = load ptr, ptr %newNode, align 8
  %_9 = load i32, ptr %1, align 8
  %_8 = icmp sle i32 %value, %_9
  br i1 %_8, label %bb6, label %bb8

panic1:                                           ; preds = %bb16
; call core::panicking::panic_null_pointer_dereference
  call void @_ZN4core9panicking30panic_null_pointer_dereference17hf718fcc86a223baaE(ptr align 8 @alloc_0c11119822e4887e91c28a0407bde787) #3
  unreachable

bb8:                                              ; preds = %bb23
  %_20 = load ptr, ptr %newNode, align 8
  %_21 = ptrtoint ptr %_20 to i64
  %_24 = and i64 %_21, 7
  %_25 = icmp eq i64 %_24, 0
  br i1 %_25, label %bb13, label %panic2

bb6:                                              ; preds = %bb23
  %_32 = load ptr, ptr %newNode, align 8
  %_33 = ptrtoint ptr %_32 to i64
  %_36 = and i64 %_33, 7
  %_37 = icmp eq i64 %_36, 0
  br i1 %_37, label %bb15, label %panic6

bb13:                                             ; preds = %bb8
  %_104 = load ptr, ptr %newNode, align 8
  %_105 = ptrtoint ptr %_104 to i64
  %_108 = icmp eq i64 %_105, 0
  %_109 = and i1 %_108, true
  %_110 = xor i1 %_109, true
  br i1 %_110, label %bb26, label %panic3

panic2:                                           ; preds = %bb8
; call core::panicking::panic_misaligned_pointer_dereference
  call void @_ZN4core9panicking36panic_misaligned_pointer_dereference17hcc3cbded9382b6e5E(i64 8, i64 %_21, ptr align 8 @alloc_8f7db07fc1577b09d661c88ccf3e6ec2) #3
  unreachable

bb26:                                             ; preds = %bb13
  %2 = load ptr, ptr %newNode, align 8
  %3 = getelementptr inbounds i8, ptr %2, i64 16
  %_13 = load ptr, ptr %3, align 8
  %_12 = call ptr @insertNodeRecursive(ptr %_13, i32 %value) #4
  %_14 = load ptr, ptr %newNode, align 8
  %_15 = ptrtoint ptr %_14 to i64
  %_18 = and i64 %_15, 7
  %_19 = icmp eq i64 %_18, 0
  br i1 %_19, label %bb12, label %panic4

panic3:                                           ; preds = %bb13
; call core::panicking::panic_null_pointer_dereference
  call void @_ZN4core9panicking30panic_null_pointer_dereference17hf718fcc86a223baaE(ptr align 8 @alloc_8f7db07fc1577b09d661c88ccf3e6ec2) #3
  unreachable

bb12:                                             ; preds = %bb26
  %_111 = load ptr, ptr %newNode, align 8
  %_112 = ptrtoint ptr %_111 to i64
  %_115 = icmp eq i64 %_112, 0
  %_116 = and i1 %_115, true
  %_117 = xor i1 %_116, true
  br i1 %_117, label %bb27, label %panic5

panic4:                                           ; preds = %bb26
; call core::panicking::panic_misaligned_pointer_dereference
  call void @_ZN4core9panicking36panic_misaligned_pointer_dereference17hcc3cbded9382b6e5E(i64 8, i64 %_15, ptr align 8 @alloc_2fc622b2ef8caa994bd13df8a6c1e1fc) #3
  unreachable

bb27:                                             ; preds = %bb12
  %4 = load ptr, ptr %newNode, align 8
  %5 = getelementptr inbounds i8, ptr %4, i64 16
  store ptr %_12, ptr %5, align 8
  br label %bb10

panic5:                                           ; preds = %bb12
; call core::panicking::panic_null_pointer_dereference
  call void @_ZN4core9panicking30panic_null_pointer_dereference17hf718fcc86a223baaE(ptr align 8 @alloc_2fc622b2ef8caa994bd13df8a6c1e1fc) #3
  unreachable

bb10:                                             ; preds = %bb25, %bb27
  %6 = load ptr, ptr %newNode, align 8
  store ptr %6, ptr %_0, align 8
  br label %bb11

bb15:                                             ; preds = %bb6
  %_90 = load ptr, ptr %newNode, align 8
  %_91 = ptrtoint ptr %_90 to i64
  %_94 = icmp eq i64 %_91, 0
  %_95 = and i1 %_94, true
  %_96 = xor i1 %_95, true
  br i1 %_96, label %bb24, label %panic7

panic6:                                           ; preds = %bb6
; call core::panicking::panic_misaligned_pointer_dereference
  call void @_ZN4core9panicking36panic_misaligned_pointer_dereference17hcc3cbded9382b6e5E(i64 8, i64 %_33, ptr align 8 @alloc_fe5fa43ed1f8b621ceda3fa468ec1450) #3
  unreachable

bb24:                                             ; preds = %bb15
  %7 = load ptr, ptr %newNode, align 8
  %8 = getelementptr inbounds i8, ptr %7, i64 8
  %_11 = load ptr, ptr %8, align 8
  %_10 = call ptr @insertNodeRecursive(ptr %_11, i32 %value) #4
  %_26 = load ptr, ptr %newNode, align 8
  %_27 = ptrtoint ptr %_26 to i64
  %_30 = and i64 %_27, 7
  %_31 = icmp eq i64 %_30, 0
  br i1 %_31, label %bb14, label %panic8

panic7:                                           ; preds = %bb15
; call core::panicking::panic_null_pointer_dereference
  call void @_ZN4core9panicking30panic_null_pointer_dereference17hf718fcc86a223baaE(ptr align 8 @alloc_fe5fa43ed1f8b621ceda3fa468ec1450) #3
  unreachable

bb14:                                             ; preds = %bb24
  %_97 = load ptr, ptr %newNode, align 8
  %_98 = ptrtoint ptr %_97 to i64
  %_101 = icmp eq i64 %_98, 0
  %_102 = and i1 %_101, true
  %_103 = xor i1 %_102, true
  br i1 %_103, label %bb25, label %panic9

panic8:                                           ; preds = %bb24
; call core::panicking::panic_misaligned_pointer_dereference
  call void @_ZN4core9panicking36panic_misaligned_pointer_dereference17hcc3cbded9382b6e5E(i64 8, i64 %_27, ptr align 8 @alloc_0882f91a599619b9fd464d5e2869844d) #3
  unreachable

bb25:                                             ; preds = %bb14
  %9 = load ptr, ptr %newNode, align 8
  %10 = getelementptr inbounds i8, ptr %9, i64 8
  store ptr %_10, ptr %10, align 8
  br label %bb10

panic9:                                           ; preds = %bb14
; call core::panicking::panic_null_pointer_dereference
  call void @_ZN4core9panicking30panic_null_pointer_dereference17hf718fcc86a223baaE(ptr align 8 @alloc_0882f91a599619b9fd464d5e2869844d) #3
  unreachable

bb11:                                             ; preds = %bb22, %bb10
  %11 = load ptr, ptr %_0, align 8
  ret ptr %11

bb19:                                             ; preds = %bb2
  %_62 = load ptr, ptr %newNode, align 8
  %_63 = ptrtoint ptr %_62 to i64
  %_66 = icmp eq i64 %_63, 0
  %_67 = and i1 %_66, true
  %_68 = xor i1 %_67, true
  br i1 %_68, label %bb20, label %panic11

panic10:                                          ; preds = %bb2
; call core::panicking::panic_misaligned_pointer_dereference
  call void @_ZN4core9panicking36panic_misaligned_pointer_dereference17hcc3cbded9382b6e5E(i64 8, i64 %_57, ptr align 8 @alloc_35903e2beae833791f15e8c3785889c6) #3
  unreachable

bb20:                                             ; preds = %bb19
  %12 = load ptr, ptr %newNode, align 8
  store i32 %value, ptr %12, align 8
  %_50 = load ptr, ptr %newNode, align 8
  %_51 = ptrtoint ptr %_50 to i64
  %_54 = and i64 %_51, 7
  %_55 = icmp eq i64 %_54, 0
  br i1 %_55, label %bb18, label %panic12

panic11:                                          ; preds = %bb19
; call core::panicking::panic_null_pointer_dereference
  call void @_ZN4core9panicking30panic_null_pointer_dereference17hf718fcc86a223baaE(ptr align 8 @alloc_35903e2beae833791f15e8c3785889c6) #3
  unreachable

bb18:                                             ; preds = %bb20
  %_69 = load ptr, ptr %newNode, align 8
  %_70 = ptrtoint ptr %_69 to i64
  %_73 = icmp eq i64 %_70, 0
  %_74 = and i1 %_73, true
  %_75 = xor i1 %_74, true
  br i1 %_75, label %bb21, label %panic13

panic12:                                          ; preds = %bb20
; call core::panicking::panic_misaligned_pointer_dereference
  call void @_ZN4core9panicking36panic_misaligned_pointer_dereference17hcc3cbded9382b6e5E(i64 8, i64 %_51, ptr align 8 @alloc_f2f081886f331dc949da0f4fbdad1cbe) #3
  unreachable

bb21:                                             ; preds = %bb18
  %13 = load ptr, ptr %newNode, align 8
  %14 = getelementptr inbounds i8, ptr %13, i64 8
  store ptr null, ptr %14, align 8
  %_44 = load ptr, ptr %newNode, align 8
  %_45 = ptrtoint ptr %_44 to i64
  %_48 = and i64 %_45, 7
  %_49 = icmp eq i64 %_48, 0
  br i1 %_49, label %bb17, label %panic14

panic13:                                          ; preds = %bb18
; call core::panicking::panic_null_pointer_dereference
  call void @_ZN4core9panicking30panic_null_pointer_dereference17hf718fcc86a223baaE(ptr align 8 @alloc_f2f081886f331dc949da0f4fbdad1cbe) #3
  unreachable

bb17:                                             ; preds = %bb21
  %_76 = load ptr, ptr %newNode, align 8
  %_77 = ptrtoint ptr %_76 to i64
  %_80 = icmp eq i64 %_77, 0
  %_81 = and i1 %_80, true
  %_82 = xor i1 %_81, true
  br i1 %_82, label %bb22, label %panic15

panic14:                                          ; preds = %bb21
; call core::panicking::panic_misaligned_pointer_dereference
  call void @_ZN4core9panicking36panic_misaligned_pointer_dereference17hcc3cbded9382b6e5E(i64 8, i64 %_45, ptr align 8 @alloc_13c7d6433f4d53ba2c9128965961cb67) #3
  unreachable

bb22:                                             ; preds = %bb17
  %15 = load ptr, ptr %newNode, align 8
  %16 = getelementptr inbounds i8, ptr %15, i64 16
  store ptr null, ptr %16, align 8
  %17 = load ptr, ptr %newNode, align 8
  store ptr %17, ptr %_0, align 8
  br label %bb11

panic15:                                          ; preds = %bb17
; call core::panicking::panic_null_pointer_dereference
  call void @_ZN4core9panicking30panic_null_pointer_dereference17hf718fcc86a223baaE(ptr align 8 @alloc_13c7d6433f4d53ba2c9128965961cb67) #3
  unreachable
}

; Function Attrs: nounwind nonlazybind
define void @insertNodeIterative(i32 %value) unnamed_addr #1 {
start:
  %parentNode = alloca [8 x i8], align 8
  %currentNode = alloca [8 x i8], align 8
  %tempNode = alloca [8 x i8], align 8
  store ptr null, ptr %tempNode, align 8
  store ptr null, ptr %currentNode, align 8
  store ptr null, ptr %parentNode, align 8
  %_5 = call ptr @malloc(i64 24) #4
  store ptr %_5, ptr %tempNode, align 8
  %_98 = load ptr, ptr %tempNode, align 8
  %_99 = ptrtoint ptr %_98 to i64
  %_102 = and i64 %_99, 7
  %_103 = icmp eq i64 %_102, 0
  br i1 %_103, label %bb26, label %panic

bb26:                                             ; preds = %start
  %_104 = load ptr, ptr %tempNode, align 8
  %_105 = ptrtoint ptr %_104 to i64
  %_108 = icmp eq i64 %_105, 0
  %_109 = and i1 %_108, true
  %_110 = xor i1 %_109, true
  br i1 %_110, label %bb27, label %panic1

panic:                                            ; preds = %start
; call core::panicking::panic_misaligned_pointer_dereference
  call void @_ZN4core9panicking36panic_misaligned_pointer_dereference17hcc3cbded9382b6e5E(i64 8, i64 %_99, ptr align 8 @alloc_3689581ac3e8ceaaaf9b37c8e542fe4a) #3
  unreachable

bb27:                                             ; preds = %bb26
  %0 = load ptr, ptr %tempNode, align 8
  store i32 %value, ptr %0, align 8
  %_92 = load ptr, ptr %tempNode, align 8
  %_93 = ptrtoint ptr %_92 to i64
  %_96 = and i64 %_93, 7
  %_97 = icmp eq i64 %_96, 0
  br i1 %_97, label %bb25, label %panic2

panic1:                                           ; preds = %bb26
; call core::panicking::panic_null_pointer_dereference
  call void @_ZN4core9panicking30panic_null_pointer_dereference17hf718fcc86a223baaE(ptr align 8 @alloc_3689581ac3e8ceaaaf9b37c8e542fe4a) #3
  unreachable

bb25:                                             ; preds = %bb27
  %_111 = load ptr, ptr %tempNode, align 8
  %_112 = ptrtoint ptr %_111 to i64
  %_115 = icmp eq i64 %_112, 0
  %_116 = and i1 %_115, true
  %_117 = xor i1 %_116, true
  br i1 %_117, label %bb28, label %panic3

panic2:                                           ; preds = %bb27
; call core::panicking::panic_misaligned_pointer_dereference
  call void @_ZN4core9panicking36panic_misaligned_pointer_dereference17hcc3cbded9382b6e5E(i64 8, i64 %_93, ptr align 8 @alloc_ff9152b01998611ba6bd446c3ae8be7e) #3
  unreachable

bb28:                                             ; preds = %bb25
  %1 = load ptr, ptr %tempNode, align 8
  %2 = getelementptr inbounds i8, ptr %1, i64 8
  store ptr null, ptr %2, align 8
  %_86 = load ptr, ptr %tempNode, align 8
  %_87 = ptrtoint ptr %_86 to i64
  %_90 = and i64 %_87, 7
  %_91 = icmp eq i64 %_90, 0
  br i1 %_91, label %bb24, label %panic4

panic3:                                           ; preds = %bb25
; call core::panicking::panic_null_pointer_dereference
  call void @_ZN4core9panicking30panic_null_pointer_dereference17hf718fcc86a223baaE(ptr align 8 @alloc_ff9152b01998611ba6bd446c3ae8be7e) #3
  unreachable

bb24:                                             ; preds = %bb28
  %_118 = load ptr, ptr %tempNode, align 8
  %_119 = ptrtoint ptr %_118 to i64
  %_122 = icmp eq i64 %_119, 0
  %_123 = and i1 %_122, true
  %_124 = xor i1 %_123, true
  br i1 %_124, label %bb29, label %panic5

panic4:                                           ; preds = %bb28
; call core::panicking::panic_misaligned_pointer_dereference
  call void @_ZN4core9panicking36panic_misaligned_pointer_dereference17hcc3cbded9382b6e5E(i64 8, i64 %_87, ptr align 8 @alloc_4c915bac303742f1dcbead2acc9529f0) #3
  unreachable

bb29:                                             ; preds = %bb24
  %3 = load ptr, ptr %tempNode, align 8
  %4 = getelementptr inbounds i8, ptr %3, i64 16
  store ptr null, ptr %4, align 8
  %_129 = icmp eq i64 ptrtoint (ptr @root to i64), 0
  %_130 = and i1 %_129, true
  %_131 = xor i1 %_130, true
  br i1 %_131, label %bb30, label %panic6

panic5:                                           ; preds = %bb24
; call core::panicking::panic_null_pointer_dereference
  call void @_ZN4core9panicking30panic_null_pointer_dereference17hf718fcc86a223baaE(ptr align 8 @alloc_4c915bac303742f1dcbead2acc9529f0) #3
  unreachable

bb30:                                             ; preds = %bb29
  %_9 = load ptr, ptr @root, align 8
; call core::ptr::mut_ptr::<impl *mut T>::is_null
  %_8 = call zeroext i1 @"_ZN4core3ptr7mut_ptr31_$LT$impl$u20$$BP$mut$u20$T$GT$7is_null17h08c54dc430c63f86E"(ptr %_9) #4
  br i1 %_8, label %bb4, label %bb5

panic6:                                           ; preds = %bb29
; call core::panicking::panic_null_pointer_dereference
  call void @_ZN4core9panicking30panic_null_pointer_dereference17hf718fcc86a223baaE(ptr align 8 @alloc_60e4a32858d32b1be171c53af1072a10) #3
  unreachable

bb5:                                              ; preds = %bb30
  %_143 = icmp eq i64 ptrtoint (ptr @root to i64), 0
  %_144 = and i1 %_143, true
  %_145 = xor i1 %_144, true
  br i1 %_145, label %bb32, label %panic7

bb4:                                              ; preds = %bb30
  %_11 = load ptr, ptr %tempNode, align 8
  %_136 = icmp eq i64 ptrtoint (ptr @root to i64), 0
  %_137 = and i1 %_136, true
  %_138 = xor i1 %_137, true
  br i1 %_138, label %bb31, label %panic22

bb32:                                             ; preds = %bb5
  %_13 = load ptr, ptr @root, align 8
  store ptr %_13, ptr %currentNode, align 8
  store ptr null, ptr %parentNode, align 8
  %_62 = load ptr, ptr %parentNode, align 8
  %_63 = ptrtoint ptr %_62 to i64
  %_66 = and i64 %_63, 7
  %_67 = icmp eq i64 %_66, 0
  br i1 %_67, label %bb20, label %panic8

panic7:                                           ; preds = %bb5
; call core::panicking::panic_null_pointer_dereference
  call void @_ZN4core9panicking30panic_null_pointer_dereference17hf718fcc86a223baaE(ptr align 8 @alloc_0fc5270d6602d94baa051e7e9c6e16ae) #3
  unreachable

bb20:                                             ; preds = %bb32
  %_146 = load ptr, ptr %parentNode, align 8
  %_147 = ptrtoint ptr %_146 to i64
  %_150 = icmp eq i64 %_147, 0
  %_151 = and i1 %_150, true
  %_152 = xor i1 %_151, true
  br i1 %_152, label %bb33, label %panic9

panic8:                                           ; preds = %bb32
; call core::panicking::panic_misaligned_pointer_dereference
  call void @_ZN4core9panicking36panic_misaligned_pointer_dereference17hcc3cbded9382b6e5E(i64 8, i64 %_63, ptr align 8 @alloc_4a6eda898bdde920aeb6902aaba4aae6) #3
  unreachable

bb33:                                             ; preds = %bb20
  %5 = load ptr, ptr %parentNode, align 8
  %6 = getelementptr inbounds i8, ptr %5, i64 8
  store ptr null, ptr %6, align 8
  %_56 = load ptr, ptr %parentNode, align 8
  %_57 = ptrtoint ptr %_56 to i64
  %_60 = and i64 %_57, 7
  %_61 = icmp eq i64 %_60, 0
  br i1 %_61, label %bb19, label %panic10

panic9:                                           ; preds = %bb20
; call core::panicking::panic_null_pointer_dereference
  call void @_ZN4core9panicking30panic_null_pointer_dereference17hf718fcc86a223baaE(ptr align 8 @alloc_4a6eda898bdde920aeb6902aaba4aae6) #3
  unreachable

bb19:                                             ; preds = %bb33
  %_153 = load ptr, ptr %parentNode, align 8
  %_154 = ptrtoint ptr %_153 to i64
  %_157 = icmp eq i64 %_154, 0
  %_158 = and i1 %_157, true
  %_159 = xor i1 %_158, true
  br i1 %_159, label %bb34, label %panic11

panic10:                                          ; preds = %bb33
; call core::panicking::panic_misaligned_pointer_dereference
  call void @_ZN4core9panicking36panic_misaligned_pointer_dereference17hcc3cbded9382b6e5E(i64 8, i64 %_57, ptr align 8 @alloc_847817f60a835e11a29d83b54122ef92) #3
  unreachable

bb34:                                             ; preds = %bb19
  %7 = load ptr, ptr %parentNode, align 8
  %8 = getelementptr inbounds i8, ptr %7, i64 16
  store ptr null, ptr %8, align 8
  br label %bb6

panic11:                                          ; preds = %bb19
; call core::panicking::panic_null_pointer_dereference
  call void @_ZN4core9panicking30panic_null_pointer_dereference17hf718fcc86a223baaE(ptr align 8 @alloc_847817f60a835e11a29d83b54122ef92) #3
  unreachable

bb6:                                              ; preds = %bb36, %bb38, %bb34
  %_15 = load ptr, ptr %currentNode, align 8
  store ptr %_15, ptr %parentNode, align 8
  %_50 = load ptr, ptr %parentNode, align 8
  %_51 = ptrtoint ptr %_50 to i64
  %_54 = and i64 %_51, 7
  %_55 = icmp eq i64 %_54, 0
  br i1 %_55, label %bb18, label %panic12

bb18:                                             ; preds = %bb6
  %_160 = load ptr, ptr %parentNode, align 8
  %_161 = ptrtoint ptr %_160 to i64
  %_164 = icmp eq i64 %_161, 0
  %_165 = and i1 %_164, true
  %_166 = xor i1 %_165, true
  br i1 %_166, label %bb35, label %panic13

panic12:                                          ; preds = %bb6
; call core::panicking::panic_misaligned_pointer_dereference
  call void @_ZN4core9panicking36panic_misaligned_pointer_dereference17hcc3cbded9382b6e5E(i64 8, i64 %_51, ptr align 8 @alloc_5cbe45a25691a43188a68e96d0bbec21) #3
  unreachable

bb35:                                             ; preds = %bb18
  %9 = load ptr, ptr %parentNode, align 8
  %_17 = load i32, ptr %9, align 8
  %_16 = icmp sle i32 %value, %_17
  br i1 %_16, label %bb7, label %bb10

panic13:                                          ; preds = %bb18
; call core::panicking::panic_null_pointer_dereference
  call void @_ZN4core9panicking30panic_null_pointer_dereference17hf718fcc86a223baaE(ptr align 8 @alloc_5cbe45a25691a43188a68e96d0bbec21) #3
  unreachable

bb10:                                             ; preds = %bb35
  %_32 = load ptr, ptr %currentNode, align 8
  %_33 = ptrtoint ptr %_32 to i64
  %_36 = and i64 %_33, 7
  %_37 = icmp eq i64 %_36, 0
  br i1 %_37, label %bb15, label %panic14

bb7:                                              ; preds = %bb35
  %_44 = load ptr, ptr %currentNode, align 8
  %_45 = ptrtoint ptr %_44 to i64
  %_48 = and i64 %_45, 7
  %_49 = icmp eq i64 %_48, 0
  br i1 %_49, label %bb17, label %panic18

bb15:                                             ; preds = %bb10
  %_181 = load ptr, ptr %currentNode, align 8
  %_182 = ptrtoint ptr %_181 to i64
  %_185 = icmp eq i64 %_182, 0
  %_186 = and i1 %_185, true
  %_187 = xor i1 %_186, true
  br i1 %_187, label %bb38, label %panic15

panic14:                                          ; preds = %bb10
; call core::panicking::panic_misaligned_pointer_dereference
  call void @_ZN4core9panicking36panic_misaligned_pointer_dereference17hcc3cbded9382b6e5E(i64 8, i64 %_33, ptr align 8 @alloc_28691bf122f63821510ef9994c298302) #3
  unreachable

bb38:                                             ; preds = %bb15
  %10 = load ptr, ptr %currentNode, align 8
  %11 = getelementptr inbounds i8, ptr %10, i64 16
  %_22 = load ptr, ptr %11, align 8
  store ptr %_22, ptr %currentNode, align 8
  %_24 = load ptr, ptr %currentNode, align 8
; call core::ptr::mut_ptr::<impl *mut T>::is_null
  %_23 = call zeroext i1 @"_ZN4core3ptr7mut_ptr31_$LT$impl$u20$$BP$mut$u20$T$GT$7is_null17h08c54dc430c63f86E"(ptr %_24) #4
  br i1 %_23, label %bb12, label %bb6

panic15:                                          ; preds = %bb15
; call core::panicking::panic_null_pointer_dereference
  call void @_ZN4core9panicking30panic_null_pointer_dereference17hf718fcc86a223baaE(ptr align 8 @alloc_28691bf122f63821510ef9994c298302) #3
  unreachable

bb12:                                             ; preds = %bb38
  %_25 = load ptr, ptr %tempNode, align 8
  %_26 = load ptr, ptr %parentNode, align 8
  %_27 = ptrtoint ptr %_26 to i64
  %_30 = and i64 %_27, 7
  %_31 = icmp eq i64 %_30, 0
  br i1 %_31, label %bb14, label %panic16

bb14:                                             ; preds = %bb12
  %_188 = load ptr, ptr %parentNode, align 8
  %_189 = ptrtoint ptr %_188 to i64
  %_192 = icmp eq i64 %_189, 0
  %_193 = and i1 %_192, true
  %_194 = xor i1 %_193, true
  br i1 %_194, label %bb39, label %panic17

panic16:                                          ; preds = %bb12
; call core::panicking::panic_misaligned_pointer_dereference
  call void @_ZN4core9panicking36panic_misaligned_pointer_dereference17hcc3cbded9382b6e5E(i64 8, i64 %_27, ptr align 8 @alloc_d873cee74fc9f3709a5d0e45c13a2182) #3
  unreachable

bb39:                                             ; preds = %bb14
  %12 = load ptr, ptr %parentNode, align 8
  %13 = getelementptr inbounds i8, ptr %12, i64 16
  store ptr %_25, ptr %13, align 8
  br label %bb13

panic17:                                          ; preds = %bb14
; call core::panicking::panic_null_pointer_dereference
  call void @_ZN4core9panicking30panic_null_pointer_dereference17hf718fcc86a223baaE(ptr align 8 @alloc_d873cee74fc9f3709a5d0e45c13a2182) #3
  unreachable

bb13:                                             ; preds = %bb31, %bb37, %bb39
  ret void

bb17:                                             ; preds = %bb7
  %_167 = load ptr, ptr %currentNode, align 8
  %_168 = ptrtoint ptr %_167 to i64
  %_171 = icmp eq i64 %_168, 0
  %_172 = and i1 %_171, true
  %_173 = xor i1 %_172, true
  br i1 %_173, label %bb36, label %panic19

panic18:                                          ; preds = %bb7
; call core::panicking::panic_misaligned_pointer_dereference
  call void @_ZN4core9panicking36panic_misaligned_pointer_dereference17hcc3cbded9382b6e5E(i64 8, i64 %_45, ptr align 8 @alloc_74208c4803cd2f5c2be131f221cb04f0) #3
  unreachable

bb36:                                             ; preds = %bb17
  %14 = load ptr, ptr %currentNode, align 8
  %15 = getelementptr inbounds i8, ptr %14, i64 8
  %_18 = load ptr, ptr %15, align 8
  store ptr %_18, ptr %currentNode, align 8
  %_20 = load ptr, ptr %currentNode, align 8
; call core::ptr::mut_ptr::<impl *mut T>::is_null
  %_19 = call zeroext i1 @"_ZN4core3ptr7mut_ptr31_$LT$impl$u20$$BP$mut$u20$T$GT$7is_null17h08c54dc430c63f86E"(ptr %_20) #4
  br i1 %_19, label %bb9, label %bb6

panic19:                                          ; preds = %bb17
; call core::panicking::panic_null_pointer_dereference
  call void @_ZN4core9panicking30panic_null_pointer_dereference17hf718fcc86a223baaE(ptr align 8 @alloc_74208c4803cd2f5c2be131f221cb04f0) #3
  unreachable

bb9:                                              ; preds = %bb36
  %_21 = load ptr, ptr %tempNode, align 8
  %_38 = load ptr, ptr %parentNode, align 8
  %_39 = ptrtoint ptr %_38 to i64
  %_42 = and i64 %_39, 7
  %_43 = icmp eq i64 %_42, 0
  br i1 %_43, label %bb16, label %panic20

bb16:                                             ; preds = %bb9
  %_174 = load ptr, ptr %parentNode, align 8
  %_175 = ptrtoint ptr %_174 to i64
  %_178 = icmp eq i64 %_175, 0
  %_179 = and i1 %_178, true
  %_180 = xor i1 %_179, true
  br i1 %_180, label %bb37, label %panic21

panic20:                                          ; preds = %bb9
; call core::panicking::panic_misaligned_pointer_dereference
  call void @_ZN4core9panicking36panic_misaligned_pointer_dereference17hcc3cbded9382b6e5E(i64 8, i64 %_39, ptr align 8 @alloc_e9f7a536f033111205a1d9f3b7b347ff) #3
  unreachable

bb37:                                             ; preds = %bb16
  %16 = load ptr, ptr %parentNode, align 8
  %17 = getelementptr inbounds i8, ptr %16, i64 8
  store ptr %_21, ptr %17, align 8
  br label %bb13

panic21:                                          ; preds = %bb16
; call core::panicking::panic_null_pointer_dereference
  call void @_ZN4core9panicking30panic_null_pointer_dereference17hf718fcc86a223baaE(ptr align 8 @alloc_e9f7a536f033111205a1d9f3b7b347ff) #3
  unreachable

bb31:                                             ; preds = %bb4
  store ptr %_11, ptr @root, align 8
  br label %bb13

panic22:                                          ; preds = %bb4
; call core::panicking::panic_null_pointer_dereference
  call void @_ZN4core9panicking30panic_null_pointer_dereference17hf718fcc86a223baaE(ptr align 8 @alloc_693c2a8883c4b85731770c54313a3051) #3
  unreachable
}

; Function Attrs: nounwind nonlazybind
define void @preOrderPrint(ptr %root_0) unnamed_addr #1 {
start:
; call core::ptr::mut_ptr::<impl *mut T>::is_null
  %_2 = call zeroext i1 @"_ZN4core3ptr7mut_ptr31_$LT$impl$u20$$BP$mut$u20$T$GT$7is_null17h08c54dc430c63f86E"(ptr %root_0) #4
  br i1 %_2, label %bb5, label %bb2

bb2:                                              ; preds = %start
  %_26 = ptrtoint ptr %root_0 to i64
  %_29 = and i64 %_26, 7
  %_30 = icmp eq i64 %_29, 0
  br i1 %_30, label %bb8, label %panic

bb5:                                              ; preds = %bb11, %start
  ret void

bb8:                                              ; preds = %bb2
  %_32 = ptrtoint ptr %root_0 to i64
  %_35 = icmp eq i64 %_32, 0
  %_36 = and i1 %_35, true
  %_37 = xor i1 %_36, true
  br i1 %_37, label %bb9, label %panic1

panic:                                            ; preds = %bb2
; call core::panicking::panic_misaligned_pointer_dereference
  call void @_ZN4core9panicking36panic_misaligned_pointer_dereference17hcc3cbded9382b6e5E(i64 8, i64 %_26, ptr align 8 @alloc_92beb9bb7839846545c3540a4bf985a8) #3
  unreachable

bb9:                                              ; preds = %bb8
  %_8 = load i32, ptr %root_0, align 8
  %_3 = call i32 (ptr, ...) @printf(ptr @alloc_b929c71616281bfd1be2bd4038d3ddf1, i32 %_8) #4
  %_20 = ptrtoint ptr %root_0 to i64
  %_23 = and i64 %_20, 7
  %_24 = icmp eq i64 %_23, 0
  br i1 %_24, label %bb7, label %panic2

panic1:                                           ; preds = %bb8
; call core::panicking::panic_null_pointer_dereference
  call void @_ZN4core9panicking30panic_null_pointer_dereference17hf718fcc86a223baaE(ptr align 8 @alloc_92beb9bb7839846545c3540a4bf985a8) #3
  unreachable

bb7:                                              ; preds = %bb9
  %_39 = ptrtoint ptr %root_0 to i64
  %_42 = icmp eq i64 %_39, 0
  %_43 = and i1 %_42, true
  %_44 = xor i1 %_43, true
  br i1 %_44, label %bb10, label %panic3

panic2:                                           ; preds = %bb9
; call core::panicking::panic_misaligned_pointer_dereference
  call void @_ZN4core9panicking36panic_misaligned_pointer_dereference17hcc3cbded9382b6e5E(i64 8, i64 %_20, ptr align 8 @alloc_dcb017e4470dec3ff44c129d775f999c) #3
  unreachable

bb10:                                             ; preds = %bb7
  %0 = getelementptr inbounds i8, ptr %root_0, i64 8
  %_10 = load ptr, ptr %0, align 8
  call void @preOrderPrint(ptr %_10) #4
  %_14 = ptrtoint ptr %root_0 to i64
  %_17 = and i64 %_14, 7
  %_18 = icmp eq i64 %_17, 0
  br i1 %_18, label %bb6, label %panic4

panic3:                                           ; preds = %bb7
; call core::panicking::panic_null_pointer_dereference
  call void @_ZN4core9panicking30panic_null_pointer_dereference17hf718fcc86a223baaE(ptr align 8 @alloc_dcb017e4470dec3ff44c129d775f999c) #3
  unreachable

bb6:                                              ; preds = %bb10
  %_46 = ptrtoint ptr %root_0 to i64
  %_49 = icmp eq i64 %_46, 0
  %_50 = and i1 %_49, true
  %_51 = xor i1 %_50, true
  br i1 %_51, label %bb11, label %panic5

panic4:                                           ; preds = %bb10
; call core::panicking::panic_misaligned_pointer_dereference
  call void @_ZN4core9panicking36panic_misaligned_pointer_dereference17hcc3cbded9382b6e5E(i64 8, i64 %_14, ptr align 8 @alloc_34c142eb4e42c5e4e0763704ed6191be) #3
  unreachable

bb11:                                             ; preds = %bb6
  %1 = getelementptr inbounds i8, ptr %root_0, i64 16
  %_12 = load ptr, ptr %1, align 8
  call void @preOrderPrint(ptr %_12) #4
  br label %bb5

panic5:                                           ; preds = %bb6
; call core::panicking::panic_null_pointer_dereference
  call void @_ZN4core9panicking30panic_null_pointer_dereference17hf718fcc86a223baaE(ptr align 8 @alloc_34c142eb4e42c5e4e0763704ed6191be) #3
  unreachable
}

; core::panicking::panic_misaligned_pointer_dereference
; Function Attrs: cold minsize noinline noreturn nounwind nonlazybind optsize
declare void @_ZN4core9panicking36panic_misaligned_pointer_dereference17hcc3cbded9382b6e5E(i64, i64, ptr align 8) unnamed_addr #2

; core::panicking::panic_null_pointer_dereference
; Function Attrs: cold minsize noinline noreturn nounwind nonlazybind optsize
declare void @_ZN4core9panicking30panic_null_pointer_dereference17hf718fcc86a223baaE(ptr align 8) unnamed_addr #2

; Function Attrs: nounwind nonlazybind
declare ptr @malloc(i64) unnamed_addr #1

; Function Attrs: nounwind nonlazybind
declare i32 @printf(ptr, ...) unnamed_addr #1

attributes #0 = { inlinehint nounwind nonlazybind "probe-stack"="inline-asm" "target-cpu"="x86-64" }
attributes #1 = { nounwind nonlazybind "probe-stack"="inline-asm" "target-cpu"="x86-64" }
attributes #2 = { cold minsize noinline noreturn nounwind nonlazybind optsize "probe-stack"="inline-asm" "target-cpu"="x86-64" }
attributes #3 = { noreturn nounwind }
attributes #4 = { nounwind }

!llvm.module.flags = !{!0, !1}
!llvm.ident = !{!2}

!0 = !{i32 8, !"PIC Level", i32 2}
!1 = !{i32 2, !"RtLibUseGOT", i32 1}
!2 = !{!"rustc version 1.88.0-nightly (0b45675cf 2025-03-31)"}
