; ModuleID = '3s9vx27e3jm9v6ufbqrqk3kh3'
source_filename = "3s9vx27e3jm9v6ufbqrqk3kh3"
target datalayout = "e-m:e-p270:32:32-p271:32:32-p272:64:64-i64:64-i128:128-f80:128-n8:16:32:64-S128"
target triple = "x86_64-unknown-linux-gnu"

@head = global [8 x i8] zeroinitializer, align 8
@alloc_f5ffd2fd1476bab43ad89fb40c72d0c5 = private unnamed_addr constant [10 x i8] c"src/lib.rs", align 1
@alloc_6d4b9a63a3a7d57837cacbb81faee635 = private unnamed_addr constant <{ ptr, [16 x i8] }> <{ ptr @alloc_f5ffd2fd1476bab43ad89fb40c72d0c5, [16 x i8] c"\0A\00\00\00\00\00\00\00#\00\00\00\05\00\00\00" }>, align 8
@alloc_ef6c74317dfec918875c04a2f10e793f = private unnamed_addr constant <{ ptr, [16 x i8] }> <{ ptr @alloc_f5ffd2fd1476bab43ad89fb40c72d0c5, [16 x i8] c"\0A\00\00\00\00\00\00\00$\00\00\00\14\00\00\00" }>, align 8
@alloc_1246e0776b198dcc257b8c1ce1bfa04e = private unnamed_addr constant <{ ptr, [16 x i8] }> <{ ptr @alloc_f5ffd2fd1476bab43ad89fb40c72d0c5, [16 x i8] c"\0A\00\00\00\00\00\00\00$\00\00\00\05\00\00\00" }>, align 8
@alloc_c03669db9c32bfa16e488e52e956abbc = private unnamed_addr constant <{ ptr, [16 x i8] }> <{ ptr @alloc_f5ffd2fd1476bab43ad89fb40c72d0c5, [16 x i8] c"\0A\00\00\00\00\00\00\00%\00\00\00\05\00\00\00" }>, align 8
@alloc_782debb62b090b525a0675df684f112c = private unnamed_addr constant <{ ptr, [16 x i8] }> <{ ptr @alloc_f5ffd2fd1476bab43ad89fb40c72d0c5, [16 x i8] c"\0A\00\00\00\00\00\00\00-\00\00\00\05\00\00\00" }>, align 8
@alloc_7830c888f7e3366782590f9eab6adbed = private unnamed_addr constant <{ ptr, [16 x i8] }> <{ ptr @alloc_f5ffd2fd1476bab43ad89fb40c72d0c5, [16 x i8] c"\0A\00\00\00\00\00\00\00.\00\00\00\05\00\00\00" }>, align 8
@alloc_c8c0db17867d0b9cbcefd9f952917fd7 = private unnamed_addr constant <{ ptr, [16 x i8] }> <{ ptr @alloc_f5ffd2fd1476bab43ad89fb40c72d0c5, [16 x i8] c"\0A\00\00\00\00\00\00\00/\00\00\00\09\00\00\00" }>, align 8
@alloc_c03111fb1084f7d48c4a037ef39fe2c8 = private unnamed_addr constant <{ ptr, [16 x i8] }> <{ ptr @alloc_f5ffd2fd1476bab43ad89fb40c72d0c5, [16 x i8] c"\0A\00\00\00\00\00\00\000\00\00\00\0C\00\00\00" }>, align 8
@alloc_f6760422f5f57fa624126bd625166939 = private unnamed_addr constant <{ ptr, [16 x i8] }> <{ ptr @alloc_f5ffd2fd1476bab43ad89fb40c72d0c5, [16 x i8] c"\0A\00\00\00\00\00\00\001\00\00\00\0D\00\00\00" }>, align 8
@alloc_ebd611d92c9b0e57c9cd95064c24685f = private unnamed_addr constant <{ ptr, [16 x i8] }> <{ ptr @alloc_f5ffd2fd1476bab43ad89fb40c72d0c5, [16 x i8] c"\0A\00\00\00\00\00\00\003\00\00\00\05\00\00\00" }>, align 8
@alloc_b929c71616281bfd1be2bd4038d3ddf1 = private unnamed_addr constant [4 x i8] c"%d \00", align 1
@alloc_57cf9861f953b745aeb3ab9c6a1cd04b = private unnamed_addr constant <{ ptr, [16 x i8] }> <{ ptr @alloc_f5ffd2fd1476bab43ad89fb40c72d0c5, [16 x i8] c"\0A\00\00\00\00\00\00\00:\00\00\00:\00\00\00" }>, align 8
@alloc_92cf776f9c5df48307869921e50cbe6a = private unnamed_addr constant <{ ptr, [16 x i8] }> <{ ptr @alloc_f5ffd2fd1476bab43ad89fb40c72d0c5, [16 x i8] c"\0A\00\00\00\00\00\00\00;\00\00\00\0F\00\00\00" }>, align 8
@alloc_2b741aa80e9bacc62157d48afd5adfbd = private unnamed_addr constant <{ ptr, [16 x i8] }> <{ ptr @alloc_f5ffd2fd1476bab43ad89fb40c72d0c5, [16 x i8] c"\0A\00\00\00\00\00\00\00J\00\00\00\05\00\00\00" }>, align 8
@alloc_819a2a87fc762af2543d0c3e1fbc7a3c = private unnamed_addr constant <{ ptr, [16 x i8] }> <{ ptr @alloc_f5ffd2fd1476bab43ad89fb40c72d0c5, [16 x i8] c"\0A\00\00\00\00\00\00\00K\00\00\00\09\00\00\00" }>, align 8
@alloc_a900f05a66f12af0109cf8ac63d12a67 = private unnamed_addr constant <{ ptr, [16 x i8] }> <{ ptr @alloc_f5ffd2fd1476bab43ad89fb40c72d0c5, [16 x i8] c"\0A\00\00\00\00\00\00\00L\00\00\00\0C\00\00\00" }>, align 8
@alloc_9d6182696615338ac376a24faf643612 = private unnamed_addr constant <{ ptr, [16 x i8] }> <{ ptr @alloc_f5ffd2fd1476bab43ad89fb40c72d0c5, [16 x i8] c"\0A\00\00\00\00\00\00\00Y\00\00\00\05\00\00\00" }>, align 8
@alloc_b13088761b081d332dd13eae9745b441 = private unnamed_addr constant <{ ptr, [16 x i8] }> <{ ptr @alloc_f5ffd2fd1476bab43ad89fb40c72d0c5, [16 x i8] c"\0A\00\00\00\00\00\00\00Z\00\00\00\05\00\00\00" }>, align 8
@alloc_93f1e9a19bfe3e76887cdb03b10371f1 = private unnamed_addr constant <{ ptr, [16 x i8] }> <{ ptr @alloc_f5ffd2fd1476bab43ad89fb40c72d0c5, [16 x i8] c"\0A\00\00\00\00\00\00\00U\00\00\00\0D\00\00\00" }>, align 8
@alloc_3c1dc4ef7d7f567f995bf84aeaf6faf2 = private unnamed_addr constant <{ ptr, [16 x i8] }> <{ ptr @alloc_f5ffd2fd1476bab43ad89fb40c72d0c5, [16 x i8] c"\0A\00\00\00\00\00\00\00O\00\00\00\10\00\00\00" }>, align 8
@alloc_71ffd02a7e301b782824a236319d9c55 = private unnamed_addr constant <{ ptr, [16 x i8] }> <{ ptr @alloc_f5ffd2fd1476bab43ad89fb40c72d0c5, [16 x i8] c"\0A\00\00\00\00\00\00\00c\00\00\00\09\00\00\00" }>, align 8
@alloc_50925f6bf6341b0860840e99f012f850 = private unnamed_addr constant <{ ptr, [16 x i8] }> <{ ptr @alloc_f5ffd2fd1476bab43ad89fb40c72d0c5, [16 x i8] c"\0A\00\00\00\00\00\00\00d\00\00\00\0C\00\00\00" }>, align 8
@alloc_077aeabefd7e4362fd99fd42d0c7e2dd = private unnamed_addr constant <{ ptr, [16 x i8] }> <{ ptr @alloc_f5ffd2fd1476bab43ad89fb40c72d0c5, [16 x i8] c"\0A\00\00\00\00\00\00\00f\00\00\00\10\00\00\00" }>, align 8
@alloc_3cefbf67fae5b77f633fcdcb5302346f = private unnamed_addr constant <{ ptr, [16 x i8] }> <{ ptr @alloc_f5ffd2fd1476bab43ad89fb40c72d0c5, [16 x i8] c"\0A\00\00\00\00\00\00\00f\00\00\00\09\00\00\00" }>, align 8
@alloc_d1a11e64fdd63add9ab4729a70b53b74 = private unnamed_addr constant <{ ptr, [16 x i8] }> <{ ptr @alloc_f5ffd2fd1476bab43ad89fb40c72d0c5, [16 x i8] c"\0A\00\00\00\00\00\00\00u\00\00\00\05\00\00\00" }>, align 8
@alloc_4d66c776f919eb076540616be3ab8155 = private unnamed_addr constant <{ ptr, [16 x i8] }> <{ ptr @alloc_f5ffd2fd1476bab43ad89fb40c72d0c5, [16 x i8] c"\0A\00\00\00\00\00\00\00q\00\00\00\0D\00\00\00" }>, align 8
@alloc_9ff0624854bfa195b8cf036b5e58816a = private unnamed_addr constant <{ ptr, [16 x i8] }> <{ ptr @alloc_f5ffd2fd1476bab43ad89fb40c72d0c5, [16 x i8] c"\0A\00\00\00\00\00\00\00k\00\00\00\10\00\00\00" }>, align 8
@alloc_6401f0a48912deb80b0d435724609e1e = private unnamed_addr constant <{ ptr, [16 x i8] }> <{ ptr @alloc_f5ffd2fd1476bab43ad89fb40c72d0c5, [16 x i8] c"\0A\00\00\00\00\00\00\00y\00\00\00\08\00\00\00" }>, align 8
@alloc_8f8bf9c63d8e11d7dfd7c6743fca8233 = private unnamed_addr constant <{ ptr, [16 x i8] }> <{ ptr @alloc_f5ffd2fd1476bab43ad89fb40c72d0c5, [16 x i8] c"\0A\00\00\00\00\00\00\00}\00\00\00\0D\00\00\00" }>, align 8
@alloc_be7452df8c180fa1736a845b90103292 = private unnamed_addr constant <{ ptr, [16 x i8] }> <{ ptr @alloc_f5ffd2fd1476bab43ad89fb40c72d0c5, [16 x i8] c"\0A\00\00\00\00\00\00\00\7F\00\00\00\09\00\00\00" }>, align 8
@alloc_0a0c52c7598ebd026248b36c4f00b4c7 = private unnamed_addr constant <{ ptr, [16 x i8] }> <{ ptr @alloc_f5ffd2fd1476bab43ad89fb40c72d0c5, [16 x i8] c"\0A\00\00\00\00\00\00\00\80\00\00\00\05\00\00\00" }>, align 8
@alloc_7d8d58b36d2b2d423935116080665165 = private unnamed_addr constant <{ ptr, [16 x i8] }> <{ ptr @alloc_f5ffd2fd1476bab43ad89fb40c72d0c5, [16 x i8] c"\0A\00\00\00\00\00\00\00\81\00\00\00\05\00\00\00" }>, align 8
@alloc_4fce098e5e503b6bfe31d308e01624d7 = private unnamed_addr constant <{ ptr, [16 x i8] }> <{ ptr @alloc_f5ffd2fd1476bab43ad89fb40c72d0c5, [16 x i8] c"\0A\00\00\00\00\00\00\00z\00\00\00\09\00\00\00" }>, align 8
@alloc_ab621ea091ca5bfb06de28636707950e = private unnamed_addr constant <{ ptr, [16 x i8] }> <{ ptr @alloc_f5ffd2fd1476bab43ad89fb40c72d0c5, [16 x i8] c"\0A\00\00\00\00\00\00\00\88\00\00\00\0E\00\00\00" }>, align 8
@alloc_3a44e6c7f77cdea7a931b4b597315e0d = private unnamed_addr constant <{ ptr, [16 x i8] }> <{ ptr @alloc_f5ffd2fd1476bab43ad89fb40c72d0c5, [16 x i8] c"\0A\00\00\00\00\00\00\00\89\00\00\00:\00\00\00" }>, align 8

; core::ptr::mut_ptr::<impl *mut T>::is_null
; Function Attrs: inlinehint nounwind nonlazybind
define internal zeroext i1 @"_ZN4core3ptr7mut_ptr31_$LT$impl$u20$$BP$mut$u20$T$GT$7is_null17hb775fd900839fe0eE"(ptr %self) unnamed_addr #0 {
start:
  %_3 = ptrtoint ptr %self to i64
  %_0 = icmp eq i64 %_3, 0
  ret i1 %_0
}

; Function Attrs: nounwind nonlazybind
define void @insertatbeg(i32 %x) unnamed_addr #1 {
start:
  %temp = alloca [8 x i8], align 8
  store ptr null, ptr %temp, align 8
  %_3 = call ptr @malloc(i64 16) #3
  store ptr %_3, ptr %temp, align 8
  %_28 = load ptr, ptr %temp, align 8
  %_29 = ptrtoint ptr %_28 to i64
  %_32 = and i64 %_29, 7
  %_33 = icmp eq i64 %_32, 0
  br i1 %_33, label %bb6, label %panic

bb6:                                              ; preds = %start
  %_34 = load ptr, ptr %temp, align 8
  %_35 = ptrtoint ptr %_34 to i64
  %_38 = icmp eq i64 %_35, 0
  %_39 = and i1 %_38, true
  %_40 = xor i1 %_39, true
  br i1 %_40, label %bb7, label %panic1

panic:                                            ; preds = %start
; call core::panicking::panic_misaligned_pointer_dereference
  call void @_ZN4core9panicking36panic_misaligned_pointer_dereference17hcc3cbded9382b6e5E(i64 8, i64 %_29, ptr align 8 @alloc_6d4b9a63a3a7d57837cacbb81faee635) #4
  unreachable

bb7:                                              ; preds = %bb6
  %0 = load ptr, ptr %temp, align 8
  store i32 %x, ptr %0, align 8
  %_45 = icmp eq i64 ptrtoint (ptr @head to i64), 0
  %_46 = and i1 %_45, true
  %_47 = xor i1 %_46, true
  br i1 %_47, label %bb8, label %panic2

panic1:                                           ; preds = %bb6
; call core::panicking::panic_null_pointer_dereference
  call void @_ZN4core9panicking30panic_null_pointer_dereference17hf718fcc86a223baaE(ptr align 8 @alloc_6d4b9a63a3a7d57837cacbb81faee635) #4
  unreachable

bb8:                                              ; preds = %bb7
  %_6 = load ptr, ptr @head, align 8
  %_16 = load ptr, ptr %temp, align 8
  %_17 = ptrtoint ptr %_16 to i64
  %_20 = and i64 %_17, 7
  %_21 = icmp eq i64 %_20, 0
  br i1 %_21, label %bb4, label %panic3

panic2:                                           ; preds = %bb7
; call core::panicking::panic_null_pointer_dereference
  call void @_ZN4core9panicking30panic_null_pointer_dereference17hf718fcc86a223baaE(ptr align 8 @alloc_ef6c74317dfec918875c04a2f10e793f) #4
  unreachable

bb4:                                              ; preds = %bb8
  %_48 = load ptr, ptr %temp, align 8
  %_49 = ptrtoint ptr %_48 to i64
  %_52 = icmp eq i64 %_49, 0
  %_53 = and i1 %_52, true
  %_54 = xor i1 %_53, true
  br i1 %_54, label %bb9, label %panic4

panic3:                                           ; preds = %bb8
; call core::panicking::panic_misaligned_pointer_dereference
  call void @_ZN4core9panicking36panic_misaligned_pointer_dereference17hcc3cbded9382b6e5E(i64 8, i64 %_17, ptr align 8 @alloc_1246e0776b198dcc257b8c1ce1bfa04e) #4
  unreachable

bb9:                                              ; preds = %bb4
  %1 = load ptr, ptr %temp, align 8
  %2 = getelementptr inbounds i8, ptr %1, i64 8
  store ptr %_6, ptr %2, align 8
  %_8 = load ptr, ptr %temp, align 8
  %_59 = icmp eq i64 ptrtoint (ptr @head to i64), 0
  %_60 = and i1 %_59, true
  %_61 = xor i1 %_60, true
  br i1 %_61, label %bb10, label %panic5

panic4:                                           ; preds = %bb4
; call core::panicking::panic_null_pointer_dereference
  call void @_ZN4core9panicking30panic_null_pointer_dereference17hf718fcc86a223baaE(ptr align 8 @alloc_1246e0776b198dcc257b8c1ce1bfa04e) #4
  unreachable

bb10:                                             ; preds = %bb9
  store ptr %_8, ptr @head, align 8
  ret void

panic5:                                           ; preds = %bb9
; call core::panicking::panic_null_pointer_dereference
  call void @_ZN4core9panicking30panic_null_pointer_dereference17hf718fcc86a223baaE(ptr align 8 @alloc_c03669db9c32bfa16e488e52e956abbc) #4
  unreachable
}

; Function Attrs: nounwind nonlazybind
define void @insertatend(i32 %x) unnamed_addr #1 {
start:
  %p = alloca [8 x i8], align 8
  %temp = alloca [8 x i8], align 8
  store ptr null, ptr %temp, align 8
  store ptr null, ptr %p, align 8
  %_4 = call ptr @malloc(i64 16) #3
  store ptr %_4, ptr %temp, align 8
  %_7 = call ptr @malloc(i64 16) #3
  store ptr %_7, ptr %p, align 8
  %_46 = load ptr, ptr %temp, align 8
  %_47 = ptrtoint ptr %_46 to i64
  %_50 = and i64 %_47, 7
  %_51 = icmp eq i64 %_50, 0
  br i1 %_51, label %bb14, label %panic

bb14:                                             ; preds = %start
  %_52 = load ptr, ptr %temp, align 8
  %_53 = ptrtoint ptr %_52 to i64
  %_56 = icmp eq i64 %_53, 0
  %_57 = and i1 %_56, true
  %_58 = xor i1 %_57, true
  br i1 %_58, label %bb15, label %panic1

panic:                                            ; preds = %start
; call core::panicking::panic_misaligned_pointer_dereference
  call void @_ZN4core9panicking36panic_misaligned_pointer_dereference17hcc3cbded9382b6e5E(i64 8, i64 %_47, ptr align 8 @alloc_782debb62b090b525a0675df684f112c) #4
  unreachable

bb15:                                             ; preds = %bb14
  %0 = load ptr, ptr %temp, align 8
  store i32 %x, ptr %0, align 8
  %_40 = load ptr, ptr %temp, align 8
  %_41 = ptrtoint ptr %_40 to i64
  %_44 = and i64 %_41, 7
  %_45 = icmp eq i64 %_44, 0
  br i1 %_45, label %bb13, label %panic2

panic1:                                           ; preds = %bb14
; call core::panicking::panic_null_pointer_dereference
  call void @_ZN4core9panicking30panic_null_pointer_dereference17hf718fcc86a223baaE(ptr align 8 @alloc_782debb62b090b525a0675df684f112c) #4
  unreachable

bb13:                                             ; preds = %bb15
  %_59 = load ptr, ptr %temp, align 8
  %_60 = ptrtoint ptr %_59 to i64
  %_63 = icmp eq i64 %_60, 0
  %_64 = and i1 %_63, true
  %_65 = xor i1 %_64, true
  br i1 %_65, label %bb16, label %panic3

panic2:                                           ; preds = %bb15
; call core::panicking::panic_misaligned_pointer_dereference
  call void @_ZN4core9panicking36panic_misaligned_pointer_dereference17hcc3cbded9382b6e5E(i64 8, i64 %_41, ptr align 8 @alloc_7830c888f7e3366782590f9eab6adbed) #4
  unreachable

bb16:                                             ; preds = %bb13
  %1 = load ptr, ptr %temp, align 8
  %2 = getelementptr inbounds i8, ptr %1, i64 8
  store ptr null, ptr %2, align 8
  %_70 = icmp eq i64 ptrtoint (ptr @head to i64), 0
  %_71 = and i1 %_70, true
  %_72 = xor i1 %_71, true
  br i1 %_72, label %bb17, label %panic4

panic3:                                           ; preds = %bb13
; call core::panicking::panic_null_pointer_dereference
  call void @_ZN4core9panicking30panic_null_pointer_dereference17hf718fcc86a223baaE(ptr align 8 @alloc_7830c888f7e3366782590f9eab6adbed) #4
  unreachable

bb17:                                             ; preds = %bb16
  %_10 = load ptr, ptr @head, align 8
  store ptr %_10, ptr %p, align 8
  br label %bb5

panic4:                                           ; preds = %bb16
; call core::panicking::panic_null_pointer_dereference
  call void @_ZN4core9panicking30panic_null_pointer_dereference17hf718fcc86a223baaE(ptr align 8 @alloc_c8c0db17867d0b9cbcefd9f952917fd7) #4
  unreachable

bb5:                                              ; preds = %bb20, %bb17
  %_28 = load ptr, ptr %p, align 8
  %_29 = ptrtoint ptr %_28 to i64
  %_32 = and i64 %_29, 7
  %_33 = icmp eq i64 %_32, 0
  br i1 %_33, label %bb11, label %panic5

bb11:                                             ; preds = %bb5
  %_73 = load ptr, ptr %p, align 8
  %_74 = ptrtoint ptr %_73 to i64
  %_77 = icmp eq i64 %_74, 0
  %_78 = and i1 %_77, true
  %_79 = xor i1 %_78, true
  br i1 %_79, label %bb18, label %panic6

panic5:                                           ; preds = %bb5
; call core::panicking::panic_misaligned_pointer_dereference
  call void @_ZN4core9panicking36panic_misaligned_pointer_dereference17hcc3cbded9382b6e5E(i64 8, i64 %_29, ptr align 8 @alloc_c03111fb1084f7d48c4a037ef39fe2c8) #4
  unreachable

bb18:                                             ; preds = %bb11
  %3 = load ptr, ptr %p, align 8
  %4 = getelementptr inbounds i8, ptr %3, i64 8
  %_13 = load ptr, ptr %4, align 8
; call core::ptr::mut_ptr::<impl *mut T>::is_null
  %_12 = call zeroext i1 @"_ZN4core3ptr7mut_ptr31_$LT$impl$u20$$BP$mut$u20$T$GT$7is_null17hb775fd900839fe0eE"(ptr %_13) #3
  br i1 %_12, label %bb7, label %bb8

panic6:                                           ; preds = %bb11
; call core::panicking::panic_null_pointer_dereference
  call void @_ZN4core9panicking30panic_null_pointer_dereference17hf718fcc86a223baaE(ptr align 8 @alloc_c03111fb1084f7d48c4a037ef39fe2c8) #4
  unreachable

bb8:                                              ; preds = %bb18
  %_16 = load ptr, ptr %p, align 8
  %_17 = ptrtoint ptr %_16 to i64
  %_20 = and i64 %_17, 7
  %_21 = icmp eq i64 %_20, 0
  br i1 %_21, label %bb9, label %panic7

bb7:                                              ; preds = %bb18
  %_15 = load ptr, ptr %temp, align 8
  %_22 = load ptr, ptr %p, align 8
  %_23 = ptrtoint ptr %_22 to i64
  %_26 = and i64 %_23, 7
  %_27 = icmp eq i64 %_26, 0
  br i1 %_27, label %bb10, label %panic9

bb9:                                              ; preds = %bb8
  %_87 = load ptr, ptr %p, align 8
  %_88 = ptrtoint ptr %_87 to i64
  %_91 = icmp eq i64 %_88, 0
  %_92 = and i1 %_91, true
  %_93 = xor i1 %_92, true
  br i1 %_93, label %bb20, label %panic8

panic7:                                           ; preds = %bb8
; call core::panicking::panic_misaligned_pointer_dereference
  call void @_ZN4core9panicking36panic_misaligned_pointer_dereference17hcc3cbded9382b6e5E(i64 8, i64 %_17, ptr align 8 @alloc_f6760422f5f57fa624126bd625166939) #4
  unreachable

bb20:                                             ; preds = %bb9
  %5 = load ptr, ptr %p, align 8
  %6 = getelementptr inbounds i8, ptr %5, i64 8
  %_14 = load ptr, ptr %6, align 8
  store ptr %_14, ptr %p, align 8
  br label %bb5

panic8:                                           ; preds = %bb9
; call core::panicking::panic_null_pointer_dereference
  call void @_ZN4core9panicking30panic_null_pointer_dereference17hf718fcc86a223baaE(ptr align 8 @alloc_f6760422f5f57fa624126bd625166939) #4
  unreachable

bb10:                                             ; preds = %bb7
  %_80 = load ptr, ptr %p, align 8
  %_81 = ptrtoint ptr %_80 to i64
  %_84 = icmp eq i64 %_81, 0
  %_85 = and i1 %_84, true
  %_86 = xor i1 %_85, true
  br i1 %_86, label %bb19, label %panic10

panic9:                                           ; preds = %bb7
; call core::panicking::panic_misaligned_pointer_dereference
  call void @_ZN4core9panicking36panic_misaligned_pointer_dereference17hcc3cbded9382b6e5E(i64 8, i64 %_23, ptr align 8 @alloc_ebd611d92c9b0e57c9cd95064c24685f) #4
  unreachable

bb19:                                             ; preds = %bb10
  %7 = load ptr, ptr %p, align 8
  %8 = getelementptr inbounds i8, ptr %7, i64 8
  store ptr %_15, ptr %8, align 8
  ret void

panic10:                                          ; preds = %bb10
; call core::panicking::panic_null_pointer_dereference
  call void @_ZN4core9panicking30panic_null_pointer_dereference17hf718fcc86a223baaE(ptr align 8 @alloc_ebd611d92c9b0e57c9cd95064c24685f) #4
  unreachable
}

; Function Attrs: nounwind nonlazybind
define void @printlist(ptr %temp) unnamed_addr #1 {
start:
; call core::ptr::mut_ptr::<impl *mut T>::is_null
  %_2 = call zeroext i1 @"_ZN4core3ptr7mut_ptr31_$LT$impl$u20$$BP$mut$u20$T$GT$7is_null17hb775fd900839fe0eE"(ptr %temp) #3
  br i1 %_2, label %bb4, label %bb2

bb2:                                              ; preds = %start
  %_18 = ptrtoint ptr %temp to i64
  %_21 = and i64 %_18, 7
  %_22 = icmp eq i64 %_21, 0
  br i1 %_22, label %bb6, label %panic

bb4:                                              ; preds = %bb8, %start
  ret void

bb6:                                              ; preds = %bb2
  %_24 = ptrtoint ptr %temp to i64
  %_27 = icmp eq i64 %_24, 0
  %_28 = and i1 %_27, true
  %_29 = xor i1 %_28, true
  br i1 %_29, label %bb7, label %panic1

panic:                                            ; preds = %bb2
; call core::panicking::panic_misaligned_pointer_dereference
  call void @_ZN4core9panicking36panic_misaligned_pointer_dereference17hcc3cbded9382b6e5E(i64 8, i64 %_18, ptr align 8 @alloc_57cf9861f953b745aeb3ab9c6a1cd04b) #4
  unreachable

bb7:                                              ; preds = %bb6
  %_8 = load i32, ptr %temp, align 8
  %_3 = call i32 (ptr, ...) @printf(ptr @alloc_b929c71616281bfd1be2bd4038d3ddf1, i32 %_8) #3
  %_12 = ptrtoint ptr %temp to i64
  %_15 = and i64 %_12, 7
  %_16 = icmp eq i64 %_15, 0
  br i1 %_16, label %bb5, label %panic2

panic1:                                           ; preds = %bb6
; call core::panicking::panic_null_pointer_dereference
  call void @_ZN4core9panicking30panic_null_pointer_dereference17hf718fcc86a223baaE(ptr align 8 @alloc_57cf9861f953b745aeb3ab9c6a1cd04b) #4
  unreachable

bb5:                                              ; preds = %bb7
  %_31 = ptrtoint ptr %temp to i64
  %_34 = icmp eq i64 %_31, 0
  %_35 = and i1 %_34, true
  %_36 = xor i1 %_35, true
  br i1 %_36, label %bb8, label %panic3

panic2:                                           ; preds = %bb7
; call core::panicking::panic_misaligned_pointer_dereference
  call void @_ZN4core9panicking36panic_misaligned_pointer_dereference17hcc3cbded9382b6e5E(i64 8, i64 %_12, ptr align 8 @alloc_92cf776f9c5df48307869921e50cbe6a) #4
  unreachable

bb8:                                              ; preds = %bb5
  %0 = getelementptr inbounds i8, ptr %temp, i64 8
  %_10 = load ptr, ptr %0, align 8
  call void @printlist(ptr %_10) #3
  br label %bb4

panic3:                                           ; preds = %bb5
; call core::panicking::panic_null_pointer_dereference
  call void @_ZN4core9panicking30panic_null_pointer_dereference17hf718fcc86a223baaE(ptr align 8 @alloc_92cf776f9c5df48307869921e50cbe6a) #4
  unreachable
}

; Function Attrs: nounwind nonlazybind
define void @inseratn(i32 %x, i32 %n) unnamed_addr #1 {
start:
  %temp1 = alloca [8 x i8], align 8
  %p = alloca [8 x i8], align 8
  %temp = alloca [8 x i8], align 8
  %i = alloca [4 x i8], align 4
  store i32 0, ptr %i, align 4
  store ptr null, ptr %temp, align 8
  store ptr null, ptr %p, align 8
  store ptr null, ptr %temp1, align 8
  %0 = icmp eq i32 %n, 1
  br i1 %0, label %bb1, label %bb2

bb1:                                              ; preds = %start
  call void @insertatbeg(i32 %x) #3
  br label %bb15

bb2:                                              ; preds = %start
  %_8 = call ptr @malloc(i64 16) #3
  store ptr %_8, ptr %temp, align 8
  %_11 = call ptr @malloc(i64 16) #3
  store ptr %_11, ptr %p, align 8
  %_14 = call ptr @malloc(i64 16) #3
  store ptr %_14, ptr %temp1, align 8
  %_66 = load ptr, ptr %temp1, align 8
  %_67 = ptrtoint ptr %_66 to i64
  %_70 = and i64 %_67, 7
  %_71 = icmp eq i64 %_70, 0
  br i1 %_71, label %bb22, label %panic

bb15:                                             ; preds = %bb29, %bb1
  ret void

bb22:                                             ; preds = %bb2
  %_72 = load ptr, ptr %temp1, align 8
  %_73 = ptrtoint ptr %_72 to i64
  %_76 = icmp eq i64 %_73, 0
  %_77 = and i1 %_76, true
  %_78 = xor i1 %_77, true
  br i1 %_78, label %bb23, label %panic1

panic:                                            ; preds = %bb2
; call core::panicking::panic_misaligned_pointer_dereference
  call void @_ZN4core9panicking36panic_misaligned_pointer_dereference17hcc3cbded9382b6e5E(i64 8, i64 %_67, ptr align 8 @alloc_2b741aa80e9bacc62157d48afd5adfbd) #4
  unreachable

bb23:                                             ; preds = %bb22
  %1 = load ptr, ptr %temp1, align 8
  store i32 %x, ptr %1, align 8
  %_83 = icmp eq i64 ptrtoint (ptr @head to i64), 0
  %_84 = and i1 %_83, true
  %_85 = xor i1 %_84, true
  br i1 %_85, label %bb24, label %panic2

panic1:                                           ; preds = %bb22
; call core::panicking::panic_null_pointer_dereference
  call void @_ZN4core9panicking30panic_null_pointer_dereference17hf718fcc86a223baaE(ptr align 8 @alloc_2b741aa80e9bacc62157d48afd5adfbd) #4
  unreachable

bb24:                                             ; preds = %bb23
  %_17 = load ptr, ptr @head, align 8
  store ptr %_17, ptr %p, align 8
  %_90 = icmp eq i64 ptrtoint (ptr @head to i64), 0
  %_91 = and i1 %_90, true
  %_92 = xor i1 %_91, true
  br i1 %_92, label %bb25, label %panic3

panic2:                                           ; preds = %bb23
; call core::panicking::panic_null_pointer_dereference
  call void @_ZN4core9panicking30panic_null_pointer_dereference17hf718fcc86a223baaE(ptr align 8 @alloc_819a2a87fc762af2543d0c3e1fbc7a3c) #4
  unreachable

bb25:                                             ; preds = %bb24
  %_19 = load ptr, ptr @head, align 8
  store ptr %_19, ptr %temp, align 8
  store i32 0, ptr %i, align 4
  br label %bb9

panic3:                                           ; preds = %bb24
; call core::panicking::panic_null_pointer_dereference
  call void @_ZN4core9panicking30panic_null_pointer_dereference17hf718fcc86a223baaE(ptr align 8 @alloc_a900f05a66f12af0109cf8ac63d12a67) #4
  unreachable

bb9:                                              ; preds = %bb26, %bb25
  %_22 = load i32, ptr %i, align 4
  %_21 = icmp slt i32 %_22, %n
  br i1 %_21, label %bb10, label %bb11

bb11:                                             ; preds = %bb9
  store i32 0, ptr %i, align 4
  br label %bb12

bb10:                                             ; preds = %bb9
  %_48 = load ptr, ptr %temp, align 8
  %_49 = ptrtoint ptr %_48 to i64
  %_52 = and i64 %_49, 7
  %_53 = icmp eq i64 %_52, 0
  br i1 %_53, label %bb19, label %panic10

bb12:                                             ; preds = %bb27, %bb11
  %_25 = load i32, ptr %i, align 4
  %_26 = sub i32 %n, 2
  %_24 = icmp slt i32 %_25, %_26
  br i1 %_24, label %bb13, label %bb14

bb14:                                             ; preds = %bb12
  %_28 = load ptr, ptr %temp1, align 8
  %_36 = load ptr, ptr %p, align 8
  %_37 = ptrtoint ptr %_36 to i64
  %_40 = and i64 %_37, 7
  %_41 = icmp eq i64 %_40, 0
  br i1 %_41, label %bb17, label %panic4

bb13:                                             ; preds = %bb12
  %_42 = load ptr, ptr %p, align 8
  %_43 = ptrtoint ptr %_42 to i64
  %_46 = and i64 %_43, 7
  %_47 = icmp eq i64 %_46, 0
  br i1 %_47, label %bb18, label %panic8

bb17:                                             ; preds = %bb14
  %_107 = load ptr, ptr %p, align 8
  %_108 = ptrtoint ptr %_107 to i64
  %_111 = icmp eq i64 %_108, 0
  %_112 = and i1 %_111, true
  %_113 = xor i1 %_112, true
  br i1 %_113, label %bb28, label %panic5

panic4:                                           ; preds = %bb14
; call core::panicking::panic_misaligned_pointer_dereference
  call void @_ZN4core9panicking36panic_misaligned_pointer_dereference17hcc3cbded9382b6e5E(i64 8, i64 %_37, ptr align 8 @alloc_9d6182696615338ac376a24faf643612) #4
  unreachable

bb28:                                             ; preds = %bb17
  %2 = load ptr, ptr %p, align 8
  %3 = getelementptr inbounds i8, ptr %2, i64 8
  store ptr %_28, ptr %3, align 8
  %_29 = load ptr, ptr %temp, align 8
  %_30 = load ptr, ptr %temp1, align 8
  %_31 = ptrtoint ptr %_30 to i64
  %_34 = and i64 %_31, 7
  %_35 = icmp eq i64 %_34, 0
  br i1 %_35, label %bb16, label %panic6

panic5:                                           ; preds = %bb17
; call core::panicking::panic_null_pointer_dereference
  call void @_ZN4core9panicking30panic_null_pointer_dereference17hf718fcc86a223baaE(ptr align 8 @alloc_9d6182696615338ac376a24faf643612) #4
  unreachable

bb16:                                             ; preds = %bb28
  %_114 = load ptr, ptr %temp1, align 8
  %_115 = ptrtoint ptr %_114 to i64
  %_118 = icmp eq i64 %_115, 0
  %_119 = and i1 %_118, true
  %_120 = xor i1 %_119, true
  br i1 %_120, label %bb29, label %panic7

panic6:                                           ; preds = %bb28
; call core::panicking::panic_misaligned_pointer_dereference
  call void @_ZN4core9panicking36panic_misaligned_pointer_dereference17hcc3cbded9382b6e5E(i64 8, i64 %_31, ptr align 8 @alloc_b13088761b081d332dd13eae9745b441) #4
  unreachable

bb29:                                             ; preds = %bb16
  %4 = load ptr, ptr %temp1, align 8
  %5 = getelementptr inbounds i8, ptr %4, i64 8
  store ptr %_29, ptr %5, align 8
  br label %bb15

panic7:                                           ; preds = %bb16
; call core::panicking::panic_null_pointer_dereference
  call void @_ZN4core9panicking30panic_null_pointer_dereference17hf718fcc86a223baaE(ptr align 8 @alloc_b13088761b081d332dd13eae9745b441) #4
  unreachable

bb18:                                             ; preds = %bb13
  %_100 = load ptr, ptr %p, align 8
  %_101 = ptrtoint ptr %_100 to i64
  %_104 = icmp eq i64 %_101, 0
  %_105 = and i1 %_104, true
  %_106 = xor i1 %_105, true
  br i1 %_106, label %bb27, label %panic9

panic8:                                           ; preds = %bb13
; call core::panicking::panic_misaligned_pointer_dereference
  call void @_ZN4core9panicking36panic_misaligned_pointer_dereference17hcc3cbded9382b6e5E(i64 8, i64 %_43, ptr align 8 @alloc_93f1e9a19bfe3e76887cdb03b10371f1) #4
  unreachable

bb27:                                             ; preds = %bb18
  %6 = load ptr, ptr %p, align 8
  %7 = getelementptr inbounds i8, ptr %6, i64 8
  %_27 = load ptr, ptr %7, align 8
  store ptr %_27, ptr %p, align 8
  %8 = load i32, ptr %i, align 4
  %9 = add i32 %8, 1
  store i32 %9, ptr %i, align 4
  br label %bb12

panic9:                                           ; preds = %bb18
; call core::panicking::panic_null_pointer_dereference
  call void @_ZN4core9panicking30panic_null_pointer_dereference17hf718fcc86a223baaE(ptr align 8 @alloc_93f1e9a19bfe3e76887cdb03b10371f1) #4
  unreachable

bb19:                                             ; preds = %bb10
  %_93 = load ptr, ptr %temp, align 8
  %_94 = ptrtoint ptr %_93 to i64
  %_97 = icmp eq i64 %_94, 0
  %_98 = and i1 %_97, true
  %_99 = xor i1 %_98, true
  br i1 %_99, label %bb26, label %panic11

panic10:                                          ; preds = %bb10
; call core::panicking::panic_misaligned_pointer_dereference
  call void @_ZN4core9panicking36panic_misaligned_pointer_dereference17hcc3cbded9382b6e5E(i64 8, i64 %_49, ptr align 8 @alloc_3c1dc4ef7d7f567f995bf84aeaf6faf2) #4
  unreachable

bb26:                                             ; preds = %bb19
  %10 = load ptr, ptr %temp, align 8
  %11 = getelementptr inbounds i8, ptr %10, i64 8
  %_23 = load ptr, ptr %11, align 8
  store ptr %_23, ptr %temp, align 8
  %12 = load i32, ptr %i, align 4
  %13 = add i32 %12, 1
  store i32 %13, ptr %i, align 4
  br label %bb9

panic11:                                          ; preds = %bb19
; call core::panicking::panic_null_pointer_dereference
  call void @_ZN4core9panicking30panic_null_pointer_dereference17hf718fcc86a223baaE(ptr align 8 @alloc_3c1dc4ef7d7f567f995bf84aeaf6faf2) #4
  unreachable
}

; Function Attrs: nounwind nonlazybind
define void @deleteatn(i32 %n) unnamed_addr #1 {
start:
  %i = alloca [4 x i8], align 4
  %p = alloca [8 x i8], align 8
  %temp = alloca [8 x i8], align 8
  store ptr null, ptr %temp, align 8
  store ptr null, ptr %p, align 8
  store i32 0, ptr %i, align 4
  %_5 = call ptr @malloc(i64 16) #3
  store ptr %_5, ptr %temp, align 8
  %_8 = call ptr @malloc(i64 16) #3
  store ptr %_8, ptr %p, align 8
  %_71 = icmp eq i64 ptrtoint (ptr @head to i64), 0
  %_72 = and i1 %_71, true
  %_73 = xor i1 %_72, true
  br i1 %_73, label %bb21, label %panic

bb21:                                             ; preds = %start
  %_11 = load ptr, ptr @head, align 8
  store ptr %_11, ptr %p, align 8
  %_78 = icmp eq i64 ptrtoint (ptr @head to i64), 0
  %_79 = and i1 %_78, true
  %_80 = xor i1 %_79, true
  br i1 %_80, label %bb22, label %panic1

panic:                                            ; preds = %start
; call core::panicking::panic_null_pointer_dereference
  call void @_ZN4core9panicking30panic_null_pointer_dereference17hf718fcc86a223baaE(ptr align 8 @alloc_71ffd02a7e301b782824a236319d9c55) #4
  unreachable

bb22:                                             ; preds = %bb21
  %_13 = load ptr, ptr @head, align 8
  store ptr %_13, ptr %temp, align 8
  %0 = icmp eq i32 %n, 1
  br i1 %0, label %bb5, label %bb6

panic1:                                           ; preds = %bb21
; call core::panicking::panic_null_pointer_dereference
  call void @_ZN4core9panicking30panic_null_pointer_dereference17hf718fcc86a223baaE(ptr align 8 @alloc_50925f6bf6341b0860840e99f012f850) #4
  unreachable

bb5:                                              ; preds = %bb22
  %_49 = load ptr, ptr %temp, align 8
  %_50 = ptrtoint ptr %_49 to i64
  %_53 = and i64 %_50, 7
  %_54 = icmp eq i64 %_53, 0
  br i1 %_54, label %bb18, label %panic2

bb6:                                              ; preds = %bb22
  store i32 0, ptr %i, align 4
  br label %bb7

bb18:                                             ; preds = %bb5
  %_81 = load ptr, ptr %temp, align 8
  %_82 = ptrtoint ptr %_81 to i64
  %_85 = icmp eq i64 %_82, 0
  %_86 = and i1 %_85, true
  %_87 = xor i1 %_86, true
  br i1 %_87, label %bb23, label %panic3

panic2:                                           ; preds = %bb5
; call core::panicking::panic_misaligned_pointer_dereference
  call void @_ZN4core9panicking36panic_misaligned_pointer_dereference17hcc3cbded9382b6e5E(i64 8, i64 %_50, ptr align 8 @alloc_077aeabefd7e4362fd99fd42d0c7e2dd) #4
  unreachable

bb23:                                             ; preds = %bb18
  %1 = load ptr, ptr %temp, align 8
  %2 = getelementptr inbounds i8, ptr %1, i64 8
  %_15 = load ptr, ptr %2, align 8
  %_92 = icmp eq i64 ptrtoint (ptr @head to i64), 0
  %_93 = and i1 %_92, true
  %_94 = xor i1 %_93, true
  br i1 %_94, label %bb24, label %panic4

panic3:                                           ; preds = %bb18
; call core::panicking::panic_null_pointer_dereference
  call void @_ZN4core9panicking30panic_null_pointer_dereference17hf718fcc86a223baaE(ptr align 8 @alloc_077aeabefd7e4362fd99fd42d0c7e2dd) #4
  unreachable

bb24:                                             ; preds = %bb23
  store ptr %_15, ptr @head, align 8
  br label %bb13

panic4:                                           ; preds = %bb23
; call core::panicking::panic_null_pointer_dereference
  call void @_ZN4core9panicking30panic_null_pointer_dereference17hf718fcc86a223baaE(ptr align 8 @alloc_3cefbf67fae5b77f633fcdcb5302346f) #4
  unreachable

bb13:                                             ; preds = %bb27, %bb24
  ret void

bb7:                                              ; preds = %bb25, %bb6
  %_18 = load i32, ptr %i, align 4
  %_17 = icmp slt i32 %_18, %n
  br i1 %_17, label %bb8, label %bb9

bb9:                                              ; preds = %bb7
  store i32 0, ptr %i, align 4
  br label %bb10

bb8:                                              ; preds = %bb7
  %_37 = load ptr, ptr %temp, align 8
  %_38 = ptrtoint ptr %_37 to i64
  %_41 = and i64 %_38, 7
  %_42 = icmp eq i64 %_41, 0
  br i1 %_42, label %bb16, label %panic9

bb10:                                             ; preds = %bb26, %bb9
  %_21 = load i32, ptr %i, align 4
  %_22 = sub i32 %n, 2
  %_20 = icmp slt i32 %_21, %_22
  br i1 %_20, label %bb11, label %bb12

bb12:                                             ; preds = %bb10
  %_24 = load ptr, ptr %temp, align 8
  %_25 = load ptr, ptr %p, align 8
  %_26 = ptrtoint ptr %_25 to i64
  %_29 = and i64 %_26, 7
  %_30 = icmp eq i64 %_29, 0
  br i1 %_30, label %bb14, label %panic5

bb11:                                             ; preds = %bb10
  %_31 = load ptr, ptr %p, align 8
  %_32 = ptrtoint ptr %_31 to i64
  %_35 = and i64 %_32, 7
  %_36 = icmp eq i64 %_35, 0
  br i1 %_36, label %bb15, label %panic7

bb14:                                             ; preds = %bb12
  %_109 = load ptr, ptr %p, align 8
  %_110 = ptrtoint ptr %_109 to i64
  %_113 = icmp eq i64 %_110, 0
  %_114 = and i1 %_113, true
  %_115 = xor i1 %_114, true
  br i1 %_115, label %bb27, label %panic6

panic5:                                           ; preds = %bb12
; call core::panicking::panic_misaligned_pointer_dereference
  call void @_ZN4core9panicking36panic_misaligned_pointer_dereference17hcc3cbded9382b6e5E(i64 8, i64 %_26, ptr align 8 @alloc_d1a11e64fdd63add9ab4729a70b53b74) #4
  unreachable

bb27:                                             ; preds = %bb14
  %3 = load ptr, ptr %p, align 8
  %4 = getelementptr inbounds i8, ptr %3, i64 8
  store ptr %_24, ptr %4, align 8
  br label %bb13

panic6:                                           ; preds = %bb14
; call core::panicking::panic_null_pointer_dereference
  call void @_ZN4core9panicking30panic_null_pointer_dereference17hf718fcc86a223baaE(ptr align 8 @alloc_d1a11e64fdd63add9ab4729a70b53b74) #4
  unreachable

bb15:                                             ; preds = %bb11
  %_102 = load ptr, ptr %p, align 8
  %_103 = ptrtoint ptr %_102 to i64
  %_106 = icmp eq i64 %_103, 0
  %_107 = and i1 %_106, true
  %_108 = xor i1 %_107, true
  br i1 %_108, label %bb26, label %panic8

panic7:                                           ; preds = %bb11
; call core::panicking::panic_misaligned_pointer_dereference
  call void @_ZN4core9panicking36panic_misaligned_pointer_dereference17hcc3cbded9382b6e5E(i64 8, i64 %_32, ptr align 8 @alloc_4d66c776f919eb076540616be3ab8155) #4
  unreachable

bb26:                                             ; preds = %bb15
  %5 = load ptr, ptr %p, align 8
  %6 = getelementptr inbounds i8, ptr %5, i64 8
  %_23 = load ptr, ptr %6, align 8
  store ptr %_23, ptr %p, align 8
  %7 = load i32, ptr %i, align 4
  %8 = add i32 %7, 1
  store i32 %8, ptr %i, align 4
  br label %bb10

panic8:                                           ; preds = %bb15
; call core::panicking::panic_null_pointer_dereference
  call void @_ZN4core9panicking30panic_null_pointer_dereference17hf718fcc86a223baaE(ptr align 8 @alloc_4d66c776f919eb076540616be3ab8155) #4
  unreachable

bb16:                                             ; preds = %bb8
  %_95 = load ptr, ptr %temp, align 8
  %_96 = ptrtoint ptr %_95 to i64
  %_99 = icmp eq i64 %_96, 0
  %_100 = and i1 %_99, true
  %_101 = xor i1 %_100, true
  br i1 %_101, label %bb25, label %panic10

panic9:                                           ; preds = %bb8
; call core::panicking::panic_misaligned_pointer_dereference
  call void @_ZN4core9panicking36panic_misaligned_pointer_dereference17hcc3cbded9382b6e5E(i64 8, i64 %_38, ptr align 8 @alloc_9ff0624854bfa195b8cf036b5e58816a) #4
  unreachable

bb25:                                             ; preds = %bb16
  %9 = load ptr, ptr %temp, align 8
  %10 = getelementptr inbounds i8, ptr %9, i64 8
  %_19 = load ptr, ptr %10, align 8
  store ptr %_19, ptr %temp, align 8
  %11 = load i32, ptr %i, align 4
  %12 = add i32 %11, 1
  store i32 %12, ptr %i, align 4
  br label %bb7

panic10:                                          ; preds = %bb16
; call core::panicking::panic_null_pointer_dereference
  call void @_ZN4core9panicking30panic_null_pointer_dereference17hf718fcc86a223baaE(ptr align 8 @alloc_9ff0624854bfa195b8cf036b5e58816a) #4
  unreachable
}

; Function Attrs: nounwind nonlazybind
define void @reverse(ptr %temp) unnamed_addr #1 {
start:
  %q = alloca [8 x i8], align 8
  %_40 = ptrtoint ptr %temp to i64
  %_43 = and i64 %_40, 7
  %_44 = icmp eq i64 %_43, 0
  br i1 %_44, label %bb11, label %panic

bb11:                                             ; preds = %start
  %_46 = ptrtoint ptr %temp to i64
  %_49 = icmp eq i64 %_46, 0
  %_50 = and i1 %_49, true
  %_51 = xor i1 %_50, true
  br i1 %_51, label %bb12, label %panic1

panic:                                            ; preds = %start
; call core::panicking::panic_misaligned_pointer_dereference
  call void @_ZN4core9panicking36panic_misaligned_pointer_dereference17hcc3cbded9382b6e5E(i64 8, i64 %_40, ptr align 8 @alloc_6401f0a48912deb80b0d435724609e1e) #4
  unreachable

bb12:                                             ; preds = %bb11
  %0 = getelementptr inbounds i8, ptr %temp, i64 8
  %_3 = load ptr, ptr %0, align 8
; call core::ptr::mut_ptr::<impl *mut T>::is_null
  %_2 = call zeroext i1 @"_ZN4core3ptr7mut_ptr31_$LT$impl$u20$$BP$mut$u20$T$GT$7is_null17hb775fd900839fe0eE"(ptr %_3) #3
  br i1 %_2, label %bb2, label %bb3

panic1:                                           ; preds = %bb11
; call core::panicking::panic_null_pointer_dereference
  call void @_ZN4core9panicking30panic_null_pointer_dereference17hf718fcc86a223baaE(ptr align 8 @alloc_6401f0a48912deb80b0d435724609e1e) #4
  unreachable

bb3:                                              ; preds = %bb12
  %_28 = ptrtoint ptr %temp to i64
  %_31 = and i64 %_28, 7
  %_32 = icmp eq i64 %_31, 0
  br i1 %_32, label %bb9, label %panic2

bb2:                                              ; preds = %bb12
  %_56 = icmp eq i64 ptrtoint (ptr @head to i64), 0
  %_57 = and i1 %_56, true
  %_58 = xor i1 %_57, true
  br i1 %_58, label %bb13, label %panic10

bb9:                                              ; preds = %bb3
  %_60 = ptrtoint ptr %temp to i64
  %_63 = icmp eq i64 %_60, 0
  %_64 = and i1 %_63, true
  %_65 = xor i1 %_64, true
  br i1 %_65, label %bb14, label %panic3

panic2:                                           ; preds = %bb3
; call core::panicking::panic_misaligned_pointer_dereference
  call void @_ZN4core9panicking36panic_misaligned_pointer_dereference17hcc3cbded9382b6e5E(i64 8, i64 %_28, ptr align 8 @alloc_8f8bf9c63d8e11d7dfd7c6743fca8233) #4
  unreachable

bb14:                                             ; preds = %bb9
  %1 = getelementptr inbounds i8, ptr %temp, i64 8
  %_6 = load ptr, ptr %1, align 8
  call void @reverse(ptr %_6) #3
  store ptr null, ptr %q, align 8
  %_22 = ptrtoint ptr %temp to i64
  %_25 = and i64 %_22, 7
  %_26 = icmp eq i64 %_25, 0
  br i1 %_26, label %bb8, label %panic4

panic3:                                           ; preds = %bb9
; call core::panicking::panic_null_pointer_dereference
  call void @_ZN4core9panicking30panic_null_pointer_dereference17hf718fcc86a223baaE(ptr align 8 @alloc_8f8bf9c63d8e11d7dfd7c6743fca8233) #4
  unreachable

bb8:                                              ; preds = %bb14
  %_67 = ptrtoint ptr %temp to i64
  %_70 = icmp eq i64 %_67, 0
  %_71 = and i1 %_70, true
  %_72 = xor i1 %_71, true
  br i1 %_72, label %bb15, label %panic5

panic4:                                           ; preds = %bb14
; call core::panicking::panic_misaligned_pointer_dereference
  call void @_ZN4core9panicking36panic_misaligned_pointer_dereference17hcc3cbded9382b6e5E(i64 8, i64 %_22, ptr align 8 @alloc_be7452df8c180fa1736a845b90103292) #4
  unreachable

bb15:                                             ; preds = %bb8
  %2 = getelementptr inbounds i8, ptr %temp, i64 8
  %_8 = load ptr, ptr %2, align 8
  store ptr %_8, ptr %q, align 8
  %_15 = load ptr, ptr %q, align 8
  %_16 = ptrtoint ptr %_15 to i64
  %_19 = and i64 %_16, 7
  %_20 = icmp eq i64 %_19, 0
  br i1 %_20, label %bb7, label %panic6

panic5:                                           ; preds = %bb8
; call core::panicking::panic_null_pointer_dereference
  call void @_ZN4core9panicking30panic_null_pointer_dereference17hf718fcc86a223baaE(ptr align 8 @alloc_be7452df8c180fa1736a845b90103292) #4
  unreachable

bb7:                                              ; preds = %bb15
  %_73 = load ptr, ptr %q, align 8
  %_74 = ptrtoint ptr %_73 to i64
  %_77 = icmp eq i64 %_74, 0
  %_78 = and i1 %_77, true
  %_79 = xor i1 %_78, true
  br i1 %_79, label %bb16, label %panic7

panic6:                                           ; preds = %bb15
; call core::panicking::panic_misaligned_pointer_dereference
  call void @_ZN4core9panicking36panic_misaligned_pointer_dereference17hcc3cbded9382b6e5E(i64 8, i64 %_16, ptr align 8 @alloc_0a0c52c7598ebd026248b36c4f00b4c7) #4
  unreachable

bb16:                                             ; preds = %bb7
  %3 = load ptr, ptr %q, align 8
  %4 = getelementptr inbounds i8, ptr %3, i64 8
  store ptr %temp, ptr %4, align 8
  %_10 = ptrtoint ptr %temp to i64
  %_13 = and i64 %_10, 7
  %_14 = icmp eq i64 %_13, 0
  br i1 %_14, label %bb6, label %panic8

panic7:                                           ; preds = %bb7
; call core::panicking::panic_null_pointer_dereference
  call void @_ZN4core9panicking30panic_null_pointer_dereference17hf718fcc86a223baaE(ptr align 8 @alloc_0a0c52c7598ebd026248b36c4f00b4c7) #4
  unreachable

bb6:                                              ; preds = %bb16
  %_81 = ptrtoint ptr %temp to i64
  %_84 = icmp eq i64 %_81, 0
  %_85 = and i1 %_84, true
  %_86 = xor i1 %_85, true
  br i1 %_86, label %bb17, label %panic9

panic8:                                           ; preds = %bb16
; call core::panicking::panic_misaligned_pointer_dereference
  call void @_ZN4core9panicking36panic_misaligned_pointer_dereference17hcc3cbded9382b6e5E(i64 8, i64 %_10, ptr align 8 @alloc_7d8d58b36d2b2d423935116080665165) #4
  unreachable

bb17:                                             ; preds = %bb6
  %5 = getelementptr inbounds i8, ptr %temp, i64 8
  store ptr null, ptr %5, align 8
  br label %bb5

panic9:                                           ; preds = %bb6
; call core::panicking::panic_null_pointer_dereference
  call void @_ZN4core9panicking30panic_null_pointer_dereference17hf718fcc86a223baaE(ptr align 8 @alloc_7d8d58b36d2b2d423935116080665165) #4
  unreachable

bb5:                                              ; preds = %bb13, %bb17
  ret void

bb13:                                             ; preds = %bb2
  store ptr %temp, ptr @head, align 8
  br label %bb5

panic10:                                          ; preds = %bb2
; call core::panicking::panic_null_pointer_dereference
  call void @_ZN4core9panicking30panic_null_pointer_dereference17hf718fcc86a223baaE(ptr align 8 @alloc_4fce098e5e503b6bfe31d308e01624d7) #4
  unreachable
}

; Function Attrs: nounwind nonlazybind
define void @printrev(ptr %temp) unnamed_addr #1 {
start:
; call core::ptr::mut_ptr::<impl *mut T>::is_null
  %_2 = call zeroext i1 @"_ZN4core3ptr7mut_ptr31_$LT$impl$u20$$BP$mut$u20$T$GT$7is_null17hb775fd900839fe0eE"(ptr %temp) #3
  br i1 %_2, label %bb4, label %bb2

bb2:                                              ; preds = %start
  %_18 = ptrtoint ptr %temp to i64
  %_21 = and i64 %_18, 7
  %_22 = icmp eq i64 %_21, 0
  br i1 %_22, label %bb6, label %panic

bb4:                                              ; preds = %bb8, %start
  ret void

bb6:                                              ; preds = %bb2
  %_24 = ptrtoint ptr %temp to i64
  %_27 = icmp eq i64 %_24, 0
  %_28 = and i1 %_27, true
  %_29 = xor i1 %_28, true
  br i1 %_29, label %bb7, label %panic1

panic:                                            ; preds = %bb2
; call core::panicking::panic_misaligned_pointer_dereference
  call void @_ZN4core9panicking36panic_misaligned_pointer_dereference17hcc3cbded9382b6e5E(i64 8, i64 %_18, ptr align 8 @alloc_ab621ea091ca5bfb06de28636707950e) #4
  unreachable

bb7:                                              ; preds = %bb6
  %0 = getelementptr inbounds i8, ptr %temp, i64 8
  %_4 = load ptr, ptr %0, align 8
  call void @printrev(ptr %_4) #3
  %_12 = ptrtoint ptr %temp to i64
  %_15 = and i64 %_12, 7
  %_16 = icmp eq i64 %_15, 0
  br i1 %_16, label %bb5, label %panic2

panic1:                                           ; preds = %bb6
; call core::panicking::panic_null_pointer_dereference
  call void @_ZN4core9panicking30panic_null_pointer_dereference17hf718fcc86a223baaE(ptr align 8 @alloc_ab621ea091ca5bfb06de28636707950e) #4
  unreachable

bb5:                                              ; preds = %bb7
  %_31 = ptrtoint ptr %temp to i64
  %_34 = icmp eq i64 %_31, 0
  %_35 = and i1 %_34, true
  %_36 = xor i1 %_35, true
  br i1 %_36, label %bb8, label %panic3

panic2:                                           ; preds = %bb7
; call core::panicking::panic_misaligned_pointer_dereference
  call void @_ZN4core9panicking36panic_misaligned_pointer_dereference17hcc3cbded9382b6e5E(i64 8, i64 %_12, ptr align 8 @alloc_3a44e6c7f77cdea7a931b4b597315e0d) #4
  unreachable

bb8:                                              ; preds = %bb5
  %_10 = load i32, ptr %temp, align 8
  %_5 = call i32 (ptr, ...) @printf(ptr @alloc_b929c71616281bfd1be2bd4038d3ddf1, i32 %_10) #3
  br label %bb4

panic3:                                           ; preds = %bb5
; call core::panicking::panic_null_pointer_dereference
  call void @_ZN4core9panicking30panic_null_pointer_dereference17hf718fcc86a223baaE(ptr align 8 @alloc_3a44e6c7f77cdea7a931b4b597315e0d) #4
  unreachable
}

; Function Attrs: nounwind nonlazybind
declare ptr @malloc(i64) unnamed_addr #1

; core::panicking::panic_misaligned_pointer_dereference
; Function Attrs: cold minsize noinline noreturn nounwind nonlazybind optsize
declare void @_ZN4core9panicking36panic_misaligned_pointer_dereference17hcc3cbded9382b6e5E(i64, i64, ptr align 8) unnamed_addr #2

; core::panicking::panic_null_pointer_dereference
; Function Attrs: cold minsize noinline noreturn nounwind nonlazybind optsize
declare void @_ZN4core9panicking30panic_null_pointer_dereference17hf718fcc86a223baaE(ptr align 8) unnamed_addr #2

; Function Attrs: nounwind nonlazybind
declare i32 @printf(ptr, ...) unnamed_addr #1

attributes #0 = { inlinehint nounwind nonlazybind "probe-stack"="inline-asm" "target-cpu"="x86-64" }
attributes #1 = { nounwind nonlazybind "probe-stack"="inline-asm" "target-cpu"="x86-64" }
attributes #2 = { cold minsize noinline noreturn nounwind nonlazybind optsize "probe-stack"="inline-asm" "target-cpu"="x86-64" }
attributes #3 = { nounwind }
attributes #4 = { noreturn nounwind }

!llvm.module.flags = !{!0, !1}
!llvm.ident = !{!2}

!0 = !{i32 8, !"PIC Level", i32 2}
!1 = !{i32 2, !"RtLibUseGOT", i32 1}
!2 = !{!"rustc version 1.88.0-nightly (0b45675cf 2025-03-31)"}
