; ModuleID = '80sp8inos97pifcjqmv27gftg'
source_filename = "80sp8inos97pifcjqmv27gftg"
target datalayout = "e-m:e-p270:32:32-p271:32:32-p272:64:64-i64:64-i128:128-f80:128-n8:16:32:64-S128"
target triple = "x86_64-unknown-linux-gnu"

@front = global [8 x i8] zeroinitializer, align 8
@rear = global [8 x i8] zeroinitializer, align 8
@alloc_f5ffd2fd1476bab43ad89fb40c72d0c5 = private unnamed_addr constant [10 x i8] c"src/lib.rs", align 1
@alloc_c03111fb1084f7d48c4a037ef39fe2c8 = private unnamed_addr constant <{ ptr, [16 x i8] }> <{ ptr @alloc_f5ffd2fd1476bab43ad89fb40c72d0c5, [16 x i8] c"\0A\00\00\00\00\00\00\000\00\00\00\0C\00\00\00" }>, align 8
@alloc_9b949086b8178161ba15f87d1b5d1e76 = private unnamed_addr constant <{ ptr, [16 x i8] }> <{ ptr @alloc_f5ffd2fd1476bab43ad89fb40c72d0c5, [16 x i8] c"\0A\00\00\00\00\00\00\005\00\00\00\08\00\00\00" }>, align 8
@alloc_d33e3087acb03b27049f061ddb04bf9b = private unnamed_addr constant <{ ptr, [16 x i8] }> <{ ptr @alloc_f5ffd2fd1476bab43ad89fb40c72d0c5, [16 x i8] c"\0A\00\00\00\00\00\00\00<\00\00\00 \00\00\00" }>, align 8
@alloc_143b2744d111380641628c34d59209bd = private unnamed_addr constant <{ ptr, [16 x i8] }> <{ ptr @alloc_f5ffd2fd1476bab43ad89fb40c72d0c5, [16 x i8] c"\0A\00\00\00\00\00\00\00=\00\00\00\0D\00\00\00" }>, align 8
@alloc_5084ab4427ad12819a58c085604b37aa = private unnamed_addr constant <{ ptr, [16 x i8] }> <{ ptr @alloc_f5ffd2fd1476bab43ad89fb40c72d0c5, [16 x i8] c"\0A\00\00\00\00\00\00\00=\00\00\00\05\00\00\00" }>, align 8
@alloc_f79f06b2094faf19c3841bf93ed5c883 = private unnamed_addr constant <{ ptr, [16 x i8] }> <{ ptr @alloc_f5ffd2fd1476bab43ad89fb40c72d0c5, [16 x i8] c"\0A\00\00\00\00\00\00\00D\00\00\00\05\00\00\00" }>, align 8
@alloc_96a87398f608eaadfe7d76b8a4863991 = private unnamed_addr constant <{ ptr, [16 x i8] }> <{ ptr @alloc_f5ffd2fd1476bab43ad89fb40c72d0c5, [16 x i8] c"\0A\00\00\00\00\00\00\00E\00\00\00\05\00\00\00" }>, align 8
@alloc_8fb33a791464e754b1155f2b1b195b49 = private unnamed_addr constant <{ ptr, [16 x i8] }> <{ ptr @alloc_f5ffd2fd1476bab43ad89fb40c72d0c5, [16 x i8] c"\0A\00\00\00\00\00\00\00F\00\00\00\08\00\00\00" }>, align 8
@alloc_a5e364c6422846062dd61a62d82c2a4b = private unnamed_addr constant <{ ptr, [16 x i8] }> <{ ptr @alloc_f5ffd2fd1476bab43ad89fb40c72d0c5, [16 x i8] c"\0A\00\00\00\00\00\00\00F\00\00\00\1B\00\00\00" }>, align 8
@alloc_2efa6fb076c65f88b785c700efd47dae = private unnamed_addr constant <{ ptr, [16 x i8] }> <{ ptr @alloc_f5ffd2fd1476bab43ad89fb40c72d0c5, [16 x i8] c"\0A\00\00\00\00\00\00\00K\00\00\00\05\00\00\00" }>, align 8
@alloc_1ed964aab6d6c3d3f78f16bf85f3fad7 = private unnamed_addr constant <{ ptr, [16 x i8] }> <{ ptr @alloc_f5ffd2fd1476bab43ad89fb40c72d0c5, [16 x i8] c"\0A\00\00\00\00\00\00\00L\00\00\00\05\00\00\00" }>, align 8
@alloc_728aa173be55b60e2d7bc38148f90be4 = private unnamed_addr constant <{ ptr, [16 x i8] }> <{ ptr @alloc_f5ffd2fd1476bab43ad89fb40c72d0c5, [16 x i8] c"\0A\00\00\00\00\00\00\00G\00\00\00\09\00\00\00" }>, align 8
@alloc_03a53814ce24d181d7bd139972a515ae = private unnamed_addr constant <{ ptr, [16 x i8] }> <{ ptr @alloc_f5ffd2fd1476bab43ad89fb40c72d0c5, [16 x i8] c"\0A\00\00\00\00\00\00\00H\00\00\00\11\00\00\00" }>, align 8
@alloc_4004ba243031fd1d73000d22f195907d = private unnamed_addr constant <{ ptr, [16 x i8] }> <{ ptr @alloc_f5ffd2fd1476bab43ad89fb40c72d0c5, [16 x i8] c"\0A\00\00\00\00\00\00\00H\00\00\00\09\00\00\00" }>, align 8
@alloc_b929c71616281bfd1be2bd4038d3ddf1 = private unnamed_addr constant [4 x i8] c"%d \00", align 1
@alloc_4405fcd11432a1c3578938f5cfe501f3 = private unnamed_addr constant <{ ptr, [16 x i8] }> <{ ptr @alloc_f5ffd2fd1476bab43ad89fb40c72d0c5, [16 x i8] c"\0A\00\00\00\00\00\00\00V\00\00\00>\00\00\00" }>, align 8
@alloc_69218069a85f5e42747945cb32a88f84 = private unnamed_addr constant <{ ptr, [16 x i8] }> <{ ptr @alloc_f5ffd2fd1476bab43ad89fb40c72d0c5, [16 x i8] c"\0A\00\00\00\00\00\00\00W\00\00\00\0D\00\00\00" }>, align 8
@alloc_6d3d965ec1461b5b11792ddf7f1fee7b = private unnamed_addr constant <{ ptr, [16 x i8] }> <{ ptr @alloc_f5ffd2fd1476bab43ad89fb40c72d0c5, [16 x i8] c"\0A\00\00\00\00\00\00\00X\00\00\00\15\00\00\00" }>, align 8
@alloc_c64bddf0b2fab2ccbb763e675481782f = private unnamed_addr constant <{ ptr, [16 x i8] }> <{ ptr @alloc_f5ffd2fd1476bab43ad89fb40c72d0c5, [16 x i8] c"\0A\00\00\00\00\00\00\00Z\00\00\00\0D\00\00\00" }>, align 8
@alloc_b5929664aa8fbadde79130ce8fafbeb9 = private unnamed_addr constant <{ ptr, [16 x i8] }> <{ ptr @alloc_f5ffd2fd1476bab43ad89fb40c72d0c5, [16 x i8] c"\0A\00\00\00\00\00\00\00[\00\00\00\15\00\00\00" }>, align 8
@alloc_36a29f90d05b3dccd307ae2f4fe0b9f6 = private unnamed_addr constant <{ ptr, [16 x i8] }> <{ ptr @alloc_f5ffd2fd1476bab43ad89fb40c72d0c5, [16 x i8] c"\0A\00\00\00\00\00\00\00b\00\00\00\1C\00\00\00" }>, align 8
@alloc_9ea3d517f7855741afb3ef42cf7a1385 = private unnamed_addr constant <{ ptr, [16 x i8] }> <{ ptr @alloc_f5ffd2fd1476bab43ad89fb40c72d0c5, [16 x i8] c"\0A\00\00\00\00\00\00\00c\00\00\00\13\00\00\00" }>, align 8
@alloc_520a79461a7e3e437784dafcbf4b99ad = private unnamed_addr constant <{ ptr, [16 x i8] }> <{ ptr @alloc_f5ffd2fd1476bab43ad89fb40c72d0c5, [16 x i8] c"\0A\00\00\00\00\00\00\00c\00\00\00\05\00\00\00" }>, align 8
@alloc_cfe30686ff0daf301212766601800645 = private unnamed_addr constant <{ ptr, [16 x i8] }> <{ ptr @alloc_f5ffd2fd1476bab43ad89fb40c72d0c5, [16 x i8] c"\0A\00\00\00\00\00\00\00d\00\00\00\09\00\00\00" }>, align 8
@alloc_56f473db5169fdb47e5416104487414e = private unnamed_addr constant <{ ptr, [16 x i8] }> <{ ptr @alloc_f5ffd2fd1476bab43ad89fb40c72d0c5, [16 x i8] c"\0A\00\00\00\00\00\00\00e\00\00\00\1F\00\00\00" }>, align 8
@alloc_a9ddb910048728d8cde68c8a68ffcb43 = private unnamed_addr constant <{ ptr, [16 x i8] }> <{ ptr @alloc_f5ffd2fd1476bab43ad89fb40c72d0c5, [16 x i8] c"\0A\00\00\00\00\00\00\00e\00\00\00\09\00\00\00" }>, align 8
@alloc_9831bed29e09a7428ad22e994ae86821 = private unnamed_addr constant <{ ptr, [16 x i8] }> <{ ptr @alloc_f5ffd2fd1476bab43ad89fb40c72d0c5, [16 x i8] c"\0A\00\00\00\00\00\00\00g\00\00\00\13\00\00\00" }>, align 8
@alloc_0f71aacfd249cf47639d68c1334ec744 = private unnamed_addr constant <{ ptr, [16 x i8] }> <{ ptr @alloc_f5ffd2fd1476bab43ad89fb40c72d0c5, [16 x i8] c"\0A\00\00\00\00\00\00\00g\00\00\00\05\00\00\00" }>, align 8
@alloc_6548fd5edd167dc358ac7e2d3ae81c19 = private unnamed_addr constant <{ ptr, [16 x i8] }> <{ ptr @alloc_f5ffd2fd1476bab43ad89fb40c72d0c5, [16 x i8] c"\0A\00\00\00\00\00\00\00h\00\00\00\08\00\00\00" }>, align 8
@alloc_f60cb074cdf62f74e08d043042b7d58f = private unnamed_addr constant <{ ptr, [16 x i8] }> <{ ptr @alloc_f5ffd2fd1476bab43ad89fb40c72d0c5, [16 x i8] c"\0A\00\00\00\00\00\00\00j\00\00\00\0F\00\00\00" }>, align 8
@alloc_78bfe98d3284ff32d62726bf1a753672 = private unnamed_addr constant <{ ptr, [16 x i8] }> <{ ptr @alloc_f5ffd2fd1476bab43ad89fb40c72d0c5, [16 x i8] c"\0A\00\00\00\00\00\00\00j\00\00\00\15\00\00\00" }>, align 8
@alloc_8aaf0cbe5467e4838b8bc1d98e57daa9 = private unnamed_addr constant <{ ptr, [16 x i8] }> <{ ptr @alloc_f5ffd2fd1476bab43ad89fb40c72d0c5, [16 x i8] c"\0A\00\00\00\00\00\00\00m\00\00\00\09\00\00\00" }>, align 8
@alloc_0e4817f84c4ba2f42b24589c33fcfeb7 = private unnamed_addr constant <{ ptr, [16 x i8] }> <{ ptr @alloc_f5ffd2fd1476bab43ad89fb40c72d0c5, [16 x i8] c"\0A\00\00\00\00\00\00\00k\00\00\00\09\00\00\00" }>, align 8
@alloc_adf1c524da88c689910ca147895919eb = private unnamed_addr constant <{ ptr, [16 x i8] }> <{ ptr @alloc_f5ffd2fd1476bab43ad89fb40c72d0c5, [16 x i8] c"\0A\00\00\00\00\00\00\00i\00\00\00\09\00\00\00" }>, align 8
@alloc_8c8feead8a375720ebb0265fda631b47 = private unnamed_addr constant <{ ptr, [16 x i8] }> <{ ptr @alloc_f5ffd2fd1476bab43ad89fb40c72d0c5, [16 x i8] c"\0A\00\00\00\00\00\00\00o\00\00\00\11\00\00\00" }>, align 8
@alloc_dd5ca49258844dd049f35feb90dce4cb = private unnamed_addr constant <{ ptr, [16 x i8] }> <{ ptr @alloc_f5ffd2fd1476bab43ad89fb40c72d0c5, [16 x i8] c"\0A\00\00\00\00\00\00\00o\00\00\00\05\00\00\00" }>, align 8
@alloc_80883ff8e80cbb9d0e87c67dc1a3fa1d = private unnamed_addr constant <{ ptr, [16 x i8] }> <{ ptr @alloc_f5ffd2fd1476bab43ad89fb40c72d0c5, [16 x i8] c"\0A\00\00\00\00\00\00\00p\00\00\00\05\00\00\00" }>, align 8
@alloc_67af0f5f509a33d4aacd19b47c11d736 = private unnamed_addr constant <{ ptr, [16 x i8] }> <{ ptr @alloc_f5ffd2fd1476bab43ad89fb40c72d0c5, [16 x i8] c"\0A\00\00\00\00\00\00\00t\00\00\00\1C\00\00\00" }>, align 8
@alloc_a7a319421da9a77576ac7888b1491544 = private unnamed_addr constant <{ ptr, [16 x i8] }> <{ ptr @alloc_f5ffd2fd1476bab43ad89fb40c72d0c5, [16 x i8] c"\0A\00\00\00\00\00\00\00u\00\00\00\12\00\00\00" }>, align 8
@alloc_d1a11e64fdd63add9ab4729a70b53b74 = private unnamed_addr constant <{ ptr, [16 x i8] }> <{ ptr @alloc_f5ffd2fd1476bab43ad89fb40c72d0c5, [16 x i8] c"\0A\00\00\00\00\00\00\00u\00\00\00\05\00\00\00" }>, align 8
@alloc_995e79e36bd3580d2ae8c82744b38faf = private unnamed_addr constant <{ ptr, [16 x i8] }> <{ ptr @alloc_f5ffd2fd1476bab43ad89fb40c72d0c5, [16 x i8] c"\0A\00\00\00\00\00\00\00v\00\00\00\09\00\00\00" }>, align 8
@alloc_5eb0b282289dc24394f8ce89b229bfdc = private unnamed_addr constant <{ ptr, [16 x i8] }> <{ ptr @alloc_f5ffd2fd1476bab43ad89fb40c72d0c5, [16 x i8] c"\0A\00\00\00\00\00\00\00w\00\00\00 \00\00\00" }>, align 8
@alloc_ec202205961e5c0a6612159084e075e3 = private unnamed_addr constant <{ ptr, [16 x i8] }> <{ ptr @alloc_f5ffd2fd1476bab43ad89fb40c72d0c5, [16 x i8] c"\0A\00\00\00\00\00\00\00w\00\00\00\09\00\00\00" }>, align 8
@alloc_d284f2b4c2ffaa187c2456f035fe38d3 = private unnamed_addr constant <{ ptr, [16 x i8] }> <{ ptr @alloc_f5ffd2fd1476bab43ad89fb40c72d0c5, [16 x i8] c"\0A\00\00\00\00\00\00\00y\00\00\00\13\00\00\00" }>, align 8
@alloc_69d1daf5dfd60dd92e8de43345645869 = private unnamed_addr constant <{ ptr, [16 x i8] }> <{ ptr @alloc_f5ffd2fd1476bab43ad89fb40c72d0c5, [16 x i8] c"\0A\00\00\00\00\00\00\00y\00\00\00\05\00\00\00" }>, align 8
@alloc_a883a68596bb157e102413ab605ef1ca = private unnamed_addr constant <{ ptr, [16 x i8] }> <{ ptr @alloc_f5ffd2fd1476bab43ad89fb40c72d0c5, [16 x i8] c"\0A\00\00\00\00\00\00\00z\00\00\00\08\00\00\00" }>, align 8
@alloc_a9b4ae4f936036ecc70c5719b2ebbe49 = private unnamed_addr constant <{ ptr, [16 x i8] }> <{ ptr @alloc_f5ffd2fd1476bab43ad89fb40c72d0c5, [16 x i8] c"\0A\00\00\00\00\00\00\00|\00\00\00\0F\00\00\00" }>, align 8
@alloc_b5d9de2ca41d3d07558ac6c18f6cd955 = private unnamed_addr constant <{ ptr, [16 x i8] }> <{ ptr @alloc_f5ffd2fd1476bab43ad89fb40c72d0c5, [16 x i8] c"\0A\00\00\00\00\00\00\00|\00\00\00\15\00\00\00" }>, align 8
@alloc_be7452df8c180fa1736a845b90103292 = private unnamed_addr constant <{ ptr, [16 x i8] }> <{ ptr @alloc_f5ffd2fd1476bab43ad89fb40c72d0c5, [16 x i8] c"\0A\00\00\00\00\00\00\00\7F\00\00\00\09\00\00\00" }>, align 8
@alloc_54902b21ac39f72cdf7a4f24aaf5f16b = private unnamed_addr constant <{ ptr, [16 x i8] }> <{ ptr @alloc_f5ffd2fd1476bab43ad89fb40c72d0c5, [16 x i8] c"\0A\00\00\00\00\00\00\00}\00\00\00\09\00\00\00" }>, align 8
@alloc_faa77273d412a3370397282c48abd832 = private unnamed_addr constant <{ ptr, [16 x i8] }> <{ ptr @alloc_f5ffd2fd1476bab43ad89fb40c72d0c5, [16 x i8] c"\0A\00\00\00\00\00\00\00{\00\00\00\09\00\00\00" }>, align 8
@alloc_62039b4ee3baceecc9e4e544e5b3268e = private unnamed_addr constant <{ ptr, [16 x i8] }> <{ ptr @alloc_f5ffd2fd1476bab43ad89fb40c72d0c5, [16 x i8] c"\0A\00\00\00\00\00\00\00\81\00\00\00\12\00\00\00" }>, align 8
@alloc_7d8d58b36d2b2d423935116080665165 = private unnamed_addr constant <{ ptr, [16 x i8] }> <{ ptr @alloc_f5ffd2fd1476bab43ad89fb40c72d0c5, [16 x i8] c"\0A\00\00\00\00\00\00\00\81\00\00\00\05\00\00\00" }>, align 8
@alloc_3689581ac3e8ceaaaf9b37c8e542fe4a = private unnamed_addr constant <{ ptr, [16 x i8] }> <{ ptr @alloc_f5ffd2fd1476bab43ad89fb40c72d0c5, [16 x i8] c"\0A\00\00\00\00\00\00\00\82\00\00\00\05\00\00\00" }>, align 8
@alloc_9e7b42eb587ab82bda512b6490f6a68c = private unnamed_addr constant <{ ptr, [16 x i8] }> <{ ptr @alloc_f5ffd2fd1476bab43ad89fb40c72d0c5, [16 x i8] c"\0A\00\00\00\00\00\00\00\88\00\00\00\0B\00\00\00" }>, align 8
@alloc_5109ba8e271049b39863424b379ec036 = private unnamed_addr constant <{ ptr, [16 x i8] }> <{ ptr @alloc_f5ffd2fd1476bab43ad89fb40c72d0c5, [16 x i8] c"\0A\00\00\00\00\00\00\00\88\00\00\00\11\00\00\00" }>, align 8
@alloc_0fc5270d6602d94baa051e7e9c6e16ae = private unnamed_addr constant <{ ptr, [16 x i8] }> <{ ptr @alloc_f5ffd2fd1476bab43ad89fb40c72d0c5, [16 x i8] c"\0A\00\00\00\00\00\00\00\88\00\00\00\17\00\00\00" }>, align 8
@alloc_b84c23934f3ae7a56c2591579cb70733 = private unnamed_addr constant <{ ptr, [16 x i8] }> <{ ptr @alloc_f5ffd2fd1476bab43ad89fb40c72d0c5, [16 x i8] c"\0A\00\00\00\00\00\00\00\89\00\00\00\0C\00\00\00" }>, align 8
@alloc_82fd15565daaf88b349a8c0e274a6687 = private unnamed_addr constant <{ ptr, [16 x i8] }> <{ ptr @alloc_f5ffd2fd1476bab43ad89fb40c72d0c5, [16 x i8] c"\0A\00\00\00\00\00\00\00\B7\00\00\00\05\00\00\00" }>, align 8
@alloc_8ef5493b75ea88cbc5d037854f833b9a = private unnamed_addr constant <{ ptr, [16 x i8] }> <{ ptr @alloc_f5ffd2fd1476bab43ad89fb40c72d0c5, [16 x i8] c"\0A\00\00\00\00\00\00\00\8B\00\00\00\14\00\00\00" }>, align 8
@alloc_bba0f7f631bbf057022a22cbe28a623f = private unnamed_addr constant <{ ptr, [16 x i8] }> <{ ptr @alloc_f5ffd2fd1476bab43ad89fb40c72d0c5, [16 x i8] c"\0A\00\00\00\00\00\00\00\8C\00\00\00\17\00\00\00" }>, align 8
@alloc_bae30b398b4ce67c6842a01d9a165ccf = private unnamed_addr constant <{ ptr, [16 x i8] }> <{ ptr @alloc_f5ffd2fd1476bab43ad89fb40c72d0c5, [16 x i8] c"\0A\00\00\00\00\00\00\00\8D\00\00\00\18\00\00\00" }>, align 8
@alloc_0fae0c1743a23e24ff727298b268fcfe = private unnamed_addr constant <{ ptr, [16 x i8] }> <{ ptr @alloc_f5ffd2fd1476bab43ad89fb40c72d0c5, [16 x i8] c"\0A\00\00\00\00\00\00\00\A2\00\00\00*\00\00\00" }>, align 8
@alloc_02fc3f8657657a692896d90dd59b87eb = private unnamed_addr constant <{ ptr, [16 x i8] }> <{ ptr @alloc_f5ffd2fd1476bab43ad89fb40c72d0c5, [16 x i8] c"\0A\00\00\00\00\00\00\00\A4\00\00\00\14\00\00\00" }>, align 8
@alloc_f2f8356ab6888f6d01c31575640571ec = private unnamed_addr constant <{ ptr, [16 x i8] }> <{ ptr @alloc_f5ffd2fd1476bab43ad89fb40c72d0c5, [16 x i8] c"\0A\00\00\00\00\00\00\00\A6\00\00\00\11\00\00\00" }>, align 8
@alloc_73462a5d6ddc2455469cff5729f9816b = private unnamed_addr constant <{ ptr, [16 x i8] }> <{ ptr @alloc_f5ffd2fd1476bab43ad89fb40c72d0c5, [16 x i8] c"\0A\00\00\00\00\00\00\00\A7\00\00\00\11\00\00\00" }>, align 8
@alloc_fc2580789a9daf3e7bfe0e2e62dfa096 = private unnamed_addr constant <{ ptr, [16 x i8] }> <{ ptr @alloc_f5ffd2fd1476bab43ad89fb40c72d0c5, [16 x i8] c"\0A\00\00\00\00\00\00\00\A8\00\00\00\11\00\00\00" }>, align 8
@alloc_742be806bbc5f8fa265176d6f2a5513b = private unnamed_addr constant <{ ptr, [16 x i8] }> <{ ptr @alloc_f5ffd2fd1476bab43ad89fb40c72d0c5, [16 x i8] c"\0A\00\00\00\00\00\00\00\A9\00\00\00\11\00\00\00" }>, align 8
@alloc_6ab84dd6ad89ebd3d7a23faf67ed6306 = private unnamed_addr constant <{ ptr, [16 x i8] }> <{ ptr @alloc_f5ffd2fd1476bab43ad89fb40c72d0c5, [16 x i8] c"\0A\00\00\00\00\00\00\00\AB\00\00\00\14\00\00\00" }>, align 8
@alloc_07e021c2c8455ff59c100db47df1439b = private unnamed_addr constant <{ ptr, [16 x i8] }> <{ ptr @alloc_f5ffd2fd1476bab43ad89fb40c72d0c5, [16 x i8] c"\0A\00\00\00\00\00\00\00\AB\00\00\00\1A\00\00\00" }>, align 8
@alloc_9025128f6a2e7a461b9fb929dc2c8c98 = private unnamed_addr constant <{ ptr, [16 x i8] }> <{ ptr @alloc_f5ffd2fd1476bab43ad89fb40c72d0c5, [16 x i8] c"\0A\00\00\00\00\00\00\00\AD\00\00\00\15\00\00\00" }>, align 8
@alloc_a0452bf6c07ae36c4dd2a7e96b611cf9 = private unnamed_addr constant <{ ptr, [16 x i8] }> <{ ptr @alloc_f5ffd2fd1476bab43ad89fb40c72d0c5, [16 x i8] c"\0A\00\00\00\00\00\00\00\AE\00\00\00 \00\00\00" }>, align 8
@alloc_c4e6d97e0244118226c837fc644f26d1 = private unnamed_addr constant <{ ptr, [16 x i8] }> <{ ptr @alloc_f5ffd2fd1476bab43ad89fb40c72d0c5, [16 x i8] c"\0A\00\00\00\00\00\00\00\B1\00\00\00\11\00\00\00" }>, align 8
@alloc_cbea45295cd04667ba212820a0b5b111 = private unnamed_addr constant <{ ptr, [16 x i8] }> <{ ptr @alloc_f5ffd2fd1476bab43ad89fb40c72d0c5, [16 x i8] c"\0A\00\00\00\00\00\00\00\B2\00\00\00\11\00\00\00" }>, align 8
@alloc_271037ffdbe6af0aa60f85cb6227b12f = private unnamed_addr constant <{ ptr, [16 x i8] }> <{ ptr @alloc_f5ffd2fd1476bab43ad89fb40c72d0c5, [16 x i8] c"\0A\00\00\00\00\00\00\00\B3\00\00\00\11\00\00\00" }>, align 8
@alloc_d33473328eb96ae80a008c05eca3e330 = private unnamed_addr constant <{ ptr, [16 x i8] }> <{ ptr @alloc_f5ffd2fd1476bab43ad89fb40c72d0c5, [16 x i8] c"\0A\00\00\00\00\00\00\00\8E\00\00\00(\00\00\00" }>, align 8
@alloc_b373a8b837617a5fe01f3ee969adfcbf = private unnamed_addr constant <{ ptr, [16 x i8] }> <{ ptr @alloc_f5ffd2fd1476bab43ad89fb40c72d0c5, [16 x i8] c"\0A\00\00\00\00\00\00\00\90\00\00\00\14\00\00\00" }>, align 8
@alloc_f1c693e3b94320c639f0a594f5dc048b = private unnamed_addr constant <{ ptr, [16 x i8] }> <{ ptr @alloc_f5ffd2fd1476bab43ad89fb40c72d0c5, [16 x i8] c"\0A\00\00\00\00\00\00\00\92\00\00\00\11\00\00\00" }>, align 8
@alloc_a924c5f5056e53437e970619bd591c5c = private unnamed_addr constant <{ ptr, [16 x i8] }> <{ ptr @alloc_f5ffd2fd1476bab43ad89fb40c72d0c5, [16 x i8] c"\0A\00\00\00\00\00\00\00\93\00\00\00\11\00\00\00" }>, align 8
@alloc_637dccc209ae06d980b6cbff01c4a094 = private unnamed_addr constant <{ ptr, [16 x i8] }> <{ ptr @alloc_f5ffd2fd1476bab43ad89fb40c72d0c5, [16 x i8] c"\0A\00\00\00\00\00\00\00\94\00\00\00\11\00\00\00" }>, align 8
@alloc_1208d10a34951dc63f5989443cb5f268 = private unnamed_addr constant <{ ptr, [16 x i8] }> <{ ptr @alloc_f5ffd2fd1476bab43ad89fb40c72d0c5, [16 x i8] c"\0A\00\00\00\00\00\00\00\95\00\00\00\11\00\00\00" }>, align 8
@alloc_d93d9a5a9c8b8eaad328d7c44e211d84 = private unnamed_addr constant <{ ptr, [16 x i8] }> <{ ptr @alloc_f5ffd2fd1476bab43ad89fb40c72d0c5, [16 x i8] c"\0A\00\00\00\00\00\00\00\97\00\00\00\14\00\00\00" }>, align 8
@alloc_fe2ab1856956b4384276a97703ba115f = private unnamed_addr constant <{ ptr, [16 x i8] }> <{ ptr @alloc_f5ffd2fd1476bab43ad89fb40c72d0c5, [16 x i8] c"\0A\00\00\00\00\00\00\00\97\00\00\00\1A\00\00\00" }>, align 8
@alloc_4b4b09a4bedc7a577dbab104a48e1ede = private unnamed_addr constant <{ ptr, [16 x i8] }> <{ ptr @alloc_f5ffd2fd1476bab43ad89fb40c72d0c5, [16 x i8] c"\0A\00\00\00\00\00\00\00\99\00\00\00\15\00\00\00" }>, align 8
@alloc_5e587d5eb6f8424b44761c0f3e98a2e9 = private unnamed_addr constant <{ ptr, [16 x i8] }> <{ ptr @alloc_f5ffd2fd1476bab43ad89fb40c72d0c5, [16 x i8] c"\0A\00\00\00\00\00\00\00\9A\00\00\00 \00\00\00" }>, align 8
@alloc_dac4d9f147958fdaa8a7828bc4d6ad4b = private unnamed_addr constant <{ ptr, [16 x i8] }> <{ ptr @alloc_f5ffd2fd1476bab43ad89fb40c72d0c5, [16 x i8] c"\0A\00\00\00\00\00\00\00\9D\00\00\00\11\00\00\00" }>, align 8
@alloc_1bafa3af2a652a5e6af5f0381e69d0a1 = private unnamed_addr constant <{ ptr, [16 x i8] }> <{ ptr @alloc_f5ffd2fd1476bab43ad89fb40c72d0c5, [16 x i8] c"\0A\00\00\00\00\00\00\00\9E\00\00\00\11\00\00\00" }>, align 8
@alloc_3b88cb096d84cffd3c7630aa4a929537 = private unnamed_addr constant <{ ptr, [16 x i8] }> <{ ptr @alloc_f5ffd2fd1476bab43ad89fb40c72d0c5, [16 x i8] c"\0A\00\00\00\00\00\00\00\9F\00\00\00\11\00\00\00" }>, align 8
@alloc_8616f1d03d0efa58bfba4cb8e42dd4eb = private unnamed_addr constant <{ ptr, [16 x i8] }> <{ ptr @alloc_f5ffd2fd1476bab43ad89fb40c72d0c5, [16 x i8] c"\0A\00\00\00\00\00\00\00\C0\00\00\00\05\00\00\00" }>, align 8
@alloc_147709643234c0e43fb19b8058ab450f = private unnamed_addr constant <{ ptr, [16 x i8] }> <{ ptr @alloc_f5ffd2fd1476bab43ad89fb40c72d0c5, [16 x i8] c"\0A\00\00\00\00\00\00\00\C1\00\00\00\05\00\00\00" }>, align 8
@alloc_c45baa1f3a7c99d88c7d8f140477241e = private unnamed_addr constant <{ ptr, [16 x i8] }> <{ ptr @alloc_f5ffd2fd1476bab43ad89fb40c72d0c5, [16 x i8] c"\0A\00\00\00\00\00\00\00\C2\00\00\00\05\00\00\00" }>, align 8
@alloc_8c10ced135ffc3554774c32cb4497baf = private unnamed_addr constant <{ ptr, [16 x i8] }> <{ ptr @alloc_f5ffd2fd1476bab43ad89fb40c72d0c5, [16 x i8] c"\0A\00\00\00\00\00\00\00\C3\00\00\00\05\00\00\00" }>, align 8
@alloc_b95678b168d07cea34a0ff987b0c895a = private unnamed_addr constant <{ ptr, [16 x i8] }> <{ ptr @alloc_f5ffd2fd1476bab43ad89fb40c72d0c5, [16 x i8] c"\0A\00\00\00\00\00\00\00\C4\00\00\00\05\00\00\00" }>, align 8
@alloc_5b61a4abfe1c5b6a60b0c2ce59e2b524 = private unnamed_addr constant <{ ptr, [16 x i8] }> <{ ptr @alloc_f5ffd2fd1476bab43ad89fb40c72d0c5, [16 x i8] c"\0A\00\00\00\00\00\00\00\C9\00\00\00\0C\00\00\00" }>, align 8
@alloc_01038da33ca47df0cf2b978914f2b0fc = private unnamed_addr constant <{ ptr, [16 x i8] }> <{ ptr @alloc_f5ffd2fd1476bab43ad89fb40c72d0c5, [16 x i8] c"\0A\00\00\00\00\00\00\00\C9\00\00\00\18\00\00\00" }>, align 8
@alloc_e492306b859161ca4de35248fa43f57d = private unnamed_addr constant <{ ptr, [16 x i8] }> <{ ptr @alloc_f5ffd2fd1476bab43ad89fb40c72d0c5, [16 x i8] c"\0A\00\00\00\00\00\00\00\CC\00\00\00\11\00\00\00" }>, align 8
@alloc_11b66a255f461a33f79ea72a6d8e3954 = private unnamed_addr constant <{ ptr, [16 x i8] }> <{ ptr @alloc_f5ffd2fd1476bab43ad89fb40c72d0c5, [16 x i8] c"\0A\00\00\00\00\00\00\00\CA\00\00\00\11\00\00\00" }>, align 8
@alloc_8e99f3de8f967564ecbf12f1d0cee32d = private unnamed_addr constant <{ ptr, [16 x i8] }> <{ ptr @alloc_f5ffd2fd1476bab43ad89fb40c72d0c5, [16 x i8] c"\0A\00\00\00\00\00\00\00\CF\00\00\00\05\00\00\00" }>, align 8
@alloc_38eda74053cb1841314bee73e69d82cf = private unnamed_addr constant <{ ptr, [16 x i8] }> <{ ptr @alloc_f5ffd2fd1476bab43ad89fb40c72d0c5, [16 x i8] c"\0A\00\00\00\00\00\00\00\D2\00\00\00\0F\00\00\00" }>, align 8
@alloc_bc89b9258792e463b24de603f11a2a34 = private unnamed_addr constant <{ ptr, [16 x i8] }> <{ ptr @alloc_f5ffd2fd1476bab43ad89fb40c72d0c5, [16 x i8] c"\0A\00\00\00\00\00\00\00\D2\00\00\00\1B\00\00\00" }>, align 8
@alloc_b0b7f15f223ab5b9f460e3d364ac2b7b = private unnamed_addr constant <{ ptr, [16 x i8] }> <{ ptr @alloc_f5ffd2fd1476bab43ad89fb40c72d0c5, [16 x i8] c"\0A\00\00\00\00\00\00\00\D5\00\00\00\09\00\00\00" }>, align 8
@alloc_3be8fefbb53403a1321d68030b320fcb = private unnamed_addr constant <{ ptr, [16 x i8] }> <{ ptr @alloc_f5ffd2fd1476bab43ad89fb40c72d0c5, [16 x i8] c"\0A\00\00\00\00\00\00\00\D3\00\00\00\09\00\00\00" }>, align 8
@alloc_2fab6b5d2d6779adac58ca29daf80de8 = private unnamed_addr constant <{ ptr, [16 x i8] }> <{ ptr @alloc_f5ffd2fd1476bab43ad89fb40c72d0c5, [16 x i8] c"\0A\00\00\00\00\00\00\00\DF\00\00\00:\00\00\00" }>, align 8
@alloc_7b733f004cb08b8f0c96bdcee1e3d347 = private unnamed_addr constant <{ ptr, [16 x i8] }> <{ ptr @alloc_f5ffd2fd1476bab43ad89fb40c72d0c5, [16 x i8] c"\0A\00\00\00\00\00\00\00\E0\00\00\00\0E\00\00\00" }>, align 8
@alloc_d49bcc386458b52043d803eb646436ef = private unnamed_addr constant <{ ptr, [16 x i8] }> <{ ptr @alloc_f5ffd2fd1476bab43ad89fb40c72d0c5, [16 x i8] c"\0A\00\00\00\00\00\00\00\E1\00\00\00\0E\00\00\00" }>, align 8
@alloc_0fd1a10c4ae8979c7c584380fc851991 = private unnamed_addr constant <{ ptr, [16 x i8] }> <{ ptr @alloc_f5ffd2fd1476bab43ad89fb40c72d0c5, [16 x i8] c"\0A\00\00\00\00\00\00\00\E5\00\00\00\0C\00\00\00" }>, align 8
@alloc_33a89899d98890a940a4ccf9ab105e24 = private unnamed_addr constant <{ ptr, [16 x i8] }> <{ ptr @alloc_f5ffd2fd1476bab43ad89fb40c72d0c5, [16 x i8] c"\0A\00\00\00\00\00\00\00\E6\00\00\00\10\00\00\00" }>, align 8
@alloc_ed987940ef1dc3e9ecfdfa1ff772c9c0 = private unnamed_addr constant <{ ptr, [16 x i8] }> <{ ptr @alloc_f5ffd2fd1476bab43ad89fb40c72d0c5, [16 x i8] c"\0A\00\00\00\00\00\00\00\EC\00\00\00\0B\00\00\00" }>, align 8
@alloc_98a77ed83bd3c087acecfd6dadc30596 = private unnamed_addr constant <{ ptr, [16 x i8] }> <{ ptr @alloc_f5ffd2fd1476bab43ad89fb40c72d0c5, [16 x i8] c"\0A\00\00\00\00\00\00\00\EC\00\00\00\11\00\00\00" }>, align 8
@alloc_f9305d3f35cb9b58622438b47bc4ccc4 = private unnamed_addr constant <{ ptr, [16 x i8] }> <{ ptr @alloc_f5ffd2fd1476bab43ad89fb40c72d0c5, [16 x i8] c"\0A\00\00\00\00\00\00\00\EC\00\00\00\17\00\00\00" }>, align 8
@alloc_3fc6c5183c93d2c72540e6fc0c2b1a74 = private unnamed_addr constant <{ ptr, [16 x i8] }> <{ ptr @alloc_f5ffd2fd1476bab43ad89fb40c72d0c5, [16 x i8] c"\0A\00\00\00\00\00\00\00+\01\00\00\05\00\00\00" }>, align 8
@alloc_d68fc1c9dce4a9f7007b94be508ea47d = private unnamed_addr constant <{ ptr, [16 x i8] }> <{ ptr @alloc_f5ffd2fd1476bab43ad89fb40c72d0c5, [16 x i8] c"\0A\00\00\00\00\00\00\00\EE\00\00\00\0C\00\00\00" }>, align 8
@alloc_d6b765e63a68e5d6acba0145d56dc905 = private unnamed_addr constant <{ ptr, [16 x i8] }> <{ ptr @alloc_f5ffd2fd1476bab43ad89fb40c72d0c5, [16 x i8] c"\0A\00\00\00\00\00\00\00\EE\00\00\00\12\00\00\00" }>, align 8
@alloc_a186526a63a414c96897a2fc416a53c9 = private unnamed_addr constant <{ ptr, [16 x i8] }> <{ ptr @alloc_f5ffd2fd1476bab43ad89fb40c72d0c5, [16 x i8] c"\0A\00\00\00\00\00\00\00\0C\01\00\00&\00\00\00" }>, align 8
@alloc_fefeb91bf600b9c2b0f623e13e1f1313 = private unnamed_addr constant <{ ptr, [16 x i8] }> <{ ptr @alloc_f5ffd2fd1476bab43ad89fb40c72d0c5, [16 x i8] c"\0A\00\00\00\00\00\00\00\0D\01\00\00\10\00\00\00" }>, align 8
@alloc_7e7eb7cbf027736cbd13353ddbabdb4e = private unnamed_addr constant <{ ptr, [16 x i8] }> <{ ptr @alloc_f5ffd2fd1476bab43ad89fb40c72d0c5, [16 x i8] c"\0A\00\00\00\00\00\00\00\0E\01\00\00\11\00\00\00" }>, align 8
@alloc_b1b5711bbcbe759f83e18b97de6c28d9 = private unnamed_addr constant <{ ptr, [16 x i8] }> <{ ptr @alloc_f5ffd2fd1476bab43ad89fb40c72d0c5, [16 x i8] c"\0A\00\00\00\00\00\00\00\0F\01\00\00\11\00\00\00" }>, align 8
@alloc_7300ccad651734353f683b9ca600fb08 = private unnamed_addr constant <{ ptr, [16 x i8] }> <{ ptr @alloc_f5ffd2fd1476bab43ad89fb40c72d0c5, [16 x i8] c"\0A\00\00\00\00\00\00\00\10\01\00\00 \00\00\00" }>, align 8
@alloc_7ca06d75eb42b0744ca314e84fe936a0 = private unnamed_addr constant <{ ptr, [16 x i8] }> <{ ptr @alloc_f5ffd2fd1476bab43ad89fb40c72d0c5, [16 x i8] c"\0A\00\00\00\00\00\00\00\11\01\00\00\17\00\00\00" }>, align 8
@alloc_bc3ea6ebaabc75a7e8f0868a2d280c58 = private unnamed_addr constant <{ ptr, [16 x i8] }> <{ ptr @alloc_f5ffd2fd1476bab43ad89fb40c72d0c5, [16 x i8] c"\0A\00\00\00\00\00\00\00\13\01\00\00\10\00\00\00" }>, align 8
@alloc_12cdc166226c0ca4d07fe6ab7433dfca = private unnamed_addr constant <{ ptr, [16 x i8] }> <{ ptr @alloc_f5ffd2fd1476bab43ad89fb40c72d0c5, [16 x i8] c"\0A\00\00\00\00\00\00\00\15\01\00\00\14\00\00\00" }>, align 8
@alloc_93dfc23b5c477ff397b8cc128a511bcc = private unnamed_addr constant <{ ptr, [16 x i8] }> <{ ptr @alloc_f5ffd2fd1476bab43ad89fb40c72d0c5, [16 x i8] c"\0A\00\00\00\00\00\00\00\1B\01\00\00\14\00\00\00" }>, align 8
@alloc_cdb40b261b9850b1bf6b33fce78a3c1d = private unnamed_addr constant <{ ptr, [16 x i8] }> <{ ptr @alloc_f5ffd2fd1476bab43ad89fb40c72d0c5, [16 x i8] c"\0A\00\00\00\00\00\00\00\1E\01\00\00\15\00\00\00" }>, align 8
@alloc_4b16eca462f81ca44745a58a1ae1bbb5 = private unnamed_addr constant <{ ptr, [16 x i8] }> <{ ptr @alloc_f5ffd2fd1476bab43ad89fb40c72d0c5, [16 x i8] c"\0A\00\00\00\00\00\00\00\1F\01\00\00\15\00\00\00" }>, align 8
@alloc_dbd21338a7e7f43492fcd899747a6dd0 = private unnamed_addr constant <{ ptr, [16 x i8] }> <{ ptr @alloc_f5ffd2fd1476bab43ad89fb40c72d0c5, [16 x i8] c"\0A\00\00\00\00\00\00\00!\01\00\00\1B\00\00\00" }>, align 8
@alloc_24a2bc01f5ea7c7ceafe309f1547da37 = private unnamed_addr constant <{ ptr, [16 x i8] }> <{ ptr @alloc_f5ffd2fd1476bab43ad89fb40c72d0c5, [16 x i8] c"\0A\00\00\00\00\00\00\00#\01\00\00 \00\00\00" }>, align 8
@alloc_2481f9d338584d42d81746210a09eafe = private unnamed_addr constant <{ ptr, [16 x i8] }> <{ ptr @alloc_f5ffd2fd1476bab43ad89fb40c72d0c5, [16 x i8] c"\0A\00\00\00\00\00\00\00#\01\00\00\11\00\00\00" }>, align 8
@alloc_c52a8370b906af94d3891ecb9cce13d1 = private unnamed_addr constant <{ ptr, [16 x i8] }> <{ ptr @alloc_f5ffd2fd1476bab43ad89fb40c72d0c5, [16 x i8] c"\0A\00\00\00\00\00\00\00$\01\00\00\11\00\00\00" }>, align 8
@alloc_de265cb080d7afe99c3ab1be15cb98d6 = private unnamed_addr constant <{ ptr, [16 x i8] }> <{ ptr @alloc_f5ffd2fd1476bab43ad89fb40c72d0c5, [16 x i8] c"\0A\00\00\00\00\00\00\00%\01\00\00\11\00\00\00" }>, align 8
@alloc_1786207e1058fda558d8919b460b3c1d = private unnamed_addr constant <{ ptr, [16 x i8] }> <{ ptr @alloc_f5ffd2fd1476bab43ad89fb40c72d0c5, [16 x i8] c"\0A\00\00\00\00\00\00\00&\01\00\00 \00\00\00" }>, align 8
@alloc_ea1c9dfc84c3ddf3353315fc7b235f50 = private unnamed_addr constant <{ ptr, [16 x i8] }> <{ ptr @alloc_f5ffd2fd1476bab43ad89fb40c72d0c5, [16 x i8] c"\0A\00\00\00\00\00\00\00'\01\00\00\16\00\00\00" }>, align 8
@alloc_cf94b133b09682a078963d67b40dd80c = private unnamed_addr constant <{ ptr, [16 x i8] }> <{ ptr @alloc_f5ffd2fd1476bab43ad89fb40c72d0c5, [16 x i8] c"\0A\00\00\00\00\00\00\00'\01\00\00\11\00\00\00" }>, align 8
@alloc_d0d0f233166f703dda956da58fbb849a = private unnamed_addr constant <{ ptr, [16 x i8] }> <{ ptr @alloc_f5ffd2fd1476bab43ad89fb40c72d0c5, [16 x i8] c"\0A\00\00\00\00\00\00\00\18\01\00\00\11\00\00\00" }>, align 8
@alloc_7a2979e9b69218d449d4f2b394c6ec22 = private unnamed_addr constant <{ ptr, [16 x i8] }> <{ ptr @alloc_f5ffd2fd1476bab43ad89fb40c72d0c5, [16 x i8] c"\0A\00\00\00\00\00\00\00\19\01\00\00\16\00\00\00" }>, align 8
@alloc_d0123decf96a46f7518b90fc90a277fa = private unnamed_addr constant <{ ptr, [16 x i8] }> <{ ptr @alloc_f5ffd2fd1476bab43ad89fb40c72d0c5, [16 x i8] c"\0A\00\00\00\00\00\00\00\19\01\00\00\11\00\00\00" }>, align 8
@alloc_3593a1c4003c2e88766c258aeb4ea2e5 = private unnamed_addr constant <{ ptr, [16 x i8] }> <{ ptr @alloc_f5ffd2fd1476bab43ad89fb40c72d0c5, [16 x i8] c"\0A\00\00\00\00\00\00\00\EF\00\00\00$\00\00\00" }>, align 8
@alloc_49fe5520d100f20affa52bb1b2f1d50f = private unnamed_addr constant <{ ptr, [16 x i8] }> <{ ptr @alloc_f5ffd2fd1476bab43ad89fb40c72d0c5, [16 x i8] c"\0A\00\00\00\00\00\00\00\F0\00\00\00\10\00\00\00" }>, align 8
@alloc_ecd40421ff2b1acd0679ce7fdb858a68 = private unnamed_addr constant <{ ptr, [16 x i8] }> <{ ptr @alloc_f5ffd2fd1476bab43ad89fb40c72d0c5, [16 x i8] c"\0A\00\00\00\00\00\00\00\F1\00\00\00\11\00\00\00" }>, align 8
@alloc_a4dda3de510a9971b0bd6c6613350285 = private unnamed_addr constant <{ ptr, [16 x i8] }> <{ ptr @alloc_f5ffd2fd1476bab43ad89fb40c72d0c5, [16 x i8] c"\0A\00\00\00\00\00\00\00\F2\00\00\00\11\00\00\00" }>, align 8
@alloc_619d775771ea48352a753164cdaa163f = private unnamed_addr constant <{ ptr, [16 x i8] }> <{ ptr @alloc_f5ffd2fd1476bab43ad89fb40c72d0c5, [16 x i8] c"\0A\00\00\00\00\00\00\00\F3\00\00\00\1F\00\00\00" }>, align 8
@alloc_52e3f41a96de26e6ec861d855adf09f2 = private unnamed_addr constant <{ ptr, [16 x i8] }> <{ ptr @alloc_f5ffd2fd1476bab43ad89fb40c72d0c5, [16 x i8] c"\0A\00\00\00\00\00\00\00\F4\00\00\00\15\00\00\00" }>, align 8
@alloc_635bf3fc96726e099a80039e212848cf = private unnamed_addr constant <{ ptr, [16 x i8] }> <{ ptr @alloc_f5ffd2fd1476bab43ad89fb40c72d0c5, [16 x i8] c"\0A\00\00\00\00\00\00\00\F6\00\00\00\10\00\00\00" }>, align 8
@alloc_3623ee22f72593c2dd69f1c84b77bb6c = private unnamed_addr constant <{ ptr, [16 x i8] }> <{ ptr @alloc_f5ffd2fd1476bab43ad89fb40c72d0c5, [16 x i8] c"\0A\00\00\00\00\00\00\00\F7\00\00\00\14\00\00\00" }>, align 8
@alloc_f40c090a555436ab6e008242d716e968 = private unnamed_addr constant <{ ptr, [16 x i8] }> <{ ptr @alloc_f5ffd2fd1476bab43ad89fb40c72d0c5, [16 x i8] c"\0A\00\00\00\00\00\00\00\FD\00\00\00\14\00\00\00" }>, align 8
@alloc_89aebd75d1aa99cfb904efa0011987ea = private unnamed_addr constant <{ ptr, [16 x i8] }> <{ ptr @alloc_f5ffd2fd1476bab43ad89fb40c72d0c5, [16 x i8] c"\0A\00\00\00\00\00\00\00\00\01\00\00\15\00\00\00" }>, align 8
@alloc_57f18331aa2209718cdac926adb38cac = private unnamed_addr constant <{ ptr, [16 x i8] }> <{ ptr @alloc_f5ffd2fd1476bab43ad89fb40c72d0c5, [16 x i8] c"\0A\00\00\00\00\00\00\00\01\01\00\00\15\00\00\00" }>, align 8
@alloc_a86e08aae562d0a06513a904bc2cab64 = private unnamed_addr constant <{ ptr, [16 x i8] }> <{ ptr @alloc_f5ffd2fd1476bab43ad89fb40c72d0c5, [16 x i8] c"\0A\00\00\00\00\00\00\00\03\01\00\00\19\00\00\00" }>, align 8
@alloc_549a99c2f628f9df1dfdeeeebb399e2c = private unnamed_addr constant <{ ptr, [16 x i8] }> <{ ptr @alloc_f5ffd2fd1476bab43ad89fb40c72d0c5, [16 x i8] c"\0A\00\00\00\00\00\00\00\05\01\00\00\1E\00\00\00" }>, align 8
@alloc_a3ebb71c8d0c342f00c6e2964443ae26 = private unnamed_addr constant <{ ptr, [16 x i8] }> <{ ptr @alloc_f5ffd2fd1476bab43ad89fb40c72d0c5, [16 x i8] c"\0A\00\00\00\00\00\00\00\05\01\00\00\11\00\00\00" }>, align 8
@alloc_ddb506a3381ea4f203f912c494df012c = private unnamed_addr constant <{ ptr, [16 x i8] }> <{ ptr @alloc_f5ffd2fd1476bab43ad89fb40c72d0c5, [16 x i8] c"\0A\00\00\00\00\00\00\00\06\01\00\00\11\00\00\00" }>, align 8
@alloc_0c88fe1342fa2331dba72e7b212bba66 = private unnamed_addr constant <{ ptr, [16 x i8] }> <{ ptr @alloc_f5ffd2fd1476bab43ad89fb40c72d0c5, [16 x i8] c"\0A\00\00\00\00\00\00\00\07\01\00\00\11\00\00\00" }>, align 8
@alloc_ed7a79fe1124a74e35ab436096b09da0 = private unnamed_addr constant <{ ptr, [16 x i8] }> <{ ptr @alloc_f5ffd2fd1476bab43ad89fb40c72d0c5, [16 x i8] c"\0A\00\00\00\00\00\00\00\08\01\00\00\1F\00\00\00" }>, align 8
@alloc_0d2952b273ea3db6d221e7d9479aeffc = private unnamed_addr constant <{ ptr, [16 x i8] }> <{ ptr @alloc_f5ffd2fd1476bab43ad89fb40c72d0c5, [16 x i8] c"\0A\00\00\00\00\00\00\00\09\01\00\00\16\00\00\00" }>, align 8
@alloc_80420f1cf7e491c764e4e5645c774add = private unnamed_addr constant <{ ptr, [16 x i8] }> <{ ptr @alloc_f5ffd2fd1476bab43ad89fb40c72d0c5, [16 x i8] c"\0A\00\00\00\00\00\00\00\09\01\00\00\11\00\00\00" }>, align 8
@alloc_b533e863bfec1d3ee81f5f458c508fb2 = private unnamed_addr constant <{ ptr, [16 x i8] }> <{ ptr @alloc_f5ffd2fd1476bab43ad89fb40c72d0c5, [16 x i8] c"\0A\00\00\00\00\00\00\00\FA\00\00\00\11\00\00\00" }>, align 8
@alloc_641c26f89c2ffe3b071af3206f80212c = private unnamed_addr constant <{ ptr, [16 x i8] }> <{ ptr @alloc_f5ffd2fd1476bab43ad89fb40c72d0c5, [16 x i8] c"\0A\00\00\00\00\00\00\00\FB\00\00\00\16\00\00\00" }>, align 8
@alloc_1801bb14a1a906b584d209644d8d303e = private unnamed_addr constant <{ ptr, [16 x i8] }> <{ ptr @alloc_f5ffd2fd1476bab43ad89fb40c72d0c5, [16 x i8] c"\0A\00\00\00\00\00\00\00\FB\00\00\00\11\00\00\00" }>, align 8
@alloc_1ea0a7c215ab9e5e08f0f989b76430a0 = private unnamed_addr constant <{ ptr, [16 x i8] }> <{ ptr @alloc_f5ffd2fd1476bab43ad89fb40c72d0c5, [16 x i8] c"\0A\00\00\00\00\00\00\003\01\00\00\08\00\00\00" }>, align 8
@alloc_0bd12465e50074697eb41720ef35174e = private unnamed_addr constant <{ ptr, [16 x i8] }> <{ ptr @alloc_f5ffd2fd1476bab43ad89fb40c72d0c5, [16 x i8] c"\0A\00\00\00\00\00\00\005\01\00\00\0F\00\00\00" }>, align 8
@alloc_782a6bdb31288446f18546bb6f2f15a3 = private unnamed_addr constant <{ ptr, [16 x i8] }> <{ ptr @alloc_f5ffd2fd1476bab43ad89fb40c72d0c5, [16 x i8] c"\0A\00\00\00\00\00\00\005\01\00\00\15\00\00\00" }>, align 8
@alloc_dd6b23cbebbec0172d3c91655fdb0a77 = private unnamed_addr constant <{ ptr, [16 x i8] }> <{ ptr @alloc_f5ffd2fd1476bab43ad89fb40c72d0c5, [16 x i8] c"\0A\00\00\00\00\00\00\008\01\00\00!\00\00\00" }>, align 8
@alloc_b366037c626a67f23180eb3998ad2975 = private unnamed_addr constant <{ ptr, [16 x i8] }> <{ ptr @alloc_f5ffd2fd1476bab43ad89fb40c72d0c5, [16 x i8] c"\0A\00\00\00\00\00\00\008\01\00\00\09\00\00\00" }>, align 8
@alloc_37f0640e17eb6607d481e5a5cb442f1c = private unnamed_addr constant <{ ptr, [16 x i8] }> <{ ptr @alloc_f5ffd2fd1476bab43ad89fb40c72d0c5, [16 x i8] c"\0A\00\00\00\00\00\00\006\01\00\00 \00\00\00" }>, align 8
@alloc_a60f4cf93c435b3d9031f2b1ae005441 = private unnamed_addr constant <{ ptr, [16 x i8] }> <{ ptr @alloc_f5ffd2fd1476bab43ad89fb40c72d0c5, [16 x i8] c"\0A\00\00\00\00\00\00\006\01\00\00\09\00\00\00" }>, align 8
@alloc_161bd691229bc635d599b17c19487711 = private unnamed_addr constant <{ ptr, [16 x i8] }> <{ ptr @alloc_f5ffd2fd1476bab43ad89fb40c72d0c5, [16 x i8] c"\0A\00\00\00\00\00\00\004\01\00\00\0E\00\00\00" }>, align 8
@alloc_ab27577db0b92f1799c7f2d95fba37c8 = private unnamed_addr constant <{ ptr, [16 x i8] }> <{ ptr @alloc_f5ffd2fd1476bab43ad89fb40c72d0c5, [16 x i8] c"\0A\00\00\00\00\00\00\004\01\00\00\09\00\00\00" }>, align 8
@alloc_1c9d252eaa1637099e72a59ed9e07ab9 = private unnamed_addr constant <{ ptr, [16 x i8] }> <{ ptr @alloc_f5ffd2fd1476bab43ad89fb40c72d0c5, [16 x i8] c"\0A\00\00\00\00\00\00\00:\01\00\00\09\00\00\00" }>, align 8
@alloc_8b714e87e6145f4d1381fdd6425899f9 = private unnamed_addr constant <{ ptr, [16 x i8] }> <{ ptr @alloc_f5ffd2fd1476bab43ad89fb40c72d0c5, [16 x i8] c"\0A\00\00\00\00\00\00\00;\01\00\00\18\00\00\00" }>, align 8
@alloc_8ab9ac0e2c4660e622db792a26a70664 = private unnamed_addr constant <{ ptr, [16 x i8] }> <{ ptr @alloc_f5ffd2fd1476bab43ad89fb40c72d0c5, [16 x i8] c"\0A\00\00\00\00\00\00\00;\01\00\00\09\00\00\00" }>, align 8
@alloc_a2c48c3dc6cc9240ccf24fe77087c483 = private unnamed_addr constant <{ ptr, [16 x i8] }> <{ ptr @alloc_f5ffd2fd1476bab43ad89fb40c72d0c5, [16 x i8] c"\0A\00\00\00\00\00\00\00B\01\00\00\0B\00\00\00" }>, align 8
@alloc_51bb9336472afd01d1dc24fa30bb260b = private unnamed_addr constant <{ ptr, [16 x i8] }> <{ ptr @alloc_f5ffd2fd1476bab43ad89fb40c72d0c5, [16 x i8] c"\0A\00\00\00\00\00\00\00D\01\00\00\08\00\00\00" }>, align 8
@alloc_ca67269a60caf9383ff40b81c3741fcc = private unnamed_addr constant <{ ptr, [16 x i8] }> <{ ptr @alloc_f5ffd2fd1476bab43ad89fb40c72d0c5, [16 x i8] c"\0A\00\00\00\00\00\00\00G\01\00\00\0F\00\00\00" }>, align 8
@alloc_b736888bab8b81efe255ca44dd7d15c5 = private unnamed_addr constant <{ ptr, [16 x i8] }> <{ ptr @alloc_f5ffd2fd1476bab43ad89fb40c72d0c5, [16 x i8] c"\0A\00\00\00\00\00\00\00K\01\00\00\1A\00\00\00" }>, align 8
@alloc_024e37cbab32b126644a89d4f7640758 = private unnamed_addr constant <{ ptr, [16 x i8] }> <{ ptr @alloc_f5ffd2fd1476bab43ad89fb40c72d0c5, [16 x i8] c"\0A\00\00\00\00\00\00\00L\01\00\00\0F\00\00\00" }>, align 8
@alloc_5f1a673da9ab2e9352e4854dbb414a52 = private unnamed_addr constant <{ ptr, [16 x i8] }> <{ ptr @alloc_f5ffd2fd1476bab43ad89fb40c72d0c5, [16 x i8] c"\0A\00\00\00\00\00\00\00M\01\00\00\0D\00\00\00" }>, align 8
@alloc_fda0360ceca7f059d0c9b5e5e923c65b = private unnamed_addr constant <{ ptr, [16 x i8] }> <{ ptr @alloc_f5ffd2fd1476bab43ad89fb40c72d0c5, [16 x i8] c"\0A\00\00\00\00\00\00\00N\01\00\00\0C\00\00\00" }>, align 8
@alloc_ec38601e62e9ac26fe279fde18d5acfb = private unnamed_addr constant <{ ptr, [16 x i8] }> <{ ptr @alloc_f5ffd2fd1476bab43ad89fb40c72d0c5, [16 x i8] c"\0A\00\00\00\00\00\00\00Q\01\00\00*\00\00\00" }>, align 8
@alloc_81e08b0da818b206dcab52134d3127f0 = private unnamed_addr constant <{ ptr, [16 x i8] }> <{ ptr @alloc_f5ffd2fd1476bab43ad89fb40c72d0c5, [16 x i8] c"\0A\00\00\00\00\00\00\00R\01\00\00\1A\00\00\00" }>, align 8
@alloc_3c2f46fc8e0b06ab3e520eadeae902df = private unnamed_addr constant <{ ptr, [16 x i8] }> <{ ptr @alloc_f5ffd2fd1476bab43ad89fb40c72d0c5, [16 x i8] c"\0A\00\00\00\00\00\00\00R\01\00\00\0D\00\00\00" }>, align 8
@alloc_2238b3aace06bd7ff981a3b397946e26 = private unnamed_addr constant <{ ptr, [16 x i8] }> <{ ptr @alloc_f5ffd2fd1476bab43ad89fb40c72d0c5, [16 x i8] c"\0A\00\00\00\00\00\00\00S\01\00\00\0D\00\00\00" }>, align 8
@alloc_20ce1dfb6b22ea869a7e24a420a30560 = private unnamed_addr constant <{ ptr, [16 x i8] }> <{ ptr @alloc_f5ffd2fd1476bab43ad89fb40c72d0c5, [16 x i8] c"\0A\00\00\00\00\00\00\00O\01\00\00\0D\00\00\00" }>, align 8
@alloc_53b68ee39c9dffe22c76ece80b84da84 = private unnamed_addr constant <{ ptr, [16 x i8] }> <{ ptr @alloc_f5ffd2fd1476bab43ad89fb40c72d0c5, [16 x i8] c"\0A\00\00\00\00\00\00\00V\01\00\00\15\00\00\00" }>, align 8
@alloc_fbf550985e20bdfac374b8aaf6fa8853 = private unnamed_addr constant <{ ptr, [16 x i8] }> <{ ptr @alloc_f5ffd2fd1476bab43ad89fb40c72d0c5, [16 x i8] c"\0A\00\00\00\00\00\00\00V\01\00\00\09\00\00\00" }>, align 8
@alloc_704d15256b5740d3fc0d95d75b2accd0 = private unnamed_addr constant <{ ptr, [16 x i8] }> <{ ptr @alloc_f5ffd2fd1476bab43ad89fb40c72d0c5, [16 x i8] c"\0A\00\00\00\00\00\00\00W\01\00\00\09\00\00\00" }>, align 8
@alloc_308dca1ecad174917a47ceed2da48988 = private unnamed_addr constant <{ ptr, [16 x i8] }> <{ ptr @alloc_f5ffd2fd1476bab43ad89fb40c72d0c5, [16 x i8] c"\0A\00\00\00\00\00\00\00X\01\00\00\16\00\00\00" }>, align 8
@alloc_2869d59b49def76305f5f87baf9db5bc = private unnamed_addr constant <{ ptr, [16 x i8] }> <{ ptr @alloc_f5ffd2fd1476bab43ad89fb40c72d0c5, [16 x i8] c"\0A\00\00\00\00\00\00\00X\01\00\00\09\00\00\00" }>, align 8
@alloc_fd2c88d52f363490f8b2c8794fefcb3a = private unnamed_addr constant <{ ptr, [16 x i8] }> <{ ptr @alloc_f5ffd2fd1476bab43ad89fb40c72d0c5, [16 x i8] c"\0A\00\00\00\00\00\00\00H\01\00\00\0D\00\00\00" }>, align 8
@alloc_3d2148f7dbfafd09399654c09b6fc1a8 = private unnamed_addr constant <{ ptr, [16 x i8] }> <{ ptr @alloc_f5ffd2fd1476bab43ad89fb40c72d0c5, [16 x i8] c"\0A\00\00\00\00\00\00\00I\01\00\00&\00\00\00" }>, align 8
@alloc_e5e9650856cf0bb8359e5f24df85a5cf = private unnamed_addr constant <{ ptr, [16 x i8] }> <{ ptr @alloc_f5ffd2fd1476bab43ad89fb40c72d0c5, [16 x i8] c"\0A\00\00\00\00\00\00\00E\01\00\00\0D\00\00\00" }>, align 8
@alloc_ac593d72d38a7195e5902f28ca548ff2 = private unnamed_addr constant <{ ptr, [16 x i8] }> <{ ptr @alloc_f5ffd2fd1476bab43ad89fb40c72d0c5, [16 x i8] c"\0A\00\00\00\00\00\00\00F\01\00\00&\00\00\00" }>, align 8
@alloc_3e386ae81ec25fcf1d8234a2cff56277 = private unnamed_addr constant <{ ptr, [16 x i8] }> <{ ptr @alloc_f5ffd2fd1476bab43ad89fb40c72d0c5, [16 x i8] c"\0A\00\00\00\00\00\00\00d\01\00\00\1A\00\00\00" }>, align 8
@alloc_3f1d8d6b7fe9860891a8a32c792d93ee = private unnamed_addr constant <{ ptr, [16 x i8] }> <{ ptr @alloc_f5ffd2fd1476bab43ad89fb40c72d0c5, [16 x i8] c"\0A\00\00\00\00\00\00\00g\01\00\00\08\00\00\00" }>, align 8
@alloc_da41ab801278aad49dcd88ca2005b71b = private unnamed_addr constant <{ ptr, [16 x i8] }> <{ ptr @alloc_f5ffd2fd1476bab43ad89fb40c72d0c5, [16 x i8] c"\0A\00\00\00\00\00\00\00j\01\00\00\1B\00\00\00" }>, align 8
@alloc_8162d2188e8bd6b152c74c768dad4db8 = private unnamed_addr constant <{ ptr, [16 x i8] }> <{ ptr @alloc_f5ffd2fd1476bab43ad89fb40c72d0c5, [16 x i8] c"\0A\00\00\00\00\00\00\00h\01\00\00\1B\00\00\00" }>, align 8

; core::ptr::mut_ptr::<impl *mut T>::is_null
; Function Attrs: inlinehint nounwind nonlazybind
define internal zeroext i1 @"_ZN4core3ptr7mut_ptr31_$LT$impl$u20$$BP$mut$u20$T$GT$7is_null17h412703ffb2fe9dc0E"(ptr %self) unnamed_addr #0 {
start:
  %_3 = ptrtoint ptr %self to i64
  %_0 = icmp eq i64 %_3, 0
  ret i1 %_0
}

; core::ptr::mut_ptr::<impl *mut T>::is_null
; Function Attrs: inlinehint nounwind nonlazybind
define internal zeroext i1 @"_ZN4core3ptr7mut_ptr31_$LT$impl$u20$$BP$mut$u20$T$GT$7is_null17hba102ab5ab994ccdE"(ptr %self) unnamed_addr #0 {
start:
  %_3 = ptrtoint ptr %self to i64
  %_0 = icmp eq i64 %_3, 0
  ret i1 %_0
}

; Function Attrs: nounwind nonlazybind
define ptr @pfront() unnamed_addr #1 {
start:
  %data = alloca [8 x i8], align 8
  store ptr null, ptr %data, align 8
  %_4 = load ptr, ptr @front, align 8
  %_6 = ptrtoint ptr %_4 to i64
  %_9 = and i64 %_6, 7
  %_10 = icmp eq i64 %_9, 0
  br i1 %_10, label %bb1, label %panic

bb1:                                              ; preds = %start
  %_12 = ptrtoint ptr %_4 to i64
  %_15 = icmp eq i64 %_12, 0
  %_16 = and i1 %_15, true
  %_17 = xor i1 %_16, true
  br i1 %_17, label %bb2, label %panic1

panic:                                            ; preds = %start
; call core::panicking::panic_misaligned_pointer_dereference
  call void @_ZN4core9panicking36panic_misaligned_pointer_dereference17hcc3cbded9382b6e5E(i64 8, i64 %_6, ptr align 8 @alloc_c03111fb1084f7d48c4a037ef39fe2c8) #3
  unreachable

bb2:                                              ; preds = %bb1
  %_2 = load ptr, ptr %_4, align 8
  store ptr %_2, ptr %data, align 8
  %_0 = load ptr, ptr %data, align 8
  ret ptr %_0

panic1:                                           ; preds = %bb1
; call core::panicking::panic_null_pointer_dereference
  call void @_ZN4core9panicking30panic_null_pointer_dereference17hf718fcc86a223baaE(ptr align 8 @alloc_c03111fb1084f7d48c4a037ef39fe2c8) #3
  unreachable
}

; Function Attrs: nounwind nonlazybind
define i32 @isempty() unnamed_addr #1 {
start:
  %_0 = alloca [4 x i8], align 4
  %_14 = icmp eq i64 ptrtoint (ptr @front to i64), 0
  %_15 = and i1 %_14, true
  %_16 = xor i1 %_15, true
  br i1 %_16, label %bb6, label %panic

bb6:                                              ; preds = %start
  %_2 = load ptr, ptr @front, align 8
; call core::ptr::mut_ptr::<impl *mut T>::is_null
  %_1 = call zeroext i1 @"_ZN4core3ptr7mut_ptr31_$LT$impl$u20$$BP$mut$u20$T$GT$7is_null17hba102ab5ab994ccdE"(ptr %_2) #4
  br i1 %_1, label %bb2, label %bb3

panic:                                            ; preds = %start
; call core::panicking::panic_null_pointer_dereference
  call void @_ZN4core9panicking30panic_null_pointer_dereference17hf718fcc86a223baaE(ptr align 8 @alloc_9b949086b8178161ba15f87d1b5d1e76) #3
  unreachable

bb3:                                              ; preds = %bb6
  store i32 0, ptr %_0, align 4
  br label %bb4

bb2:                                              ; preds = %bb6
  store i32 1, ptr %_0, align 4
  br label %bb4

bb4:                                              ; preds = %bb2, %bb3
  %0 = load i32, ptr %_0, align 4
  ret i32 %0
}

; Function Attrs: nounwind nonlazybind
define void @dequeue() unnamed_addr #1 {
start:
  %_1 = call i32 @isempty() #4
  %0 = icmp eq i32 %_1, 0
  br i1 %0, label %bb2, label %bb3

bb2:                                              ; preds = %start
  %_32 = icmp eq i64 ptrtoint (ptr @front to i64), 0
  %_33 = and i1 %_32, true
  %_34 = xor i1 %_33, true
  br i1 %_34, label %bb7, label %panic

bb3:                                              ; preds = %bb9, %start
  ret void

bb7:                                              ; preds = %bb2
  %temp = load ptr, ptr @front, align 8
  %_9 = load ptr, ptr @front, align 8
  %_17 = ptrtoint ptr %_9 to i64
  %_20 = and i64 %_17, 7
  %_21 = icmp eq i64 %_20, 0
  br i1 %_21, label %bb5, label %panic1

panic:                                            ; preds = %bb2
; call core::panicking::panic_null_pointer_dereference
  call void @_ZN4core9panicking30panic_null_pointer_dereference17hf718fcc86a223baaE(ptr align 8 @alloc_d33e3087acb03b27049f061ddb04bf9b) #3
  unreachable

bb5:                                              ; preds = %bb7
  %_36 = ptrtoint ptr %_9 to i64
  %_39 = icmp eq i64 %_36, 0
  %_40 = and i1 %_39, true
  %_41 = xor i1 %_40, true
  br i1 %_41, label %bb8, label %panic2

panic1:                                           ; preds = %bb7
; call core::panicking::panic_misaligned_pointer_dereference
  call void @_ZN4core9panicking36panic_misaligned_pointer_dereference17hcc3cbded9382b6e5E(i64 8, i64 %_17, ptr align 8 @alloc_143b2744d111380641628c34d59209bd) #3
  unreachable

bb8:                                              ; preds = %bb5
  %1 = getelementptr inbounds i8, ptr %_9, i64 8
  %_4 = load ptr, ptr %1, align 8
  %_46 = icmp eq i64 ptrtoint (ptr @front to i64), 0
  %_47 = and i1 %_46, true
  %_48 = xor i1 %_47, true
  br i1 %_48, label %bb9, label %panic3

panic2:                                           ; preds = %bb5
; call core::panicking::panic_null_pointer_dereference
  call void @_ZN4core9panicking30panic_null_pointer_dereference17hf718fcc86a223baaE(ptr align 8 @alloc_143b2744d111380641628c34d59209bd) #3
  unreachable

bb9:                                              ; preds = %bb8
  store ptr %_4, ptr @front, align 8
  call void @free(ptr %temp) #4
  br label %bb3

panic3:                                           ; preds = %bb8
; call core::panicking::panic_null_pointer_dereference
  call void @_ZN4core9panicking30panic_null_pointer_dereference17hf718fcc86a223baaE(ptr align 8 @alloc_5084ab4427ad12819a58c085604b37aa) #3
  unreachable
}

; Function Attrs: nounwind nonlazybind
define void @enqueue(ptr %data) unnamed_addr #1 {
start:
  %_3 = call ptr @malloc(i64 16) #4
  %_68 = ptrtoint ptr %_3 to i64
  %_71 = and i64 %_68, 7
  %_72 = icmp eq i64 %_71, 0
  br i1 %_72, label %bb17, label %panic

bb17:                                             ; preds = %start
  %_74 = ptrtoint ptr %_3 to i64
  %_77 = icmp eq i64 %_74, 0
  %_78 = and i1 %_77, true
  %_79 = xor i1 %_78, true
  br i1 %_79, label %bb18, label %panic1

panic:                                            ; preds = %start
; call core::panicking::panic_misaligned_pointer_dereference
  call void @_ZN4core9panicking36panic_misaligned_pointer_dereference17hcc3cbded9382b6e5E(i64 8, i64 %_68, ptr align 8 @alloc_f79f06b2094faf19c3841bf93ed5c883) #3
  unreachable

bb18:                                             ; preds = %bb17
  store ptr %data, ptr %_3, align 8
  %_62 = ptrtoint ptr %_3 to i64
  %_65 = and i64 %_62, 7
  %_66 = icmp eq i64 %_65, 0
  br i1 %_66, label %bb16, label %panic2

panic1:                                           ; preds = %bb17
; call core::panicking::panic_null_pointer_dereference
  call void @_ZN4core9panicking30panic_null_pointer_dereference17hf718fcc86a223baaE(ptr align 8 @alloc_f79f06b2094faf19c3841bf93ed5c883) #3
  unreachable

bb16:                                             ; preds = %bb18
  %_81 = ptrtoint ptr %_3 to i64
  %_84 = icmp eq i64 %_81, 0
  %_85 = and i1 %_84, true
  %_86 = xor i1 %_85, true
  br i1 %_86, label %bb19, label %panic3

panic2:                                           ; preds = %bb18
; call core::panicking::panic_misaligned_pointer_dereference
  call void @_ZN4core9panicking36panic_misaligned_pointer_dereference17hcc3cbded9382b6e5E(i64 8, i64 %_62, ptr align 8 @alloc_96a87398f608eaadfe7d76b8a4863991) #3
  unreachable

bb19:                                             ; preds = %bb16
  %0 = getelementptr inbounds i8, ptr %_3, i64 8
  store ptr null, ptr %0, align 8
  %_91 = icmp eq i64 ptrtoint (ptr @front to i64), 0
  %_92 = and i1 %_91, true
  %_93 = xor i1 %_92, true
  br i1 %_93, label %bb20, label %panic4

panic3:                                           ; preds = %bb16
; call core::panicking::panic_null_pointer_dereference
  call void @_ZN4core9panicking30panic_null_pointer_dereference17hf718fcc86a223baaE(ptr align 8 @alloc_96a87398f608eaadfe7d76b8a4863991) #3
  unreachable

bb20:                                             ; preds = %bb19
  %_7 = load ptr, ptr @front, align 8
; call core::ptr::mut_ptr::<impl *mut T>::is_null
  %_6 = call zeroext i1 @"_ZN4core3ptr7mut_ptr31_$LT$impl$u20$$BP$mut$u20$T$GT$7is_null17hba102ab5ab994ccdE"(ptr %_7) #4
  br i1 %_6, label %bb4, label %bb7

panic4:                                           ; preds = %bb19
; call core::panicking::panic_null_pointer_dereference
  call void @_ZN4core9panicking30panic_null_pointer_dereference17hf718fcc86a223baaE(ptr align 8 @alloc_8fb33a791464e754b1155f2b1b195b49) #3
  unreachable

bb7:                                              ; preds = %bb21, %bb20
  %_18 = load ptr, ptr @rear, align 8
  %_26 = ptrtoint ptr %_18 to i64
  %_29 = and i64 %_26, 7
  %_30 = icmp eq i64 %_29, 0
  br i1 %_30, label %bb10, label %panic6

bb4:                                              ; preds = %bb20
  %_98 = icmp eq i64 ptrtoint (ptr @rear to i64), 0
  %_99 = and i1 %_98, true
  %_100 = xor i1 %_99, true
  br i1 %_100, label %bb21, label %panic5

bb21:                                             ; preds = %bb4
  %_10 = load ptr, ptr @rear, align 8
; call core::ptr::mut_ptr::<impl *mut T>::is_null
  %_9 = call zeroext i1 @"_ZN4core3ptr7mut_ptr31_$LT$impl$u20$$BP$mut$u20$T$GT$7is_null17hba102ab5ab994ccdE"(ptr %_10) #4
  br i1 %_9, label %bb6, label %bb7

panic5:                                           ; preds = %bb4
; call core::panicking::panic_null_pointer_dereference
  call void @_ZN4core9panicking30panic_null_pointer_dereference17hf718fcc86a223baaE(ptr align 8 @alloc_a5e364c6422846062dd61a62d82c2a4b) #3
  unreachable

bb6:                                              ; preds = %bb21
  %_105 = icmp eq i64 ptrtoint (ptr @rear to i64), 0
  %_106 = and i1 %_105, true
  %_107 = xor i1 %_106, true
  br i1 %_107, label %bb22, label %panic9

bb10:                                             ; preds = %bb7
  %_123 = ptrtoint ptr %_18 to i64
  %_126 = icmp eq i64 %_123, 0
  %_127 = and i1 %_126, true
  %_128 = xor i1 %_127, true
  br i1 %_128, label %bb25, label %panic7

panic6:                                           ; preds = %bb7
; call core::panicking::panic_misaligned_pointer_dereference
  call void @_ZN4core9panicking36panic_misaligned_pointer_dereference17hcc3cbded9382b6e5E(i64 8, i64 %_26, ptr align 8 @alloc_2efa6fb076c65f88b785c700efd47dae) #3
  unreachable

bb25:                                             ; preds = %bb10
  %1 = getelementptr inbounds i8, ptr %_18, i64 8
  store ptr %_3, ptr %1, align 8
  %_133 = icmp eq i64 ptrtoint (ptr @rear to i64), 0
  %_134 = and i1 %_133, true
  %_135 = xor i1 %_134, true
  br i1 %_135, label %bb26, label %panic8

panic7:                                           ; preds = %bb10
; call core::panicking::panic_null_pointer_dereference
  call void @_ZN4core9panicking30panic_null_pointer_dereference17hf718fcc86a223baaE(ptr align 8 @alloc_2efa6fb076c65f88b785c700efd47dae) #3
  unreachable

bb26:                                             ; preds = %bb25
  store ptr %_3, ptr @rear, align 8
  br label %bb8

panic8:                                           ; preds = %bb25
; call core::panicking::panic_null_pointer_dereference
  call void @_ZN4core9panicking30panic_null_pointer_dereference17hf718fcc86a223baaE(ptr align 8 @alloc_1ed964aab6d6c3d3f78f16bf85f3fad7) #3
  unreachable

bb8:                                              ; preds = %bb24, %bb26
  ret void

bb22:                                             ; preds = %bb6
  store ptr %_3, ptr @rear, align 8
  %_112 = icmp eq i64 ptrtoint (ptr @rear to i64), 0
  %_113 = and i1 %_112, true
  %_114 = xor i1 %_113, true
  br i1 %_114, label %bb23, label %panic10

panic9:                                           ; preds = %bb6
; call core::panicking::panic_null_pointer_dereference
  call void @_ZN4core9panicking30panic_null_pointer_dereference17hf718fcc86a223baaE(ptr align 8 @alloc_728aa173be55b60e2d7bc38148f90be4) #3
  unreachable

bb23:                                             ; preds = %bb22
  %_13 = load ptr, ptr @rear, align 8
  %_119 = icmp eq i64 ptrtoint (ptr @front to i64), 0
  %_120 = and i1 %_119, true
  %_121 = xor i1 %_120, true
  br i1 %_121, label %bb24, label %panic11

panic10:                                          ; preds = %bb22
; call core::panicking::panic_null_pointer_dereference
  call void @_ZN4core9panicking30panic_null_pointer_dereference17hf718fcc86a223baaE(ptr align 8 @alloc_03a53814ce24d181d7bd139972a515ae) #3
  unreachable

bb24:                                             ; preds = %bb23
  store ptr %_13, ptr @front, align 8
  br label %bb8

panic11:                                          ; preds = %bb23
; call core::panicking::panic_null_pointer_dereference
  call void @_ZN4core9panicking30panic_null_pointer_dereference17hf718fcc86a223baaE(ptr align 8 @alloc_4004ba243031fd1d73000d22f195907d) #3
  unreachable
}

; Function Attrs: nounwind nonlazybind
define void @levelorder(ptr %root) unnamed_addr #1 {
start:
; call core::ptr::mut_ptr::<impl *mut T>::is_null
  %_2 = call zeroext i1 @"_ZN4core3ptr7mut_ptr31_$LT$impl$u20$$BP$mut$u20$T$GT$7is_null17h412703ffb2fe9dc0E"(ptr %root) #4
  br i1 %_2, label %bb14, label %bb2

bb2:                                              ; preds = %start
  call void @enqueue(ptr %root) #4
  br label %bb3

bb14:                                             ; preds = %bb3, %start
  ret void

bb3:                                              ; preds = %bb13, %bb2
  %_4 = call i32 @isempty() #4
  %0 = icmp eq i32 %_4, 0
  br i1 %0, label %bb5, label %bb14

bb5:                                              ; preds = %bb3
  %current = call ptr @pfront() #4
  %_46 = ptrtoint ptr %current to i64
  %_49 = and i64 %_46, 7
  %_50 = icmp eq i64 %_49, 0
  br i1 %_50, label %bb19, label %panic

bb19:                                             ; preds = %bb5
  %_52 = ptrtoint ptr %current to i64
  %_55 = icmp eq i64 %_52, 0
  %_56 = and i1 %_55, true
  %_57 = xor i1 %_56, true
  br i1 %_57, label %bb20, label %panic1

panic:                                            ; preds = %bb5
; call core::panicking::panic_misaligned_pointer_dereference
  call void @_ZN4core9panicking36panic_misaligned_pointer_dereference17hcc3cbded9382b6e5E(i64 8, i64 %_46, ptr align 8 @alloc_4405fcd11432a1c3578938f5cfe501f3) #3
  unreachable

bb20:                                             ; preds = %bb19
  %_11 = load i32, ptr %current, align 8
  %_6 = call i32 (ptr, ...) @printf(ptr @alloc_b929c71616281bfd1be2bd4038d3ddf1, i32 %_11) #4
  %_40 = ptrtoint ptr %current to i64
  %_43 = and i64 %_40, 7
  %_44 = icmp eq i64 %_43, 0
  br i1 %_44, label %bb18, label %panic2

panic1:                                           ; preds = %bb19
; call core::panicking::panic_null_pointer_dereference
  call void @_ZN4core9panicking30panic_null_pointer_dereference17hf718fcc86a223baaE(ptr align 8 @alloc_4405fcd11432a1c3578938f5cfe501f3) #3
  unreachable

bb18:                                             ; preds = %bb20
  %_59 = ptrtoint ptr %current to i64
  %_62 = icmp eq i64 %_59, 0
  %_63 = and i1 %_62, true
  %_64 = xor i1 %_63, true
  br i1 %_64, label %bb21, label %panic3

panic2:                                           ; preds = %bb20
; call core::panicking::panic_misaligned_pointer_dereference
  call void @_ZN4core9panicking36panic_misaligned_pointer_dereference17hcc3cbded9382b6e5E(i64 8, i64 %_40, ptr align 8 @alloc_69218069a85f5e42747945cb32a88f84) #3
  unreachable

bb21:                                             ; preds = %bb18
  %1 = getelementptr inbounds i8, ptr %current, i64 8
  %_13 = load ptr, ptr %1, align 8
; call core::ptr::mut_ptr::<impl *mut T>::is_null
  %_12 = call zeroext i1 @"_ZN4core3ptr7mut_ptr31_$LT$impl$u20$$BP$mut$u20$T$GT$7is_null17h412703ffb2fe9dc0E"(ptr %_13) #4
  br i1 %_12, label %bb10, label %bb9

panic3:                                           ; preds = %bb18
; call core::panicking::panic_null_pointer_dereference
  call void @_ZN4core9panicking30panic_null_pointer_dereference17hf718fcc86a223baaE(ptr align 8 @alloc_69218069a85f5e42747945cb32a88f84) #3
  unreachable

bb9:                                              ; preds = %bb21
  %_34 = ptrtoint ptr %current to i64
  %_37 = and i64 %_34, 7
  %_38 = icmp eq i64 %_37, 0
  br i1 %_38, label %bb17, label %panic4

bb10:                                             ; preds = %bb22, %bb21
  %_28 = ptrtoint ptr %current to i64
  %_31 = and i64 %_28, 7
  %_32 = icmp eq i64 %_31, 0
  br i1 %_32, label %bb16, label %panic6

bb17:                                             ; preds = %bb9
  %_66 = ptrtoint ptr %current to i64
  %_69 = icmp eq i64 %_66, 0
  %_70 = and i1 %_69, true
  %_71 = xor i1 %_70, true
  br i1 %_71, label %bb22, label %panic5

panic4:                                           ; preds = %bb9
; call core::panicking::panic_misaligned_pointer_dereference
  call void @_ZN4core9panicking36panic_misaligned_pointer_dereference17hcc3cbded9382b6e5E(i64 8, i64 %_34, ptr align 8 @alloc_6d3d965ec1461b5b11792ddf7f1fee7b) #3
  unreachable

bb22:                                             ; preds = %bb17
  %2 = getelementptr inbounds i8, ptr %current, i64 8
  %_15 = load ptr, ptr %2, align 8
  call void @enqueue(ptr %_15) #4
  br label %bb10

panic5:                                           ; preds = %bb17
; call core::panicking::panic_null_pointer_dereference
  call void @_ZN4core9panicking30panic_null_pointer_dereference17hf718fcc86a223baaE(ptr align 8 @alloc_6d3d965ec1461b5b11792ddf7f1fee7b) #3
  unreachable

bb16:                                             ; preds = %bb10
  %_73 = ptrtoint ptr %current to i64
  %_76 = icmp eq i64 %_73, 0
  %_77 = and i1 %_76, true
  %_78 = xor i1 %_77, true
  br i1 %_78, label %bb23, label %panic7

panic6:                                           ; preds = %bb10
; call core::panicking::panic_misaligned_pointer_dereference
  call void @_ZN4core9panicking36panic_misaligned_pointer_dereference17hcc3cbded9382b6e5E(i64 8, i64 %_28, ptr align 8 @alloc_c64bddf0b2fab2ccbb763e675481782f) #3
  unreachable

bb23:                                             ; preds = %bb16
  %3 = getelementptr inbounds i8, ptr %current, i64 16
  %_17 = load ptr, ptr %3, align 8
; call core::ptr::mut_ptr::<impl *mut T>::is_null
  %_16 = call zeroext i1 @"_ZN4core3ptr7mut_ptr31_$LT$impl$u20$$BP$mut$u20$T$GT$7is_null17h412703ffb2fe9dc0E"(ptr %_17) #4
  br i1 %_16, label %bb13, label %bb12

panic7:                                           ; preds = %bb16
; call core::panicking::panic_null_pointer_dereference
  call void @_ZN4core9panicking30panic_null_pointer_dereference17hf718fcc86a223baaE(ptr align 8 @alloc_c64bddf0b2fab2ccbb763e675481782f) #3
  unreachable

bb12:                                             ; preds = %bb23
  %_22 = ptrtoint ptr %current to i64
  %_25 = and i64 %_22, 7
  %_26 = icmp eq i64 %_25, 0
  br i1 %_26, label %bb15, label %panic8

bb13:                                             ; preds = %bb24, %bb23
  call void @dequeue() #4
  br label %bb3

bb15:                                             ; preds = %bb12
  %_80 = ptrtoint ptr %current to i64
  %_83 = icmp eq i64 %_80, 0
  %_84 = and i1 %_83, true
  %_85 = xor i1 %_84, true
  br i1 %_85, label %bb24, label %panic9

panic8:                                           ; preds = %bb12
; call core::panicking::panic_misaligned_pointer_dereference
  call void @_ZN4core9panicking36panic_misaligned_pointer_dereference17hcc3cbded9382b6e5E(i64 8, i64 %_22, ptr align 8 @alloc_b5929664aa8fbadde79130ce8fafbeb9) #3
  unreachable

bb24:                                             ; preds = %bb15
  %4 = getelementptr inbounds i8, ptr %current, i64 16
  %_19 = load ptr, ptr %4, align 8
  call void @enqueue(ptr %_19) #4
  br label %bb13

panic9:                                           ; preds = %bb15
; call core::panicking::panic_null_pointer_dereference
  call void @_ZN4core9panicking30panic_null_pointer_dereference17hf718fcc86a223baaE(ptr align 8 @alloc_b5929664aa8fbadde79130ce8fafbeb9) #3
  unreachable
}

; Function Attrs: nounwind nonlazybind
define void @LeftRotate(ptr %T, ptr %x) unnamed_addr #1 {
start:
  %_15 = load ptr, ptr %x, align 8
  %_124 = ptrtoint ptr %_15 to i64
  %_127 = and i64 %_124, 7
  %_128 = icmp eq i64 %_127, 0
  br i1 %_128, label %bb26, label %panic

bb26:                                             ; preds = %start
  %_130 = ptrtoint ptr %_15 to i64
  %_133 = icmp eq i64 %_130, 0
  %_134 = and i1 %_133, true
  %_135 = xor i1 %_134, true
  br i1 %_135, label %bb27, label %panic1

panic:                                            ; preds = %start
; call core::panicking::panic_misaligned_pointer_dereference
  call void @_ZN4core9panicking36panic_misaligned_pointer_dereference17hcc3cbded9382b6e5E(i64 8, i64 %_124, ptr align 8 @alloc_36a29f90d05b3dccd307ae2f4fe0b9f6) #3
  unreachable

bb27:                                             ; preds = %bb26
  %0 = getelementptr inbounds i8, ptr %_15, i64 16
  %y = load ptr, ptr %0, align 8
  %_118 = ptrtoint ptr %y to i64
  %_121 = and i64 %_118, 7
  %_122 = icmp eq i64 %_121, 0
  br i1 %_122, label %bb25, label %panic2

panic1:                                           ; preds = %bb26
; call core::panicking::panic_null_pointer_dereference
  call void @_ZN4core9panicking30panic_null_pointer_dereference17hf718fcc86a223baaE(ptr align 8 @alloc_36a29f90d05b3dccd307ae2f4fe0b9f6) #3
  unreachable

bb25:                                             ; preds = %bb27
  %_137 = ptrtoint ptr %y to i64
  %_140 = icmp eq i64 %_137, 0
  %_141 = and i1 %_140, true
  %_142 = xor i1 %_141, true
  br i1 %_142, label %bb28, label %panic3

panic2:                                           ; preds = %bb27
; call core::panicking::panic_misaligned_pointer_dereference
  call void @_ZN4core9panicking36panic_misaligned_pointer_dereference17hcc3cbded9382b6e5E(i64 8, i64 %_118, ptr align 8 @alloc_9ea3d517f7855741afb3ef42cf7a1385) #3
  unreachable

bb28:                                             ; preds = %bb25
  %1 = getelementptr inbounds i8, ptr %y, i64 8
  %_4 = load ptr, ptr %1, align 8
  %_16 = load ptr, ptr %x, align 8
  %_112 = ptrtoint ptr %_16 to i64
  %_115 = and i64 %_112, 7
  %_116 = icmp eq i64 %_115, 0
  br i1 %_116, label %bb24, label %panic4

panic3:                                           ; preds = %bb25
; call core::panicking::panic_null_pointer_dereference
  call void @_ZN4core9panicking30panic_null_pointer_dereference17hf718fcc86a223baaE(ptr align 8 @alloc_9ea3d517f7855741afb3ef42cf7a1385) #3
  unreachable

bb24:                                             ; preds = %bb28
  %_144 = ptrtoint ptr %_16 to i64
  %_147 = icmp eq i64 %_144, 0
  %_148 = and i1 %_147, true
  %_149 = xor i1 %_148, true
  br i1 %_149, label %bb29, label %panic5

panic4:                                           ; preds = %bb28
; call core::panicking::panic_misaligned_pointer_dereference
  call void @_ZN4core9panicking36panic_misaligned_pointer_dereference17hcc3cbded9382b6e5E(i64 8, i64 %_112, ptr align 8 @alloc_520a79461a7e3e437784dafcbf4b99ad) #3
  unreachable

bb29:                                             ; preds = %bb24
  %2 = getelementptr inbounds i8, ptr %_16, i64 16
  store ptr %_4, ptr %2, align 8
  %_106 = ptrtoint ptr %y to i64
  %_109 = and i64 %_106, 7
  %_110 = icmp eq i64 %_109, 0
  br i1 %_110, label %bb23, label %panic6

panic5:                                           ; preds = %bb24
; call core::panicking::panic_null_pointer_dereference
  call void @_ZN4core9panicking30panic_null_pointer_dereference17hf718fcc86a223baaE(ptr align 8 @alloc_520a79461a7e3e437784dafcbf4b99ad) #3
  unreachable

bb23:                                             ; preds = %bb29
  %_151 = ptrtoint ptr %y to i64
  %_154 = icmp eq i64 %_151, 0
  %_155 = and i1 %_154, true
  %_156 = xor i1 %_155, true
  br i1 %_156, label %bb30, label %panic7

panic6:                                           ; preds = %bb29
; call core::panicking::panic_misaligned_pointer_dereference
  call void @_ZN4core9panicking36panic_misaligned_pointer_dereference17hcc3cbded9382b6e5E(i64 8, i64 %_106, ptr align 8 @alloc_cfe30686ff0daf301212766601800645) #3
  unreachable

bb30:                                             ; preds = %bb23
  %3 = getelementptr inbounds i8, ptr %y, i64 8
  %_6 = load ptr, ptr %3, align 8
; call core::ptr::mut_ptr::<impl *mut T>::is_null
  %_5 = call zeroext i1 @"_ZN4core3ptr7mut_ptr31_$LT$impl$u20$$BP$mut$u20$T$GT$7is_null17h412703ffb2fe9dc0E"(ptr %_6) #4
  br i1 %_5, label %bb3, label %bb2

panic7:                                           ; preds = %bb23
; call core::panicking::panic_null_pointer_dereference
  call void @_ZN4core9panicking30panic_null_pointer_dereference17hf718fcc86a223baaE(ptr align 8 @alloc_cfe30686ff0daf301212766601800645) #3
  unreachable

bb2:                                              ; preds = %bb30
  %_100 = ptrtoint ptr %x to i64
  %_103 = and i64 %_100, 7
  %_104 = icmp eq i64 %_103, 0
  br i1 %_104, label %bb22, label %panic8

bb3:                                              ; preds = %bb32, %bb30
  %_18 = load ptr, ptr %x, align 8
  %_88 = ptrtoint ptr %_18 to i64
  %_91 = and i64 %_88, 7
  %_92 = icmp eq i64 %_91, 0
  br i1 %_92, label %bb20, label %panic12

bb22:                                             ; preds = %bb2
  %_158 = ptrtoint ptr %x to i64
  %_161 = icmp eq i64 %_158, 0
  %_162 = and i1 %_161, true
  %_163 = xor i1 %_162, true
  br i1 %_163, label %bb31, label %panic9

panic8:                                           ; preds = %bb2
; call core::panicking::panic_misaligned_pointer_dereference
  call void @_ZN4core9panicking36panic_misaligned_pointer_dereference17hcc3cbded9382b6e5E(i64 8, i64 %_100, ptr align 8 @alloc_56f473db5169fdb47e5416104487414e) #3
  unreachable

bb31:                                             ; preds = %bb22
  %_7 = load ptr, ptr %x, align 8
  %4 = getelementptr inbounds i8, ptr %y, i64 8
  %_17 = load ptr, ptr %4, align 8
  %_94 = ptrtoint ptr %_17 to i64
  %_97 = and i64 %_94, 7
  %_98 = icmp eq i64 %_97, 0
  br i1 %_98, label %bb21, label %panic10

panic9:                                           ; preds = %bb22
; call core::panicking::panic_null_pointer_dereference
  call void @_ZN4core9panicking30panic_null_pointer_dereference17hf718fcc86a223baaE(ptr align 8 @alloc_56f473db5169fdb47e5416104487414e) #3
  unreachable

bb21:                                             ; preds = %bb31
  %_165 = ptrtoint ptr %_17 to i64
  %_168 = icmp eq i64 %_165, 0
  %_169 = and i1 %_168, true
  %_170 = xor i1 %_169, true
  br i1 %_170, label %bb32, label %panic11

panic10:                                          ; preds = %bb31
; call core::panicking::panic_misaligned_pointer_dereference
  call void @_ZN4core9panicking36panic_misaligned_pointer_dereference17hcc3cbded9382b6e5E(i64 8, i64 %_94, ptr align 8 @alloc_a9ddb910048728d8cde68c8a68ffcb43) #3
  unreachable

bb32:                                             ; preds = %bb21
  %5 = getelementptr inbounds i8, ptr %_17, i64 24
  store ptr %_7, ptr %5, align 8
  br label %bb3

panic11:                                          ; preds = %bb21
; call core::panicking::panic_null_pointer_dereference
  call void @_ZN4core9panicking30panic_null_pointer_dereference17hf718fcc86a223baaE(ptr align 8 @alloc_a9ddb910048728d8cde68c8a68ffcb43) #3
  unreachable

bb20:                                             ; preds = %bb3
  %_172 = ptrtoint ptr %_18 to i64
  %_175 = icmp eq i64 %_172, 0
  %_176 = and i1 %_175, true
  %_177 = xor i1 %_176, true
  br i1 %_177, label %bb33, label %panic13

panic12:                                          ; preds = %bb3
; call core::panicking::panic_misaligned_pointer_dereference
  call void @_ZN4core9panicking36panic_misaligned_pointer_dereference17hcc3cbded9382b6e5E(i64 8, i64 %_88, ptr align 8 @alloc_9831bed29e09a7428ad22e994ae86821) #3
  unreachable

bb33:                                             ; preds = %bb20
  %6 = getelementptr inbounds i8, ptr %_18, i64 24
  %_8 = load ptr, ptr %6, align 8
  %_82 = ptrtoint ptr %y to i64
  %_85 = and i64 %_82, 7
  %_86 = icmp eq i64 %_85, 0
  br i1 %_86, label %bb19, label %panic14

panic13:                                          ; preds = %bb20
; call core::panicking::panic_null_pointer_dereference
  call void @_ZN4core9panicking30panic_null_pointer_dereference17hf718fcc86a223baaE(ptr align 8 @alloc_9831bed29e09a7428ad22e994ae86821) #3
  unreachable

bb19:                                             ; preds = %bb33
  %_179 = ptrtoint ptr %y to i64
  %_182 = icmp eq i64 %_179, 0
  %_183 = and i1 %_182, true
  %_184 = xor i1 %_183, true
  br i1 %_184, label %bb34, label %panic15

panic14:                                          ; preds = %bb33
; call core::panicking::panic_misaligned_pointer_dereference
  call void @_ZN4core9panicking36panic_misaligned_pointer_dereference17hcc3cbded9382b6e5E(i64 8, i64 %_82, ptr align 8 @alloc_0f71aacfd249cf47639d68c1334ec744) #3
  unreachable

bb34:                                             ; preds = %bb19
  %7 = getelementptr inbounds i8, ptr %y, i64 24
  store ptr %_8, ptr %7, align 8
  %_19 = load ptr, ptr %x, align 8
  %_76 = ptrtoint ptr %_19 to i64
  %_79 = and i64 %_76, 7
  %_80 = icmp eq i64 %_79, 0
  br i1 %_80, label %bb18, label %panic16

panic15:                                          ; preds = %bb19
; call core::panicking::panic_null_pointer_dereference
  call void @_ZN4core9panicking30panic_null_pointer_dereference17hf718fcc86a223baaE(ptr align 8 @alloc_0f71aacfd249cf47639d68c1334ec744) #3
  unreachable

bb18:                                             ; preds = %bb34
  %_186 = ptrtoint ptr %_19 to i64
  %_189 = icmp eq i64 %_186, 0
  %_190 = and i1 %_189, true
  %_191 = xor i1 %_190, true
  br i1 %_191, label %bb35, label %panic17

panic16:                                          ; preds = %bb34
; call core::panicking::panic_misaligned_pointer_dereference
  call void @_ZN4core9panicking36panic_misaligned_pointer_dereference17hcc3cbded9382b6e5E(i64 8, i64 %_76, ptr align 8 @alloc_6548fd5edd167dc358ac7e2d3ae81c19) #3
  unreachable

bb35:                                             ; preds = %bb18
  %8 = getelementptr inbounds i8, ptr %_19, i64 24
  %_10 = load ptr, ptr %8, align 8
; call core::ptr::mut_ptr::<impl *mut T>::is_null
  %_9 = call zeroext i1 @"_ZN4core3ptr7mut_ptr31_$LT$impl$u20$$BP$mut$u20$T$GT$7is_null17h412703ffb2fe9dc0E"(ptr %_10) #4
  br i1 %_9, label %bb5, label %bb6

panic17:                                          ; preds = %bb18
; call core::panicking::panic_null_pointer_dereference
  call void @_ZN4core9panicking30panic_null_pointer_dereference17hf718fcc86a223baaE(ptr align 8 @alloc_6548fd5edd167dc358ac7e2d3ae81c19) #3
  unreachable

bb6:                                              ; preds = %bb35
  %_64 = ptrtoint ptr %x to i64
  %_67 = and i64 %_64, 7
  %_68 = icmp eq i64 %_67, 0
  br i1 %_68, label %bb16, label %panic18

bb5:                                              ; preds = %bb35
  %_70 = ptrtoint ptr %T to i64
  %_73 = and i64 %_70, 7
  %_74 = icmp eq i64 %_73, 0
  br i1 %_74, label %bb17, label %panic26

bb16:                                             ; preds = %bb6
  %_200 = ptrtoint ptr %x to i64
  %_203 = icmp eq i64 %_200, 0
  %_204 = and i1 %_203, true
  %_205 = xor i1 %_204, true
  br i1 %_205, label %bb37, label %panic19

panic18:                                          ; preds = %bb6
; call core::panicking::panic_misaligned_pointer_dereference
  call void @_ZN4core9panicking36panic_misaligned_pointer_dereference17hcc3cbded9382b6e5E(i64 8, i64 %_64, ptr align 8 @alloc_f60cb074cdf62f74e08d043042b7d58f) #3
  unreachable

bb37:                                             ; preds = %bb16
  %_12 = load ptr, ptr %x, align 8
  %_20 = load ptr, ptr %x, align 8
  %9 = getelementptr inbounds i8, ptr %_20, i64 24
  %_21 = load ptr, ptr %9, align 8
  %_58 = ptrtoint ptr %_21 to i64
  %_61 = and i64 %_58, 7
  %_62 = icmp eq i64 %_61, 0
  br i1 %_62, label %bb15, label %panic20

panic19:                                          ; preds = %bb16
; call core::panicking::panic_null_pointer_dereference
  call void @_ZN4core9panicking30panic_null_pointer_dereference17hf718fcc86a223baaE(ptr align 8 @alloc_f60cb074cdf62f74e08d043042b7d58f) #3
  unreachable

bb15:                                             ; preds = %bb37
  %_207 = ptrtoint ptr %_21 to i64
  %_210 = icmp eq i64 %_207, 0
  %_211 = and i1 %_210, true
  %_212 = xor i1 %_211, true
  br i1 %_212, label %bb38, label %panic21

panic20:                                          ; preds = %bb37
; call core::panicking::panic_misaligned_pointer_dereference
  call void @_ZN4core9panicking36panic_misaligned_pointer_dereference17hcc3cbded9382b6e5E(i64 8, i64 %_58, ptr align 8 @alloc_78bfe98d3284ff32d62726bf1a753672) #3
  unreachable

bb38:                                             ; preds = %bb15
  %10 = getelementptr inbounds i8, ptr %_21, i64 8
  %_13 = load ptr, ptr %10, align 8
  %_11 = icmp eq ptr %_12, %_13
  br i1 %_11, label %bb7, label %bb8

panic21:                                          ; preds = %bb15
; call core::panicking::panic_null_pointer_dereference
  call void @_ZN4core9panicking30panic_null_pointer_dereference17hf718fcc86a223baaE(ptr align 8 @alloc_78bfe98d3284ff32d62726bf1a753672) #3
  unreachable

bb8:                                              ; preds = %bb38
  %_24 = load ptr, ptr %x, align 8
  %11 = getelementptr inbounds i8, ptr %_24, i64 24
  %_25 = load ptr, ptr %11, align 8
  %_46 = ptrtoint ptr %_25 to i64
  %_49 = and i64 %_46, 7
  %_50 = icmp eq i64 %_49, 0
  br i1 %_50, label %bb13, label %panic22

bb7:                                              ; preds = %bb38
  %_22 = load ptr, ptr %x, align 8
  %12 = getelementptr inbounds i8, ptr %_22, i64 24
  %_23 = load ptr, ptr %12, align 8
  %_52 = ptrtoint ptr %_23 to i64
  %_55 = and i64 %_52, 7
  %_56 = icmp eq i64 %_55, 0
  br i1 %_56, label %bb14, label %panic24

bb13:                                             ; preds = %bb8
  %_221 = ptrtoint ptr %_25 to i64
  %_224 = icmp eq i64 %_221, 0
  %_225 = and i1 %_224, true
  %_226 = xor i1 %_225, true
  br i1 %_226, label %bb40, label %panic23

panic22:                                          ; preds = %bb8
; call core::panicking::panic_misaligned_pointer_dereference
  call void @_ZN4core9panicking36panic_misaligned_pointer_dereference17hcc3cbded9382b6e5E(i64 8, i64 %_46, ptr align 8 @alloc_8aaf0cbe5467e4838b8bc1d98e57daa9) #3
  unreachable

bb40:                                             ; preds = %bb13
  %13 = getelementptr inbounds i8, ptr %_25, i64 16
  store ptr %y, ptr %13, align 8
  br label %bb9

panic23:                                          ; preds = %bb13
; call core::panicking::panic_null_pointer_dereference
  call void @_ZN4core9panicking30panic_null_pointer_dereference17hf718fcc86a223baaE(ptr align 8 @alloc_8aaf0cbe5467e4838b8bc1d98e57daa9) #3
  unreachable

bb9:                                              ; preds = %bb36, %bb39, %bb40
  %_40 = ptrtoint ptr %x to i64
  %_43 = and i64 %_40, 7
  %_44 = icmp eq i64 %_43, 0
  br i1 %_44, label %bb12, label %panic28

bb14:                                             ; preds = %bb7
  %_214 = ptrtoint ptr %_23 to i64
  %_217 = icmp eq i64 %_214, 0
  %_218 = and i1 %_217, true
  %_219 = xor i1 %_218, true
  br i1 %_219, label %bb39, label %panic25

panic24:                                          ; preds = %bb7
; call core::panicking::panic_misaligned_pointer_dereference
  call void @_ZN4core9panicking36panic_misaligned_pointer_dereference17hcc3cbded9382b6e5E(i64 8, i64 %_52, ptr align 8 @alloc_0e4817f84c4ba2f42b24589c33fcfeb7) #3
  unreachable

bb39:                                             ; preds = %bb14
  %14 = getelementptr inbounds i8, ptr %_23, i64 8
  store ptr %y, ptr %14, align 8
  br label %bb9

panic25:                                          ; preds = %bb14
; call core::panicking::panic_null_pointer_dereference
  call void @_ZN4core9panicking30panic_null_pointer_dereference17hf718fcc86a223baaE(ptr align 8 @alloc_0e4817f84c4ba2f42b24589c33fcfeb7) #3
  unreachable

bb17:                                             ; preds = %bb5
  %_193 = ptrtoint ptr %T to i64
  %_196 = icmp eq i64 %_193, 0
  %_197 = and i1 %_196, true
  %_198 = xor i1 %_197, true
  br i1 %_198, label %bb36, label %panic27

panic26:                                          ; preds = %bb5
; call core::panicking::panic_misaligned_pointer_dereference
  call void @_ZN4core9panicking36panic_misaligned_pointer_dereference17hcc3cbded9382b6e5E(i64 8, i64 %_70, ptr align 8 @alloc_adf1c524da88c689910ca147895919eb) #3
  unreachable

bb36:                                             ; preds = %bb17
  store ptr %y, ptr %T, align 8
  br label %bb9

panic27:                                          ; preds = %bb17
; call core::panicking::panic_null_pointer_dereference
  call void @_ZN4core9panicking30panic_null_pointer_dereference17hf718fcc86a223baaE(ptr align 8 @alloc_adf1c524da88c689910ca147895919eb) #3
  unreachable

bb12:                                             ; preds = %bb9
  %_228 = ptrtoint ptr %x to i64
  %_231 = icmp eq i64 %_228, 0
  %_232 = and i1 %_231, true
  %_233 = xor i1 %_232, true
  br i1 %_233, label %bb41, label %panic29

panic28:                                          ; preds = %bb9
; call core::panicking::panic_misaligned_pointer_dereference
  call void @_ZN4core9panicking36panic_misaligned_pointer_dereference17hcc3cbded9382b6e5E(i64 8, i64 %_40, ptr align 8 @alloc_8c8feead8a375720ebb0265fda631b47) #3
  unreachable

bb41:                                             ; preds = %bb12
  %_14 = load ptr, ptr %x, align 8
  %_34 = ptrtoint ptr %y to i64
  %_37 = and i64 %_34, 7
  %_38 = icmp eq i64 %_37, 0
  br i1 %_38, label %bb11, label %panic30

panic29:                                          ; preds = %bb12
; call core::panicking::panic_null_pointer_dereference
  call void @_ZN4core9panicking30panic_null_pointer_dereference17hf718fcc86a223baaE(ptr align 8 @alloc_8c8feead8a375720ebb0265fda631b47) #3
  unreachable

bb11:                                             ; preds = %bb41
  %_235 = ptrtoint ptr %y to i64
  %_238 = icmp eq i64 %_235, 0
  %_239 = and i1 %_238, true
  %_240 = xor i1 %_239, true
  br i1 %_240, label %bb42, label %panic31

panic30:                                          ; preds = %bb41
; call core::panicking::panic_misaligned_pointer_dereference
  call void @_ZN4core9panicking36panic_misaligned_pointer_dereference17hcc3cbded9382b6e5E(i64 8, i64 %_34, ptr align 8 @alloc_dd5ca49258844dd049f35feb90dce4cb) #3
  unreachable

bb42:                                             ; preds = %bb11
  %15 = getelementptr inbounds i8, ptr %y, i64 8
  store ptr %_14, ptr %15, align 8
  %_26 = load ptr, ptr %x, align 8
  %_28 = ptrtoint ptr %_26 to i64
  %_31 = and i64 %_28, 7
  %_32 = icmp eq i64 %_31, 0
  br i1 %_32, label %bb10, label %panic32

panic31:                                          ; preds = %bb11
; call core::panicking::panic_null_pointer_dereference
  call void @_ZN4core9panicking30panic_null_pointer_dereference17hf718fcc86a223baaE(ptr align 8 @alloc_dd5ca49258844dd049f35feb90dce4cb) #3
  unreachable

bb10:                                             ; preds = %bb42
  %_242 = ptrtoint ptr %_26 to i64
  %_245 = icmp eq i64 %_242, 0
  %_246 = and i1 %_245, true
  %_247 = xor i1 %_246, true
  br i1 %_247, label %bb43, label %panic33

panic32:                                          ; preds = %bb42
; call core::panicking::panic_misaligned_pointer_dereference
  call void @_ZN4core9panicking36panic_misaligned_pointer_dereference17hcc3cbded9382b6e5E(i64 8, i64 %_28, ptr align 8 @alloc_80883ff8e80cbb9d0e87c67dc1a3fa1d) #3
  unreachable

bb43:                                             ; preds = %bb10
  %16 = getelementptr inbounds i8, ptr %_26, i64 24
  store ptr %y, ptr %16, align 8
  ret void

panic33:                                          ; preds = %bb10
; call core::panicking::panic_null_pointer_dereference
  call void @_ZN4core9panicking30panic_null_pointer_dereference17hf718fcc86a223baaE(ptr align 8 @alloc_80883ff8e80cbb9d0e87c67dc1a3fa1d) #3
  unreachable
}

; Function Attrs: nounwind nonlazybind
define void @RightRotate(ptr %T, ptr %x) unnamed_addr #1 {
start:
  %_15 = load ptr, ptr %x, align 8
  %_124 = ptrtoint ptr %_15 to i64
  %_127 = and i64 %_124, 7
  %_128 = icmp eq i64 %_127, 0
  br i1 %_128, label %bb26, label %panic

bb26:                                             ; preds = %start
  %_130 = ptrtoint ptr %_15 to i64
  %_133 = icmp eq i64 %_130, 0
  %_134 = and i1 %_133, true
  %_135 = xor i1 %_134, true
  br i1 %_135, label %bb27, label %panic1

panic:                                            ; preds = %start
; call core::panicking::panic_misaligned_pointer_dereference
  call void @_ZN4core9panicking36panic_misaligned_pointer_dereference17hcc3cbded9382b6e5E(i64 8, i64 %_124, ptr align 8 @alloc_67af0f5f509a33d4aacd19b47c11d736) #3
  unreachable

bb27:                                             ; preds = %bb26
  %0 = getelementptr inbounds i8, ptr %_15, i64 8
  %y = load ptr, ptr %0, align 8
  %_118 = ptrtoint ptr %y to i64
  %_121 = and i64 %_118, 7
  %_122 = icmp eq i64 %_121, 0
  br i1 %_122, label %bb25, label %panic2

panic1:                                           ; preds = %bb26
; call core::panicking::panic_null_pointer_dereference
  call void @_ZN4core9panicking30panic_null_pointer_dereference17hf718fcc86a223baaE(ptr align 8 @alloc_67af0f5f509a33d4aacd19b47c11d736) #3
  unreachable

bb25:                                             ; preds = %bb27
  %_137 = ptrtoint ptr %y to i64
  %_140 = icmp eq i64 %_137, 0
  %_141 = and i1 %_140, true
  %_142 = xor i1 %_141, true
  br i1 %_142, label %bb28, label %panic3

panic2:                                           ; preds = %bb27
; call core::panicking::panic_misaligned_pointer_dereference
  call void @_ZN4core9panicking36panic_misaligned_pointer_dereference17hcc3cbded9382b6e5E(i64 8, i64 %_118, ptr align 8 @alloc_a7a319421da9a77576ac7888b1491544) #3
  unreachable

bb28:                                             ; preds = %bb25
  %1 = getelementptr inbounds i8, ptr %y, i64 16
  %_4 = load ptr, ptr %1, align 8
  %_16 = load ptr, ptr %x, align 8
  %_112 = ptrtoint ptr %_16 to i64
  %_115 = and i64 %_112, 7
  %_116 = icmp eq i64 %_115, 0
  br i1 %_116, label %bb24, label %panic4

panic3:                                           ; preds = %bb25
; call core::panicking::panic_null_pointer_dereference
  call void @_ZN4core9panicking30panic_null_pointer_dereference17hf718fcc86a223baaE(ptr align 8 @alloc_a7a319421da9a77576ac7888b1491544) #3
  unreachable

bb24:                                             ; preds = %bb28
  %_144 = ptrtoint ptr %_16 to i64
  %_147 = icmp eq i64 %_144, 0
  %_148 = and i1 %_147, true
  %_149 = xor i1 %_148, true
  br i1 %_149, label %bb29, label %panic5

panic4:                                           ; preds = %bb28
; call core::panicking::panic_misaligned_pointer_dereference
  call void @_ZN4core9panicking36panic_misaligned_pointer_dereference17hcc3cbded9382b6e5E(i64 8, i64 %_112, ptr align 8 @alloc_d1a11e64fdd63add9ab4729a70b53b74) #3
  unreachable

bb29:                                             ; preds = %bb24
  %2 = getelementptr inbounds i8, ptr %_16, i64 8
  store ptr %_4, ptr %2, align 8
  %_106 = ptrtoint ptr %y to i64
  %_109 = and i64 %_106, 7
  %_110 = icmp eq i64 %_109, 0
  br i1 %_110, label %bb23, label %panic6

panic5:                                           ; preds = %bb24
; call core::panicking::panic_null_pointer_dereference
  call void @_ZN4core9panicking30panic_null_pointer_dereference17hf718fcc86a223baaE(ptr align 8 @alloc_d1a11e64fdd63add9ab4729a70b53b74) #3
  unreachable

bb23:                                             ; preds = %bb29
  %_151 = ptrtoint ptr %y to i64
  %_154 = icmp eq i64 %_151, 0
  %_155 = and i1 %_154, true
  %_156 = xor i1 %_155, true
  br i1 %_156, label %bb30, label %panic7

panic6:                                           ; preds = %bb29
; call core::panicking::panic_misaligned_pointer_dereference
  call void @_ZN4core9panicking36panic_misaligned_pointer_dereference17hcc3cbded9382b6e5E(i64 8, i64 %_106, ptr align 8 @alloc_995e79e36bd3580d2ae8c82744b38faf) #3
  unreachable

bb30:                                             ; preds = %bb23
  %3 = getelementptr inbounds i8, ptr %y, i64 16
  %_6 = load ptr, ptr %3, align 8
; call core::ptr::mut_ptr::<impl *mut T>::is_null
  %_5 = call zeroext i1 @"_ZN4core3ptr7mut_ptr31_$LT$impl$u20$$BP$mut$u20$T$GT$7is_null17h412703ffb2fe9dc0E"(ptr %_6) #4
  br i1 %_5, label %bb3, label %bb2

panic7:                                           ; preds = %bb23
; call core::panicking::panic_null_pointer_dereference
  call void @_ZN4core9panicking30panic_null_pointer_dereference17hf718fcc86a223baaE(ptr align 8 @alloc_995e79e36bd3580d2ae8c82744b38faf) #3
  unreachable

bb2:                                              ; preds = %bb30
  %_100 = ptrtoint ptr %x to i64
  %_103 = and i64 %_100, 7
  %_104 = icmp eq i64 %_103, 0
  br i1 %_104, label %bb22, label %panic8

bb3:                                              ; preds = %bb32, %bb30
  %_18 = load ptr, ptr %x, align 8
  %_88 = ptrtoint ptr %_18 to i64
  %_91 = and i64 %_88, 7
  %_92 = icmp eq i64 %_91, 0
  br i1 %_92, label %bb20, label %panic12

bb22:                                             ; preds = %bb2
  %_158 = ptrtoint ptr %x to i64
  %_161 = icmp eq i64 %_158, 0
  %_162 = and i1 %_161, true
  %_163 = xor i1 %_162, true
  br i1 %_163, label %bb31, label %panic9

panic8:                                           ; preds = %bb2
; call core::panicking::panic_misaligned_pointer_dereference
  call void @_ZN4core9panicking36panic_misaligned_pointer_dereference17hcc3cbded9382b6e5E(i64 8, i64 %_100, ptr align 8 @alloc_5eb0b282289dc24394f8ce89b229bfdc) #3
  unreachable

bb31:                                             ; preds = %bb22
  %_7 = load ptr, ptr %x, align 8
  %4 = getelementptr inbounds i8, ptr %y, i64 16
  %_17 = load ptr, ptr %4, align 8
  %_94 = ptrtoint ptr %_17 to i64
  %_97 = and i64 %_94, 7
  %_98 = icmp eq i64 %_97, 0
  br i1 %_98, label %bb21, label %panic10

panic9:                                           ; preds = %bb22
; call core::panicking::panic_null_pointer_dereference
  call void @_ZN4core9panicking30panic_null_pointer_dereference17hf718fcc86a223baaE(ptr align 8 @alloc_5eb0b282289dc24394f8ce89b229bfdc) #3
  unreachable

bb21:                                             ; preds = %bb31
  %_165 = ptrtoint ptr %_17 to i64
  %_168 = icmp eq i64 %_165, 0
  %_169 = and i1 %_168, true
  %_170 = xor i1 %_169, true
  br i1 %_170, label %bb32, label %panic11

panic10:                                          ; preds = %bb31
; call core::panicking::panic_misaligned_pointer_dereference
  call void @_ZN4core9panicking36panic_misaligned_pointer_dereference17hcc3cbded9382b6e5E(i64 8, i64 %_94, ptr align 8 @alloc_ec202205961e5c0a6612159084e075e3) #3
  unreachable

bb32:                                             ; preds = %bb21
  %5 = getelementptr inbounds i8, ptr %_17, i64 24
  store ptr %_7, ptr %5, align 8
  br label %bb3

panic11:                                          ; preds = %bb21
; call core::panicking::panic_null_pointer_dereference
  call void @_ZN4core9panicking30panic_null_pointer_dereference17hf718fcc86a223baaE(ptr align 8 @alloc_ec202205961e5c0a6612159084e075e3) #3
  unreachable

bb20:                                             ; preds = %bb3
  %_172 = ptrtoint ptr %_18 to i64
  %_175 = icmp eq i64 %_172, 0
  %_176 = and i1 %_175, true
  %_177 = xor i1 %_176, true
  br i1 %_177, label %bb33, label %panic13

panic12:                                          ; preds = %bb3
; call core::panicking::panic_misaligned_pointer_dereference
  call void @_ZN4core9panicking36panic_misaligned_pointer_dereference17hcc3cbded9382b6e5E(i64 8, i64 %_88, ptr align 8 @alloc_d284f2b4c2ffaa187c2456f035fe38d3) #3
  unreachable

bb33:                                             ; preds = %bb20
  %6 = getelementptr inbounds i8, ptr %_18, i64 24
  %_8 = load ptr, ptr %6, align 8
  %_82 = ptrtoint ptr %y to i64
  %_85 = and i64 %_82, 7
  %_86 = icmp eq i64 %_85, 0
  br i1 %_86, label %bb19, label %panic14

panic13:                                          ; preds = %bb20
; call core::panicking::panic_null_pointer_dereference
  call void @_ZN4core9panicking30panic_null_pointer_dereference17hf718fcc86a223baaE(ptr align 8 @alloc_d284f2b4c2ffaa187c2456f035fe38d3) #3
  unreachable

bb19:                                             ; preds = %bb33
  %_179 = ptrtoint ptr %y to i64
  %_182 = icmp eq i64 %_179, 0
  %_183 = and i1 %_182, true
  %_184 = xor i1 %_183, true
  br i1 %_184, label %bb34, label %panic15

panic14:                                          ; preds = %bb33
; call core::panicking::panic_misaligned_pointer_dereference
  call void @_ZN4core9panicking36panic_misaligned_pointer_dereference17hcc3cbded9382b6e5E(i64 8, i64 %_82, ptr align 8 @alloc_69d1daf5dfd60dd92e8de43345645869) #3
  unreachable

bb34:                                             ; preds = %bb19
  %7 = getelementptr inbounds i8, ptr %y, i64 24
  store ptr %_8, ptr %7, align 8
  %_19 = load ptr, ptr %x, align 8
  %_76 = ptrtoint ptr %_19 to i64
  %_79 = and i64 %_76, 7
  %_80 = icmp eq i64 %_79, 0
  br i1 %_80, label %bb18, label %panic16

panic15:                                          ; preds = %bb19
; call core::panicking::panic_null_pointer_dereference
  call void @_ZN4core9panicking30panic_null_pointer_dereference17hf718fcc86a223baaE(ptr align 8 @alloc_69d1daf5dfd60dd92e8de43345645869) #3
  unreachable

bb18:                                             ; preds = %bb34
  %_186 = ptrtoint ptr %_19 to i64
  %_189 = icmp eq i64 %_186, 0
  %_190 = and i1 %_189, true
  %_191 = xor i1 %_190, true
  br i1 %_191, label %bb35, label %panic17

panic16:                                          ; preds = %bb34
; call core::panicking::panic_misaligned_pointer_dereference
  call void @_ZN4core9panicking36panic_misaligned_pointer_dereference17hcc3cbded9382b6e5E(i64 8, i64 %_76, ptr align 8 @alloc_a883a68596bb157e102413ab605ef1ca) #3
  unreachable

bb35:                                             ; preds = %bb18
  %8 = getelementptr inbounds i8, ptr %_19, i64 24
  %_10 = load ptr, ptr %8, align 8
; call core::ptr::mut_ptr::<impl *mut T>::is_null
  %_9 = call zeroext i1 @"_ZN4core3ptr7mut_ptr31_$LT$impl$u20$$BP$mut$u20$T$GT$7is_null17h412703ffb2fe9dc0E"(ptr %_10) #4
  br i1 %_9, label %bb5, label %bb6

panic17:                                          ; preds = %bb18
; call core::panicking::panic_null_pointer_dereference
  call void @_ZN4core9panicking30panic_null_pointer_dereference17hf718fcc86a223baaE(ptr align 8 @alloc_a883a68596bb157e102413ab605ef1ca) #3
  unreachable

bb6:                                              ; preds = %bb35
  %_64 = ptrtoint ptr %x to i64
  %_67 = and i64 %_64, 7
  %_68 = icmp eq i64 %_67, 0
  br i1 %_68, label %bb16, label %panic18

bb5:                                              ; preds = %bb35
  %_70 = ptrtoint ptr %T to i64
  %_73 = and i64 %_70, 7
  %_74 = icmp eq i64 %_73, 0
  br i1 %_74, label %bb17, label %panic26

bb16:                                             ; preds = %bb6
  %_200 = ptrtoint ptr %x to i64
  %_203 = icmp eq i64 %_200, 0
  %_204 = and i1 %_203, true
  %_205 = xor i1 %_204, true
  br i1 %_205, label %bb37, label %panic19

panic18:                                          ; preds = %bb6
; call core::panicking::panic_misaligned_pointer_dereference
  call void @_ZN4core9panicking36panic_misaligned_pointer_dereference17hcc3cbded9382b6e5E(i64 8, i64 %_64, ptr align 8 @alloc_a9b4ae4f936036ecc70c5719b2ebbe49) #3
  unreachable

bb37:                                             ; preds = %bb16
  %_12 = load ptr, ptr %x, align 8
  %_20 = load ptr, ptr %x, align 8
  %9 = getelementptr inbounds i8, ptr %_20, i64 24
  %_21 = load ptr, ptr %9, align 8
  %_58 = ptrtoint ptr %_21 to i64
  %_61 = and i64 %_58, 7
  %_62 = icmp eq i64 %_61, 0
  br i1 %_62, label %bb15, label %panic20

panic19:                                          ; preds = %bb16
; call core::panicking::panic_null_pointer_dereference
  call void @_ZN4core9panicking30panic_null_pointer_dereference17hf718fcc86a223baaE(ptr align 8 @alloc_a9b4ae4f936036ecc70c5719b2ebbe49) #3
  unreachable

bb15:                                             ; preds = %bb37
  %_207 = ptrtoint ptr %_21 to i64
  %_210 = icmp eq i64 %_207, 0
  %_211 = and i1 %_210, true
  %_212 = xor i1 %_211, true
  br i1 %_212, label %bb38, label %panic21

panic20:                                          ; preds = %bb37
; call core::panicking::panic_misaligned_pointer_dereference
  call void @_ZN4core9panicking36panic_misaligned_pointer_dereference17hcc3cbded9382b6e5E(i64 8, i64 %_58, ptr align 8 @alloc_b5d9de2ca41d3d07558ac6c18f6cd955) #3
  unreachable

bb38:                                             ; preds = %bb15
  %10 = getelementptr inbounds i8, ptr %_21, i64 8
  %_13 = load ptr, ptr %10, align 8
  %_11 = icmp eq ptr %_12, %_13
  br i1 %_11, label %bb7, label %bb8

panic21:                                          ; preds = %bb15
; call core::panicking::panic_null_pointer_dereference
  call void @_ZN4core9panicking30panic_null_pointer_dereference17hf718fcc86a223baaE(ptr align 8 @alloc_b5d9de2ca41d3d07558ac6c18f6cd955) #3
  unreachable

bb8:                                              ; preds = %bb38
  %_24 = load ptr, ptr %x, align 8
  %11 = getelementptr inbounds i8, ptr %_24, i64 24
  %_25 = load ptr, ptr %11, align 8
  %_46 = ptrtoint ptr %_25 to i64
  %_49 = and i64 %_46, 7
  %_50 = icmp eq i64 %_49, 0
  br i1 %_50, label %bb13, label %panic22

bb7:                                              ; preds = %bb38
  %_22 = load ptr, ptr %x, align 8
  %12 = getelementptr inbounds i8, ptr %_22, i64 24
  %_23 = load ptr, ptr %12, align 8
  %_52 = ptrtoint ptr %_23 to i64
  %_55 = and i64 %_52, 7
  %_56 = icmp eq i64 %_55, 0
  br i1 %_56, label %bb14, label %panic24

bb13:                                             ; preds = %bb8
  %_221 = ptrtoint ptr %_25 to i64
  %_224 = icmp eq i64 %_221, 0
  %_225 = and i1 %_224, true
  %_226 = xor i1 %_225, true
  br i1 %_226, label %bb40, label %panic23

panic22:                                          ; preds = %bb8
; call core::panicking::panic_misaligned_pointer_dereference
  call void @_ZN4core9panicking36panic_misaligned_pointer_dereference17hcc3cbded9382b6e5E(i64 8, i64 %_46, ptr align 8 @alloc_be7452df8c180fa1736a845b90103292) #3
  unreachable

bb40:                                             ; preds = %bb13
  %13 = getelementptr inbounds i8, ptr %_25, i64 16
  store ptr %y, ptr %13, align 8
  br label %bb9

panic23:                                          ; preds = %bb13
; call core::panicking::panic_null_pointer_dereference
  call void @_ZN4core9panicking30panic_null_pointer_dereference17hf718fcc86a223baaE(ptr align 8 @alloc_be7452df8c180fa1736a845b90103292) #3
  unreachable

bb9:                                              ; preds = %bb36, %bb39, %bb40
  %_40 = ptrtoint ptr %x to i64
  %_43 = and i64 %_40, 7
  %_44 = icmp eq i64 %_43, 0
  br i1 %_44, label %bb12, label %panic28

bb14:                                             ; preds = %bb7
  %_214 = ptrtoint ptr %_23 to i64
  %_217 = icmp eq i64 %_214, 0
  %_218 = and i1 %_217, true
  %_219 = xor i1 %_218, true
  br i1 %_219, label %bb39, label %panic25

panic24:                                          ; preds = %bb7
; call core::panicking::panic_misaligned_pointer_dereference
  call void @_ZN4core9panicking36panic_misaligned_pointer_dereference17hcc3cbded9382b6e5E(i64 8, i64 %_52, ptr align 8 @alloc_54902b21ac39f72cdf7a4f24aaf5f16b) #3
  unreachable

bb39:                                             ; preds = %bb14
  %14 = getelementptr inbounds i8, ptr %_23, i64 8
  store ptr %y, ptr %14, align 8
  br label %bb9

panic25:                                          ; preds = %bb14
; call core::panicking::panic_null_pointer_dereference
  call void @_ZN4core9panicking30panic_null_pointer_dereference17hf718fcc86a223baaE(ptr align 8 @alloc_54902b21ac39f72cdf7a4f24aaf5f16b) #3
  unreachable

bb17:                                             ; preds = %bb5
  %_193 = ptrtoint ptr %T to i64
  %_196 = icmp eq i64 %_193, 0
  %_197 = and i1 %_196, true
  %_198 = xor i1 %_197, true
  br i1 %_198, label %bb36, label %panic27

panic26:                                          ; preds = %bb5
; call core::panicking::panic_misaligned_pointer_dereference
  call void @_ZN4core9panicking36panic_misaligned_pointer_dereference17hcc3cbded9382b6e5E(i64 8, i64 %_70, ptr align 8 @alloc_faa77273d412a3370397282c48abd832) #3
  unreachable

bb36:                                             ; preds = %bb17
  store ptr %y, ptr %T, align 8
  br label %bb9

panic27:                                          ; preds = %bb17
; call core::panicking::panic_null_pointer_dereference
  call void @_ZN4core9panicking30panic_null_pointer_dereference17hf718fcc86a223baaE(ptr align 8 @alloc_faa77273d412a3370397282c48abd832) #3
  unreachable

bb12:                                             ; preds = %bb9
  %_228 = ptrtoint ptr %x to i64
  %_231 = icmp eq i64 %_228, 0
  %_232 = and i1 %_231, true
  %_233 = xor i1 %_232, true
  br i1 %_233, label %bb41, label %panic29

panic28:                                          ; preds = %bb9
; call core::panicking::panic_misaligned_pointer_dereference
  call void @_ZN4core9panicking36panic_misaligned_pointer_dereference17hcc3cbded9382b6e5E(i64 8, i64 %_40, ptr align 8 @alloc_62039b4ee3baceecc9e4e544e5b3268e) #3
  unreachable

bb41:                                             ; preds = %bb12
  %_14 = load ptr, ptr %x, align 8
  %_34 = ptrtoint ptr %y to i64
  %_37 = and i64 %_34, 7
  %_38 = icmp eq i64 %_37, 0
  br i1 %_38, label %bb11, label %panic30

panic29:                                          ; preds = %bb12
; call core::panicking::panic_null_pointer_dereference
  call void @_ZN4core9panicking30panic_null_pointer_dereference17hf718fcc86a223baaE(ptr align 8 @alloc_62039b4ee3baceecc9e4e544e5b3268e) #3
  unreachable

bb11:                                             ; preds = %bb41
  %_235 = ptrtoint ptr %y to i64
  %_238 = icmp eq i64 %_235, 0
  %_239 = and i1 %_238, true
  %_240 = xor i1 %_239, true
  br i1 %_240, label %bb42, label %panic31

panic30:                                          ; preds = %bb41
; call core::panicking::panic_misaligned_pointer_dereference
  call void @_ZN4core9panicking36panic_misaligned_pointer_dereference17hcc3cbded9382b6e5E(i64 8, i64 %_34, ptr align 8 @alloc_7d8d58b36d2b2d423935116080665165) #3
  unreachable

bb42:                                             ; preds = %bb11
  %15 = getelementptr inbounds i8, ptr %y, i64 16
  store ptr %_14, ptr %15, align 8
  %_26 = load ptr, ptr %x, align 8
  %_28 = ptrtoint ptr %_26 to i64
  %_31 = and i64 %_28, 7
  %_32 = icmp eq i64 %_31, 0
  br i1 %_32, label %bb10, label %panic32

panic31:                                          ; preds = %bb11
; call core::panicking::panic_null_pointer_dereference
  call void @_ZN4core9panicking30panic_null_pointer_dereference17hf718fcc86a223baaE(ptr align 8 @alloc_7d8d58b36d2b2d423935116080665165) #3
  unreachable

bb10:                                             ; preds = %bb42
  %_242 = ptrtoint ptr %_26 to i64
  %_245 = icmp eq i64 %_242, 0
  %_246 = and i1 %_245, true
  %_247 = xor i1 %_246, true
  br i1 %_247, label %bb43, label %panic33

panic32:                                          ; preds = %bb42
; call core::panicking::panic_misaligned_pointer_dereference
  call void @_ZN4core9panicking36panic_misaligned_pointer_dereference17hcc3cbded9382b6e5E(i64 8, i64 %_28, ptr align 8 @alloc_3689581ac3e8ceaaaf9b37c8e542fe4a) #3
  unreachable

bb43:                                             ; preds = %bb10
  %16 = getelementptr inbounds i8, ptr %_26, i64 24
  store ptr %y, ptr %16, align 8
  ret void

panic33:                                          ; preds = %bb10
; call core::panicking::panic_null_pointer_dereference
  call void @_ZN4core9panicking30panic_null_pointer_dereference17hf718fcc86a223baaE(ptr align 8 @alloc_3689581ac3e8ceaaaf9b37c8e542fe4a) #3
  unreachable
}

; Function Attrs: nounwind nonlazybind
define void @RB_insert_fixup(ptr %T, ptr %z) unnamed_addr #1 {
start:
  %parentpt = alloca [8 x i8], align 8
  %grandparent = alloca [8 x i8], align 8
  store ptr null, ptr %grandparent, align 8
  store ptr null, ptr %parentpt, align 8
  br label %bb1

bb1:                                              ; preds = %bb77, %bb70, %bb90, %bb83, %start
  %_267 = ptrtoint ptr %z to i64
  %_270 = and i64 %_267, 7
  %_271 = icmp eq i64 %_270, 0
  br i1 %_271, label %bb57, label %panic

bb57:                                             ; preds = %bb1
  %_273 = ptrtoint ptr %z to i64
  %_276 = icmp eq i64 %_273, 0
  %_277 = and i1 %_276, true
  %_278 = xor i1 %_277, true
  br i1 %_278, label %bb58, label %panic1

panic:                                            ; preds = %bb1
; call core::panicking::panic_misaligned_pointer_dereference
  call void @_ZN4core9panicking36panic_misaligned_pointer_dereference17hcc3cbded9382b6e5E(i64 8, i64 %_267, ptr align 8 @alloc_9e7b42eb587ab82bda512b6490f6a68c) #3
  unreachable

bb58:                                             ; preds = %bb57
  %_6 = load ptr, ptr %z, align 8
  %_261 = ptrtoint ptr %T to i64
  %_264 = and i64 %_261, 7
  %_265 = icmp eq i64 %_264, 0
  br i1 %_265, label %bb56, label %panic2

panic1:                                           ; preds = %bb57
; call core::panicking::panic_null_pointer_dereference
  call void @_ZN4core9panicking30panic_null_pointer_dereference17hf718fcc86a223baaE(ptr align 8 @alloc_9e7b42eb587ab82bda512b6490f6a68c) #3
  unreachable

bb56:                                             ; preds = %bb58
  %_280 = ptrtoint ptr %T to i64
  %_283 = icmp eq i64 %_280, 0
  %_284 = and i1 %_283, true
  %_285 = xor i1 %_284, true
  br i1 %_285, label %bb59, label %panic3

panic2:                                           ; preds = %bb58
; call core::panicking::panic_misaligned_pointer_dereference
  call void @_ZN4core9panicking36panic_misaligned_pointer_dereference17hcc3cbded9382b6e5E(i64 8, i64 %_261, ptr align 8 @alloc_5109ba8e271049b39863424b379ec036) #3
  unreachable

bb59:                                             ; preds = %bb56
  %_7 = load ptr, ptr %T, align 8
  %_5 = icmp ne ptr %_6, %_7
  br i1 %_5, label %bb2, label %bb23

panic3:                                           ; preds = %bb56
; call core::panicking::panic_null_pointer_dereference
  call void @_ZN4core9panicking30panic_null_pointer_dereference17hf718fcc86a223baaE(ptr align 8 @alloc_5109ba8e271049b39863424b379ec036) #3
  unreachable

bb23:                                             ; preds = %bb61, %bb60, %bb59
  %_67 = load ptr, ptr %T, align 8
  %_69 = ptrtoint ptr %_67 to i64
  %_72 = and i64 %_69, 7
  %_73 = icmp eq i64 %_72, 0
  br i1 %_73, label %bb24, label %panic8

bb2:                                              ; preds = %bb59
  %_59 = load ptr, ptr %z, align 8
  %_255 = ptrtoint ptr %_59 to i64
  %_258 = and i64 %_255, 7
  %_259 = icmp eq i64 %_258, 0
  br i1 %_259, label %bb55, label %panic4

bb55:                                             ; preds = %bb2
  %_287 = ptrtoint ptr %_59 to i64
  %_290 = icmp eq i64 %_287, 0
  %_291 = and i1 %_290, true
  %_292 = xor i1 %_291, true
  br i1 %_292, label %bb60, label %panic5

panic4:                                           ; preds = %bb2
; call core::panicking::panic_misaligned_pointer_dereference
  call void @_ZN4core9panicking36panic_misaligned_pointer_dereference17hcc3cbded9382b6e5E(i64 8, i64 %_255, ptr align 8 @alloc_0fc5270d6602d94baa051e7e9c6e16ae) #3
  unreachable

bb60:                                             ; preds = %bb55
  %0 = getelementptr inbounds i8, ptr %_59, i64 32
  %_9 = load i32, ptr %0, align 8
  %_8 = icmp ne i32 %_9, 1
  br i1 %_8, label %bb3, label %bb23

panic5:                                           ; preds = %bb55
; call core::panicking::panic_null_pointer_dereference
  call void @_ZN4core9panicking30panic_null_pointer_dereference17hf718fcc86a223baaE(ptr align 8 @alloc_0fc5270d6602d94baa051e7e9c6e16ae) #3
  unreachable

bb3:                                              ; preds = %bb60
  %_60 = load ptr, ptr %z, align 8
  %1 = getelementptr inbounds i8, ptr %_60, i64 24
  %_61 = load ptr, ptr %1, align 8
  %_249 = ptrtoint ptr %_61 to i64
  %_252 = and i64 %_249, 7
  %_253 = icmp eq i64 %_252, 0
  br i1 %_253, label %bb54, label %panic6

bb54:                                             ; preds = %bb3
  %_294 = ptrtoint ptr %_61 to i64
  %_297 = icmp eq i64 %_294, 0
  %_298 = and i1 %_297, true
  %_299 = xor i1 %_298, true
  br i1 %_299, label %bb61, label %panic7

panic6:                                           ; preds = %bb3
; call core::panicking::panic_misaligned_pointer_dereference
  call void @_ZN4core9panicking36panic_misaligned_pointer_dereference17hcc3cbded9382b6e5E(i64 8, i64 %_249, ptr align 8 @alloc_b84c23934f3ae7a56c2591579cb70733) #3
  unreachable

bb61:                                             ; preds = %bb54
  %2 = getelementptr inbounds i8, ptr %_61, i64 32
  %_13 = load i32, ptr %2, align 8
  %_12 = icmp eq i32 %_13, 0
  br i1 %_12, label %bb4, label %bb23

panic7:                                           ; preds = %bb54
; call core::panicking::panic_null_pointer_dereference
  call void @_ZN4core9panicking30panic_null_pointer_dereference17hf718fcc86a223baaE(ptr align 8 @alloc_b84c23934f3ae7a56c2591579cb70733) #3
  unreachable

bb4:                                              ; preds = %bb61
  %_62 = load ptr, ptr %z, align 8
  %_243 = ptrtoint ptr %_62 to i64
  %_246 = and i64 %_243, 7
  %_247 = icmp eq i64 %_246, 0
  br i1 %_247, label %bb53, label %panic10

bb24:                                             ; preds = %bb23
  %_504 = ptrtoint ptr %_67 to i64
  %_507 = icmp eq i64 %_504, 0
  %_508 = and i1 %_507, true
  %_509 = xor i1 %_508, true
  br i1 %_509, label %bb91, label %panic9

panic8:                                           ; preds = %bb23
; call core::panicking::panic_misaligned_pointer_dereference
  call void @_ZN4core9panicking36panic_misaligned_pointer_dereference17hcc3cbded9382b6e5E(i64 8, i64 %_69, ptr align 8 @alloc_82fd15565daaf88b349a8c0e274a6687) #3
  unreachable

bb91:                                             ; preds = %bb24
  %3 = getelementptr inbounds i8, ptr %_67, i64 32
  store i32 1, ptr %3, align 8
  ret void

panic9:                                           ; preds = %bb24
; call core::panicking::panic_null_pointer_dereference
  call void @_ZN4core9panicking30panic_null_pointer_dereference17hf718fcc86a223baaE(ptr align 8 @alloc_82fd15565daaf88b349a8c0e274a6687) #3
  unreachable

bb53:                                             ; preds = %bb4
  %_301 = ptrtoint ptr %_62 to i64
  %_304 = icmp eq i64 %_301, 0
  %_305 = and i1 %_304, true
  %_306 = xor i1 %_305, true
  br i1 %_306, label %bb62, label %panic11

panic10:                                          ; preds = %bb4
; call core::panicking::panic_misaligned_pointer_dereference
  call void @_ZN4core9panicking36panic_misaligned_pointer_dereference17hcc3cbded9382b6e5E(i64 8, i64 %_243, ptr align 8 @alloc_8ef5493b75ea88cbc5d037854f833b9a) #3
  unreachable

bb62:                                             ; preds = %bb53
  %4 = getelementptr inbounds i8, ptr %_62, i64 24
  %_16 = load ptr, ptr %4, align 8
  store ptr %_16, ptr %parentpt, align 8
  %_63 = load ptr, ptr %z, align 8
  %5 = getelementptr inbounds i8, ptr %_63, i64 24
  %_64 = load ptr, ptr %5, align 8
  %_237 = ptrtoint ptr %_64 to i64
  %_240 = and i64 %_237, 7
  %_241 = icmp eq i64 %_240, 0
  br i1 %_241, label %bb52, label %panic12

panic11:                                          ; preds = %bb53
; call core::panicking::panic_null_pointer_dereference
  call void @_ZN4core9panicking30panic_null_pointer_dereference17hf718fcc86a223baaE(ptr align 8 @alloc_8ef5493b75ea88cbc5d037854f833b9a) #3
  unreachable

bb52:                                             ; preds = %bb62
  %_308 = ptrtoint ptr %_64 to i64
  %_311 = icmp eq i64 %_308, 0
  %_312 = and i1 %_311, true
  %_313 = xor i1 %_312, true
  br i1 %_313, label %bb63, label %panic13

panic12:                                          ; preds = %bb62
; call core::panicking::panic_misaligned_pointer_dereference
  call void @_ZN4core9panicking36panic_misaligned_pointer_dereference17hcc3cbded9382b6e5E(i64 8, i64 %_237, ptr align 8 @alloc_bba0f7f631bbf057022a22cbe28a623f) #3
  unreachable

bb63:                                             ; preds = %bb52
  %6 = getelementptr inbounds i8, ptr %_64, i64 24
  %_17 = load ptr, ptr %6, align 8
  store ptr %_17, ptr %grandparent, align 8
  %_19 = load ptr, ptr %parentpt, align 8
  %_230 = load ptr, ptr %grandparent, align 8
  %_231 = ptrtoint ptr %_230 to i64
  %_234 = and i64 %_231, 7
  %_235 = icmp eq i64 %_234, 0
  br i1 %_235, label %bb51, label %panic14

panic13:                                          ; preds = %bb52
; call core::panicking::panic_null_pointer_dereference
  call void @_ZN4core9panicking30panic_null_pointer_dereference17hf718fcc86a223baaE(ptr align 8 @alloc_bba0f7f631bbf057022a22cbe28a623f) #3
  unreachable

bb51:                                             ; preds = %bb63
  %_314 = load ptr, ptr %grandparent, align 8
  %_315 = ptrtoint ptr %_314 to i64
  %_318 = icmp eq i64 %_315, 0
  %_319 = and i1 %_318, true
  %_320 = xor i1 %_319, true
  br i1 %_320, label %bb64, label %panic15

panic14:                                          ; preds = %bb63
; call core::panicking::panic_misaligned_pointer_dereference
  call void @_ZN4core9panicking36panic_misaligned_pointer_dereference17hcc3cbded9382b6e5E(i64 8, i64 %_231, ptr align 8 @alloc_bae30b398b4ce67c6842a01d9a165ccf) #3
  unreachable

bb64:                                             ; preds = %bb51
  %7 = load ptr, ptr %grandparent, align 8
  %8 = getelementptr inbounds i8, ptr %7, i64 8
  %_20 = load ptr, ptr %8, align 8
  %_18 = icmp eq ptr %_19, %_20
  br i1 %_18, label %bb5, label %bb14

panic15:                                          ; preds = %bb51
; call core::panicking::panic_null_pointer_dereference
  call void @_ZN4core9panicking30panic_null_pointer_dereference17hf718fcc86a223baaE(ptr align 8 @alloc_bae30b398b4ce67c6842a01d9a165ccf) #3
  unreachable

bb14:                                             ; preds = %bb64
  %_146 = load ptr, ptr %grandparent, align 8
  %_147 = ptrtoint ptr %_146 to i64
  %_150 = and i64 %_147, 7
  %_151 = icmp eq i64 %_150, 0
  br i1 %_151, label %bb37, label %panic16

bb5:                                              ; preds = %bb64
  %_224 = load ptr, ptr %grandparent, align 8
  %_225 = ptrtoint ptr %_224 to i64
  %_228 = and i64 %_225, 7
  %_229 = icmp eq i64 %_228, 0
  br i1 %_229, label %bb50, label %panic42

bb37:                                             ; preds = %bb14
  %_412 = load ptr, ptr %grandparent, align 8
  %_413 = ptrtoint ptr %_412 to i64
  %_416 = icmp eq i64 %_413, 0
  %_417 = and i1 %_416, true
  %_418 = xor i1 %_417, true
  br i1 %_418, label %bb78, label %panic17

panic16:                                          ; preds = %bb14
; call core::panicking::panic_misaligned_pointer_dereference
  call void @_ZN4core9panicking36panic_misaligned_pointer_dereference17hcc3cbded9382b6e5E(i64 8, i64 %_147, ptr align 8 @alloc_0fae0c1743a23e24ff727298b268fcfe) #3
  unreachable

bb78:                                             ; preds = %bb37
  %9 = load ptr, ptr %grandparent, align 8
  %10 = getelementptr inbounds i8, ptr %9, i64 8
  %uncle_0 = load ptr, ptr %10, align 8
; call core::ptr::mut_ptr::<impl *mut T>::is_null
  %_41 = call zeroext i1 @"_ZN4core3ptr7mut_ptr31_$LT$impl$u20$$BP$mut$u20$T$GT$7is_null17h412703ffb2fe9dc0E"(ptr %uncle_0) #4
  br i1 %_41, label %bb18, label %bb16

panic17:                                          ; preds = %bb37
; call core::panicking::panic_null_pointer_dereference
  call void @_ZN4core9panicking30panic_null_pointer_dereference17hf718fcc86a223baaE(ptr align 8 @alloc_0fae0c1743a23e24ff727298b268fcfe) #3
  unreachable

bb16:                                             ; preds = %bb78
  %_141 = ptrtoint ptr %uncle_0 to i64
  %_144 = and i64 %_141, 7
  %_145 = icmp eq i64 %_144, 0
  br i1 %_145, label %bb36, label %panic18

bb18:                                             ; preds = %bb79, %bb78
  %_111 = ptrtoint ptr %z to i64
  %_114 = and i64 %_111, 7
  %_115 = icmp eq i64 %_114, 0
  br i1 %_115, label %bb31, label %panic28

bb36:                                             ; preds = %bb16
  %_420 = ptrtoint ptr %uncle_0 to i64
  %_423 = icmp eq i64 %_420, 0
  %_424 = and i1 %_423, true
  %_425 = xor i1 %_424, true
  br i1 %_425, label %bb79, label %panic19

panic18:                                          ; preds = %bb16
; call core::panicking::panic_misaligned_pointer_dereference
  call void @_ZN4core9panicking36panic_misaligned_pointer_dereference17hcc3cbded9382b6e5E(i64 8, i64 %_141, ptr align 8 @alloc_02fc3f8657657a692896d90dd59b87eb) #3
  unreachable

bb79:                                             ; preds = %bb36
  %11 = getelementptr inbounds i8, ptr %uncle_0, i64 32
  %_43 = load i32, ptr %11, align 8
  %_42 = icmp eq i32 %_43, 0
  br i1 %_42, label %bb17, label %bb18

panic19:                                          ; preds = %bb36
; call core::panicking::panic_null_pointer_dereference
  call void @_ZN4core9panicking30panic_null_pointer_dereference17hf718fcc86a223baaE(ptr align 8 @alloc_02fc3f8657657a692896d90dd59b87eb) #3
  unreachable

bb17:                                             ; preds = %bb79
  %_134 = load ptr, ptr %grandparent, align 8
  %_135 = ptrtoint ptr %_134 to i64
  %_138 = and i64 %_135, 7
  %_139 = icmp eq i64 %_138, 0
  br i1 %_139, label %bb35, label %panic20

bb35:                                             ; preds = %bb17
  %_426 = load ptr, ptr %grandparent, align 8
  %_427 = ptrtoint ptr %_426 to i64
  %_430 = icmp eq i64 %_427, 0
  %_431 = and i1 %_430, true
  %_432 = xor i1 %_431, true
  br i1 %_432, label %bb80, label %panic21

panic20:                                          ; preds = %bb17
; call core::panicking::panic_misaligned_pointer_dereference
  call void @_ZN4core9panicking36panic_misaligned_pointer_dereference17hcc3cbded9382b6e5E(i64 8, i64 %_135, ptr align 8 @alloc_f2f8356ab6888f6d01c31575640571ec) #3
  unreachable

bb80:                                             ; preds = %bb35
  %12 = load ptr, ptr %grandparent, align 8
  %13 = getelementptr inbounds i8, ptr %12, i64 32
  store i32 0, ptr %13, align 8
  %_128 = load ptr, ptr %parentpt, align 8
  %_129 = ptrtoint ptr %_128 to i64
  %_132 = and i64 %_129, 7
  %_133 = icmp eq i64 %_132, 0
  br i1 %_133, label %bb34, label %panic22

panic21:                                          ; preds = %bb35
; call core::panicking::panic_null_pointer_dereference
  call void @_ZN4core9panicking30panic_null_pointer_dereference17hf718fcc86a223baaE(ptr align 8 @alloc_f2f8356ab6888f6d01c31575640571ec) #3
  unreachable

bb34:                                             ; preds = %bb80
  %_433 = load ptr, ptr %parentpt, align 8
  %_434 = ptrtoint ptr %_433 to i64
  %_437 = icmp eq i64 %_434, 0
  %_438 = and i1 %_437, true
  %_439 = xor i1 %_438, true
  br i1 %_439, label %bb81, label %panic23

panic22:                                          ; preds = %bb80
; call core::panicking::panic_misaligned_pointer_dereference
  call void @_ZN4core9panicking36panic_misaligned_pointer_dereference17hcc3cbded9382b6e5E(i64 8, i64 %_129, ptr align 8 @alloc_73462a5d6ddc2455469cff5729f9816b) #3
  unreachable

bb81:                                             ; preds = %bb34
  %14 = load ptr, ptr %parentpt, align 8
  %15 = getelementptr inbounds i8, ptr %14, i64 32
  store i32 1, ptr %15, align 8
  %_123 = ptrtoint ptr %uncle_0 to i64
  %_126 = and i64 %_123, 7
  %_127 = icmp eq i64 %_126, 0
  br i1 %_127, label %bb33, label %panic24

panic23:                                          ; preds = %bb34
; call core::panicking::panic_null_pointer_dereference
  call void @_ZN4core9panicking30panic_null_pointer_dereference17hf718fcc86a223baaE(ptr align 8 @alloc_73462a5d6ddc2455469cff5729f9816b) #3
  unreachable

bb33:                                             ; preds = %bb81
  %_441 = ptrtoint ptr %uncle_0 to i64
  %_444 = icmp eq i64 %_441, 0
  %_445 = and i1 %_444, true
  %_446 = xor i1 %_445, true
  br i1 %_446, label %bb82, label %panic25

panic24:                                          ; preds = %bb81
; call core::panicking::panic_misaligned_pointer_dereference
  call void @_ZN4core9panicking36panic_misaligned_pointer_dereference17hcc3cbded9382b6e5E(i64 8, i64 %_123, ptr align 8 @alloc_fc2580789a9daf3e7bfe0e2e62dfa096) #3
  unreachable

bb82:                                             ; preds = %bb33
  %16 = getelementptr inbounds i8, ptr %uncle_0, i64 32
  store i32 1, ptr %16, align 8
  %_46 = load ptr, ptr %grandparent, align 8
  %_117 = ptrtoint ptr %z to i64
  %_120 = and i64 %_117, 7
  %_121 = icmp eq i64 %_120, 0
  br i1 %_121, label %bb32, label %panic26

panic25:                                          ; preds = %bb33
; call core::panicking::panic_null_pointer_dereference
  call void @_ZN4core9panicking30panic_null_pointer_dereference17hf718fcc86a223baaE(ptr align 8 @alloc_fc2580789a9daf3e7bfe0e2e62dfa096) #3
  unreachable

bb32:                                             ; preds = %bb82
  %_448 = ptrtoint ptr %z to i64
  %_451 = icmp eq i64 %_448, 0
  %_452 = and i1 %_451, true
  %_453 = xor i1 %_452, true
  br i1 %_453, label %bb83, label %panic27

panic26:                                          ; preds = %bb82
; call core::panicking::panic_misaligned_pointer_dereference
  call void @_ZN4core9panicking36panic_misaligned_pointer_dereference17hcc3cbded9382b6e5E(i64 8, i64 %_117, ptr align 8 @alloc_742be806bbc5f8fa265176d6f2a5513b) #3
  unreachable

bb83:                                             ; preds = %bb32
  store ptr %_46, ptr %z, align 8
  br label %bb1

panic27:                                          ; preds = %bb32
; call core::panicking::panic_null_pointer_dereference
  call void @_ZN4core9panicking30panic_null_pointer_dereference17hf718fcc86a223baaE(ptr align 8 @alloc_742be806bbc5f8fa265176d6f2a5513b) #3
  unreachable

bb31:                                             ; preds = %bb18
  %_455 = ptrtoint ptr %z to i64
  %_458 = icmp eq i64 %_455, 0
  %_459 = and i1 %_458, true
  %_460 = xor i1 %_459, true
  br i1 %_460, label %bb84, label %panic29

panic28:                                          ; preds = %bb18
; call core::panicking::panic_misaligned_pointer_dereference
  call void @_ZN4core9panicking36panic_misaligned_pointer_dereference17hcc3cbded9382b6e5E(i64 8, i64 %_111, ptr align 8 @alloc_6ab84dd6ad89ebd3d7a23faf67ed6306) #3
  unreachable

bb84:                                             ; preds = %bb31
  %_48 = load ptr, ptr %z, align 8
  %_104 = load ptr, ptr %parentpt, align 8
  %_105 = ptrtoint ptr %_104 to i64
  %_108 = and i64 %_105, 7
  %_109 = icmp eq i64 %_108, 0
  br i1 %_109, label %bb30, label %panic30

panic29:                                          ; preds = %bb31
; call core::panicking::panic_null_pointer_dereference
  call void @_ZN4core9panicking30panic_null_pointer_dereference17hf718fcc86a223baaE(ptr align 8 @alloc_6ab84dd6ad89ebd3d7a23faf67ed6306) #3
  unreachable

bb30:                                             ; preds = %bb84
  %_461 = load ptr, ptr %parentpt, align 8
  %_462 = ptrtoint ptr %_461 to i64
  %_465 = icmp eq i64 %_462, 0
  %_466 = and i1 %_465, true
  %_467 = xor i1 %_466, true
  br i1 %_467, label %bb85, label %panic31

panic30:                                          ; preds = %bb84
; call core::panicking::panic_misaligned_pointer_dereference
  call void @_ZN4core9panicking36panic_misaligned_pointer_dereference17hcc3cbded9382b6e5E(i64 8, i64 %_105, ptr align 8 @alloc_07e021c2c8455ff59c100db47df1439b) #3
  unreachable

bb85:                                             ; preds = %bb30
  %17 = load ptr, ptr %parentpt, align 8
  %18 = getelementptr inbounds i8, ptr %17, i64 8
  %_49 = load ptr, ptr %18, align 8
  %_47 = icmp eq ptr %_48, %_49
  br i1 %_47, label %bb19, label %bb21

panic31:                                          ; preds = %bb30
; call core::panicking::panic_null_pointer_dereference
  call void @_ZN4core9panicking30panic_null_pointer_dereference17hf718fcc86a223baaE(ptr align 8 @alloc_07e021c2c8455ff59c100db47df1439b) #3
  unreachable

bb21:                                             ; preds = %bb87, %bb85
  call void @LeftRotate(ptr %T, ptr %grandparent) #4
  %_86 = load ptr, ptr %parentpt, align 8
  %_87 = ptrtoint ptr %_86 to i64
  %_90 = and i64 %_87, 7
  %_91 = icmp eq i64 %_90, 0
  br i1 %_91, label %bb27, label %panic36

bb19:                                             ; preds = %bb85
  call void @RightRotate(ptr %T, ptr %parentpt) #4
  %_53 = load ptr, ptr %parentpt, align 8
  %_99 = ptrtoint ptr %z to i64
  %_102 = and i64 %_99, 7
  %_103 = icmp eq i64 %_102, 0
  br i1 %_103, label %bb29, label %panic32

bb29:                                             ; preds = %bb19
  %_469 = ptrtoint ptr %z to i64
  %_472 = icmp eq i64 %_469, 0
  %_473 = and i1 %_472, true
  %_474 = xor i1 %_473, true
  br i1 %_474, label %bb86, label %panic33

panic32:                                          ; preds = %bb19
; call core::panicking::panic_misaligned_pointer_dereference
  call void @_ZN4core9panicking36panic_misaligned_pointer_dereference17hcc3cbded9382b6e5E(i64 8, i64 %_99, ptr align 8 @alloc_9025128f6a2e7a461b9fb929dc2c8c98) #3
  unreachable

bb86:                                             ; preds = %bb29
  store ptr %_53, ptr %z, align 8
  %_66 = load ptr, ptr %z, align 8
  %_93 = ptrtoint ptr %_66 to i64
  %_96 = and i64 %_93, 7
  %_97 = icmp eq i64 %_96, 0
  br i1 %_97, label %bb28, label %panic34

panic33:                                          ; preds = %bb29
; call core::panicking::panic_null_pointer_dereference
  call void @_ZN4core9panicking30panic_null_pointer_dereference17hf718fcc86a223baaE(ptr align 8 @alloc_9025128f6a2e7a461b9fb929dc2c8c98) #3
  unreachable

bb28:                                             ; preds = %bb86
  %_476 = ptrtoint ptr %_66 to i64
  %_479 = icmp eq i64 %_476, 0
  %_480 = and i1 %_479, true
  %_481 = xor i1 %_480, true
  br i1 %_481, label %bb87, label %panic35

panic34:                                          ; preds = %bb86
; call core::panicking::panic_misaligned_pointer_dereference
  call void @_ZN4core9panicking36panic_misaligned_pointer_dereference17hcc3cbded9382b6e5E(i64 8, i64 %_93, ptr align 8 @alloc_a0452bf6c07ae36c4dd2a7e96b611cf9) #3
  unreachable

bb87:                                             ; preds = %bb28
  %19 = getelementptr inbounds i8, ptr %_66, i64 24
  %_54 = load ptr, ptr %19, align 8
  store ptr %_54, ptr %parentpt, align 8
  br label %bb21

panic35:                                          ; preds = %bb28
; call core::panicking::panic_null_pointer_dereference
  call void @_ZN4core9panicking30panic_null_pointer_dereference17hf718fcc86a223baaE(ptr align 8 @alloc_a0452bf6c07ae36c4dd2a7e96b611cf9) #3
  unreachable

bb27:                                             ; preds = %bb21
  %_482 = load ptr, ptr %parentpt, align 8
  %_483 = ptrtoint ptr %_482 to i64
  %_486 = icmp eq i64 %_483, 0
  %_487 = and i1 %_486, true
  %_488 = xor i1 %_487, true
  br i1 %_488, label %bb88, label %panic37

panic36:                                          ; preds = %bb21
; call core::panicking::panic_misaligned_pointer_dereference
  call void @_ZN4core9panicking36panic_misaligned_pointer_dereference17hcc3cbded9382b6e5E(i64 8, i64 %_87, ptr align 8 @alloc_c4e6d97e0244118226c837fc644f26d1) #3
  unreachable

bb88:                                             ; preds = %bb27
  %20 = load ptr, ptr %parentpt, align 8
  %21 = getelementptr inbounds i8, ptr %20, i64 32
  store i32 1, ptr %21, align 8
  %_80 = load ptr, ptr %grandparent, align 8
  %_81 = ptrtoint ptr %_80 to i64
  %_84 = and i64 %_81, 7
  %_85 = icmp eq i64 %_84, 0
  br i1 %_85, label %bb26, label %panic38

panic37:                                          ; preds = %bb27
; call core::panicking::panic_null_pointer_dereference
  call void @_ZN4core9panicking30panic_null_pointer_dereference17hf718fcc86a223baaE(ptr align 8 @alloc_c4e6d97e0244118226c837fc644f26d1) #3
  unreachable

bb26:                                             ; preds = %bb88
  %_489 = load ptr, ptr %grandparent, align 8
  %_490 = ptrtoint ptr %_489 to i64
  %_493 = icmp eq i64 %_490, 0
  %_494 = and i1 %_493, true
  %_495 = xor i1 %_494, true
  br i1 %_495, label %bb89, label %panic39

panic38:                                          ; preds = %bb88
; call core::panicking::panic_misaligned_pointer_dereference
  call void @_ZN4core9panicking36panic_misaligned_pointer_dereference17hcc3cbded9382b6e5E(i64 8, i64 %_81, ptr align 8 @alloc_cbea45295cd04667ba212820a0b5b111) #3
  unreachable

bb89:                                             ; preds = %bb26
  %22 = load ptr, ptr %grandparent, align 8
  %23 = getelementptr inbounds i8, ptr %22, i64 32
  store i32 0, ptr %23, align 8
  %_58 = load ptr, ptr %parentpt, align 8
  %_75 = ptrtoint ptr %z to i64
  %_78 = and i64 %_75, 7
  %_79 = icmp eq i64 %_78, 0
  br i1 %_79, label %bb25, label %panic40

panic39:                                          ; preds = %bb26
; call core::panicking::panic_null_pointer_dereference
  call void @_ZN4core9panicking30panic_null_pointer_dereference17hf718fcc86a223baaE(ptr align 8 @alloc_cbea45295cd04667ba212820a0b5b111) #3
  unreachable

bb25:                                             ; preds = %bb89
  %_497 = ptrtoint ptr %z to i64
  %_500 = icmp eq i64 %_497, 0
  %_501 = and i1 %_500, true
  %_502 = xor i1 %_501, true
  br i1 %_502, label %bb90, label %panic41

panic40:                                          ; preds = %bb89
; call core::panicking::panic_misaligned_pointer_dereference
  call void @_ZN4core9panicking36panic_misaligned_pointer_dereference17hcc3cbded9382b6e5E(i64 8, i64 %_75, ptr align 8 @alloc_271037ffdbe6af0aa60f85cb6227b12f) #3
  unreachable

bb90:                                             ; preds = %bb25
  store ptr %_58, ptr %z, align 8
  br label %bb1

panic41:                                          ; preds = %bb25
; call core::panicking::panic_null_pointer_dereference
  call void @_ZN4core9panicking30panic_null_pointer_dereference17hf718fcc86a223baaE(ptr align 8 @alloc_271037ffdbe6af0aa60f85cb6227b12f) #3
  unreachable

bb50:                                             ; preds = %bb5
  %_321 = load ptr, ptr %grandparent, align 8
  %_322 = ptrtoint ptr %_321 to i64
  %_325 = icmp eq i64 %_322, 0
  %_326 = and i1 %_325, true
  %_327 = xor i1 %_326, true
  br i1 %_327, label %bb65, label %panic43

panic42:                                          ; preds = %bb5
; call core::panicking::panic_misaligned_pointer_dereference
  call void @_ZN4core9panicking36panic_misaligned_pointer_dereference17hcc3cbded9382b6e5E(i64 8, i64 %_225, ptr align 8 @alloc_d33473328eb96ae80a008c05eca3e330) #3
  unreachable

bb65:                                             ; preds = %bb50
  %24 = load ptr, ptr %grandparent, align 8
  %25 = getelementptr inbounds i8, ptr %24, i64 16
  %uncle = load ptr, ptr %25, align 8
; call core::ptr::mut_ptr::<impl *mut T>::is_null
  %_22 = call zeroext i1 @"_ZN4core3ptr7mut_ptr31_$LT$impl$u20$$BP$mut$u20$T$GT$7is_null17h412703ffb2fe9dc0E"(ptr %uncle) #4
  br i1 %_22, label %bb9, label %bb7

panic43:                                          ; preds = %bb50
; call core::panicking::panic_null_pointer_dereference
  call void @_ZN4core9panicking30panic_null_pointer_dereference17hf718fcc86a223baaE(ptr align 8 @alloc_d33473328eb96ae80a008c05eca3e330) #3
  unreachable

bb7:                                              ; preds = %bb65
  %_219 = ptrtoint ptr %uncle to i64
  %_222 = and i64 %_219, 7
  %_223 = icmp eq i64 %_222, 0
  br i1 %_223, label %bb49, label %panic44

bb9:                                              ; preds = %bb66, %bb65
  %_189 = ptrtoint ptr %z to i64
  %_192 = and i64 %_189, 7
  %_193 = icmp eq i64 %_192, 0
  br i1 %_193, label %bb44, label %panic54

bb49:                                             ; preds = %bb7
  %_329 = ptrtoint ptr %uncle to i64
  %_332 = icmp eq i64 %_329, 0
  %_333 = and i1 %_332, true
  %_334 = xor i1 %_333, true
  br i1 %_334, label %bb66, label %panic45

panic44:                                          ; preds = %bb7
; call core::panicking::panic_misaligned_pointer_dereference
  call void @_ZN4core9panicking36panic_misaligned_pointer_dereference17hcc3cbded9382b6e5E(i64 8, i64 %_219, ptr align 8 @alloc_b373a8b837617a5fe01f3ee969adfcbf) #3
  unreachable

bb66:                                             ; preds = %bb49
  %26 = getelementptr inbounds i8, ptr %uncle, i64 32
  %_24 = load i32, ptr %26, align 8
  %_23 = icmp eq i32 %_24, 0
  br i1 %_23, label %bb8, label %bb9

panic45:                                          ; preds = %bb49
; call core::panicking::panic_null_pointer_dereference
  call void @_ZN4core9panicking30panic_null_pointer_dereference17hf718fcc86a223baaE(ptr align 8 @alloc_b373a8b837617a5fe01f3ee969adfcbf) #3
  unreachable

bb8:                                              ; preds = %bb66
  %_212 = load ptr, ptr %grandparent, align 8
  %_213 = ptrtoint ptr %_212 to i64
  %_216 = and i64 %_213, 7
  %_217 = icmp eq i64 %_216, 0
  br i1 %_217, label %bb48, label %panic46

bb48:                                             ; preds = %bb8
  %_335 = load ptr, ptr %grandparent, align 8
  %_336 = ptrtoint ptr %_335 to i64
  %_339 = icmp eq i64 %_336, 0
  %_340 = and i1 %_339, true
  %_341 = xor i1 %_340, true
  br i1 %_341, label %bb67, label %panic47

panic46:                                          ; preds = %bb8
; call core::panicking::panic_misaligned_pointer_dereference
  call void @_ZN4core9panicking36panic_misaligned_pointer_dereference17hcc3cbded9382b6e5E(i64 8, i64 %_213, ptr align 8 @alloc_f1c693e3b94320c639f0a594f5dc048b) #3
  unreachable

bb67:                                             ; preds = %bb48
  %27 = load ptr, ptr %grandparent, align 8
  %28 = getelementptr inbounds i8, ptr %27, i64 32
  store i32 0, ptr %28, align 8
  %_206 = load ptr, ptr %parentpt, align 8
  %_207 = ptrtoint ptr %_206 to i64
  %_210 = and i64 %_207, 7
  %_211 = icmp eq i64 %_210, 0
  br i1 %_211, label %bb47, label %panic48

panic47:                                          ; preds = %bb48
; call core::panicking::panic_null_pointer_dereference
  call void @_ZN4core9panicking30panic_null_pointer_dereference17hf718fcc86a223baaE(ptr align 8 @alloc_f1c693e3b94320c639f0a594f5dc048b) #3
  unreachable

bb47:                                             ; preds = %bb67
  %_342 = load ptr, ptr %parentpt, align 8
  %_343 = ptrtoint ptr %_342 to i64
  %_346 = icmp eq i64 %_343, 0
  %_347 = and i1 %_346, true
  %_348 = xor i1 %_347, true
  br i1 %_348, label %bb68, label %panic49

panic48:                                          ; preds = %bb67
; call core::panicking::panic_misaligned_pointer_dereference
  call void @_ZN4core9panicking36panic_misaligned_pointer_dereference17hcc3cbded9382b6e5E(i64 8, i64 %_207, ptr align 8 @alloc_a924c5f5056e53437e970619bd591c5c) #3
  unreachable

bb68:                                             ; preds = %bb47
  %29 = load ptr, ptr %parentpt, align 8
  %30 = getelementptr inbounds i8, ptr %29, i64 32
  store i32 1, ptr %30, align 8
  %_201 = ptrtoint ptr %uncle to i64
  %_204 = and i64 %_201, 7
  %_205 = icmp eq i64 %_204, 0
  br i1 %_205, label %bb46, label %panic50

panic49:                                          ; preds = %bb47
; call core::panicking::panic_null_pointer_dereference
  call void @_ZN4core9panicking30panic_null_pointer_dereference17hf718fcc86a223baaE(ptr align 8 @alloc_a924c5f5056e53437e970619bd591c5c) #3
  unreachable

bb46:                                             ; preds = %bb68
  %_350 = ptrtoint ptr %uncle to i64
  %_353 = icmp eq i64 %_350, 0
  %_354 = and i1 %_353, true
  %_355 = xor i1 %_354, true
  br i1 %_355, label %bb69, label %panic51

panic50:                                          ; preds = %bb68
; call core::panicking::panic_misaligned_pointer_dereference
  call void @_ZN4core9panicking36panic_misaligned_pointer_dereference17hcc3cbded9382b6e5E(i64 8, i64 %_201, ptr align 8 @alloc_637dccc209ae06d980b6cbff01c4a094) #3
  unreachable

bb69:                                             ; preds = %bb46
  %31 = getelementptr inbounds i8, ptr %uncle, i64 32
  store i32 1, ptr %31, align 8
  %_27 = load ptr, ptr %grandparent, align 8
  %_195 = ptrtoint ptr %z to i64
  %_198 = and i64 %_195, 7
  %_199 = icmp eq i64 %_198, 0
  br i1 %_199, label %bb45, label %panic52

panic51:                                          ; preds = %bb46
; call core::panicking::panic_null_pointer_dereference
  call void @_ZN4core9panicking30panic_null_pointer_dereference17hf718fcc86a223baaE(ptr align 8 @alloc_637dccc209ae06d980b6cbff01c4a094) #3
  unreachable

bb45:                                             ; preds = %bb69
  %_357 = ptrtoint ptr %z to i64
  %_360 = icmp eq i64 %_357, 0
  %_361 = and i1 %_360, true
  %_362 = xor i1 %_361, true
  br i1 %_362, label %bb70, label %panic53

panic52:                                          ; preds = %bb69
; call core::panicking::panic_misaligned_pointer_dereference
  call void @_ZN4core9panicking36panic_misaligned_pointer_dereference17hcc3cbded9382b6e5E(i64 8, i64 %_195, ptr align 8 @alloc_1208d10a34951dc63f5989443cb5f268) #3
  unreachable

bb70:                                             ; preds = %bb45
  store ptr %_27, ptr %z, align 8
  br label %bb1

panic53:                                          ; preds = %bb45
; call core::panicking::panic_null_pointer_dereference
  call void @_ZN4core9panicking30panic_null_pointer_dereference17hf718fcc86a223baaE(ptr align 8 @alloc_1208d10a34951dc63f5989443cb5f268) #3
  unreachable

bb44:                                             ; preds = %bb9
  %_364 = ptrtoint ptr %z to i64
  %_367 = icmp eq i64 %_364, 0
  %_368 = and i1 %_367, true
  %_369 = xor i1 %_368, true
  br i1 %_369, label %bb71, label %panic55

panic54:                                          ; preds = %bb9
; call core::panicking::panic_misaligned_pointer_dereference
  call void @_ZN4core9panicking36panic_misaligned_pointer_dereference17hcc3cbded9382b6e5E(i64 8, i64 %_189, ptr align 8 @alloc_d93d9a5a9c8b8eaad328d7c44e211d84) #3
  unreachable

bb71:                                             ; preds = %bb44
  %_29 = load ptr, ptr %z, align 8
  %_182 = load ptr, ptr %parentpt, align 8
  %_183 = ptrtoint ptr %_182 to i64
  %_186 = and i64 %_183, 7
  %_187 = icmp eq i64 %_186, 0
  br i1 %_187, label %bb43, label %panic56

panic55:                                          ; preds = %bb44
; call core::panicking::panic_null_pointer_dereference
  call void @_ZN4core9panicking30panic_null_pointer_dereference17hf718fcc86a223baaE(ptr align 8 @alloc_d93d9a5a9c8b8eaad328d7c44e211d84) #3
  unreachable

bb43:                                             ; preds = %bb71
  %_370 = load ptr, ptr %parentpt, align 8
  %_371 = ptrtoint ptr %_370 to i64
  %_374 = icmp eq i64 %_371, 0
  %_375 = and i1 %_374, true
  %_376 = xor i1 %_375, true
  br i1 %_376, label %bb72, label %panic57

panic56:                                          ; preds = %bb71
; call core::panicking::panic_misaligned_pointer_dereference
  call void @_ZN4core9panicking36panic_misaligned_pointer_dereference17hcc3cbded9382b6e5E(i64 8, i64 %_183, ptr align 8 @alloc_fe2ab1856956b4384276a97703ba115f) #3
  unreachable

bb72:                                             ; preds = %bb43
  %32 = load ptr, ptr %parentpt, align 8
  %33 = getelementptr inbounds i8, ptr %32, i64 16
  %_30 = load ptr, ptr %33, align 8
  %_28 = icmp eq ptr %_29, %_30
  br i1 %_28, label %bb10, label %bb12

panic57:                                          ; preds = %bb43
; call core::panicking::panic_null_pointer_dereference
  call void @_ZN4core9panicking30panic_null_pointer_dereference17hf718fcc86a223baaE(ptr align 8 @alloc_fe2ab1856956b4384276a97703ba115f) #3
  unreachable

bb12:                                             ; preds = %bb74, %bb72
  call void @RightRotate(ptr %T, ptr %grandparent) #4
  %_164 = load ptr, ptr %parentpt, align 8
  %_165 = ptrtoint ptr %_164 to i64
  %_168 = and i64 %_165, 7
  %_169 = icmp eq i64 %_168, 0
  br i1 %_169, label %bb40, label %panic62

bb10:                                             ; preds = %bb72
  call void @LeftRotate(ptr %T, ptr %parentpt) #4
  %_34 = load ptr, ptr %parentpt, align 8
  %_177 = ptrtoint ptr %z to i64
  %_180 = and i64 %_177, 7
  %_181 = icmp eq i64 %_180, 0
  br i1 %_181, label %bb42, label %panic58

bb42:                                             ; preds = %bb10
  %_378 = ptrtoint ptr %z to i64
  %_381 = icmp eq i64 %_378, 0
  %_382 = and i1 %_381, true
  %_383 = xor i1 %_382, true
  br i1 %_383, label %bb73, label %panic59

panic58:                                          ; preds = %bb10
; call core::panicking::panic_misaligned_pointer_dereference
  call void @_ZN4core9panicking36panic_misaligned_pointer_dereference17hcc3cbded9382b6e5E(i64 8, i64 %_177, ptr align 8 @alloc_4b4b09a4bedc7a577dbab104a48e1ede) #3
  unreachable

bb73:                                             ; preds = %bb42
  store ptr %_34, ptr %z, align 8
  %_65 = load ptr, ptr %z, align 8
  %_171 = ptrtoint ptr %_65 to i64
  %_174 = and i64 %_171, 7
  %_175 = icmp eq i64 %_174, 0
  br i1 %_175, label %bb41, label %panic60

panic59:                                          ; preds = %bb42
; call core::panicking::panic_null_pointer_dereference
  call void @_ZN4core9panicking30panic_null_pointer_dereference17hf718fcc86a223baaE(ptr align 8 @alloc_4b4b09a4bedc7a577dbab104a48e1ede) #3
  unreachable

bb41:                                             ; preds = %bb73
  %_385 = ptrtoint ptr %_65 to i64
  %_388 = icmp eq i64 %_385, 0
  %_389 = and i1 %_388, true
  %_390 = xor i1 %_389, true
  br i1 %_390, label %bb74, label %panic61

panic60:                                          ; preds = %bb73
; call core::panicking::panic_misaligned_pointer_dereference
  call void @_ZN4core9panicking36panic_misaligned_pointer_dereference17hcc3cbded9382b6e5E(i64 8, i64 %_171, ptr align 8 @alloc_5e587d5eb6f8424b44761c0f3e98a2e9) #3
  unreachable

bb74:                                             ; preds = %bb41
  %34 = getelementptr inbounds i8, ptr %_65, i64 24
  %_35 = load ptr, ptr %34, align 8
  store ptr %_35, ptr %parentpt, align 8
  br label %bb12

panic61:                                          ; preds = %bb41
; call core::panicking::panic_null_pointer_dereference
  call void @_ZN4core9panicking30panic_null_pointer_dereference17hf718fcc86a223baaE(ptr align 8 @alloc_5e587d5eb6f8424b44761c0f3e98a2e9) #3
  unreachable

bb40:                                             ; preds = %bb12
  %_391 = load ptr, ptr %parentpt, align 8
  %_392 = ptrtoint ptr %_391 to i64
  %_395 = icmp eq i64 %_392, 0
  %_396 = and i1 %_395, true
  %_397 = xor i1 %_396, true
  br i1 %_397, label %bb75, label %panic63

panic62:                                          ; preds = %bb12
; call core::panicking::panic_misaligned_pointer_dereference
  call void @_ZN4core9panicking36panic_misaligned_pointer_dereference17hcc3cbded9382b6e5E(i64 8, i64 %_165, ptr align 8 @alloc_dac4d9f147958fdaa8a7828bc4d6ad4b) #3
  unreachable

bb75:                                             ; preds = %bb40
  %35 = load ptr, ptr %parentpt, align 8
  %36 = getelementptr inbounds i8, ptr %35, i64 32
  store i32 1, ptr %36, align 8
  %_158 = load ptr, ptr %grandparent, align 8
  %_159 = ptrtoint ptr %_158 to i64
  %_162 = and i64 %_159, 7
  %_163 = icmp eq i64 %_162, 0
  br i1 %_163, label %bb39, label %panic64

panic63:                                          ; preds = %bb40
; call core::panicking::panic_null_pointer_dereference
  call void @_ZN4core9panicking30panic_null_pointer_dereference17hf718fcc86a223baaE(ptr align 8 @alloc_dac4d9f147958fdaa8a7828bc4d6ad4b) #3
  unreachable

bb39:                                             ; preds = %bb75
  %_398 = load ptr, ptr %grandparent, align 8
  %_399 = ptrtoint ptr %_398 to i64
  %_402 = icmp eq i64 %_399, 0
  %_403 = and i1 %_402, true
  %_404 = xor i1 %_403, true
  br i1 %_404, label %bb76, label %panic65

panic64:                                          ; preds = %bb75
; call core::panicking::panic_misaligned_pointer_dereference
  call void @_ZN4core9panicking36panic_misaligned_pointer_dereference17hcc3cbded9382b6e5E(i64 8, i64 %_159, ptr align 8 @alloc_1bafa3af2a652a5e6af5f0381e69d0a1) #3
  unreachable

bb76:                                             ; preds = %bb39
  %37 = load ptr, ptr %grandparent, align 8
  %38 = getelementptr inbounds i8, ptr %37, i64 32
  store i32 0, ptr %38, align 8
  %_39 = load ptr, ptr %parentpt, align 8
  %_153 = ptrtoint ptr %z to i64
  %_156 = and i64 %_153, 7
  %_157 = icmp eq i64 %_156, 0
  br i1 %_157, label %bb38, label %panic66

panic65:                                          ; preds = %bb39
; call core::panicking::panic_null_pointer_dereference
  call void @_ZN4core9panicking30panic_null_pointer_dereference17hf718fcc86a223baaE(ptr align 8 @alloc_1bafa3af2a652a5e6af5f0381e69d0a1) #3
  unreachable

bb38:                                             ; preds = %bb76
  %_406 = ptrtoint ptr %z to i64
  %_409 = icmp eq i64 %_406, 0
  %_410 = and i1 %_409, true
  %_411 = xor i1 %_410, true
  br i1 %_411, label %bb77, label %panic67

panic66:                                          ; preds = %bb76
; call core::panicking::panic_misaligned_pointer_dereference
  call void @_ZN4core9panicking36panic_misaligned_pointer_dereference17hcc3cbded9382b6e5E(i64 8, i64 %_153, ptr align 8 @alloc_3b88cb096d84cffd3c7630aa4a929537) #3
  unreachable

bb77:                                             ; preds = %bb38
  store ptr %_39, ptr %z, align 8
  br label %bb1

panic67:                                          ; preds = %bb38
; call core::panicking::panic_null_pointer_dereference
  call void @_ZN4core9panicking30panic_null_pointer_dereference17hf718fcc86a223baaE(ptr align 8 @alloc_3b88cb096d84cffd3c7630aa4a929537) #3
  unreachable
}

; Function Attrs: nounwind nonlazybind
define ptr @RB_insert(ptr %0, i32 %data) unnamed_addr #1 {
start:
  %x = alloca [8 x i8], align 8
  %y = alloca [8 x i8], align 8
  %z = alloca [8 x i8], align 8
  %T = alloca [8 x i8], align 8
  store ptr %0, ptr %T, align 8
  %_4 = call ptr @malloc(i64 40) #4
  store ptr %_4, ptr %z, align 8
  %_109 = load ptr, ptr %z, align 8
  %_110 = ptrtoint ptr %_109 to i64
  %_113 = and i64 %_110, 7
  %_114 = icmp eq i64 %_113, 0
  br i1 %_114, label %bb29, label %panic

bb29:                                             ; preds = %start
  %_115 = load ptr, ptr %z, align 8
  %_116 = ptrtoint ptr %_115 to i64
  %_119 = icmp eq i64 %_116, 0
  %_120 = and i1 %_119, true
  %_121 = xor i1 %_120, true
  br i1 %_121, label %bb30, label %panic1

panic:                                            ; preds = %start
; call core::panicking::panic_misaligned_pointer_dereference
  call void @_ZN4core9panicking36panic_misaligned_pointer_dereference17hcc3cbded9382b6e5E(i64 8, i64 %_110, ptr align 8 @alloc_8616f1d03d0efa58bfba4cb8e42dd4eb) #3
  unreachable

bb30:                                             ; preds = %bb29
  %1 = load ptr, ptr %z, align 8
  store i32 %data, ptr %1, align 8
  %_103 = load ptr, ptr %z, align 8
  %_104 = ptrtoint ptr %_103 to i64
  %_107 = and i64 %_104, 7
  %_108 = icmp eq i64 %_107, 0
  br i1 %_108, label %bb28, label %panic2

panic1:                                           ; preds = %bb29
; call core::panicking::panic_null_pointer_dereference
  call void @_ZN4core9panicking30panic_null_pointer_dereference17hf718fcc86a223baaE(ptr align 8 @alloc_8616f1d03d0efa58bfba4cb8e42dd4eb) #3
  unreachable

bb28:                                             ; preds = %bb30
  %_122 = load ptr, ptr %z, align 8
  %_123 = ptrtoint ptr %_122 to i64
  %_126 = icmp eq i64 %_123, 0
  %_127 = and i1 %_126, true
  %_128 = xor i1 %_127, true
  br i1 %_128, label %bb31, label %panic3

panic2:                                           ; preds = %bb30
; call core::panicking::panic_misaligned_pointer_dereference
  call void @_ZN4core9panicking36panic_misaligned_pointer_dereference17hcc3cbded9382b6e5E(i64 8, i64 %_104, ptr align 8 @alloc_147709643234c0e43fb19b8058ab450f) #3
  unreachable

bb31:                                             ; preds = %bb28
  %2 = load ptr, ptr %z, align 8
  %3 = getelementptr inbounds i8, ptr %2, i64 8
  store ptr null, ptr %3, align 8
  %_97 = load ptr, ptr %z, align 8
  %_98 = ptrtoint ptr %_97 to i64
  %_101 = and i64 %_98, 7
  %_102 = icmp eq i64 %_101, 0
  br i1 %_102, label %bb27, label %panic4

panic3:                                           ; preds = %bb28
; call core::panicking::panic_null_pointer_dereference
  call void @_ZN4core9panicking30panic_null_pointer_dereference17hf718fcc86a223baaE(ptr align 8 @alloc_147709643234c0e43fb19b8058ab450f) #3
  unreachable

bb27:                                             ; preds = %bb31
  %_129 = load ptr, ptr %z, align 8
  %_130 = ptrtoint ptr %_129 to i64
  %_133 = icmp eq i64 %_130, 0
  %_134 = and i1 %_133, true
  %_135 = xor i1 %_134, true
  br i1 %_135, label %bb32, label %panic5

panic4:                                           ; preds = %bb31
; call core::panicking::panic_misaligned_pointer_dereference
  call void @_ZN4core9panicking36panic_misaligned_pointer_dereference17hcc3cbded9382b6e5E(i64 8, i64 %_98, ptr align 8 @alloc_c45baa1f3a7c99d88c7d8f140477241e) #3
  unreachable

bb32:                                             ; preds = %bb27
  %4 = load ptr, ptr %z, align 8
  %5 = getelementptr inbounds i8, ptr %4, i64 16
  store ptr null, ptr %5, align 8
  %_91 = load ptr, ptr %z, align 8
  %_92 = ptrtoint ptr %_91 to i64
  %_95 = and i64 %_92, 7
  %_96 = icmp eq i64 %_95, 0
  br i1 %_96, label %bb26, label %panic6

panic5:                                           ; preds = %bb27
; call core::panicking::panic_null_pointer_dereference
  call void @_ZN4core9panicking30panic_null_pointer_dereference17hf718fcc86a223baaE(ptr align 8 @alloc_c45baa1f3a7c99d88c7d8f140477241e) #3
  unreachable

bb26:                                             ; preds = %bb32
  %_136 = load ptr, ptr %z, align 8
  %_137 = ptrtoint ptr %_136 to i64
  %_140 = icmp eq i64 %_137, 0
  %_141 = and i1 %_140, true
  %_142 = xor i1 %_141, true
  br i1 %_142, label %bb33, label %panic7

panic6:                                           ; preds = %bb32
; call core::panicking::panic_misaligned_pointer_dereference
  call void @_ZN4core9panicking36panic_misaligned_pointer_dereference17hcc3cbded9382b6e5E(i64 8, i64 %_92, ptr align 8 @alloc_8c10ced135ffc3554774c32cb4497baf) #3
  unreachable

bb33:                                             ; preds = %bb26
  %6 = load ptr, ptr %z, align 8
  %7 = getelementptr inbounds i8, ptr %6, i64 24
  store ptr null, ptr %7, align 8
  %_85 = load ptr, ptr %z, align 8
  %_86 = ptrtoint ptr %_85 to i64
  %_89 = and i64 %_86, 7
  %_90 = icmp eq i64 %_89, 0
  br i1 %_90, label %bb25, label %panic8

panic7:                                           ; preds = %bb26
; call core::panicking::panic_null_pointer_dereference
  call void @_ZN4core9panicking30panic_null_pointer_dereference17hf718fcc86a223baaE(ptr align 8 @alloc_8c10ced135ffc3554774c32cb4497baf) #3
  unreachable

bb25:                                             ; preds = %bb33
  %_143 = load ptr, ptr %z, align 8
  %_144 = ptrtoint ptr %_143 to i64
  %_147 = icmp eq i64 %_144, 0
  %_148 = and i1 %_147, true
  %_149 = xor i1 %_148, true
  br i1 %_149, label %bb34, label %panic9

panic8:                                           ; preds = %bb33
; call core::panicking::panic_misaligned_pointer_dereference
  call void @_ZN4core9panicking36panic_misaligned_pointer_dereference17hcc3cbded9382b6e5E(i64 8, i64 %_86, ptr align 8 @alloc_b95678b168d07cea34a0ff987b0c895a) #3
  unreachable

bb34:                                             ; preds = %bb25
  %8 = load ptr, ptr %z, align 8
  %9 = getelementptr inbounds i8, ptr %8, i64 32
  store i32 0, ptr %9, align 8
  store ptr null, ptr %y, align 8
  %10 = load ptr, ptr %T, align 8
  store ptr %10, ptr %x, align 8
  br label %bb3

panic9:                                           ; preds = %bb25
; call core::panicking::panic_null_pointer_dereference
  call void @_ZN4core9panicking30panic_null_pointer_dereference17hf718fcc86a223baaE(ptr align 8 @alloc_b95678b168d07cea34a0ff987b0c895a) #3
  unreachable

bb3:                                              ; preds = %bb38, %bb39, %bb34
  %_10 = load ptr, ptr %x, align 8
; call core::ptr::mut_ptr::<impl *mut T>::is_null
  %_9 = call zeroext i1 @"_ZN4core3ptr7mut_ptr31_$LT$impl$u20$$BP$mut$u20$T$GT$7is_null17h412703ffb2fe9dc0E"(ptr %_10) #4
  br i1 %_9, label %bb5, label %bb6

bb6:                                              ; preds = %bb3
  %_11 = load ptr, ptr %x, align 8
  store ptr %_11, ptr %y, align 8
  %_73 = load ptr, ptr %z, align 8
  %_74 = ptrtoint ptr %_73 to i64
  %_77 = and i64 %_74, 7
  %_78 = icmp eq i64 %_77, 0
  br i1 %_78, label %bb23, label %panic10

bb5:                                              ; preds = %bb3
  %_17 = load ptr, ptr %y, align 8
  %_79 = load ptr, ptr %z, align 8
  %_80 = ptrtoint ptr %_79 to i64
  %_83 = and i64 %_80, 7
  %_84 = icmp eq i64 %_83, 0
  br i1 %_84, label %bb24, label %panic18

bb23:                                             ; preds = %bb6
  %_157 = load ptr, ptr %z, align 8
  %_158 = ptrtoint ptr %_157 to i64
  %_161 = icmp eq i64 %_158, 0
  %_162 = and i1 %_161, true
  %_163 = xor i1 %_162, true
  br i1 %_163, label %bb36, label %panic11

panic10:                                          ; preds = %bb6
; call core::panicking::panic_misaligned_pointer_dereference
  call void @_ZN4core9panicking36panic_misaligned_pointer_dereference17hcc3cbded9382b6e5E(i64 8, i64 %_74, ptr align 8 @alloc_5b61a4abfe1c5b6a60b0c2ce59e2b524) #3
  unreachable

bb36:                                             ; preds = %bb23
  %11 = load ptr, ptr %z, align 8
  %_13 = load i32, ptr %11, align 8
  %_67 = load ptr, ptr %x, align 8
  %_68 = ptrtoint ptr %_67 to i64
  %_71 = and i64 %_68, 7
  %_72 = icmp eq i64 %_71, 0
  br i1 %_72, label %bb22, label %panic12

panic11:                                          ; preds = %bb23
; call core::panicking::panic_null_pointer_dereference
  call void @_ZN4core9panicking30panic_null_pointer_dereference17hf718fcc86a223baaE(ptr align 8 @alloc_5b61a4abfe1c5b6a60b0c2ce59e2b524) #3
  unreachable

bb22:                                             ; preds = %bb36
  %_164 = load ptr, ptr %x, align 8
  %_165 = ptrtoint ptr %_164 to i64
  %_168 = icmp eq i64 %_165, 0
  %_169 = and i1 %_168, true
  %_170 = xor i1 %_169, true
  br i1 %_170, label %bb37, label %panic13

panic12:                                          ; preds = %bb36
; call core::panicking::panic_misaligned_pointer_dereference
  call void @_ZN4core9panicking36panic_misaligned_pointer_dereference17hcc3cbded9382b6e5E(i64 8, i64 %_68, ptr align 8 @alloc_01038da33ca47df0cf2b978914f2b0fc) #3
  unreachable

bb37:                                             ; preds = %bb22
  %12 = load ptr, ptr %x, align 8
  %_14 = load i32, ptr %12, align 8
  %_12 = icmp slt i32 %_13, %_14
  br i1 %_12, label %bb7, label %bb8

panic13:                                          ; preds = %bb22
; call core::panicking::panic_null_pointer_dereference
  call void @_ZN4core9panicking30panic_null_pointer_dereference17hf718fcc86a223baaE(ptr align 8 @alloc_01038da33ca47df0cf2b978914f2b0fc) #3
  unreachable

bb8:                                              ; preds = %bb37
  %_55 = load ptr, ptr %x, align 8
  %_56 = ptrtoint ptr %_55 to i64
  %_59 = and i64 %_56, 7
  %_60 = icmp eq i64 %_59, 0
  br i1 %_60, label %bb20, label %panic14

bb7:                                              ; preds = %bb37
  %_61 = load ptr, ptr %x, align 8
  %_62 = ptrtoint ptr %_61 to i64
  %_65 = and i64 %_62, 7
  %_66 = icmp eq i64 %_65, 0
  br i1 %_66, label %bb21, label %panic16

bb20:                                             ; preds = %bb8
  %_178 = load ptr, ptr %x, align 8
  %_179 = ptrtoint ptr %_178 to i64
  %_182 = icmp eq i64 %_179, 0
  %_183 = and i1 %_182, true
  %_184 = xor i1 %_183, true
  br i1 %_184, label %bb39, label %panic15

panic14:                                          ; preds = %bb8
; call core::panicking::panic_misaligned_pointer_dereference
  call void @_ZN4core9panicking36panic_misaligned_pointer_dereference17hcc3cbded9382b6e5E(i64 8, i64 %_56, ptr align 8 @alloc_e492306b859161ca4de35248fa43f57d) #3
  unreachable

bb39:                                             ; preds = %bb20
  %13 = load ptr, ptr %x, align 8
  %14 = getelementptr inbounds i8, ptr %13, i64 16
  %_16 = load ptr, ptr %14, align 8
  store ptr %_16, ptr %x, align 8
  br label %bb3

panic15:                                          ; preds = %bb20
; call core::panicking::panic_null_pointer_dereference
  call void @_ZN4core9panicking30panic_null_pointer_dereference17hf718fcc86a223baaE(ptr align 8 @alloc_e492306b859161ca4de35248fa43f57d) #3
  unreachable

bb21:                                             ; preds = %bb7
  %_171 = load ptr, ptr %x, align 8
  %_172 = ptrtoint ptr %_171 to i64
  %_175 = icmp eq i64 %_172, 0
  %_176 = and i1 %_175, true
  %_177 = xor i1 %_176, true
  br i1 %_177, label %bb38, label %panic17

panic16:                                          ; preds = %bb7
; call core::panicking::panic_misaligned_pointer_dereference
  call void @_ZN4core9panicking36panic_misaligned_pointer_dereference17hcc3cbded9382b6e5E(i64 8, i64 %_62, ptr align 8 @alloc_11b66a255f461a33f79ea72a6d8e3954) #3
  unreachable

bb38:                                             ; preds = %bb21
  %15 = load ptr, ptr %x, align 8
  %16 = getelementptr inbounds i8, ptr %15, i64 8
  %_15 = load ptr, ptr %16, align 8
  store ptr %_15, ptr %x, align 8
  br label %bb3

panic17:                                          ; preds = %bb21
; call core::panicking::panic_null_pointer_dereference
  call void @_ZN4core9panicking30panic_null_pointer_dereference17hf718fcc86a223baaE(ptr align 8 @alloc_11b66a255f461a33f79ea72a6d8e3954) #3
  unreachable

bb24:                                             ; preds = %bb5
  %_150 = load ptr, ptr %z, align 8
  %_151 = ptrtoint ptr %_150 to i64
  %_154 = icmp eq i64 %_151, 0
  %_155 = and i1 %_154, true
  %_156 = xor i1 %_155, true
  br i1 %_156, label %bb35, label %panic19

panic18:                                          ; preds = %bb5
; call core::panicking::panic_misaligned_pointer_dereference
  call void @_ZN4core9panicking36panic_misaligned_pointer_dereference17hcc3cbded9382b6e5E(i64 8, i64 %_80, ptr align 8 @alloc_8e99f3de8f967564ecbf12f1d0cee32d) #3
  unreachable

bb35:                                             ; preds = %bb24
  %17 = load ptr, ptr %z, align 8
  %18 = getelementptr inbounds i8, ptr %17, i64 24
  store ptr %_17, ptr %18, align 8
  %_19 = load ptr, ptr %y, align 8
; call core::ptr::mut_ptr::<impl *mut T>::is_null
  %_18 = call zeroext i1 @"_ZN4core3ptr7mut_ptr31_$LT$impl$u20$$BP$mut$u20$T$GT$7is_null17h412703ffb2fe9dc0E"(ptr %_19) #4
  br i1 %_18, label %bb10, label %bb11

panic19:                                          ; preds = %bb24
; call core::panicking::panic_null_pointer_dereference
  call void @_ZN4core9panicking30panic_null_pointer_dereference17hf718fcc86a223baaE(ptr align 8 @alloc_8e99f3de8f967564ecbf12f1d0cee32d) #3
  unreachable

bb11:                                             ; preds = %bb35
  %_49 = load ptr, ptr %z, align 8
  %_50 = ptrtoint ptr %_49 to i64
  %_53 = and i64 %_50, 7
  %_54 = icmp eq i64 %_53, 0
  br i1 %_54, label %bb19, label %panic20

bb10:                                             ; preds = %bb35
  %_20 = load ptr, ptr %z, align 8
  store ptr %_20, ptr %T, align 8
  br label %bb14

bb19:                                             ; preds = %bb11
  %_185 = load ptr, ptr %z, align 8
  %_186 = ptrtoint ptr %_185 to i64
  %_189 = icmp eq i64 %_186, 0
  %_190 = and i1 %_189, true
  %_191 = xor i1 %_190, true
  br i1 %_191, label %bb40, label %panic21

panic20:                                          ; preds = %bb11
; call core::panicking::panic_misaligned_pointer_dereference
  call void @_ZN4core9panicking36panic_misaligned_pointer_dereference17hcc3cbded9382b6e5E(i64 8, i64 %_50, ptr align 8 @alloc_38eda74053cb1841314bee73e69d82cf) #3
  unreachable

bb40:                                             ; preds = %bb19
  %19 = load ptr, ptr %z, align 8
  %_22 = load i32, ptr %19, align 8
  %_43 = load ptr, ptr %y, align 8
  %_44 = ptrtoint ptr %_43 to i64
  %_47 = and i64 %_44, 7
  %_48 = icmp eq i64 %_47, 0
  br i1 %_48, label %bb18, label %panic22

panic21:                                          ; preds = %bb19
; call core::panicking::panic_null_pointer_dereference
  call void @_ZN4core9panicking30panic_null_pointer_dereference17hf718fcc86a223baaE(ptr align 8 @alloc_38eda74053cb1841314bee73e69d82cf) #3
  unreachable

bb18:                                             ; preds = %bb40
  %_192 = load ptr, ptr %y, align 8
  %_193 = ptrtoint ptr %_192 to i64
  %_196 = icmp eq i64 %_193, 0
  %_197 = and i1 %_196, true
  %_198 = xor i1 %_197, true
  br i1 %_198, label %bb41, label %panic23

panic22:                                          ; preds = %bb40
; call core::panicking::panic_misaligned_pointer_dereference
  call void @_ZN4core9panicking36panic_misaligned_pointer_dereference17hcc3cbded9382b6e5E(i64 8, i64 %_44, ptr align 8 @alloc_bc89b9258792e463b24de603f11a2a34) #3
  unreachable

bb41:                                             ; preds = %bb18
  %20 = load ptr, ptr %y, align 8
  %_23 = load i32, ptr %20, align 8
  %_21 = icmp slt i32 %_22, %_23
  br i1 %_21, label %bb12, label %bb13

panic23:                                          ; preds = %bb18
; call core::panicking::panic_null_pointer_dereference
  call void @_ZN4core9panicking30panic_null_pointer_dereference17hf718fcc86a223baaE(ptr align 8 @alloc_bc89b9258792e463b24de603f11a2a34) #3
  unreachable

bb13:                                             ; preds = %bb41
  %_25 = load ptr, ptr %z, align 8
  %_31 = load ptr, ptr %y, align 8
  %_32 = ptrtoint ptr %_31 to i64
  %_35 = and i64 %_32, 7
  %_36 = icmp eq i64 %_35, 0
  br i1 %_36, label %bb16, label %panic24

bb12:                                             ; preds = %bb41
  %_24 = load ptr, ptr %z, align 8
  %_37 = load ptr, ptr %y, align 8
  %_38 = ptrtoint ptr %_37 to i64
  %_41 = and i64 %_38, 7
  %_42 = icmp eq i64 %_41, 0
  br i1 %_42, label %bb17, label %panic26

bb16:                                             ; preds = %bb13
  %_206 = load ptr, ptr %y, align 8
  %_207 = ptrtoint ptr %_206 to i64
  %_210 = icmp eq i64 %_207, 0
  %_211 = and i1 %_210, true
  %_212 = xor i1 %_211, true
  br i1 %_212, label %bb43, label %panic25

panic24:                                          ; preds = %bb13
; call core::panicking::panic_misaligned_pointer_dereference
  call void @_ZN4core9panicking36panic_misaligned_pointer_dereference17hcc3cbded9382b6e5E(i64 8, i64 %_32, ptr align 8 @alloc_b0b7f15f223ab5b9f460e3d364ac2b7b) #3
  unreachable

bb43:                                             ; preds = %bb16
  %21 = load ptr, ptr %y, align 8
  %22 = getelementptr inbounds i8, ptr %21, i64 16
  store ptr %_25, ptr %22, align 8
  br label %bb14

panic25:                                          ; preds = %bb16
; call core::panicking::panic_null_pointer_dereference
  call void @_ZN4core9panicking30panic_null_pointer_dereference17hf718fcc86a223baaE(ptr align 8 @alloc_b0b7f15f223ab5b9f460e3d364ac2b7b) #3
  unreachable

bb14:                                             ; preds = %bb10, %bb42, %bb43
  call void @RB_insert_fixup(ptr %T, ptr %z) #4
  %_0 = load ptr, ptr %T, align 8
  ret ptr %_0

bb17:                                             ; preds = %bb12
  %_199 = load ptr, ptr %y, align 8
  %_200 = ptrtoint ptr %_199 to i64
  %_203 = icmp eq i64 %_200, 0
  %_204 = and i1 %_203, true
  %_205 = xor i1 %_204, true
  br i1 %_205, label %bb42, label %panic27

panic26:                                          ; preds = %bb12
; call core::panicking::panic_misaligned_pointer_dereference
  call void @_ZN4core9panicking36panic_misaligned_pointer_dereference17hcc3cbded9382b6e5E(i64 8, i64 %_38, ptr align 8 @alloc_3be8fefbb53403a1321d68030b320fcb) #3
  unreachable

bb42:                                             ; preds = %bb17
  %23 = load ptr, ptr %y, align 8
  %24 = getelementptr inbounds i8, ptr %23, i64 8
  store ptr %_24, ptr %24, align 8
  br label %bb14

panic27:                                          ; preds = %bb17
; call core::panicking::panic_null_pointer_dereference
  call void @_ZN4core9panicking30panic_null_pointer_dereference17hf718fcc86a223baaE(ptr align 8 @alloc_3be8fefbb53403a1321d68030b320fcb) #3
  unreachable
}

; Function Attrs: nounwind nonlazybind
define void @preorder(ptr %root) unnamed_addr #1 {
start:
; call core::ptr::mut_ptr::<impl *mut T>::is_null
  %_2 = call zeroext i1 @"_ZN4core3ptr7mut_ptr31_$LT$impl$u20$$BP$mut$u20$T$GT$7is_null17h412703ffb2fe9dc0E"(ptr %root) #4
  br i1 %_2, label %bb5, label %bb2

bb2:                                              ; preds = %start
  %_26 = ptrtoint ptr %root to i64
  %_29 = and i64 %_26, 7
  %_30 = icmp eq i64 %_29, 0
  br i1 %_30, label %bb8, label %panic

bb5:                                              ; preds = %bb11, %start
  ret void

bb8:                                              ; preds = %bb2
  %_32 = ptrtoint ptr %root to i64
  %_35 = icmp eq i64 %_32, 0
  %_36 = and i1 %_35, true
  %_37 = xor i1 %_36, true
  br i1 %_37, label %bb9, label %panic1

panic:                                            ; preds = %bb2
; call core::panicking::panic_misaligned_pointer_dereference
  call void @_ZN4core9panicking36panic_misaligned_pointer_dereference17hcc3cbded9382b6e5E(i64 8, i64 %_26, ptr align 8 @alloc_2fab6b5d2d6779adac58ca29daf80de8) #3
  unreachable

bb9:                                              ; preds = %bb8
  %_8 = load i32, ptr %root, align 8
  %_3 = call i32 (ptr, ...) @printf(ptr @alloc_b929c71616281bfd1be2bd4038d3ddf1, i32 %_8) #4
  %_20 = ptrtoint ptr %root to i64
  %_23 = and i64 %_20, 7
  %_24 = icmp eq i64 %_23, 0
  br i1 %_24, label %bb7, label %panic2

panic1:                                           ; preds = %bb8
; call core::panicking::panic_null_pointer_dereference
  call void @_ZN4core9panicking30panic_null_pointer_dereference17hf718fcc86a223baaE(ptr align 8 @alloc_2fab6b5d2d6779adac58ca29daf80de8) #3
  unreachable

bb7:                                              ; preds = %bb9
  %_39 = ptrtoint ptr %root to i64
  %_42 = icmp eq i64 %_39, 0
  %_43 = and i1 %_42, true
  %_44 = xor i1 %_43, true
  br i1 %_44, label %bb10, label %panic3

panic2:                                           ; preds = %bb9
; call core::panicking::panic_misaligned_pointer_dereference
  call void @_ZN4core9panicking36panic_misaligned_pointer_dereference17hcc3cbded9382b6e5E(i64 8, i64 %_20, ptr align 8 @alloc_7b733f004cb08b8f0c96bdcee1e3d347) #3
  unreachable

bb10:                                             ; preds = %bb7
  %0 = getelementptr inbounds i8, ptr %root, i64 8
  %_10 = load ptr, ptr %0, align 8
  call void @preorder(ptr %_10) #4
  %_14 = ptrtoint ptr %root to i64
  %_17 = and i64 %_14, 7
  %_18 = icmp eq i64 %_17, 0
  br i1 %_18, label %bb6, label %panic4

panic3:                                           ; preds = %bb7
; call core::panicking::panic_null_pointer_dereference
  call void @_ZN4core9panicking30panic_null_pointer_dereference17hf718fcc86a223baaE(ptr align 8 @alloc_7b733f004cb08b8f0c96bdcee1e3d347) #3
  unreachable

bb6:                                              ; preds = %bb10
  %_46 = ptrtoint ptr %root to i64
  %_49 = icmp eq i64 %_46, 0
  %_50 = and i1 %_49, true
  %_51 = xor i1 %_50, true
  br i1 %_51, label %bb11, label %panic5

panic4:                                           ; preds = %bb10
; call core::panicking::panic_misaligned_pointer_dereference
  call void @_ZN4core9panicking36panic_misaligned_pointer_dereference17hcc3cbded9382b6e5E(i64 8, i64 %_14, ptr align 8 @alloc_d49bcc386458b52043d803eb646436ef) #3
  unreachable

bb11:                                             ; preds = %bb6
  %1 = getelementptr inbounds i8, ptr %root, i64 16
  %_12 = load ptr, ptr %1, align 8
  call void @preorder(ptr %_12) #4
  br label %bb5

panic5:                                           ; preds = %bb6
; call core::panicking::panic_null_pointer_dereference
  call void @_ZN4core9panicking30panic_null_pointer_dereference17hf718fcc86a223baaE(ptr align 8 @alloc_d49bcc386458b52043d803eb646436ef) #3
  unreachable
}

; Function Attrs: nounwind nonlazybind
define ptr @Tree_minimum(ptr %0) unnamed_addr #1 {
start:
  %node = alloca [8 x i8], align 8
  store ptr %0, ptr %node, align 8
  br label %bb1

bb1:                                              ; preds = %bb8, %start
  %_11 = load ptr, ptr %node, align 8
  %_12 = ptrtoint ptr %_11 to i64
  %_15 = and i64 %_12, 7
  %_16 = icmp eq i64 %_15, 0
  br i1 %_16, label %bb6, label %panic

bb6:                                              ; preds = %bb1
  %_17 = load ptr, ptr %node, align 8
  %_18 = ptrtoint ptr %_17 to i64
  %_21 = icmp eq i64 %_18, 0
  %_22 = and i1 %_21, true
  %_23 = xor i1 %_22, true
  br i1 %_23, label %bb7, label %panic1

panic:                                            ; preds = %bb1
; call core::panicking::panic_misaligned_pointer_dereference
  call void @_ZN4core9panicking36panic_misaligned_pointer_dereference17hcc3cbded9382b6e5E(i64 8, i64 %_12, ptr align 8 @alloc_0fd1a10c4ae8979c7c584380fc851991) #3
  unreachable

bb7:                                              ; preds = %bb6
  %1 = load ptr, ptr %node, align 8
  %2 = getelementptr inbounds i8, ptr %1, i64 8
  %_3 = load ptr, ptr %2, align 8
; call core::ptr::mut_ptr::<impl *mut T>::is_null
  %_2 = call zeroext i1 @"_ZN4core3ptr7mut_ptr31_$LT$impl$u20$$BP$mut$u20$T$GT$7is_null17h412703ffb2fe9dc0E"(ptr %_3) #4
  br i1 %_2, label %bb3, label %bb4

panic1:                                           ; preds = %bb6
; call core::panicking::panic_null_pointer_dereference
  call void @_ZN4core9panicking30panic_null_pointer_dereference17hf718fcc86a223baaE(ptr align 8 @alloc_0fd1a10c4ae8979c7c584380fc851991) #3
  unreachable

bb4:                                              ; preds = %bb7
  %_5 = load ptr, ptr %node, align 8
  %_6 = ptrtoint ptr %_5 to i64
  %_9 = and i64 %_6, 7
  %_10 = icmp eq i64 %_9, 0
  br i1 %_10, label %bb5, label %panic2

bb3:                                              ; preds = %bb7
  %_0 = load ptr, ptr %node, align 8
  ret ptr %_0

bb5:                                              ; preds = %bb4
  %_24 = load ptr, ptr %node, align 8
  %_25 = ptrtoint ptr %_24 to i64
  %_28 = icmp eq i64 %_25, 0
  %_29 = and i1 %_28, true
  %_30 = xor i1 %_29, true
  br i1 %_30, label %bb8, label %panic3

panic2:                                           ; preds = %bb4
; call core::panicking::panic_misaligned_pointer_dereference
  call void @_ZN4core9panicking36panic_misaligned_pointer_dereference17hcc3cbded9382b6e5E(i64 8, i64 %_6, ptr align 8 @alloc_33a89899d98890a940a4ccf9ab105e24) #3
  unreachable

bb8:                                              ; preds = %bb5
  %3 = load ptr, ptr %node, align 8
  %4 = getelementptr inbounds i8, ptr %3, i64 8
  %_4 = load ptr, ptr %4, align 8
  store ptr %_4, ptr %node, align 8
  br label %bb1

panic3:                                           ; preds = %bb5
; call core::panicking::panic_null_pointer_dereference
  call void @_ZN4core9panicking30panic_null_pointer_dereference17hf718fcc86a223baaE(ptr align 8 @alloc_33a89899d98890a940a4ccf9ab105e24) #3
  unreachable
}

; Function Attrs: nounwind nonlazybind
define void @RB_delete_fixup(ptr %T, ptr %x) unnamed_addr #1 {
start:
  %w_0 = alloca [8 x i8], align 8
  %w = alloca [8 x i8], align 8
  br label %bb1

bb1:                                              ; preds = %bb88, %bb99, %bb110, %bb121, %start
  %_390 = ptrtoint ptr %x to i64
  %_393 = and i64 %_390, 7
  %_394 = icmp eq i64 %_393, 0
  br i1 %_394, label %bb72, label %panic

bb72:                                             ; preds = %bb1
  %_396 = ptrtoint ptr %x to i64
  %_399 = icmp eq i64 %_396, 0
  %_400 = and i1 %_399, true
  %_401 = xor i1 %_400, true
  br i1 %_401, label %bb73, label %panic1

panic:                                            ; preds = %bb1
; call core::panicking::panic_misaligned_pointer_dereference
  call void @_ZN4core9panicking36panic_misaligned_pointer_dereference17hcc3cbded9382b6e5E(i64 8, i64 %_390, ptr align 8 @alloc_ed987940ef1dc3e9ecfdfa1ff772c9c0) #3
  unreachable

bb73:                                             ; preds = %bb72
  %_4 = load ptr, ptr %x, align 8
  %_384 = ptrtoint ptr %T to i64
  %_387 = and i64 %_384, 7
  %_388 = icmp eq i64 %_387, 0
  br i1 %_388, label %bb71, label %panic2

panic1:                                           ; preds = %bb72
; call core::panicking::panic_null_pointer_dereference
  call void @_ZN4core9panicking30panic_null_pointer_dereference17hf718fcc86a223baaE(ptr align 8 @alloc_ed987940ef1dc3e9ecfdfa1ff772c9c0) #3
  unreachable

bb71:                                             ; preds = %bb73
  %_403 = ptrtoint ptr %T to i64
  %_406 = icmp eq i64 %_403, 0
  %_407 = and i1 %_406, true
  %_408 = xor i1 %_407, true
  br i1 %_408, label %bb74, label %panic3

panic2:                                           ; preds = %bb73
; call core::panicking::panic_misaligned_pointer_dereference
  call void @_ZN4core9panicking36panic_misaligned_pointer_dereference17hcc3cbded9382b6e5E(i64 8, i64 %_384, ptr align 8 @alloc_98a77ed83bd3c087acecfd6dadc30596) #3
  unreachable

bb74:                                             ; preds = %bb71
  %_5 = load ptr, ptr %T, align 8
  %_3 = icmp ne ptr %_4, %_5
  br i1 %_3, label %bb2, label %bb26

panic3:                                           ; preds = %bb71
; call core::panicking::panic_null_pointer_dereference
  call void @_ZN4core9panicking30panic_null_pointer_dereference17hf718fcc86a223baaE(ptr align 8 @alloc_98a77ed83bd3c087acecfd6dadc30596) #3
  unreachable

bb26:                                             ; preds = %bb75, %bb74
  %_118 = load ptr, ptr %x, align 8
  %_120 = ptrtoint ptr %_118 to i64
  %_123 = and i64 %_120, 7
  %_124 = icmp eq i64 %_123, 0
  br i1 %_124, label %bb27, label %panic6

bb2:                                              ; preds = %bb74
  %_75 = load ptr, ptr %x, align 8
  %_378 = ptrtoint ptr %_75 to i64
  %_381 = and i64 %_378, 7
  %_382 = icmp eq i64 %_381, 0
  br i1 %_382, label %bb70, label %panic4

bb70:                                             ; preds = %bb2
  %_410 = ptrtoint ptr %_75 to i64
  %_413 = icmp eq i64 %_410, 0
  %_414 = and i1 %_413, true
  %_415 = xor i1 %_414, true
  br i1 %_415, label %bb75, label %panic5

panic4:                                           ; preds = %bb2
; call core::panicking::panic_misaligned_pointer_dereference
  call void @_ZN4core9panicking36panic_misaligned_pointer_dereference17hcc3cbded9382b6e5E(i64 8, i64 %_378, ptr align 8 @alloc_f9305d3f35cb9b58622438b47bc4ccc4) #3
  unreachable

bb75:                                             ; preds = %bb70
  %0 = getelementptr inbounds i8, ptr %_75, i64 32
  %_7 = load i32, ptr %0, align 8
  %_6 = icmp eq i32 %_7, 1
  br i1 %_6, label %bb3, label %bb26

panic5:                                           ; preds = %bb70
; call core::panicking::panic_null_pointer_dereference
  call void @_ZN4core9panicking30panic_null_pointer_dereference17hf718fcc86a223baaE(ptr align 8 @alloc_f9305d3f35cb9b58622438b47bc4ccc4) #3
  unreachable

bb3:                                              ; preds = %bb75
  %_372 = ptrtoint ptr %x to i64
  %_375 = and i64 %_372, 7
  %_376 = icmp eq i64 %_375, 0
  br i1 %_376, label %bb69, label %panic8

bb27:                                             ; preds = %bb26
  %_731 = ptrtoint ptr %_118 to i64
  %_734 = icmp eq i64 %_731, 0
  %_735 = and i1 %_734, true
  %_736 = xor i1 %_735, true
  br i1 %_736, label %bb122, label %panic7

panic6:                                           ; preds = %bb26
; call core::panicking::panic_misaligned_pointer_dereference
  call void @_ZN4core9panicking36panic_misaligned_pointer_dereference17hcc3cbded9382b6e5E(i64 8, i64 %_120, ptr align 8 @alloc_3fc6c5183c93d2c72540e6fc0c2b1a74) #3
  unreachable

bb122:                                            ; preds = %bb27
  %1 = getelementptr inbounds i8, ptr %_118, i64 32
  store i32 1, ptr %1, align 8
  ret void

panic7:                                           ; preds = %bb27
; call core::panicking::panic_null_pointer_dereference
  call void @_ZN4core9panicking30panic_null_pointer_dereference17hf718fcc86a223baaE(ptr align 8 @alloc_3fc6c5183c93d2c72540e6fc0c2b1a74) #3
  unreachable

bb69:                                             ; preds = %bb3
  %_417 = ptrtoint ptr %x to i64
  %_420 = icmp eq i64 %_417, 0
  %_421 = and i1 %_420, true
  %_422 = xor i1 %_421, true
  br i1 %_422, label %bb76, label %panic9

panic8:                                           ; preds = %bb3
; call core::panicking::panic_misaligned_pointer_dereference
  call void @_ZN4core9panicking36panic_misaligned_pointer_dereference17hcc3cbded9382b6e5E(i64 8, i64 %_372, ptr align 8 @alloc_d68fc1c9dce4a9f7007b94be508ea47d) #3
  unreachable

bb76:                                             ; preds = %bb69
  %_11 = load ptr, ptr %x, align 8
  %_76 = load ptr, ptr %x, align 8
  %2 = getelementptr inbounds i8, ptr %_76, i64 24
  %_77 = load ptr, ptr %2, align 8
  %_366 = ptrtoint ptr %_77 to i64
  %_369 = and i64 %_366, 7
  %_370 = icmp eq i64 %_369, 0
  br i1 %_370, label %bb68, label %panic10

panic9:                                           ; preds = %bb69
; call core::panicking::panic_null_pointer_dereference
  call void @_ZN4core9panicking30panic_null_pointer_dereference17hf718fcc86a223baaE(ptr align 8 @alloc_d68fc1c9dce4a9f7007b94be508ea47d) #3
  unreachable

bb68:                                             ; preds = %bb76
  %_424 = ptrtoint ptr %_77 to i64
  %_427 = icmp eq i64 %_424, 0
  %_428 = and i1 %_427, true
  %_429 = xor i1 %_428, true
  br i1 %_429, label %bb77, label %panic11

panic10:                                          ; preds = %bb76
; call core::panicking::panic_misaligned_pointer_dereference
  call void @_ZN4core9panicking36panic_misaligned_pointer_dereference17hcc3cbded9382b6e5E(i64 8, i64 %_366, ptr align 8 @alloc_d6b765e63a68e5d6acba0145d56dc905) #3
  unreachable

bb77:                                             ; preds = %bb68
  %3 = getelementptr inbounds i8, ptr %_77, i64 8
  %_12 = load ptr, ptr %3, align 8
  %_10 = icmp eq ptr %_11, %_12
  br i1 %_10, label %bb4, label %bb15

panic11:                                          ; preds = %bb68
; call core::panicking::panic_null_pointer_dereference
  call void @_ZN4core9panicking30panic_null_pointer_dereference17hf718fcc86a223baaE(ptr align 8 @alloc_d6b765e63a68e5d6acba0145d56dc905) #3
  unreachable

bb15:                                             ; preds = %bb77
  %_98 = load ptr, ptr %x, align 8
  %4 = getelementptr inbounds i8, ptr %_98, i64 24
  %_99 = load ptr, ptr %4, align 8
  %_240 = ptrtoint ptr %_99 to i64
  %_243 = and i64 %_240, 7
  %_244 = icmp eq i64 %_243, 0
  br i1 %_244, label %bb47, label %panic12

bb4:                                              ; preds = %bb77
  %_78 = load ptr, ptr %x, align 8
  %5 = getelementptr inbounds i8, ptr %_78, i64 24
  %_79 = load ptr, ptr %5, align 8
  %_360 = ptrtoint ptr %_79 to i64
  %_363 = and i64 %_360, 7
  %_364 = icmp eq i64 %_363, 0
  br i1 %_364, label %bb67, label %panic54

bb47:                                             ; preds = %bb15
  %_581 = ptrtoint ptr %_99 to i64
  %_584 = icmp eq i64 %_581, 0
  %_585 = and i1 %_584, true
  %_586 = xor i1 %_585, true
  br i1 %_586, label %bb100, label %panic13

panic12:                                          ; preds = %bb15
; call core::panicking::panic_misaligned_pointer_dereference
  call void @_ZN4core9panicking36panic_misaligned_pointer_dereference17hcc3cbded9382b6e5E(i64 8, i64 %_240, ptr align 8 @alloc_a186526a63a414c96897a2fc416a53c9) #3
  unreachable

bb100:                                            ; preds = %bb47
  %6 = getelementptr inbounds i8, ptr %_99, i64 8
  %7 = load ptr, ptr %6, align 8
  store ptr %7, ptr %w_0, align 8
  %_233 = load ptr, ptr %w_0, align 8
  %_234 = ptrtoint ptr %_233 to i64
  %_237 = and i64 %_234, 7
  %_238 = icmp eq i64 %_237, 0
  br i1 %_238, label %bb46, label %panic14

panic13:                                          ; preds = %bb47
; call core::panicking::panic_null_pointer_dereference
  call void @_ZN4core9panicking30panic_null_pointer_dereference17hf718fcc86a223baaE(ptr align 8 @alloc_a186526a63a414c96897a2fc416a53c9) #3
  unreachable

bb46:                                             ; preds = %bb100
  %_587 = load ptr, ptr %w_0, align 8
  %_588 = ptrtoint ptr %_587 to i64
  %_591 = icmp eq i64 %_588, 0
  %_592 = and i1 %_591, true
  %_593 = xor i1 %_592, true
  br i1 %_593, label %bb101, label %panic15

panic14:                                          ; preds = %bb100
; call core::panicking::panic_misaligned_pointer_dereference
  call void @_ZN4core9panicking36panic_misaligned_pointer_dereference17hcc3cbded9382b6e5E(i64 8, i64 %_234, ptr align 8 @alloc_fefeb91bf600b9c2b0f623e13e1f1313) #3
  unreachable

bb101:                                            ; preds = %bb46
  %8 = load ptr, ptr %w_0, align 8
  %9 = getelementptr inbounds i8, ptr %8, i64 32
  %_46 = load i32, ptr %9, align 8
  %_45 = icmp eq i32 %_46, 0
  br i1 %_45, label %bb16, label %bb18

panic15:                                          ; preds = %bb46
; call core::panicking::panic_null_pointer_dereference
  call void @_ZN4core9panicking30panic_null_pointer_dereference17hf718fcc86a223baaE(ptr align 8 @alloc_fefeb91bf600b9c2b0f623e13e1f1313) #3
  unreachable

bb18:                                             ; preds = %bb105, %bb101
  %10 = load ptr, ptr %w_0, align 8
  %11 = getelementptr inbounds i8, ptr %10, i64 16
  %_105 = load ptr, ptr %11, align 8
  %_210 = ptrtoint ptr %_105 to i64
  %_213 = and i64 %_210, 7
  %_214 = icmp eq i64 %_213, 0
  br i1 %_214, label %bb42, label %panic23

bb16:                                             ; preds = %bb101
  %_227 = load ptr, ptr %w_0, align 8
  %_228 = ptrtoint ptr %_227 to i64
  %_231 = and i64 %_228, 7
  %_232 = icmp eq i64 %_231, 0
  br i1 %_232, label %bb45, label %panic16

bb45:                                             ; preds = %bb16
  %_594 = load ptr, ptr %w_0, align 8
  %_595 = ptrtoint ptr %_594 to i64
  %_598 = icmp eq i64 %_595, 0
  %_599 = and i1 %_598, true
  %_600 = xor i1 %_599, true
  br i1 %_600, label %bb102, label %panic17

panic16:                                          ; preds = %bb16
; call core::panicking::panic_misaligned_pointer_dereference
  call void @_ZN4core9panicking36panic_misaligned_pointer_dereference17hcc3cbded9382b6e5E(i64 8, i64 %_228, ptr align 8 @alloc_7e7eb7cbf027736cbd13353ddbabdb4e) #3
  unreachable

bb102:                                            ; preds = %bb45
  %12 = load ptr, ptr %w_0, align 8
  %13 = getelementptr inbounds i8, ptr %12, i64 32
  store i32 1, ptr %13, align 8
  %_100 = load ptr, ptr %x, align 8
  %14 = getelementptr inbounds i8, ptr %_100, i64 24
  %_101 = load ptr, ptr %14, align 8
  %_222 = ptrtoint ptr %_101 to i64
  %_225 = and i64 %_222, 7
  %_226 = icmp eq i64 %_225, 0
  br i1 %_226, label %bb44, label %panic18

panic17:                                          ; preds = %bb45
; call core::panicking::panic_null_pointer_dereference
  call void @_ZN4core9panicking30panic_null_pointer_dereference17hf718fcc86a223baaE(ptr align 8 @alloc_7e7eb7cbf027736cbd13353ddbabdb4e) #3
  unreachable

bb44:                                             ; preds = %bb102
  %_607 = ptrtoint ptr %_101 to i64
  %_610 = icmp eq i64 %_607, 0
  %_611 = and i1 %_610, true
  %_612 = xor i1 %_611, true
  br i1 %_612, label %bb104, label %panic19

panic18:                                          ; preds = %bb102
; call core::panicking::panic_misaligned_pointer_dereference
  call void @_ZN4core9panicking36panic_misaligned_pointer_dereference17hcc3cbded9382b6e5E(i64 8, i64 %_222, ptr align 8 @alloc_b1b5711bbcbe759f83e18b97de6c28d9) #3
  unreachable

bb104:                                            ; preds = %bb44
  %15 = getelementptr inbounds i8, ptr %_101, i64 32
  store i32 1, ptr %15, align 8
  %_102 = load ptr, ptr %x, align 8
  %_602 = ptrtoint ptr %_102 to i64
  %_603 = icmp eq i64 %_602, 0
  %_604 = and i1 %_603, true
  %_605 = xor i1 %_604, true
  br i1 %_605, label %bb103, label %panic20

panic19:                                          ; preds = %bb44
; call core::panicking::panic_null_pointer_dereference
  call void @_ZN4core9panicking30panic_null_pointer_dereference17hf718fcc86a223baaE(ptr align 8 @alloc_b1b5711bbcbe759f83e18b97de6c28d9) #3
  unreachable

bb103:                                            ; preds = %bb104
  %_51 = getelementptr inbounds i8, ptr %_102, i64 24
  call void @RightRotate(ptr %T, ptr %_51) #4
  %_103 = load ptr, ptr %x, align 8
  %16 = getelementptr inbounds i8, ptr %_103, i64 24
  %_104 = load ptr, ptr %16, align 8
  %_216 = ptrtoint ptr %_104 to i64
  %_219 = and i64 %_216, 7
  %_220 = icmp eq i64 %_219, 0
  br i1 %_220, label %bb43, label %panic21

panic20:                                          ; preds = %bb104
; call core::panicking::panic_null_pointer_dereference
  call void @_ZN4core9panicking30panic_null_pointer_dereference17hf718fcc86a223baaE(ptr align 8 @alloc_7300ccad651734353f683b9ca600fb08) #3
  unreachable

bb43:                                             ; preds = %bb103
  %_614 = ptrtoint ptr %_104 to i64
  %_617 = icmp eq i64 %_614, 0
  %_618 = and i1 %_617, true
  %_619 = xor i1 %_618, true
  br i1 %_619, label %bb105, label %panic22

panic21:                                          ; preds = %bb103
; call core::panicking::panic_misaligned_pointer_dereference
  call void @_ZN4core9panicking36panic_misaligned_pointer_dereference17hcc3cbded9382b6e5E(i64 8, i64 %_216, ptr align 8 @alloc_7ca06d75eb42b0744ca314e84fe936a0) #3
  unreachable

bb105:                                            ; preds = %bb43
  %17 = getelementptr inbounds i8, ptr %_104, i64 8
  %_52 = load ptr, ptr %17, align 8
  store ptr %_52, ptr %w_0, align 8
  br label %bb18

panic22:                                          ; preds = %bb43
; call core::panicking::panic_null_pointer_dereference
  call void @_ZN4core9panicking30panic_null_pointer_dereference17hf718fcc86a223baaE(ptr align 8 @alloc_7ca06d75eb42b0744ca314e84fe936a0) #3
  unreachable

bb42:                                             ; preds = %bb18
  %_621 = ptrtoint ptr %_105 to i64
  %_624 = icmp eq i64 %_621, 0
  %_625 = and i1 %_624, true
  %_626 = xor i1 %_625, true
  br i1 %_626, label %bb106, label %panic24

panic23:                                          ; preds = %bb18
; call core::panicking::panic_misaligned_pointer_dereference
  call void @_ZN4core9panicking36panic_misaligned_pointer_dereference17hcc3cbded9382b6e5E(i64 8, i64 %_210, ptr align 8 @alloc_bc3ea6ebaabc75a7e8f0868a2d280c58) #3
  unreachable

bb106:                                            ; preds = %bb42
  %18 = getelementptr inbounds i8, ptr %_105, i64 32
  %_54 = load i32, ptr %18, align 8
  %_53 = icmp eq i32 %_54, 1
  br i1 %_53, label %bb19, label %bb21

panic24:                                          ; preds = %bb42
; call core::panicking::panic_null_pointer_dereference
  call void @_ZN4core9panicking30panic_null_pointer_dereference17hf718fcc86a223baaE(ptr align 8 @alloc_bc3ea6ebaabc75a7e8f0868a2d280c58) #3
  unreachable

bb21:                                             ; preds = %bb107, %bb106
  %19 = load ptr, ptr %w_0, align 8
  %20 = getelementptr inbounds i8, ptr %19, i64 8
  %_108 = load ptr, ptr %20, align 8
  %_180 = ptrtoint ptr %_108 to i64
  %_183 = and i64 %_180, 7
  %_184 = icmp eq i64 %_183, 0
  br i1 %_184, label %bb37, label %panic27

bb19:                                             ; preds = %bb106
  %21 = load ptr, ptr %w_0, align 8
  %22 = getelementptr inbounds i8, ptr %21, i64 8
  %_106 = load ptr, ptr %22, align 8
  %_204 = ptrtoint ptr %_106 to i64
  %_207 = and i64 %_204, 7
  %_208 = icmp eq i64 %_207, 0
  br i1 %_208, label %bb41, label %panic25

bb41:                                             ; preds = %bb19
  %_628 = ptrtoint ptr %_106 to i64
  %_631 = icmp eq i64 %_628, 0
  %_632 = and i1 %_631, true
  %_633 = xor i1 %_632, true
  br i1 %_633, label %bb107, label %panic26

panic25:                                          ; preds = %bb19
; call core::panicking::panic_misaligned_pointer_dereference
  call void @_ZN4core9panicking36panic_misaligned_pointer_dereference17hcc3cbded9382b6e5E(i64 8, i64 %_204, ptr align 8 @alloc_12cdc166226c0ca4d07fe6ab7433dfca) #3
  unreachable

bb107:                                            ; preds = %bb41
  %23 = getelementptr inbounds i8, ptr %_106, i64 32
  %_58 = load i32, ptr %23, align 8
  %_57 = icmp eq i32 %_58, 1
  br i1 %_57, label %bb20, label %bb21

panic26:                                          ; preds = %bb41
; call core::panicking::panic_null_pointer_dereference
  call void @_ZN4core9panicking30panic_null_pointer_dereference17hf718fcc86a223baaE(ptr align 8 @alloc_12cdc166226c0ca4d07fe6ab7433dfca) #3
  unreachable

bb20:                                             ; preds = %bb107
  %_197 = load ptr, ptr %w_0, align 8
  %_198 = ptrtoint ptr %_197 to i64
  %_201 = and i64 %_198, 7
  %_202 = icmp eq i64 %_201, 0
  br i1 %_202, label %bb40, label %panic48

bb37:                                             ; preds = %bb21
  %_656 = ptrtoint ptr %_108 to i64
  %_659 = icmp eq i64 %_656, 0
  %_660 = and i1 %_659, true
  %_661 = xor i1 %_660, true
  br i1 %_661, label %bb111, label %panic28

panic27:                                          ; preds = %bb21
; call core::panicking::panic_misaligned_pointer_dereference
  call void @_ZN4core9panicking36panic_misaligned_pointer_dereference17hcc3cbded9382b6e5E(i64 8, i64 %_180, ptr align 8 @alloc_93dfc23b5c477ff397b8cc128a511bcc) #3
  unreachable

bb111:                                            ; preds = %bb37
  %24 = getelementptr inbounds i8, ptr %_108, i64 32
  %_63 = load i32, ptr %24, align 8
  %_62 = icmp eq i32 %_63, 1
  br i1 %_62, label %bb22, label %bb24

panic28:                                          ; preds = %bb37
; call core::panicking::panic_null_pointer_dereference
  call void @_ZN4core9panicking30panic_null_pointer_dereference17hf718fcc86a223baaE(ptr align 8 @alloc_93dfc23b5c477ff397b8cc128a511bcc) #3
  unreachable

bb24:                                             ; preds = %bb114, %bb111
  %_112 = load ptr, ptr %x, align 8
  %25 = getelementptr inbounds i8, ptr %_112, i64 24
  %_113 = load ptr, ptr %25, align 8
  %_156 = ptrtoint ptr %_113 to i64
  %_159 = and i64 %_156, 7
  %_160 = icmp eq i64 %_159, 0
  br i1 %_160, label %bb33, label %panic35

bb22:                                             ; preds = %bb111
  %26 = load ptr, ptr %w_0, align 8
  %27 = getelementptr inbounds i8, ptr %26, i64 16
  %_109 = load ptr, ptr %27, align 8
  %_174 = ptrtoint ptr %_109 to i64
  %_177 = and i64 %_174, 7
  %_178 = icmp eq i64 %_177, 0
  br i1 %_178, label %bb36, label %panic29

bb36:                                             ; preds = %bb22
  %_663 = ptrtoint ptr %_109 to i64
  %_666 = icmp eq i64 %_663, 0
  %_667 = and i1 %_666, true
  %_668 = xor i1 %_667, true
  br i1 %_668, label %bb112, label %panic30

panic29:                                          ; preds = %bb22
; call core::panicking::panic_misaligned_pointer_dereference
  call void @_ZN4core9panicking36panic_misaligned_pointer_dereference17hcc3cbded9382b6e5E(i64 8, i64 %_174, ptr align 8 @alloc_cdb40b261b9850b1bf6b33fce78a3c1d) #3
  unreachable

bb112:                                            ; preds = %bb36
  %28 = getelementptr inbounds i8, ptr %_109, i64 32
  store i32 1, ptr %28, align 8
  %_167 = load ptr, ptr %w_0, align 8
  %_168 = ptrtoint ptr %_167 to i64
  %_171 = and i64 %_168, 7
  %_172 = icmp eq i64 %_171, 0
  br i1 %_172, label %bb35, label %panic31

panic30:                                          ; preds = %bb36
; call core::panicking::panic_null_pointer_dereference
  call void @_ZN4core9panicking30panic_null_pointer_dereference17hf718fcc86a223baaE(ptr align 8 @alloc_cdb40b261b9850b1bf6b33fce78a3c1d) #3
  unreachable

bb35:                                             ; preds = %bb112
  %_669 = load ptr, ptr %w_0, align 8
  %_670 = ptrtoint ptr %_669 to i64
  %_673 = icmp eq i64 %_670, 0
  %_674 = and i1 %_673, true
  %_675 = xor i1 %_674, true
  br i1 %_675, label %bb113, label %panic32

panic31:                                          ; preds = %bb112
; call core::panicking::panic_misaligned_pointer_dereference
  call void @_ZN4core9panicking36panic_misaligned_pointer_dereference17hcc3cbded9382b6e5E(i64 8, i64 %_168, ptr align 8 @alloc_4b16eca462f81ca44745a58a1ae1bbb5) #3
  unreachable

bb113:                                            ; preds = %bb35
  %29 = load ptr, ptr %w_0, align 8
  %30 = getelementptr inbounds i8, ptr %29, i64 32
  store i32 0, ptr %30, align 8
  call void @LeftRotate(ptr %T, ptr %w_0) #4
  %_110 = load ptr, ptr %x, align 8
  %31 = getelementptr inbounds i8, ptr %_110, i64 24
  %_111 = load ptr, ptr %31, align 8
  %_162 = ptrtoint ptr %_111 to i64
  %_165 = and i64 %_162, 7
  %_166 = icmp eq i64 %_165, 0
  br i1 %_166, label %bb34, label %panic33

panic32:                                          ; preds = %bb35
; call core::panicking::panic_null_pointer_dereference
  call void @_ZN4core9panicking30panic_null_pointer_dereference17hf718fcc86a223baaE(ptr align 8 @alloc_4b16eca462f81ca44745a58a1ae1bbb5) #3
  unreachable

bb34:                                             ; preds = %bb113
  %_677 = ptrtoint ptr %_111 to i64
  %_680 = icmp eq i64 %_677, 0
  %_681 = and i1 %_680, true
  %_682 = xor i1 %_681, true
  br i1 %_682, label %bb114, label %panic34

panic33:                                          ; preds = %bb113
; call core::panicking::panic_misaligned_pointer_dereference
  call void @_ZN4core9panicking36panic_misaligned_pointer_dereference17hcc3cbded9382b6e5E(i64 8, i64 %_162, ptr align 8 @alloc_dbd21338a7e7f43492fcd899747a6dd0) #3
  unreachable

bb114:                                            ; preds = %bb34
  %32 = getelementptr inbounds i8, ptr %_111, i64 8
  %_69 = load ptr, ptr %32, align 8
  store ptr %_69, ptr %w_0, align 8
  br label %bb24

panic34:                                          ; preds = %bb34
; call core::panicking::panic_null_pointer_dereference
  call void @_ZN4core9panicking30panic_null_pointer_dereference17hf718fcc86a223baaE(ptr align 8 @alloc_dbd21338a7e7f43492fcd899747a6dd0) #3
  unreachable

bb33:                                             ; preds = %bb24
  %_684 = ptrtoint ptr %_113 to i64
  %_687 = icmp eq i64 %_684, 0
  %_688 = and i1 %_687, true
  %_689 = xor i1 %_688, true
  br i1 %_689, label %bb115, label %panic36

panic35:                                          ; preds = %bb24
; call core::panicking::panic_misaligned_pointer_dereference
  call void @_ZN4core9panicking36panic_misaligned_pointer_dereference17hcc3cbded9382b6e5E(i64 8, i64 %_156, ptr align 8 @alloc_24a2bc01f5ea7c7ceafe309f1547da37) #3
  unreachable

bb115:                                            ; preds = %bb33
  %33 = getelementptr inbounds i8, ptr %_113, i64 32
  %_70 = load i32, ptr %33, align 8
  %_149 = load ptr, ptr %w_0, align 8
  %_150 = ptrtoint ptr %_149 to i64
  %_153 = and i64 %_150, 7
  %_154 = icmp eq i64 %_153, 0
  br i1 %_154, label %bb32, label %panic37

panic36:                                          ; preds = %bb33
; call core::panicking::panic_null_pointer_dereference
  call void @_ZN4core9panicking30panic_null_pointer_dereference17hf718fcc86a223baaE(ptr align 8 @alloc_24a2bc01f5ea7c7ceafe309f1547da37) #3
  unreachable

bb32:                                             ; preds = %bb115
  %_690 = load ptr, ptr %w_0, align 8
  %_691 = ptrtoint ptr %_690 to i64
  %_694 = icmp eq i64 %_691, 0
  %_695 = and i1 %_694, true
  %_696 = xor i1 %_695, true
  br i1 %_696, label %bb116, label %panic38

panic37:                                          ; preds = %bb115
; call core::panicking::panic_misaligned_pointer_dereference
  call void @_ZN4core9panicking36panic_misaligned_pointer_dereference17hcc3cbded9382b6e5E(i64 8, i64 %_150, ptr align 8 @alloc_2481f9d338584d42d81746210a09eafe) #3
  unreachable

bb116:                                            ; preds = %bb32
  %34 = load ptr, ptr %w_0, align 8
  %35 = getelementptr inbounds i8, ptr %34, i64 32
  store i32 %_70, ptr %35, align 8
  %_114 = load ptr, ptr %x, align 8
  %36 = getelementptr inbounds i8, ptr %_114, i64 24
  %_115 = load ptr, ptr %36, align 8
  %_144 = ptrtoint ptr %_115 to i64
  %_147 = and i64 %_144, 7
  %_148 = icmp eq i64 %_147, 0
  br i1 %_148, label %bb31, label %panic39

panic38:                                          ; preds = %bb32
; call core::panicking::panic_null_pointer_dereference
  call void @_ZN4core9panicking30panic_null_pointer_dereference17hf718fcc86a223baaE(ptr align 8 @alloc_2481f9d338584d42d81746210a09eafe) #3
  unreachable

bb31:                                             ; preds = %bb116
  %_698 = ptrtoint ptr %_115 to i64
  %_701 = icmp eq i64 %_698, 0
  %_702 = and i1 %_701, true
  %_703 = xor i1 %_702, true
  br i1 %_703, label %bb117, label %panic40

panic39:                                          ; preds = %bb116
; call core::panicking::panic_misaligned_pointer_dereference
  call void @_ZN4core9panicking36panic_misaligned_pointer_dereference17hcc3cbded9382b6e5E(i64 8, i64 %_144, ptr align 8 @alloc_c52a8370b906af94d3891ecb9cce13d1) #3
  unreachable

bb117:                                            ; preds = %bb31
  %37 = getelementptr inbounds i8, ptr %_115, i64 32
  store i32 1, ptr %37, align 8
  %38 = load ptr, ptr %w_0, align 8
  %39 = getelementptr inbounds i8, ptr %38, i64 8
  %_116 = load ptr, ptr %39, align 8
  %_138 = ptrtoint ptr %_116 to i64
  %_141 = and i64 %_138, 7
  %_142 = icmp eq i64 %_141, 0
  br i1 %_142, label %bb30, label %panic41

panic40:                                          ; preds = %bb31
; call core::panicking::panic_null_pointer_dereference
  call void @_ZN4core9panicking30panic_null_pointer_dereference17hf718fcc86a223baaE(ptr align 8 @alloc_c52a8370b906af94d3891ecb9cce13d1) #3
  unreachable

bb30:                                             ; preds = %bb117
  %_710 = ptrtoint ptr %_116 to i64
  %_713 = icmp eq i64 %_710, 0
  %_714 = and i1 %_713, true
  %_715 = xor i1 %_714, true
  br i1 %_715, label %bb119, label %panic42

panic41:                                          ; preds = %bb117
; call core::panicking::panic_misaligned_pointer_dereference
  call void @_ZN4core9panicking36panic_misaligned_pointer_dereference17hcc3cbded9382b6e5E(i64 8, i64 %_138, ptr align 8 @alloc_de265cb080d7afe99c3ab1be15cb98d6) #3
  unreachable

bb119:                                            ; preds = %bb30
  %40 = getelementptr inbounds i8, ptr %_116, i64 32
  store i32 1, ptr %40, align 8
  %_117 = load ptr, ptr %x, align 8
  %_705 = ptrtoint ptr %_117 to i64
  %_706 = icmp eq i64 %_705, 0
  %_707 = and i1 %_706, true
  %_708 = xor i1 %_707, true
  br i1 %_708, label %bb118, label %panic43

panic42:                                          ; preds = %bb30
; call core::panicking::panic_null_pointer_dereference
  call void @_ZN4core9panicking30panic_null_pointer_dereference17hf718fcc86a223baaE(ptr align 8 @alloc_de265cb080d7afe99c3ab1be15cb98d6) #3
  unreachable

bb118:                                            ; preds = %bb119
  %_73 = getelementptr inbounds i8, ptr %_117, i64 24
  call void @RightRotate(ptr %T, ptr %_73) #4
  %_132 = ptrtoint ptr %T to i64
  %_135 = and i64 %_132, 7
  %_136 = icmp eq i64 %_135, 0
  br i1 %_136, label %bb29, label %panic44

panic43:                                          ; preds = %bb119
; call core::panicking::panic_null_pointer_dereference
  call void @_ZN4core9panicking30panic_null_pointer_dereference17hf718fcc86a223baaE(ptr align 8 @alloc_1786207e1058fda558d8919b460b3c1d) #3
  unreachable

bb29:                                             ; preds = %bb118
  %_717 = ptrtoint ptr %T to i64
  %_720 = icmp eq i64 %_717, 0
  %_721 = and i1 %_720, true
  %_722 = xor i1 %_721, true
  br i1 %_722, label %bb120, label %panic45

panic44:                                          ; preds = %bb118
; call core::panicking::panic_misaligned_pointer_dereference
  call void @_ZN4core9panicking36panic_misaligned_pointer_dereference17hcc3cbded9382b6e5E(i64 8, i64 %_132, ptr align 8 @alloc_ea1c9dfc84c3ddf3353315fc7b235f50) #3
  unreachable

bb120:                                            ; preds = %bb29
  %_74 = load ptr, ptr %T, align 8
  %_126 = ptrtoint ptr %x to i64
  %_129 = and i64 %_126, 7
  %_130 = icmp eq i64 %_129, 0
  br i1 %_130, label %bb28, label %panic46

panic45:                                          ; preds = %bb29
; call core::panicking::panic_null_pointer_dereference
  call void @_ZN4core9panicking30panic_null_pointer_dereference17hf718fcc86a223baaE(ptr align 8 @alloc_ea1c9dfc84c3ddf3353315fc7b235f50) #3
  unreachable

bb28:                                             ; preds = %bb120
  %_724 = ptrtoint ptr %x to i64
  %_727 = icmp eq i64 %_724, 0
  %_728 = and i1 %_727, true
  %_729 = xor i1 %_728, true
  br i1 %_729, label %bb121, label %panic47

panic46:                                          ; preds = %bb120
; call core::panicking::panic_misaligned_pointer_dereference
  call void @_ZN4core9panicking36panic_misaligned_pointer_dereference17hcc3cbded9382b6e5E(i64 8, i64 %_126, ptr align 8 @alloc_cf94b133b09682a078963d67b40dd80c) #3
  unreachable

bb121:                                            ; preds = %bb28
  store ptr %_74, ptr %x, align 8
  br label %bb1

panic47:                                          ; preds = %bb28
; call core::panicking::panic_null_pointer_dereference
  call void @_ZN4core9panicking30panic_null_pointer_dereference17hf718fcc86a223baaE(ptr align 8 @alloc_cf94b133b09682a078963d67b40dd80c) #3
  unreachable

bb40:                                             ; preds = %bb20
  %_634 = load ptr, ptr %w_0, align 8
  %_635 = ptrtoint ptr %_634 to i64
  %_638 = icmp eq i64 %_635, 0
  %_639 = and i1 %_638, true
  %_640 = xor i1 %_639, true
  br i1 %_640, label %bb108, label %panic49

panic48:                                          ; preds = %bb20
; call core::panicking::panic_misaligned_pointer_dereference
  call void @_ZN4core9panicking36panic_misaligned_pointer_dereference17hcc3cbded9382b6e5E(i64 8, i64 %_198, ptr align 8 @alloc_d0d0f233166f703dda956da58fbb849a) #3
  unreachable

bb108:                                            ; preds = %bb40
  %41 = load ptr, ptr %w_0, align 8
  %42 = getelementptr inbounds i8, ptr %41, i64 32
  store i32 0, ptr %42, align 8
  %_107 = load ptr, ptr %x, align 8
  %_192 = ptrtoint ptr %_107 to i64
  %_195 = and i64 %_192, 7
  %_196 = icmp eq i64 %_195, 0
  br i1 %_196, label %bb39, label %panic50

panic49:                                          ; preds = %bb40
; call core::panicking::panic_null_pointer_dereference
  call void @_ZN4core9panicking30panic_null_pointer_dereference17hf718fcc86a223baaE(ptr align 8 @alloc_d0d0f233166f703dda956da58fbb849a) #3
  unreachable

bb39:                                             ; preds = %bb108
  %_642 = ptrtoint ptr %_107 to i64
  %_645 = icmp eq i64 %_642, 0
  %_646 = and i1 %_645, true
  %_647 = xor i1 %_646, true
  br i1 %_647, label %bb109, label %panic51

panic50:                                          ; preds = %bb108
; call core::panicking::panic_misaligned_pointer_dereference
  call void @_ZN4core9panicking36panic_misaligned_pointer_dereference17hcc3cbded9382b6e5E(i64 8, i64 %_192, ptr align 8 @alloc_7a2979e9b69218d449d4f2b394c6ec22) #3
  unreachable

bb109:                                            ; preds = %bb39
  %43 = getelementptr inbounds i8, ptr %_107, i64 24
  %_61 = load ptr, ptr %43, align 8
  %_186 = ptrtoint ptr %x to i64
  %_189 = and i64 %_186, 7
  %_190 = icmp eq i64 %_189, 0
  br i1 %_190, label %bb38, label %panic52

panic51:                                          ; preds = %bb39
; call core::panicking::panic_null_pointer_dereference
  call void @_ZN4core9panicking30panic_null_pointer_dereference17hf718fcc86a223baaE(ptr align 8 @alloc_7a2979e9b69218d449d4f2b394c6ec22) #3
  unreachable

bb38:                                             ; preds = %bb109
  %_649 = ptrtoint ptr %x to i64
  %_652 = icmp eq i64 %_649, 0
  %_653 = and i1 %_652, true
  %_654 = xor i1 %_653, true
  br i1 %_654, label %bb110, label %panic53

panic52:                                          ; preds = %bb109
; call core::panicking::panic_misaligned_pointer_dereference
  call void @_ZN4core9panicking36panic_misaligned_pointer_dereference17hcc3cbded9382b6e5E(i64 8, i64 %_186, ptr align 8 @alloc_d0123decf96a46f7518b90fc90a277fa) #3
  unreachable

bb110:                                            ; preds = %bb38
  store ptr %_61, ptr %x, align 8
  br label %bb1

panic53:                                          ; preds = %bb38
; call core::panicking::panic_null_pointer_dereference
  call void @_ZN4core9panicking30panic_null_pointer_dereference17hf718fcc86a223baaE(ptr align 8 @alloc_d0123decf96a46f7518b90fc90a277fa) #3
  unreachable

bb67:                                             ; preds = %bb4
  %_431 = ptrtoint ptr %_79 to i64
  %_434 = icmp eq i64 %_431, 0
  %_435 = and i1 %_434, true
  %_436 = xor i1 %_435, true
  br i1 %_436, label %bb78, label %panic55

panic54:                                          ; preds = %bb4
; call core::panicking::panic_misaligned_pointer_dereference
  call void @_ZN4core9panicking36panic_misaligned_pointer_dereference17hcc3cbded9382b6e5E(i64 8, i64 %_360, ptr align 8 @alloc_3593a1c4003c2e88766c258aeb4ea2e5) #3
  unreachable

bb78:                                             ; preds = %bb67
  %44 = getelementptr inbounds i8, ptr %_79, i64 16
  %45 = load ptr, ptr %44, align 8
  store ptr %45, ptr %w, align 8
  %_353 = load ptr, ptr %w, align 8
  %_354 = ptrtoint ptr %_353 to i64
  %_357 = and i64 %_354, 7
  %_358 = icmp eq i64 %_357, 0
  br i1 %_358, label %bb66, label %panic56

panic55:                                          ; preds = %bb67
; call core::panicking::panic_null_pointer_dereference
  call void @_ZN4core9panicking30panic_null_pointer_dereference17hf718fcc86a223baaE(ptr align 8 @alloc_3593a1c4003c2e88766c258aeb4ea2e5) #3
  unreachable

bb66:                                             ; preds = %bb78
  %_437 = load ptr, ptr %w, align 8
  %_438 = ptrtoint ptr %_437 to i64
  %_441 = icmp eq i64 %_438, 0
  %_442 = and i1 %_441, true
  %_443 = xor i1 %_442, true
  br i1 %_443, label %bb79, label %panic57

panic56:                                          ; preds = %bb78
; call core::panicking::panic_misaligned_pointer_dereference
  call void @_ZN4core9panicking36panic_misaligned_pointer_dereference17hcc3cbded9382b6e5E(i64 8, i64 %_354, ptr align 8 @alloc_49fe5520d100f20affa52bb1b2f1d50f) #3
  unreachable

bb79:                                             ; preds = %bb66
  %46 = load ptr, ptr %w, align 8
  %47 = getelementptr inbounds i8, ptr %46, i64 32
  %_15 = load i32, ptr %47, align 8
  %_14 = icmp eq i32 %_15, 0
  br i1 %_14, label %bb5, label %bb7

panic57:                                          ; preds = %bb66
; call core::panicking::panic_null_pointer_dereference
  call void @_ZN4core9panicking30panic_null_pointer_dereference17hf718fcc86a223baaE(ptr align 8 @alloc_49fe5520d100f20affa52bb1b2f1d50f) #3
  unreachable

bb7:                                              ; preds = %bb83, %bb79
  %48 = load ptr, ptr %w, align 8
  %49 = getelementptr inbounds i8, ptr %48, i64 8
  %_85 = load ptr, ptr %49, align 8
  %_330 = ptrtoint ptr %_85 to i64
  %_333 = and i64 %_330, 7
  %_334 = icmp eq i64 %_333, 0
  br i1 %_334, label %bb62, label %panic65

bb5:                                              ; preds = %bb79
  %_347 = load ptr, ptr %w, align 8
  %_348 = ptrtoint ptr %_347 to i64
  %_351 = and i64 %_348, 7
  %_352 = icmp eq i64 %_351, 0
  br i1 %_352, label %bb65, label %panic58

bb65:                                             ; preds = %bb5
  %_444 = load ptr, ptr %w, align 8
  %_445 = ptrtoint ptr %_444 to i64
  %_448 = icmp eq i64 %_445, 0
  %_449 = and i1 %_448, true
  %_450 = xor i1 %_449, true
  br i1 %_450, label %bb80, label %panic59

panic58:                                          ; preds = %bb5
; call core::panicking::panic_misaligned_pointer_dereference
  call void @_ZN4core9panicking36panic_misaligned_pointer_dereference17hcc3cbded9382b6e5E(i64 8, i64 %_348, ptr align 8 @alloc_ecd40421ff2b1acd0679ce7fdb858a68) #3
  unreachable

bb80:                                             ; preds = %bb65
  %50 = load ptr, ptr %w, align 8
  %51 = getelementptr inbounds i8, ptr %50, i64 32
  store i32 1, ptr %51, align 8
  %_80 = load ptr, ptr %x, align 8
  %52 = getelementptr inbounds i8, ptr %_80, i64 24
  %_81 = load ptr, ptr %52, align 8
  %_342 = ptrtoint ptr %_81 to i64
  %_345 = and i64 %_342, 7
  %_346 = icmp eq i64 %_345, 0
  br i1 %_346, label %bb64, label %panic60

panic59:                                          ; preds = %bb65
; call core::panicking::panic_null_pointer_dereference
  call void @_ZN4core9panicking30panic_null_pointer_dereference17hf718fcc86a223baaE(ptr align 8 @alloc_ecd40421ff2b1acd0679ce7fdb858a68) #3
  unreachable

bb64:                                             ; preds = %bb80
  %_457 = ptrtoint ptr %_81 to i64
  %_460 = icmp eq i64 %_457, 0
  %_461 = and i1 %_460, true
  %_462 = xor i1 %_461, true
  br i1 %_462, label %bb82, label %panic61

panic60:                                          ; preds = %bb80
; call core::panicking::panic_misaligned_pointer_dereference
  call void @_ZN4core9panicking36panic_misaligned_pointer_dereference17hcc3cbded9382b6e5E(i64 8, i64 %_342, ptr align 8 @alloc_a4dda3de510a9971b0bd6c6613350285) #3
  unreachable

bb82:                                             ; preds = %bb64
  %53 = getelementptr inbounds i8, ptr %_81, i64 32
  store i32 1, ptr %53, align 8
  %_82 = load ptr, ptr %x, align 8
  %_452 = ptrtoint ptr %_82 to i64
  %_453 = icmp eq i64 %_452, 0
  %_454 = and i1 %_453, true
  %_455 = xor i1 %_454, true
  br i1 %_455, label %bb81, label %panic62

panic61:                                          ; preds = %bb64
; call core::panicking::panic_null_pointer_dereference
  call void @_ZN4core9panicking30panic_null_pointer_dereference17hf718fcc86a223baaE(ptr align 8 @alloc_a4dda3de510a9971b0bd6c6613350285) #3
  unreachable

bb81:                                             ; preds = %bb82
  %_20 = getelementptr inbounds i8, ptr %_82, i64 24
  call void @LeftRotate(ptr %T, ptr %_20) #4
  %_83 = load ptr, ptr %x, align 8
  %54 = getelementptr inbounds i8, ptr %_83, i64 24
  %_84 = load ptr, ptr %54, align 8
  %_336 = ptrtoint ptr %_84 to i64
  %_339 = and i64 %_336, 7
  %_340 = icmp eq i64 %_339, 0
  br i1 %_340, label %bb63, label %panic63

panic62:                                          ; preds = %bb82
; call core::panicking::panic_null_pointer_dereference
  call void @_ZN4core9panicking30panic_null_pointer_dereference17hf718fcc86a223baaE(ptr align 8 @alloc_619d775771ea48352a753164cdaa163f) #3
  unreachable

bb63:                                             ; preds = %bb81
  %_464 = ptrtoint ptr %_84 to i64
  %_467 = icmp eq i64 %_464, 0
  %_468 = and i1 %_467, true
  %_469 = xor i1 %_468, true
  br i1 %_469, label %bb83, label %panic64

panic63:                                          ; preds = %bb81
; call core::panicking::panic_misaligned_pointer_dereference
  call void @_ZN4core9panicking36panic_misaligned_pointer_dereference17hcc3cbded9382b6e5E(i64 8, i64 %_336, ptr align 8 @alloc_52e3f41a96de26e6ec861d855adf09f2) #3
  unreachable

bb83:                                             ; preds = %bb63
  %55 = getelementptr inbounds i8, ptr %_84, i64 16
  %_21 = load ptr, ptr %55, align 8
  store ptr %_21, ptr %w, align 8
  br label %bb7

panic64:                                          ; preds = %bb63
; call core::panicking::panic_null_pointer_dereference
  call void @_ZN4core9panicking30panic_null_pointer_dereference17hf718fcc86a223baaE(ptr align 8 @alloc_52e3f41a96de26e6ec861d855adf09f2) #3
  unreachable

bb62:                                             ; preds = %bb7
  %_471 = ptrtoint ptr %_85 to i64
  %_474 = icmp eq i64 %_471, 0
  %_475 = and i1 %_474, true
  %_476 = xor i1 %_475, true
  br i1 %_476, label %bb84, label %panic66

panic65:                                          ; preds = %bb7
; call core::panicking::panic_misaligned_pointer_dereference
  call void @_ZN4core9panicking36panic_misaligned_pointer_dereference17hcc3cbded9382b6e5E(i64 8, i64 %_330, ptr align 8 @alloc_635bf3fc96726e099a80039e212848cf) #3
  unreachable

bb84:                                             ; preds = %bb62
  %56 = getelementptr inbounds i8, ptr %_85, i64 32
  %_23 = load i32, ptr %56, align 8
  %_22 = icmp eq i32 %_23, 1
  br i1 %_22, label %bb8, label %bb10

panic66:                                          ; preds = %bb62
; call core::panicking::panic_null_pointer_dereference
  call void @_ZN4core9panicking30panic_null_pointer_dereference17hf718fcc86a223baaE(ptr align 8 @alloc_635bf3fc96726e099a80039e212848cf) #3
  unreachable

bb10:                                             ; preds = %bb85, %bb84
  %57 = load ptr, ptr %w, align 8
  %58 = getelementptr inbounds i8, ptr %57, i64 16
  %_88 = load ptr, ptr %58, align 8
  %_300 = ptrtoint ptr %_88 to i64
  %_303 = and i64 %_300, 7
  %_304 = icmp eq i64 %_303, 0
  br i1 %_304, label %bb57, label %panic69

bb8:                                              ; preds = %bb84
  %59 = load ptr, ptr %w, align 8
  %60 = getelementptr inbounds i8, ptr %59, i64 16
  %_86 = load ptr, ptr %60, align 8
  %_324 = ptrtoint ptr %_86 to i64
  %_327 = and i64 %_324, 7
  %_328 = icmp eq i64 %_327, 0
  br i1 %_328, label %bb61, label %panic67

bb61:                                             ; preds = %bb8
  %_478 = ptrtoint ptr %_86 to i64
  %_481 = icmp eq i64 %_478, 0
  %_482 = and i1 %_481, true
  %_483 = xor i1 %_482, true
  br i1 %_483, label %bb85, label %panic68

panic67:                                          ; preds = %bb8
; call core::panicking::panic_misaligned_pointer_dereference
  call void @_ZN4core9panicking36panic_misaligned_pointer_dereference17hcc3cbded9382b6e5E(i64 8, i64 %_324, ptr align 8 @alloc_3623ee22f72593c2dd69f1c84b77bb6c) #3
  unreachable

bb85:                                             ; preds = %bb61
  %61 = getelementptr inbounds i8, ptr %_86, i64 32
  %_27 = load i32, ptr %61, align 8
  %_26 = icmp eq i32 %_27, 1
  br i1 %_26, label %bb9, label %bb10

panic68:                                          ; preds = %bb61
; call core::panicking::panic_null_pointer_dereference
  call void @_ZN4core9panicking30panic_null_pointer_dereference17hf718fcc86a223baaE(ptr align 8 @alloc_3623ee22f72593c2dd69f1c84b77bb6c) #3
  unreachable

bb9:                                              ; preds = %bb85
  %_317 = load ptr, ptr %w, align 8
  %_318 = ptrtoint ptr %_317 to i64
  %_321 = and i64 %_318, 7
  %_322 = icmp eq i64 %_321, 0
  br i1 %_322, label %bb60, label %panic90

bb57:                                             ; preds = %bb10
  %_506 = ptrtoint ptr %_88 to i64
  %_509 = icmp eq i64 %_506, 0
  %_510 = and i1 %_509, true
  %_511 = xor i1 %_510, true
  br i1 %_511, label %bb89, label %panic70

panic69:                                          ; preds = %bb10
; call core::panicking::panic_misaligned_pointer_dereference
  call void @_ZN4core9panicking36panic_misaligned_pointer_dereference17hcc3cbded9382b6e5E(i64 8, i64 %_300, ptr align 8 @alloc_f40c090a555436ab6e008242d716e968) #3
  unreachable

bb89:                                             ; preds = %bb57
  %62 = getelementptr inbounds i8, ptr %_88, i64 32
  %_32 = load i32, ptr %62, align 8
  %_31 = icmp eq i32 %_32, 1
  br i1 %_31, label %bb11, label %bb13

panic70:                                          ; preds = %bb57
; call core::panicking::panic_null_pointer_dereference
  call void @_ZN4core9panicking30panic_null_pointer_dereference17hf718fcc86a223baaE(ptr align 8 @alloc_f40c090a555436ab6e008242d716e968) #3
  unreachable

bb13:                                             ; preds = %bb92, %bb89
  %_92 = load ptr, ptr %x, align 8
  %63 = getelementptr inbounds i8, ptr %_92, i64 24
  %_93 = load ptr, ptr %63, align 8
  %_276 = ptrtoint ptr %_93 to i64
  %_279 = and i64 %_276, 7
  %_280 = icmp eq i64 %_279, 0
  br i1 %_280, label %bb53, label %panic77

bb11:                                             ; preds = %bb89
  %64 = load ptr, ptr %w, align 8
  %65 = getelementptr inbounds i8, ptr %64, i64 8
  %_89 = load ptr, ptr %65, align 8
  %_294 = ptrtoint ptr %_89 to i64
  %_297 = and i64 %_294, 7
  %_298 = icmp eq i64 %_297, 0
  br i1 %_298, label %bb56, label %panic71

bb56:                                             ; preds = %bb11
  %_513 = ptrtoint ptr %_89 to i64
  %_516 = icmp eq i64 %_513, 0
  %_517 = and i1 %_516, true
  %_518 = xor i1 %_517, true
  br i1 %_518, label %bb90, label %panic72

panic71:                                          ; preds = %bb11
; call core::panicking::panic_misaligned_pointer_dereference
  call void @_ZN4core9panicking36panic_misaligned_pointer_dereference17hcc3cbded9382b6e5E(i64 8, i64 %_294, ptr align 8 @alloc_89aebd75d1aa99cfb904efa0011987ea) #3
  unreachable

bb90:                                             ; preds = %bb56
  %66 = getelementptr inbounds i8, ptr %_89, i64 32
  store i32 1, ptr %66, align 8
  %_287 = load ptr, ptr %w, align 8
  %_288 = ptrtoint ptr %_287 to i64
  %_291 = and i64 %_288, 7
  %_292 = icmp eq i64 %_291, 0
  br i1 %_292, label %bb55, label %panic73

panic72:                                          ; preds = %bb56
; call core::panicking::panic_null_pointer_dereference
  call void @_ZN4core9panicking30panic_null_pointer_dereference17hf718fcc86a223baaE(ptr align 8 @alloc_89aebd75d1aa99cfb904efa0011987ea) #3
  unreachable

bb55:                                             ; preds = %bb90
  %_519 = load ptr, ptr %w, align 8
  %_520 = ptrtoint ptr %_519 to i64
  %_523 = icmp eq i64 %_520, 0
  %_524 = and i1 %_523, true
  %_525 = xor i1 %_524, true
  br i1 %_525, label %bb91, label %panic74

panic73:                                          ; preds = %bb90
; call core::panicking::panic_misaligned_pointer_dereference
  call void @_ZN4core9panicking36panic_misaligned_pointer_dereference17hcc3cbded9382b6e5E(i64 8, i64 %_288, ptr align 8 @alloc_57f18331aa2209718cdac926adb38cac) #3
  unreachable

bb91:                                             ; preds = %bb55
  %67 = load ptr, ptr %w, align 8
  %68 = getelementptr inbounds i8, ptr %67, i64 32
  store i32 0, ptr %68, align 8
  call void @RightRotate(ptr %T, ptr %w) #4
  %_90 = load ptr, ptr %x, align 8
  %69 = getelementptr inbounds i8, ptr %_90, i64 24
  %_91 = load ptr, ptr %69, align 8
  %_282 = ptrtoint ptr %_91 to i64
  %_285 = and i64 %_282, 7
  %_286 = icmp eq i64 %_285, 0
  br i1 %_286, label %bb54, label %panic75

panic74:                                          ; preds = %bb55
; call core::panicking::panic_null_pointer_dereference
  call void @_ZN4core9panicking30panic_null_pointer_dereference17hf718fcc86a223baaE(ptr align 8 @alloc_57f18331aa2209718cdac926adb38cac) #3
  unreachable

bb54:                                             ; preds = %bb91
  %_527 = ptrtoint ptr %_91 to i64
  %_530 = icmp eq i64 %_527, 0
  %_531 = and i1 %_530, true
  %_532 = xor i1 %_531, true
  br i1 %_532, label %bb92, label %panic76

panic75:                                          ; preds = %bb91
; call core::panicking::panic_misaligned_pointer_dereference
  call void @_ZN4core9panicking36panic_misaligned_pointer_dereference17hcc3cbded9382b6e5E(i64 8, i64 %_282, ptr align 8 @alloc_a86e08aae562d0a06513a904bc2cab64) #3
  unreachable

bb92:                                             ; preds = %bb54
  %70 = getelementptr inbounds i8, ptr %_91, i64 16
  %_38 = load ptr, ptr %70, align 8
  store ptr %_38, ptr %w, align 8
  br label %bb13

panic76:                                          ; preds = %bb54
; call core::panicking::panic_null_pointer_dereference
  call void @_ZN4core9panicking30panic_null_pointer_dereference17hf718fcc86a223baaE(ptr align 8 @alloc_a86e08aae562d0a06513a904bc2cab64) #3
  unreachable

bb53:                                             ; preds = %bb13
  %_534 = ptrtoint ptr %_93 to i64
  %_537 = icmp eq i64 %_534, 0
  %_538 = and i1 %_537, true
  %_539 = xor i1 %_538, true
  br i1 %_539, label %bb93, label %panic78

panic77:                                          ; preds = %bb13
; call core::panicking::panic_misaligned_pointer_dereference
  call void @_ZN4core9panicking36panic_misaligned_pointer_dereference17hcc3cbded9382b6e5E(i64 8, i64 %_276, ptr align 8 @alloc_549a99c2f628f9df1dfdeeeebb399e2c) #3
  unreachable

bb93:                                             ; preds = %bb53
  %71 = getelementptr inbounds i8, ptr %_93, i64 32
  %_39 = load i32, ptr %71, align 8
  %_269 = load ptr, ptr %w, align 8
  %_270 = ptrtoint ptr %_269 to i64
  %_273 = and i64 %_270, 7
  %_274 = icmp eq i64 %_273, 0
  br i1 %_274, label %bb52, label %panic79

panic78:                                          ; preds = %bb53
; call core::panicking::panic_null_pointer_dereference
  call void @_ZN4core9panicking30panic_null_pointer_dereference17hf718fcc86a223baaE(ptr align 8 @alloc_549a99c2f628f9df1dfdeeeebb399e2c) #3
  unreachable

bb52:                                             ; preds = %bb93
  %_540 = load ptr, ptr %w, align 8
  %_541 = ptrtoint ptr %_540 to i64
  %_544 = icmp eq i64 %_541, 0
  %_545 = and i1 %_544, true
  %_546 = xor i1 %_545, true
  br i1 %_546, label %bb94, label %panic80

panic79:                                          ; preds = %bb93
; call core::panicking::panic_misaligned_pointer_dereference
  call void @_ZN4core9panicking36panic_misaligned_pointer_dereference17hcc3cbded9382b6e5E(i64 8, i64 %_270, ptr align 8 @alloc_a3ebb71c8d0c342f00c6e2964443ae26) #3
  unreachable

bb94:                                             ; preds = %bb52
  %72 = load ptr, ptr %w, align 8
  %73 = getelementptr inbounds i8, ptr %72, i64 32
  store i32 %_39, ptr %73, align 8
  %_94 = load ptr, ptr %x, align 8
  %74 = getelementptr inbounds i8, ptr %_94, i64 24
  %_95 = load ptr, ptr %74, align 8
  %_264 = ptrtoint ptr %_95 to i64
  %_267 = and i64 %_264, 7
  %_268 = icmp eq i64 %_267, 0
  br i1 %_268, label %bb51, label %panic81

panic80:                                          ; preds = %bb52
; call core::panicking::panic_null_pointer_dereference
  call void @_ZN4core9panicking30panic_null_pointer_dereference17hf718fcc86a223baaE(ptr align 8 @alloc_a3ebb71c8d0c342f00c6e2964443ae26) #3
  unreachable

bb51:                                             ; preds = %bb94
  %_548 = ptrtoint ptr %_95 to i64
  %_551 = icmp eq i64 %_548, 0
  %_552 = and i1 %_551, true
  %_553 = xor i1 %_552, true
  br i1 %_553, label %bb95, label %panic82

panic81:                                          ; preds = %bb94
; call core::panicking::panic_misaligned_pointer_dereference
  call void @_ZN4core9panicking36panic_misaligned_pointer_dereference17hcc3cbded9382b6e5E(i64 8, i64 %_264, ptr align 8 @alloc_ddb506a3381ea4f203f912c494df012c) #3
  unreachable

bb95:                                             ; preds = %bb51
  %75 = getelementptr inbounds i8, ptr %_95, i64 32
  store i32 1, ptr %75, align 8
  %76 = load ptr, ptr %w, align 8
  %77 = getelementptr inbounds i8, ptr %76, i64 16
  %_96 = load ptr, ptr %77, align 8
  %_258 = ptrtoint ptr %_96 to i64
  %_261 = and i64 %_258, 7
  %_262 = icmp eq i64 %_261, 0
  br i1 %_262, label %bb50, label %panic83

panic82:                                          ; preds = %bb51
; call core::panicking::panic_null_pointer_dereference
  call void @_ZN4core9panicking30panic_null_pointer_dereference17hf718fcc86a223baaE(ptr align 8 @alloc_ddb506a3381ea4f203f912c494df012c) #3
  unreachable

bb50:                                             ; preds = %bb95
  %_560 = ptrtoint ptr %_96 to i64
  %_563 = icmp eq i64 %_560, 0
  %_564 = and i1 %_563, true
  %_565 = xor i1 %_564, true
  br i1 %_565, label %bb97, label %panic84

panic83:                                          ; preds = %bb95
; call core::panicking::panic_misaligned_pointer_dereference
  call void @_ZN4core9panicking36panic_misaligned_pointer_dereference17hcc3cbded9382b6e5E(i64 8, i64 %_258, ptr align 8 @alloc_0c88fe1342fa2331dba72e7b212bba66) #3
  unreachable

bb97:                                             ; preds = %bb50
  %78 = getelementptr inbounds i8, ptr %_96, i64 32
  store i32 1, ptr %78, align 8
  %_97 = load ptr, ptr %x, align 8
  %_555 = ptrtoint ptr %_97 to i64
  %_556 = icmp eq i64 %_555, 0
  %_557 = and i1 %_556, true
  %_558 = xor i1 %_557, true
  br i1 %_558, label %bb96, label %panic85

panic84:                                          ; preds = %bb50
; call core::panicking::panic_null_pointer_dereference
  call void @_ZN4core9panicking30panic_null_pointer_dereference17hf718fcc86a223baaE(ptr align 8 @alloc_0c88fe1342fa2331dba72e7b212bba66) #3
  unreachable

bb96:                                             ; preds = %bb97
  %_42 = getelementptr inbounds i8, ptr %_97, i64 24
  call void @LeftRotate(ptr %T, ptr %_42) #4
  %_252 = ptrtoint ptr %T to i64
  %_255 = and i64 %_252, 7
  %_256 = icmp eq i64 %_255, 0
  br i1 %_256, label %bb49, label %panic86

panic85:                                          ; preds = %bb97
; call core::panicking::panic_null_pointer_dereference
  call void @_ZN4core9panicking30panic_null_pointer_dereference17hf718fcc86a223baaE(ptr align 8 @alloc_ed7a79fe1124a74e35ab436096b09da0) #3
  unreachable

bb49:                                             ; preds = %bb96
  %_567 = ptrtoint ptr %T to i64
  %_570 = icmp eq i64 %_567, 0
  %_571 = and i1 %_570, true
  %_572 = xor i1 %_571, true
  br i1 %_572, label %bb98, label %panic87

panic86:                                          ; preds = %bb96
; call core::panicking::panic_misaligned_pointer_dereference
  call void @_ZN4core9panicking36panic_misaligned_pointer_dereference17hcc3cbded9382b6e5E(i64 8, i64 %_252, ptr align 8 @alloc_0d2952b273ea3db6d221e7d9479aeffc) #3
  unreachable

bb98:                                             ; preds = %bb49
  %_43 = load ptr, ptr %T, align 8
  %_246 = ptrtoint ptr %x to i64
  %_249 = and i64 %_246, 7
  %_250 = icmp eq i64 %_249, 0
  br i1 %_250, label %bb48, label %panic88

panic87:                                          ; preds = %bb49
; call core::panicking::panic_null_pointer_dereference
  call void @_ZN4core9panicking30panic_null_pointer_dereference17hf718fcc86a223baaE(ptr align 8 @alloc_0d2952b273ea3db6d221e7d9479aeffc) #3
  unreachable

bb48:                                             ; preds = %bb98
  %_574 = ptrtoint ptr %x to i64
  %_577 = icmp eq i64 %_574, 0
  %_578 = and i1 %_577, true
  %_579 = xor i1 %_578, true
  br i1 %_579, label %bb99, label %panic89

panic88:                                          ; preds = %bb98
; call core::panicking::panic_misaligned_pointer_dereference
  call void @_ZN4core9panicking36panic_misaligned_pointer_dereference17hcc3cbded9382b6e5E(i64 8, i64 %_246, ptr align 8 @alloc_80420f1cf7e491c764e4e5645c774add) #3
  unreachable

bb99:                                             ; preds = %bb48
  store ptr %_43, ptr %x, align 8
  br label %bb1

panic89:                                          ; preds = %bb48
; call core::panicking::panic_null_pointer_dereference
  call void @_ZN4core9panicking30panic_null_pointer_dereference17hf718fcc86a223baaE(ptr align 8 @alloc_80420f1cf7e491c764e4e5645c774add) #3
  unreachable

bb60:                                             ; preds = %bb9
  %_484 = load ptr, ptr %w, align 8
  %_485 = ptrtoint ptr %_484 to i64
  %_488 = icmp eq i64 %_485, 0
  %_489 = and i1 %_488, true
  %_490 = xor i1 %_489, true
  br i1 %_490, label %bb86, label %panic91

panic90:                                          ; preds = %bb9
; call core::panicking::panic_misaligned_pointer_dereference
  call void @_ZN4core9panicking36panic_misaligned_pointer_dereference17hcc3cbded9382b6e5E(i64 8, i64 %_318, ptr align 8 @alloc_b533e863bfec1d3ee81f5f458c508fb2) #3
  unreachable

bb86:                                             ; preds = %bb60
  %79 = load ptr, ptr %w, align 8
  %80 = getelementptr inbounds i8, ptr %79, i64 32
  store i32 0, ptr %80, align 8
  %_87 = load ptr, ptr %x, align 8
  %_312 = ptrtoint ptr %_87 to i64
  %_315 = and i64 %_312, 7
  %_316 = icmp eq i64 %_315, 0
  br i1 %_316, label %bb59, label %panic92

panic91:                                          ; preds = %bb60
; call core::panicking::panic_null_pointer_dereference
  call void @_ZN4core9panicking30panic_null_pointer_dereference17hf718fcc86a223baaE(ptr align 8 @alloc_b533e863bfec1d3ee81f5f458c508fb2) #3
  unreachable

bb59:                                             ; preds = %bb86
  %_492 = ptrtoint ptr %_87 to i64
  %_495 = icmp eq i64 %_492, 0
  %_496 = and i1 %_495, true
  %_497 = xor i1 %_496, true
  br i1 %_497, label %bb87, label %panic93

panic92:                                          ; preds = %bb86
; call core::panicking::panic_misaligned_pointer_dereference
  call void @_ZN4core9panicking36panic_misaligned_pointer_dereference17hcc3cbded9382b6e5E(i64 8, i64 %_312, ptr align 8 @alloc_641c26f89c2ffe3b071af3206f80212c) #3
  unreachable

bb87:                                             ; preds = %bb59
  %81 = getelementptr inbounds i8, ptr %_87, i64 24
  %_30 = load ptr, ptr %81, align 8
  %_306 = ptrtoint ptr %x to i64
  %_309 = and i64 %_306, 7
  %_310 = icmp eq i64 %_309, 0
  br i1 %_310, label %bb58, label %panic94

panic93:                                          ; preds = %bb59
; call core::panicking::panic_null_pointer_dereference
  call void @_ZN4core9panicking30panic_null_pointer_dereference17hf718fcc86a223baaE(ptr align 8 @alloc_641c26f89c2ffe3b071af3206f80212c) #3
  unreachable

bb58:                                             ; preds = %bb87
  %_499 = ptrtoint ptr %x to i64
  %_502 = icmp eq i64 %_499, 0
  %_503 = and i1 %_502, true
  %_504 = xor i1 %_503, true
  br i1 %_504, label %bb88, label %panic95

panic94:                                          ; preds = %bb87
; call core::panicking::panic_misaligned_pointer_dereference
  call void @_ZN4core9panicking36panic_misaligned_pointer_dereference17hcc3cbded9382b6e5E(i64 8, i64 %_306, ptr align 8 @alloc_1801bb14a1a906b584d209644d8d303e) #3
  unreachable

bb88:                                             ; preds = %bb58
  store ptr %_30, ptr %x, align 8
  br label %bb1

panic95:                                          ; preds = %bb58
; call core::panicking::panic_null_pointer_dereference
  call void @_ZN4core9panicking30panic_null_pointer_dereference17hf718fcc86a223baaE(ptr align 8 @alloc_1801bb14a1a906b584d209644d8d303e) #3
  unreachable
}

; Function Attrs: nounwind nonlazybind
define void @RB_transplat(ptr %T, ptr %u, ptr %v) unnamed_addr #1 {
start:
  %_15 = load ptr, ptr %u, align 8
  %_91 = ptrtoint ptr %_15 to i64
  %_94 = and i64 %_91, 7
  %_95 = icmp eq i64 %_94, 0
  br i1 %_95, label %bb21, label %panic

bb21:                                             ; preds = %start
  %_97 = ptrtoint ptr %_15 to i64
  %_100 = icmp eq i64 %_97, 0
  %_101 = and i1 %_100, true
  %_102 = xor i1 %_101, true
  br i1 %_102, label %bb22, label %panic1

panic:                                            ; preds = %start
; call core::panicking::panic_misaligned_pointer_dereference
  call void @_ZN4core9panicking36panic_misaligned_pointer_dereference17hcc3cbded9382b6e5E(i64 8, i64 %_91, ptr align 8 @alloc_1ea0a7c215ab9e5e08f0f989b76430a0) #3
  unreachable

bb22:                                             ; preds = %bb21
  %0 = getelementptr inbounds i8, ptr %_15, i64 24
  %_5 = load ptr, ptr %0, align 8
; call core::ptr::mut_ptr::<impl *mut T>::is_null
  %_4 = call zeroext i1 @"_ZN4core3ptr7mut_ptr31_$LT$impl$u20$$BP$mut$u20$T$GT$7is_null17h412703ffb2fe9dc0E"(ptr %_5) #4
  br i1 %_4, label %bb2, label %bb3

panic1:                                           ; preds = %bb21
; call core::panicking::panic_null_pointer_dereference
  call void @_ZN4core9panicking30panic_null_pointer_dereference17hf718fcc86a223baaE(ptr align 8 @alloc_1ea0a7c215ab9e5e08f0f989b76430a0) #3
  unreachable

bb3:                                              ; preds = %bb22
  %_73 = ptrtoint ptr %u to i64
  %_76 = and i64 %_73, 7
  %_77 = icmp eq i64 %_76, 0
  br i1 %_77, label %bb18, label %panic2

bb2:                                              ; preds = %bb22
  %_85 = ptrtoint ptr %v to i64
  %_88 = and i64 %_85, 7
  %_89 = icmp eq i64 %_88, 0
  br i1 %_89, label %bb20, label %panic14

bb18:                                             ; preds = %bb3
  %_118 = ptrtoint ptr %u to i64
  %_121 = icmp eq i64 %_118, 0
  %_122 = and i1 %_121, true
  %_123 = xor i1 %_122, true
  br i1 %_123, label %bb25, label %panic3

panic2:                                           ; preds = %bb3
; call core::panicking::panic_misaligned_pointer_dereference
  call void @_ZN4core9panicking36panic_misaligned_pointer_dereference17hcc3cbded9382b6e5E(i64 8, i64 %_73, ptr align 8 @alloc_0bd12465e50074697eb41720ef35174e) #3
  unreachable

bb25:                                             ; preds = %bb18
  %_8 = load ptr, ptr %u, align 8
  %_16 = load ptr, ptr %u, align 8
  %1 = getelementptr inbounds i8, ptr %_16, i64 24
  %_17 = load ptr, ptr %1, align 8
  %_67 = ptrtoint ptr %_17 to i64
  %_70 = and i64 %_67, 7
  %_71 = icmp eq i64 %_70, 0
  br i1 %_71, label %bb17, label %panic4

panic3:                                           ; preds = %bb18
; call core::panicking::panic_null_pointer_dereference
  call void @_ZN4core9panicking30panic_null_pointer_dereference17hf718fcc86a223baaE(ptr align 8 @alloc_0bd12465e50074697eb41720ef35174e) #3
  unreachable

bb17:                                             ; preds = %bb25
  %_125 = ptrtoint ptr %_17 to i64
  %_128 = icmp eq i64 %_125, 0
  %_129 = and i1 %_128, true
  %_130 = xor i1 %_129, true
  br i1 %_130, label %bb26, label %panic5

panic4:                                           ; preds = %bb25
; call core::panicking::panic_misaligned_pointer_dereference
  call void @_ZN4core9panicking36panic_misaligned_pointer_dereference17hcc3cbded9382b6e5E(i64 8, i64 %_67, ptr align 8 @alloc_782a6bdb31288446f18546bb6f2f15a3) #3
  unreachable

bb26:                                             ; preds = %bb17
  %2 = getelementptr inbounds i8, ptr %_17, i64 8
  %_9 = load ptr, ptr %2, align 8
  %_7 = icmp eq ptr %_8, %_9
  br i1 %_7, label %bb4, label %bb5

panic5:                                           ; preds = %bb17
; call core::panicking::panic_null_pointer_dereference
  call void @_ZN4core9panicking30panic_null_pointer_dereference17hf718fcc86a223baaE(ptr align 8 @alloc_782a6bdb31288446f18546bb6f2f15a3) #3
  unreachable

bb5:                                              ; preds = %bb26
  %_49 = ptrtoint ptr %v to i64
  %_52 = and i64 %_49, 7
  %_53 = icmp eq i64 %_52, 0
  br i1 %_53, label %bb14, label %panic6

bb4:                                              ; preds = %bb26
  %_61 = ptrtoint ptr %v to i64
  %_64 = and i64 %_61, 7
  %_65 = icmp eq i64 %_64, 0
  br i1 %_65, label %bb16, label %panic10

bb14:                                             ; preds = %bb5
  %_146 = ptrtoint ptr %v to i64
  %_149 = icmp eq i64 %_146, 0
  %_150 = and i1 %_149, true
  %_151 = xor i1 %_150, true
  br i1 %_151, label %bb29, label %panic7

panic6:                                           ; preds = %bb5
; call core::panicking::panic_misaligned_pointer_dereference
  call void @_ZN4core9panicking36panic_misaligned_pointer_dereference17hcc3cbded9382b6e5E(i64 8, i64 %_49, ptr align 8 @alloc_dd6b23cbebbec0172d3c91655fdb0a77) #3
  unreachable

bb29:                                             ; preds = %bb14
  %_11 = load ptr, ptr %v, align 8
  %_20 = load ptr, ptr %u, align 8
  %3 = getelementptr inbounds i8, ptr %_20, i64 24
  %_21 = load ptr, ptr %3, align 8
  %_43 = ptrtoint ptr %_21 to i64
  %_46 = and i64 %_43, 7
  %_47 = icmp eq i64 %_46, 0
  br i1 %_47, label %bb13, label %panic8

panic7:                                           ; preds = %bb14
; call core::panicking::panic_null_pointer_dereference
  call void @_ZN4core9panicking30panic_null_pointer_dereference17hf718fcc86a223baaE(ptr align 8 @alloc_dd6b23cbebbec0172d3c91655fdb0a77) #3
  unreachable

bb13:                                             ; preds = %bb29
  %_153 = ptrtoint ptr %_21 to i64
  %_156 = icmp eq i64 %_153, 0
  %_157 = and i1 %_156, true
  %_158 = xor i1 %_157, true
  br i1 %_158, label %bb30, label %panic9

panic8:                                           ; preds = %bb29
; call core::panicking::panic_misaligned_pointer_dereference
  call void @_ZN4core9panicking36panic_misaligned_pointer_dereference17hcc3cbded9382b6e5E(i64 8, i64 %_43, ptr align 8 @alloc_b366037c626a67f23180eb3998ad2975) #3
  unreachable

bb30:                                             ; preds = %bb13
  %4 = getelementptr inbounds i8, ptr %_21, i64 16
  store ptr %_11, ptr %4, align 8
  br label %bb6

panic9:                                           ; preds = %bb13
; call core::panicking::panic_null_pointer_dereference
  call void @_ZN4core9panicking30panic_null_pointer_dereference17hf718fcc86a223baaE(ptr align 8 @alloc_b366037c626a67f23180eb3998ad2975) #3
  unreachable

bb6:                                              ; preds = %bb24, %bb28, %bb30
  %_37 = ptrtoint ptr %v to i64
  %_40 = and i64 %_37, 7
  %_41 = icmp eq i64 %_40, 0
  br i1 %_41, label %bb12, label %panic18

bb16:                                             ; preds = %bb4
  %_132 = ptrtoint ptr %v to i64
  %_135 = icmp eq i64 %_132, 0
  %_136 = and i1 %_135, true
  %_137 = xor i1 %_136, true
  br i1 %_137, label %bb27, label %panic11

panic10:                                          ; preds = %bb4
; call core::panicking::panic_misaligned_pointer_dereference
  call void @_ZN4core9panicking36panic_misaligned_pointer_dereference17hcc3cbded9382b6e5E(i64 8, i64 %_61, ptr align 8 @alloc_37f0640e17eb6607d481e5a5cb442f1c) #3
  unreachable

bb27:                                             ; preds = %bb16
  %_10 = load ptr, ptr %v, align 8
  %_18 = load ptr, ptr %u, align 8
  %5 = getelementptr inbounds i8, ptr %_18, i64 24
  %_19 = load ptr, ptr %5, align 8
  %_55 = ptrtoint ptr %_19 to i64
  %_58 = and i64 %_55, 7
  %_59 = icmp eq i64 %_58, 0
  br i1 %_59, label %bb15, label %panic12

panic11:                                          ; preds = %bb16
; call core::panicking::panic_null_pointer_dereference
  call void @_ZN4core9panicking30panic_null_pointer_dereference17hf718fcc86a223baaE(ptr align 8 @alloc_37f0640e17eb6607d481e5a5cb442f1c) #3
  unreachable

bb15:                                             ; preds = %bb27
  %_139 = ptrtoint ptr %_19 to i64
  %_142 = icmp eq i64 %_139, 0
  %_143 = and i1 %_142, true
  %_144 = xor i1 %_143, true
  br i1 %_144, label %bb28, label %panic13

panic12:                                          ; preds = %bb27
; call core::panicking::panic_misaligned_pointer_dereference
  call void @_ZN4core9panicking36panic_misaligned_pointer_dereference17hcc3cbded9382b6e5E(i64 8, i64 %_55, ptr align 8 @alloc_a60f4cf93c435b3d9031f2b1ae005441) #3
  unreachable

bb28:                                             ; preds = %bb15
  %6 = getelementptr inbounds i8, ptr %_19, i64 8
  store ptr %_10, ptr %6, align 8
  br label %bb6

panic13:                                          ; preds = %bb15
; call core::panicking::panic_null_pointer_dereference
  call void @_ZN4core9panicking30panic_null_pointer_dereference17hf718fcc86a223baaE(ptr align 8 @alloc_a60f4cf93c435b3d9031f2b1ae005441) #3
  unreachable

bb20:                                             ; preds = %bb2
  %_104 = ptrtoint ptr %v to i64
  %_107 = icmp eq i64 %_104, 0
  %_108 = and i1 %_107, true
  %_109 = xor i1 %_108, true
  br i1 %_109, label %bb23, label %panic15

panic14:                                          ; preds = %bb2
; call core::panicking::panic_misaligned_pointer_dereference
  call void @_ZN4core9panicking36panic_misaligned_pointer_dereference17hcc3cbded9382b6e5E(i64 8, i64 %_85, ptr align 8 @alloc_161bd691229bc635d599b17c19487711) #3
  unreachable

bb23:                                             ; preds = %bb20
  %_6 = load ptr, ptr %v, align 8
  %_79 = ptrtoint ptr %T to i64
  %_82 = and i64 %_79, 7
  %_83 = icmp eq i64 %_82, 0
  br i1 %_83, label %bb19, label %panic16

panic15:                                          ; preds = %bb20
; call core::panicking::panic_null_pointer_dereference
  call void @_ZN4core9panicking30panic_null_pointer_dereference17hf718fcc86a223baaE(ptr align 8 @alloc_161bd691229bc635d599b17c19487711) #3
  unreachable

bb19:                                             ; preds = %bb23
  %_111 = ptrtoint ptr %T to i64
  %_114 = icmp eq i64 %_111, 0
  %_115 = and i1 %_114, true
  %_116 = xor i1 %_115, true
  br i1 %_116, label %bb24, label %panic17

panic16:                                          ; preds = %bb23
; call core::panicking::panic_misaligned_pointer_dereference
  call void @_ZN4core9panicking36panic_misaligned_pointer_dereference17hcc3cbded9382b6e5E(i64 8, i64 %_79, ptr align 8 @alloc_ab27577db0b92f1799c7f2d95fba37c8) #3
  unreachable

bb24:                                             ; preds = %bb19
  store ptr %_6, ptr %T, align 8
  br label %bb6

panic17:                                          ; preds = %bb19
; call core::panicking::panic_null_pointer_dereference
  call void @_ZN4core9panicking30panic_null_pointer_dereference17hf718fcc86a223baaE(ptr align 8 @alloc_ab27577db0b92f1799c7f2d95fba37c8) #3
  unreachable

bb12:                                             ; preds = %bb6
  %_160 = ptrtoint ptr %v to i64
  %_163 = icmp eq i64 %_160, 0
  %_164 = and i1 %_163, true
  %_165 = xor i1 %_164, true
  br i1 %_165, label %bb31, label %panic19

panic18:                                          ; preds = %bb6
; call core::panicking::panic_misaligned_pointer_dereference
  call void @_ZN4core9panicking36panic_misaligned_pointer_dereference17hcc3cbded9382b6e5E(i64 8, i64 %_37, ptr align 8 @alloc_1c9d252eaa1637099e72a59ed9e07ab9) #3
  unreachable

bb31:                                             ; preds = %bb12
  %_13 = load ptr, ptr %v, align 8
; call core::ptr::mut_ptr::<impl *mut T>::is_null
  %_12 = call zeroext i1 @"_ZN4core3ptr7mut_ptr31_$LT$impl$u20$$BP$mut$u20$T$GT$7is_null17h412703ffb2fe9dc0E"(ptr %_13) #4
  br i1 %_12, label %bb9, label %bb8

panic19:                                          ; preds = %bb12
; call core::panicking::panic_null_pointer_dereference
  call void @_ZN4core9panicking30panic_null_pointer_dereference17hf718fcc86a223baaE(ptr align 8 @alloc_1c9d252eaa1637099e72a59ed9e07ab9) #3
  unreachable

bb8:                                              ; preds = %bb31
  %_22 = load ptr, ptr %u, align 8
  %_31 = ptrtoint ptr %_22 to i64
  %_34 = and i64 %_31, 7
  %_35 = icmp eq i64 %_34, 0
  br i1 %_35, label %bb11, label %panic20

bb9:                                              ; preds = %bb33, %bb31
  ret void

bb11:                                             ; preds = %bb8
  %_167 = ptrtoint ptr %_22 to i64
  %_170 = icmp eq i64 %_167, 0
  %_171 = and i1 %_170, true
  %_172 = xor i1 %_171, true
  br i1 %_172, label %bb32, label %panic21

panic20:                                          ; preds = %bb8
; call core::panicking::panic_misaligned_pointer_dereference
  call void @_ZN4core9panicking36panic_misaligned_pointer_dereference17hcc3cbded9382b6e5E(i64 8, i64 %_31, ptr align 8 @alloc_8b714e87e6145f4d1381fdd6425899f9) #3
  unreachable

bb32:                                             ; preds = %bb11
  %7 = getelementptr inbounds i8, ptr %_22, i64 24
  %_14 = load ptr, ptr %7, align 8
  %_23 = load ptr, ptr %v, align 8
  %_25 = ptrtoint ptr %_23 to i64
  %_28 = and i64 %_25, 7
  %_29 = icmp eq i64 %_28, 0
  br i1 %_29, label %bb10, label %panic22

panic21:                                          ; preds = %bb11
; call core::panicking::panic_null_pointer_dereference
  call void @_ZN4core9panicking30panic_null_pointer_dereference17hf718fcc86a223baaE(ptr align 8 @alloc_8b714e87e6145f4d1381fdd6425899f9) #3
  unreachable

bb10:                                             ; preds = %bb32
  %_174 = ptrtoint ptr %_23 to i64
  %_177 = icmp eq i64 %_174, 0
  %_178 = and i1 %_177, true
  %_179 = xor i1 %_178, true
  br i1 %_179, label %bb33, label %panic23

panic22:                                          ; preds = %bb32
; call core::panicking::panic_misaligned_pointer_dereference
  call void @_ZN4core9panicking36panic_misaligned_pointer_dereference17hcc3cbded9382b6e5E(i64 8, i64 %_25, ptr align 8 @alloc_8ab9ac0e2c4660e622db792a26a70664) #3
  unreachable

bb33:                                             ; preds = %bb10
  %8 = getelementptr inbounds i8, ptr %_23, i64 24
  store ptr %_14, ptr %8, align 8
  br label %bb9

panic23:                                          ; preds = %bb10
; call core::panicking::panic_null_pointer_dereference
  call void @_ZN4core9panicking30panic_null_pointer_dereference17hf718fcc86a223baaE(ptr align 8 @alloc_8ab9ac0e2c4660e622db792a26a70664) #3
  unreachable
}

; Function Attrs: nounwind nonlazybind
define ptr @RB_delete(ptr %0, ptr %1) unnamed_addr #1 {
start:
  %x = alloca [8 x i8], align 8
  %yoc = alloca [4 x i8], align 4
  %y = alloca [8 x i8], align 8
  %z = alloca [8 x i8], align 8
  %T = alloca [8 x i8], align 8
  store ptr %0, ptr %T, align 8
  store ptr %1, ptr %z, align 8
  %2 = load ptr, ptr %z, align 8
  store ptr %2, ptr %y, align 8
  store i32 0, ptr %yoc, align 4
  %_167 = load ptr, ptr %z, align 8
  %_168 = ptrtoint ptr %_167 to i64
  %_171 = and i64 %_168, 7
  %_172 = icmp eq i64 %_171, 0
  br i1 %_172, label %bb33, label %panic

bb33:                                             ; preds = %start
  %_173 = load ptr, ptr %z, align 8
  %_174 = ptrtoint ptr %_173 to i64
  %_177 = icmp eq i64 %_174, 0
  %_178 = and i1 %_177, true
  %_179 = xor i1 %_178, true
  br i1 %_179, label %bb34, label %panic1

panic:                                            ; preds = %start
; call core::panicking::panic_misaligned_pointer_dereference
  call void @_ZN4core9panicking36panic_misaligned_pointer_dereference17hcc3cbded9382b6e5E(i64 8, i64 %_168, ptr align 8 @alloc_a2c48c3dc6cc9240ccf24fe77087c483) #3
  unreachable

bb34:                                             ; preds = %bb33
  %3 = load ptr, ptr %z, align 8
  %4 = getelementptr inbounds i8, ptr %3, i64 32
  %_5 = load i32, ptr %4, align 8
  store i32 %_5, ptr %yoc, align 4
  store ptr null, ptr %x, align 8
  %_161 = load ptr, ptr %z, align 8
  %_162 = ptrtoint ptr %_161 to i64
  %_165 = and i64 %_162, 7
  %_166 = icmp eq i64 %_165, 0
  br i1 %_166, label %bb32, label %panic2

panic1:                                           ; preds = %bb33
; call core::panicking::panic_null_pointer_dereference
  call void @_ZN4core9panicking30panic_null_pointer_dereference17hf718fcc86a223baaE(ptr align 8 @alloc_a2c48c3dc6cc9240ccf24fe77087c483) #3
  unreachable

bb32:                                             ; preds = %bb34
  %_180 = load ptr, ptr %z, align 8
  %_181 = ptrtoint ptr %_180 to i64
  %_184 = icmp eq i64 %_181, 0
  %_185 = and i1 %_184, true
  %_186 = xor i1 %_185, true
  br i1 %_186, label %bb35, label %panic3

panic2:                                           ; preds = %bb34
; call core::panicking::panic_misaligned_pointer_dereference
  call void @_ZN4core9panicking36panic_misaligned_pointer_dereference17hcc3cbded9382b6e5E(i64 8, i64 %_162, ptr align 8 @alloc_51bb9336472afd01d1dc24fa30bb260b) #3
  unreachable

bb35:                                             ; preds = %bb32
  %5 = load ptr, ptr %z, align 8
  %6 = getelementptr inbounds i8, ptr %5, i64 8
  %_8 = load ptr, ptr %6, align 8
; call core::ptr::mut_ptr::<impl *mut T>::is_null
  %_7 = call zeroext i1 @"_ZN4core3ptr7mut_ptr31_$LT$impl$u20$$BP$mut$u20$T$GT$7is_null17h412703ffb2fe9dc0E"(ptr %_8) #4
  br i1 %_7, label %bb2, label %bb3

panic3:                                           ; preds = %bb32
; call core::panicking::panic_null_pointer_dereference
  call void @_ZN4core9panicking30panic_null_pointer_dereference17hf718fcc86a223baaE(ptr align 8 @alloc_51bb9336472afd01d1dc24fa30bb260b) #3
  unreachable

bb3:                                              ; preds = %bb35
  %_149 = load ptr, ptr %z, align 8
  %_150 = ptrtoint ptr %_149 to i64
  %_153 = and i64 %_150, 7
  %_154 = icmp eq i64 %_153, 0
  br i1 %_154, label %bb30, label %panic4

bb2:                                              ; preds = %bb35
  %_155 = load ptr, ptr %z, align 8
  %_156 = ptrtoint ptr %_155 to i64
  %_159 = and i64 %_156, 7
  %_160 = icmp eq i64 %_159, 0
  br i1 %_160, label %bb31, label %panic36

bb30:                                             ; preds = %bb3
  %_199 = load ptr, ptr %z, align 8
  %_200 = ptrtoint ptr %_199 to i64
  %_203 = icmp eq i64 %_200, 0
  %_204 = and i1 %_203, true
  %_205 = xor i1 %_204, true
  br i1 %_205, label %bb38, label %panic5

panic4:                                           ; preds = %bb3
; call core::panicking::panic_misaligned_pointer_dereference
  call void @_ZN4core9panicking36panic_misaligned_pointer_dereference17hcc3cbded9382b6e5E(i64 8, i64 %_150, ptr align 8 @alloc_ca67269a60caf9383ff40b81c3741fcc) #3
  unreachable

bb38:                                             ; preds = %bb30
  %7 = load ptr, ptr %z, align 8
  %8 = getelementptr inbounds i8, ptr %7, i64 16
  %_18 = load ptr, ptr %8, align 8
; call core::ptr::mut_ptr::<impl *mut T>::is_null
  %_17 = call zeroext i1 @"_ZN4core3ptr7mut_ptr31_$LT$impl$u20$$BP$mut$u20$T$GT$7is_null17h412703ffb2fe9dc0E"(ptr %_18) #4
  br i1 %_17, label %bb5, label %bb6

panic5:                                           ; preds = %bb30
; call core::panicking::panic_null_pointer_dereference
  call void @_ZN4core9panicking30panic_null_pointer_dereference17hf718fcc86a223baaE(ptr align 8 @alloc_ca67269a60caf9383ff40b81c3741fcc) #3
  unreachable

bb6:                                              ; preds = %bb38
  %_137 = load ptr, ptr %z, align 8
  %_138 = ptrtoint ptr %_137 to i64
  %_141 = and i64 %_138, 7
  %_142 = icmp eq i64 %_141, 0
  br i1 %_142, label %bb28, label %panic6

bb5:                                              ; preds = %bb38
