; ModuleID = 'b95bxavpe097e81tbftbqzqjj'
source_filename = "b95bxavpe097e81tbftbqzqjj"
target datalayout = "e-m:e-p270:32:32-p271:32:32-p272:64:64-i64:64-i128:128-f80:128-n8:16:32:64-S128"
target triple = "x86_64-unknown-linux-gnu"

@alloc_0ed0763d8bf93ac79247e07858374e35 = private unnamed_addr constant [210 x i8] c"unsafe precondition(s) violated: ptr::offset requires the address calculation to not overflow\0A\0AThis indicates a bug in the program. This Undefined Behavior check is optional, and cannot be relied on for safety.", align 1
@alloc_f5ffd2fd1476bab43ad89fb40c72d0c5 = private unnamed_addr constant [10 x i8] c"src/lib.rs", align 1
@alloc_3710faf6fec5008be645936189677119 = private unnamed_addr constant <{ ptr, [16 x i8] }> <{ ptr @alloc_f5ffd2fd1476bab43ad89fb40c72d0c5, [16 x i8] c"\0A\00\00\00\00\00\00\00)\00\00\00\0D\00\00\00" }>, align 8
@alloc_75140fcc85e09dc7239f45b1574f14c7 = private unnamed_addr constant <{ ptr, [16 x i8] }> <{ ptr @alloc_f5ffd2fd1476bab43ad89fb40c72d0c5, [16 x i8] c"\0A\00\00\00\00\00\00\001\00\00\00\1F\00\00\00" }>, align 8
@alloc_9fb7d86ea3733b410792975594f00b90 = private unnamed_addr constant <{ ptr, [16 x i8] }> <{ ptr @alloc_f5ffd2fd1476bab43ad89fb40c72d0c5, [16 x i8] c"\0A\00\00\00\00\00\00\001\00\00\00\1E\00\00\00" }>, align 8
@alloc_8baf104062d920872821bb5142db3d3a = private unnamed_addr constant <{ ptr, [16 x i8] }> <{ ptr @alloc_f5ffd2fd1476bab43ad89fb40c72d0c5, [16 x i8] c"\0A\00\00\00\00\00\00\002\00\00\00\1B\00\00\00" }>, align 8
@alloc_43078581ed1b9780b3615b99000b748e = private unnamed_addr constant <{ ptr, [16 x i8] }> <{ ptr @alloc_f5ffd2fd1476bab43ad89fb40c72d0c5, [16 x i8] c"\0A\00\00\00\00\00\00\002\00\00\00\09\00\00\00" }>, align 8
@alloc_61eeba1c72b4d75b6940721aec003797 = private unnamed_addr constant <{ ptr, [16 x i8] }> <{ ptr @alloc_f5ffd2fd1476bab43ad89fb40c72d0c5, [16 x i8] c"\0A\00\00\00\00\00\00\003\00\00\00\10\00\00\00" }>, align 8
@alloc_9ceeb2b027b0a38cb7e1157a2294edee = private unnamed_addr constant <{ ptr, [16 x i8] }> <{ ptr @alloc_f5ffd2fd1476bab43ad89fb40c72d0c5, [16 x i8] c"\0A\00\00\00\00\00\00\003\00\00\00\0F\00\00\00" }>, align 8
@alloc_6d543bd6dce114ee494eab7b6b856a66 = private unnamed_addr constant <{ ptr, [16 x i8] }> <{ ptr @alloc_f5ffd2fd1476bab43ad89fb40c72d0c5, [16 x i8] c"\0A\00\00\00\00\00\00\004\00\00\00\1B\00\00\00" }>, align 8
@alloc_c0984e0c1315b13285c38c2571ace8bd = private unnamed_addr constant <{ ptr, [16 x i8] }> <{ ptr @alloc_f5ffd2fd1476bab43ad89fb40c72d0c5, [16 x i8] c"\0A\00\00\00\00\00\00\004\00\00\00\09\00\00\00" }>, align 8
@alloc_772df60789961433f70cf713bf2cfedf = private unnamed_addr constant <{ ptr, [16 x i8] }> <{ ptr @alloc_f5ffd2fd1476bab43ad89fb40c72d0c5, [16 x i8] c"\0A\00\00\00\00\00\00\00<\00\00\00\10\00\00\00" }>, align 8
@alloc_c5a6aab7f7b41ad8d832fc61ac38d1b8 = private unnamed_addr constant <{ ptr, [16 x i8] }> <{ ptr @alloc_f5ffd2fd1476bab43ad89fb40c72d0c5, [16 x i8] c"\0A\00\00\00\00\00\00\00=\00\00\00\0F\00\00\00" }>, align 8
@alloc_1442133444eb479de740e379d4981f5f = private unnamed_addr constant <{ ptr, [16 x i8] }> <{ ptr @alloc_f5ffd2fd1476bab43ad89fb40c72d0c5, [16 x i8] c"\0A\00\00\00\00\00\00\00=\00\00\00\0C\00\00\00" }>, align 8
@alloc_c3796b4925f401335867e06e06bc2a90 = private unnamed_addr constant <{ ptr, [16 x i8] }> <{ ptr @alloc_f5ffd2fd1476bab43ad89fb40c72d0c5, [16 x i8] c"\0A\00\00\00\00\00\00\00>\00\00\00\12\00\00\00" }>, align 8
@alloc_104a26a5cfbfad815e39f488e83ffd06 = private unnamed_addr constant <{ ptr, [16 x i8] }> <{ ptr @alloc_f5ffd2fd1476bab43ad89fb40c72d0c5, [16 x i8] c"\0A\00\00\00\00\00\00\00>\00\00\00\0F\00\00\00" }>, align 8
@alloc_1d228fcff3e4d7370127d1bd2fc0d23c = private unnamed_addr constant <{ ptr, [16 x i8] }> <{ ptr @alloc_f5ffd2fd1476bab43ad89fb40c72d0c5, [16 x i8] c"\0A\00\00\00\00\00\00\00B\00\00\00\0F\00\00\00" }>, align 8
@alloc_a3ec9be7e117f4309e0a429974ad2022 = private unnamed_addr constant <{ ptr, [16 x i8] }> <{ ptr @alloc_f5ffd2fd1476bab43ad89fb40c72d0c5, [16 x i8] c"\0A\00\00\00\00\00\00\00C\00\00\00\0F\00\00\00" }>, align 8
@alloc_e11d8ae818c950887af898279b699a76 = private unnamed_addr constant <{ ptr, [16 x i8] }> <{ ptr @alloc_f5ffd2fd1476bab43ad89fb40c72d0c5, [16 x i8] c"\0A\00\00\00\00\00\00\00C\00\00\00\0C\00\00\00" }>, align 8
@alloc_7d5d6eab2e8d5d28c744714208152a47 = private unnamed_addr constant <{ ptr, [16 x i8] }> <{ ptr @alloc_f5ffd2fd1476bab43ad89fb40c72d0c5, [16 x i8] c"\0A\00\00\00\00\00\00\00D\00\00\00\12\00\00\00" }>, align 8
@alloc_f82a50b4d2040257fbf5bc7cb0a030e6 = private unnamed_addr constant <{ ptr, [16 x i8] }> <{ ptr @alloc_f5ffd2fd1476bab43ad89fb40c72d0c5, [16 x i8] c"\0A\00\00\00\00\00\00\00D\00\00\00\0F\00\00\00" }>, align 8
@alloc_21bab6856a00df07d869582a6654a89d = private unnamed_addr constant <{ ptr, [16 x i8] }> <{ ptr @alloc_f5ffd2fd1476bab43ad89fb40c72d0c5, [16 x i8] c"\0A\00\00\00\00\00\00\00Q\00\00\00\05\00\00\00" }>, align 8
@alloc_bb689b693e85b438ed3fcda2b087a10d = private unnamed_addr constant <{ ptr, [16 x i8] }> <{ ptr @alloc_f5ffd2fd1476bab43ad89fb40c72d0c5, [16 x i8] c"\0A\00\00\00\00\00\00\00R\00\00\00\05\00\00\00" }>, align 8
@alloc_b1114e107bdc78915fbd4b8e45ce2cd0 = private unnamed_addr constant <{ ptr, [16 x i8] }> <{ ptr @alloc_f5ffd2fd1476bab43ad89fb40c72d0c5, [16 x i8] c"\0A\00\00\00\00\00\00\00V\00\00\00\1B\00\00\00" }>, align 8
@alloc_7b3cfcd865bbaf9aa55e165bfbe8d2ee = private unnamed_addr constant <{ ptr, [16 x i8] }> <{ ptr @alloc_f5ffd2fd1476bab43ad89fb40c72d0c5, [16 x i8] c"\0A\00\00\00\00\00\00\00S\00\00\00\05\00\00\00" }>, align 8
@alloc_11feb0950e23ace33b25fb6183f8f8b7 = private unnamed_addr constant <{ ptr, [16 x i8] }> <{ ptr @alloc_f5ffd2fd1476bab43ad89fb40c72d0c5, [16 x i8] c"\0A\00\00\00\00\00\00\00\\\00\00\00'\00\00\00" }>, align 8
@alloc_e57c14e6b1a6e88e655b6a132cc90f63 = private unnamed_addr constant <{ ptr, [16 x i8] }> <{ ptr @alloc_f5ffd2fd1476bab43ad89fb40c72d0c5, [16 x i8] c"\0A\00\00\00\00\00\00\00^\00\00\00\12\00\00\00" }>, align 8
@alloc_a9eecefdb6a46df374744fb6e142ce17 = private unnamed_addr constant <{ ptr, [16 x i8] }> <{ ptr @alloc_f5ffd2fd1476bab43ad89fb40c72d0c5, [16 x i8] c"\0A\00\00\00\00\00\00\00_\00\00\00\14\00\00\00" }>, align 8
@alloc_19a9d35a3f0dc6f4ec1f1516a86c2b37 = private unnamed_addr constant <{ ptr, [16 x i8] }> <{ ptr @alloc_f5ffd2fd1476bab43ad89fb40c72d0c5, [16 x i8] c"\0A\00\00\00\00\00\00\00_\00\00\00\05\00\00\00" }>, align 8
@alloc_edd9cc4ca6780cb4534cb28986d528c4 = private unnamed_addr constant <{ ptr, [16 x i8] }> <{ ptr @alloc_f5ffd2fd1476bab43ad89fb40c72d0c5, [16 x i8] c"\0A\00\00\00\00\00\00\00`\00\00\00\1B\00\00\00" }>, align 8
@alloc_9fd0d8089602b49d7240982dd95949ba = private unnamed_addr constant <{ ptr, [16 x i8] }> <{ ptr @alloc_f5ffd2fd1476bab43ad89fb40c72d0c5, [16 x i8] c"\0A\00\00\00\00\00\00\00`\00\00\00\09\00\00\00" }>, align 8
@alloc_52d4008dfc34a8928d7ca0d75832fac2 = private unnamed_addr constant <{ ptr, [16 x i8] }> <{ ptr @alloc_f5ffd2fd1476bab43ad89fb40c72d0c5, [16 x i8] c"\0A\00\00\00\00\00\00\00c\00\00\00\12\00\00\00" }>, align 8
@alloc_a062cf032a11ee1b3911b66d09503066 = private unnamed_addr constant <{ ptr, [16 x i8] }> <{ ptr @alloc_f5ffd2fd1476bab43ad89fb40c72d0c5, [16 x i8] c"\0A\00\00\00\00\00\00\00g\00\00\00\0F\00\00\00" }>, align 8
@alloc_1ef9410497a2dfc56ee017e710493c30 = private unnamed_addr constant <{ ptr, [16 x i8] }> <{ ptr @alloc_f5ffd2fd1476bab43ad89fb40c72d0c5, [16 x i8] c"\0A\00\00\00\00\00\00\00g\00\00\00\0C\00\00\00" }>, align 8
@alloc_8a15a7387ec8196140b6b0100d90557f = private unnamed_addr constant <{ ptr, [16 x i8] }> <{ ptr @alloc_f5ffd2fd1476bab43ad89fb40c72d0c5, [16 x i8] c"\0A\00\00\00\00\00\00\00h\00\00\00\13\00\00\00" }>, align 8
@alloc_f0676edb591267c52f45e8f841e4d039 = private unnamed_addr constant <{ ptr, [16 x i8] }> <{ ptr @alloc_f5ffd2fd1476bab43ad89fb40c72d0c5, [16 x i8] c"\0A\00\00\00\00\00\00\00h\00\00\00\10\00\00\00" }>, align 8
@alloc_0dfd20262a51f3000fbee40f85ac7d63 = private unnamed_addr constant <{ ptr, [16 x i8] }> <{ ptr @alloc_f5ffd2fd1476bab43ad89fb40c72d0c5, [16 x i8] c"\0A\00\00\00\00\00\00\00t\00\00\00\22\00\00\00" }>, align 8
@alloc_1e1aefa4b7159326c5f2ef6c841c0a83 = private unnamed_addr constant <{ ptr, [16 x i8] }> <{ ptr @alloc_f5ffd2fd1476bab43ad89fb40c72d0c5, [16 x i8] c"\0A\00\00\00\00\00\00\00t\00\00\00!\00\00\00" }>, align 8
@alloc_d1a11e64fdd63add9ab4729a70b53b74 = private unnamed_addr constant <{ ptr, [16 x i8] }> <{ ptr @alloc_f5ffd2fd1476bab43ad89fb40c72d0c5, [16 x i8] c"\0A\00\00\00\00\00\00\00u\00\00\00\05\00\00\00" }>, align 8
@alloc_a6453793a4f3c961401faf7b9061379a = private unnamed_addr constant <{ ptr, [16 x i8] }> <{ ptr @alloc_f5ffd2fd1476bab43ad89fb40c72d0c5, [16 x i8] c"\0A\00\00\00\00\00\00\00v\00\00\00\1B\00\00\00" }>, align 8
@alloc_995e79e36bd3580d2ae8c82744b38faf = private unnamed_addr constant <{ ptr, [16 x i8] }> <{ ptr @alloc_f5ffd2fd1476bab43ad89fb40c72d0c5, [16 x i8] c"\0A\00\00\00\00\00\00\00v\00\00\00\09\00\00\00" }>, align 8
@alloc_05c948c023b7cf295f45a6f12a35e930 = private unnamed_addr constant <{ ptr, [16 x i8] }> <{ ptr @alloc_f5ffd2fd1476bab43ad89fb40c72d0c5, [16 x i8] c"\0A\00\00\00\00\00\00\00w\00\00\00\10\00\00\00" }>, align 8
@alloc_2a4b4cf0cefe38abf2670177a98f7be1 = private unnamed_addr constant <{ ptr, [16 x i8] }> <{ ptr @alloc_f5ffd2fd1476bab43ad89fb40c72d0c5, [16 x i8] c"\0A\00\00\00\00\00\00\00w\00\00\00&\00\00\00" }>, align 8
@alloc_0241f93830f24a6b86802cb00cabf2e6 = private unnamed_addr constant <{ ptr, [16 x i8] }> <{ ptr @alloc_f5ffd2fd1476bab43ad89fb40c72d0c5, [16 x i8] c"\0A\00\00\00\00\00\00\00w\00\00\00\0F\00\00\00" }>, align 8
@alloc_2f3e8e3acbcdda9fee70033b7df481b3 = private unnamed_addr constant <{ ptr, [16 x i8] }> <{ ptr @alloc_f5ffd2fd1476bab43ad89fb40c72d0c5, [16 x i8] c"\0A\00\00\00\00\00\00\00\87\00\00\00\10\00\00\00" }>, align 8
@alloc_e16ebe9f0d45cde270924191958e9c71 = private unnamed_addr constant <{ ptr, [16 x i8] }> <{ ptr @alloc_f5ffd2fd1476bab43ad89fb40c72d0c5, [16 x i8] c"\0A\00\00\00\00\00\00\00\88\00\00\00\14\00\00\00" }>, align 8
@alloc_2cb4c15838efff24502012350f2143e0 = private unnamed_addr constant <{ ptr, [16 x i8] }> <{ ptr @alloc_f5ffd2fd1476bab43ad89fb40c72d0c5, [16 x i8] c"\0A\00\00\00\00\00\00\00\A2\00\00\00\22\00\00\00" }>, align 8
@alloc_7b68064b5dc9ae848c0dbe227ee85bc6 = private unnamed_addr constant <{ ptr, [16 x i8] }> <{ ptr @alloc_f5ffd2fd1476bab43ad89fb40c72d0c5, [16 x i8] c"\0A\00\00\00\00\00\00\00\9F\00\00\00\0D\00\00\00" }>, align 8
@alloc_f3588b28b94f0809fcc8d717033d3e48 = private unnamed_addr constant [2 x i8] c"\0A\00", align 1
@alloc_b929c71616281bfd1be2bd4038d3ddf1 = private unnamed_addr constant [4 x i8] c"%d \00", align 1
@alloc_0a65defcc5b0c24d3c8885546e3d9748 = private unnamed_addr constant <{ ptr, [16 x i8] }> <{ ptr @alloc_f5ffd2fd1476bab43ad89fb40c72d0c5, [16 x i8] c"\0A\00\00\00\00\00\00\00\B4\00\00\00\11\00\00\00" }>, align 8
@alloc_ec1550c57a087cc2f1edf17780a59e20 = private unnamed_addr constant <{ ptr, [16 x i8] }> <{ ptr @alloc_f5ffd2fd1476bab43ad89fb40c72d0c5, [16 x i8] c"\0A\00\00\00\00\00\00\00\C7\00\00\00\1A\00\00\00" }>, align 8
@alloc_b95678b168d07cea34a0ff987b0c895a = private unnamed_addr constant <{ ptr, [16 x i8] }> <{ ptr @alloc_f5ffd2fd1476bab43ad89fb40c72d0c5, [16 x i8] c"\0A\00\00\00\00\00\00\00\C4\00\00\00\05\00\00\00" }>, align 8
@alloc_275030156dd3f0ed4a995f42ffc25649 = private unnamed_addr constant <{ ptr, [16 x i8] }> <{ ptr @alloc_f5ffd2fd1476bab43ad89fb40c72d0c5, [16 x i8] c"\0A\00\00\00\00\00\00\00\C8\00\00\00\05\00\00\00" }>, align 8
@alloc_b445e99e9c0cb2dc475e05914d56e44c = private unnamed_addr constant <{ ptr, [16 x i8] }> <{ ptr @alloc_f5ffd2fd1476bab43ad89fb40c72d0c5, [16 x i8] c"\0A\00\00\00\00\00\00\00\D3\00\00\00\1A\00\00\00" }>, align 8
@alloc_f443cc2d3441c3a6ddb57f0ffd942122 = private unnamed_addr constant <{ ptr, [16 x i8] }> <{ ptr @alloc_f5ffd2fd1476bab43ad89fb40c72d0c5, [16 x i8] c"\0A\00\00\00\00\00\00\00\D0\00\00\00\05\00\00\00" }>, align 8
@alloc_fb178a354adabb5a9cb6d85f5802ae15 = private unnamed_addr constant <{ ptr, [16 x i8] }> <{ ptr @alloc_f5ffd2fd1476bab43ad89fb40c72d0c5, [16 x i8] c"\0A\00\00\00\00\00\00\00\D4\00\00\00\05\00\00\00" }>, align 8
@alloc_1805363a3956376273149d480c1edefc = private unnamed_addr constant <{ ptr, [16 x i8] }> <{ ptr @alloc_f5ffd2fd1476bab43ad89fb40c72d0c5, [16 x i8] c"\0A\00\00\00\00\00\00\00\DF\00\00\00\1A\00\00\00" }>, align 8
@alloc_9d60f1461b42520c8f7fd112edeecf20 = private unnamed_addr constant <{ ptr, [16 x i8] }> <{ ptr @alloc_f5ffd2fd1476bab43ad89fb40c72d0c5, [16 x i8] c"\0A\00\00\00\00\00\00\00\DC\00\00\00\05\00\00\00" }>, align 8
@alloc_16c5fd9e763a9af82626b08081e1de6a = private unnamed_addr constant <{ ptr, [16 x i8] }> <{ ptr @alloc_f5ffd2fd1476bab43ad89fb40c72d0c5, [16 x i8] c"\0A\00\00\00\00\00\00\00\E0\00\00\00\05\00\00\00" }>, align 8
@alloc_e8d4613499c9d56117ab3a5ad0a330b0 = private unnamed_addr constant <{ ptr, [16 x i8] }> <{ ptr @alloc_f5ffd2fd1476bab43ad89fb40c72d0c5, [16 x i8] c"\0A\00\00\00\00\00\00\00\EB\00\00\00\1A\00\00\00" }>, align 8
@alloc_2a074f95f30c2e0799d0b51e1c259a3b = private unnamed_addr constant <{ ptr, [16 x i8] }> <{ ptr @alloc_f5ffd2fd1476bab43ad89fb40c72d0c5, [16 x i8] c"\0A\00\00\00\00\00\00\00\E8\00\00\00\05\00\00\00" }>, align 8
@alloc_666769ed0c2ce36ae4e456402cbd1d83 = private unnamed_addr constant <{ ptr, [16 x i8] }> <{ ptr @alloc_f5ffd2fd1476bab43ad89fb40c72d0c5, [16 x i8] c"\0A\00\00\00\00\00\00\00\EC\00\00\00\05\00\00\00" }>, align 8
@alloc_81b7d97bb663cad8831ea8728519c526 = private unnamed_addr constant <{ ptr, [16 x i8] }> <{ ptr @alloc_f5ffd2fd1476bab43ad89fb40c72d0c5, [16 x i8] c"\0A\00\00\00\00\00\00\00\FA\00\00\00\12\00\00\00" }>, align 8
@alloc_a9943a4ee89f225b6b7f09a32c8dbf26 = private unnamed_addr constant <{ ptr, [16 x i8] }> <{ ptr @alloc_f5ffd2fd1476bab43ad89fb40c72d0c5, [16 x i8] c"\0A\00\00\00\00\00\00\00\FB\00\00\00\14\00\00\00" }>, align 8
@alloc_e90c1dda6df4031e7cec2d278dc7062a = private unnamed_addr constant <{ ptr, [16 x i8] }> <{ ptr @alloc_f5ffd2fd1476bab43ad89fb40c72d0c5, [16 x i8] c"\0A\00\00\00\00\00\00\00\FC\00\00\00\18\00\00\00" }>, align 8
@alloc_5d00082c93225ae742ad072b1e1acedc = private unnamed_addr constant <{ ptr, [16 x i8] }> <{ ptr @alloc_f5ffd2fd1476bab43ad89fb40c72d0c5, [16 x i8] c"\0A\00\00\00\00\00\00\00\0D\01\00\00\16\00\00\00" }>, align 8
@alloc_0255bdacfc758ed5f7f5c39e96c93d62 = private unnamed_addr constant [3 x i8] c"^\0A\00", align 1
@alloc_1c90cfbd7633e6688dac7b2160b0779b = private unnamed_addr constant <{ ptr, [16 x i8] }> <{ ptr @alloc_f5ffd2fd1476bab43ad89fb40c72d0c5, [16 x i8] c"\0A\00\00\00\00\00\00\00\11\01\00\00\10\00\00\00" }>, align 8
@alloc_7aacd9bec35a5d448542a84ca4df070f = private unnamed_addr constant <{ ptr, [16 x i8] }> <{ ptr @alloc_f5ffd2fd1476bab43ad89fb40c72d0c5, [16 x i8] c"\0A\00\00\00\00\00\00\00\1B\01\00\00\17\00\00\00" }>, align 8
@alloc_40b85da115377baf1b9c7a0b51ef2df7 = private unnamed_addr constant <{ ptr, [16 x i8] }> <{ ptr @alloc_f5ffd2fd1476bab43ad89fb40c72d0c5, [16 x i8] c"\0A\00\00\00\00\00\00\00\1E\01\00\00\10\00\00\00" }>, align 8
@alloc_73fa1d5d9b35d454e31a5ecaa134e9fb = private unnamed_addr constant <{ ptr, [16 x i8] }> <{ ptr @alloc_f5ffd2fd1476bab43ad89fb40c72d0c5, [16 x i8] c"\0A\00\00\00\00\00\00\00-\01\00\00\05\00\00\00" }>, align 8
@alloc_7eb107e9fb52096e74ae1e161e3ba445 = private unnamed_addr constant <{ ptr, [16 x i8] }> <{ ptr @alloc_f5ffd2fd1476bab43ad89fb40c72d0c5, [16 x i8] c"\0A\00\00\00\00\00\00\00.\01\00\00\05\00\00\00" }>, align 8
@alloc_45afa08f2b59c009968cf3fe264de138 = private unnamed_addr constant <{ ptr, [16 x i8] }> <{ ptr @alloc_f5ffd2fd1476bab43ad89fb40c72d0c5, [16 x i8] c"\0A\00\00\00\00\00\00\00/\01\00\00\05\00\00\00" }>, align 8
@alloc_7a2cd8faafd90eb6b8aa731e64a959d4 = private unnamed_addr constant <{ ptr, [16 x i8] }> <{ ptr @alloc_f5ffd2fd1476bab43ad89fb40c72d0c5, [16 x i8] c"\0A\00\00\00\00\00\00\000\01\00\00\05\00\00\00" }>, align 8
@alloc_584b2873cdd21fcd96bf6d25ac75c784 = private unnamed_addr constant <{ ptr, [16 x i8] }> <{ ptr @alloc_f5ffd2fd1476bab43ad89fb40c72d0c5, [16 x i8] c"\0A\00\00\00\00\00\00\001\01\00\00\05\00\00\00" }>, align 8
@alloc_b579447ad999bce7eef4aa24f927a427 = private unnamed_addr constant <{ ptr, [16 x i8] }> <{ ptr @alloc_f5ffd2fd1476bab43ad89fb40c72d0c5, [16 x i8] c"\0A\00\00\00\00\00\00\002\01\00\00\15\00\00\00" }>, align 8
@alloc_cac2342e7d1577c4ba2e512b3b41eb3f = private unnamed_addr constant <{ ptr, [16 x i8] }> <{ ptr @alloc_f5ffd2fd1476bab43ad89fb40c72d0c5, [16 x i8] c"\0A\00\00\00\00\00\00\00;\01\00\00\17\00\00\00" }>, align 8
@alloc_316e10541368bb317f53ee02bc0dcbb9 = private unnamed_addr constant <{ ptr, [16 x i8] }> <{ ptr @alloc_f5ffd2fd1476bab43ad89fb40c72d0c5, [16 x i8] c"\0A\00\00\00\00\00\00\00?\01\00\00\17\00\00\00" }>, align 8
@alloc_2461a58b56aa0947b9485a40cfec0d29 = private unnamed_addr constant <{ ptr, [16 x i8] }> <{ ptr @alloc_f5ffd2fd1476bab43ad89fb40c72d0c5, [16 x i8] c"\0A\00\00\00\00\00\00\00@\01\00\00\10\00\00\00" }>, align 8
@alloc_e8b26ee959185d15c7e75563794d068d = private unnamed_addr constant <{ ptr, [16 x i8] }> <{ ptr @alloc_f5ffd2fd1476bab43ad89fb40c72d0c5, [16 x i8] c"\0A\00\00\00\00\00\00\00A\01\00\00/\00\00\00" }>, align 8
@alloc_dddd54efeb045668eaebf82b333030dd = private unnamed_addr constant <{ ptr, [16 x i8] }> <{ ptr @alloc_f5ffd2fd1476bab43ad89fb40c72d0c5, [16 x i8] c"\0A\00\00\00\00\00\00\00A\01\00\00A\00\00\00" }>, align 8
@alloc_a8ede129bb021cfd2aba9ecf57653477 = private unnamed_addr constant <{ ptr, [16 x i8] }> <{ ptr @alloc_f5ffd2fd1476bab43ad89fb40c72d0c5, [16 x i8] c"\0A\00\00\00\00\00\00\00E\01\00\005\00\00\00" }>, align 8
@alloc_374d44cf36d0a78f4f5539f46fcb5150 = private unnamed_addr constant <{ ptr, [16 x i8] }> <{ ptr @alloc_f5ffd2fd1476bab43ad89fb40c72d0c5, [16 x i8] c"\0A\00\00\00\00\00\00\00F\01\00\00!\00\00\00" }>, align 8
@alloc_ade1dfce9c54123ea33836e92b33f4dd = private unnamed_addr constant <{ ptr, [16 x i8] }> <{ ptr @alloc_f5ffd2fd1476bab43ad89fb40c72d0c5, [16 x i8] c"\0A\00\00\00\00\00\00\00F\01\00\00\15\00\00\00" }>, align 8
@alloc_b11d9389dda9c423e7b62b48675f781b = private unnamed_addr constant <{ ptr, [16 x i8] }> <{ ptr @alloc_f5ffd2fd1476bab43ad89fb40c72d0c5, [16 x i8] c"\0A\00\00\00\00\00\00\00G\01\00\00!\00\00\00" }>, align 8
@alloc_c9f177d3ad5d35d7166ac8b991c9051a = private unnamed_addr constant <{ ptr, [16 x i8] }> <{ ptr @alloc_f5ffd2fd1476bab43ad89fb40c72d0c5, [16 x i8] c"\0A\00\00\00\00\00\00\00G\01\00\00\15\00\00\00" }>, align 8
@alloc_fef21cc49ea7befc6ab2a726f15bd6c5 = private unnamed_addr constant <{ ptr, [16 x i8] }> <{ ptr @alloc_f5ffd2fd1476bab43ad89fb40c72d0c5, [16 x i8] c"\0A\00\00\00\00\00\00\00H\01\00\00\15\00\00\00" }>, align 8
@alloc_7b1e676acf787dfdcc67c550cdf9c006 = private unnamed_addr constant <{ ptr, [16 x i8] }> <{ ptr @alloc_f5ffd2fd1476bab43ad89fb40c72d0c5, [16 x i8] c"\0A\00\00\00\00\00\00\00I\01\00\00!\00\00\00" }>, align 8
@alloc_c05b586b78f8ad9ea332fce8e169faba = private unnamed_addr constant <{ ptr, [16 x i8] }> <{ ptr @alloc_f5ffd2fd1476bab43ad89fb40c72d0c5, [16 x i8] c"\0A\00\00\00\00\00\00\00I\01\00\00\15\00\00\00" }>, align 8
@alloc_edb4f56293b0a16d75505729212bb9b4 = private unnamed_addr constant <{ ptr, [16 x i8] }> <{ ptr @alloc_f5ffd2fd1476bab43ad89fb40c72d0c5, [16 x i8] c"\0A\00\00\00\00\00\00\00J\01\00\00-\00\00\00" }>, align 8
@alloc_de343a7284a895c0e755e0ea5400d3d6 = private unnamed_addr constant <{ ptr, [16 x i8] }> <{ ptr @alloc_f5ffd2fd1476bab43ad89fb40c72d0c5, [16 x i8] c"\0A\00\00\00\00\00\00\00K\01\00\00!\00\00\00" }>, align 8
@alloc_c97a072e648c1ec3b9079730ef975d7f = private unnamed_addr constant <{ ptr, [16 x i8] }> <{ ptr @alloc_f5ffd2fd1476bab43ad89fb40c72d0c5, [16 x i8] c"\0A\00\00\00\00\00\00\00K\01\00\00\15\00\00\00" }>, align 8
@alloc_4aace895ed3aea2c91a193d22c1b579a = private unnamed_addr constant <{ ptr, [16 x i8] }> <{ ptr @alloc_f5ffd2fd1476bab43ad89fb40c72d0c5, [16 x i8] c"\0A\00\00\00\00\00\00\00O\01\00\00\17\00\00\00" }>, align 8
@alloc_4d7a904218c881e0dff0b02e5cc8868f = private unnamed_addr constant <{ ptr, [16 x i8] }> <{ ptr @alloc_f5ffd2fd1476bab43ad89fb40c72d0c5, [16 x i8] c"\0A\00\00\00\00\00\00\00P\01\00\00\10\00\00\00" }>, align 8
@alloc_e2626d641508ad088661f8e9f513d689 = private unnamed_addr constant <{ ptr, [16 x i8] }> <{ ptr @alloc_f5ffd2fd1476bab43ad89fb40c72d0c5, [16 x i8] c"\0A\00\00\00\00\00\00\00Q\01\00\001\00\00\00" }>, align 8
@alloc_da3b8c8ab2547652d161cf70b6376b73 = private unnamed_addr constant <{ ptr, [16 x i8] }> <{ ptr @alloc_f5ffd2fd1476bab43ad89fb40c72d0c5, [16 x i8] c"\0A\00\00\00\00\00\00\00Q\01\00\00C\00\00\00" }>, align 8
@alloc_e8ade50a4bdb4727a9de5b1e3d952c2a = private unnamed_addr constant <{ ptr, [16 x i8] }> <{ ptr @alloc_f5ffd2fd1476bab43ad89fb40c72d0c5, [16 x i8] c"\0A\00\00\00\00\00\00\00U\01\00\005\00\00\00" }>, align 8
@alloc_a9bd8b4046dd281b106b62c85449feee = private unnamed_addr constant <{ ptr, [16 x i8] }> <{ ptr @alloc_f5ffd2fd1476bab43ad89fb40c72d0c5, [16 x i8] c"\0A\00\00\00\00\00\00\00V\01\00\00!\00\00\00" }>, align 8
@alloc_53b68ee39c9dffe22c76ece80b84da84 = private unnamed_addr constant <{ ptr, [16 x i8] }> <{ ptr @alloc_f5ffd2fd1476bab43ad89fb40c72d0c5, [16 x i8] c"\0A\00\00\00\00\00\00\00V\01\00\00\15\00\00\00" }>, align 8
@alloc_de9bdec6c12283c6ba3ba93992d0d85e = private unnamed_addr constant <{ ptr, [16 x i8] }> <{ ptr @alloc_f5ffd2fd1476bab43ad89fb40c72d0c5, [16 x i8] c"\0A\00\00\00\00\00\00\00W\01\00\00!\00\00\00" }>, align 8
@alloc_cb36a29d0f9d0c296b919a2632546b95 = private unnamed_addr constant <{ ptr, [16 x i8] }> <{ ptr @alloc_f5ffd2fd1476bab43ad89fb40c72d0c5, [16 x i8] c"\0A\00\00\00\00\00\00\00W\01\00\00\15\00\00\00" }>, align 8
@alloc_1a03635bec02b33b0028dc22f86ce1fa = private unnamed_addr constant <{ ptr, [16 x i8] }> <{ ptr @alloc_f5ffd2fd1476bab43ad89fb40c72d0c5, [16 x i8] c"\0A\00\00\00\00\00\00\00X\01\00\00\15\00\00\00" }>, align 8
@alloc_d14860202e76186a23431e729bd65b32 = private unnamed_addr constant <{ ptr, [16 x i8] }> <{ ptr @alloc_f5ffd2fd1476bab43ad89fb40c72d0c5, [16 x i8] c"\0A\00\00\00\00\00\00\00Y\01\00\00!\00\00\00" }>, align 8
@alloc_ac280b430b4f090ba154940e4ebe9fb8 = private unnamed_addr constant <{ ptr, [16 x i8] }> <{ ptr @alloc_f5ffd2fd1476bab43ad89fb40c72d0c5, [16 x i8] c"\0A\00\00\00\00\00\00\00Y\01\00\00\15\00\00\00" }>, align 8
@alloc_c2f9eefd33fca2bbb8b7ce4e2c3dc2ae = private unnamed_addr constant <{ ptr, [16 x i8] }> <{ ptr @alloc_f5ffd2fd1476bab43ad89fb40c72d0c5, [16 x i8] c"\0A\00\00\00\00\00\00\00Z\01\00\00-\00\00\00" }>, align 8
@alloc_ef2575f5f1898b76d9bc9bf957dc254d = private unnamed_addr constant <{ ptr, [16 x i8] }> <{ ptr @alloc_f5ffd2fd1476bab43ad89fb40c72d0c5, [16 x i8] c"\0A\00\00\00\00\00\00\00[\01\00\00!\00\00\00" }>, align 8
@alloc_b316e50b61750e38288fd40b9fee757b = private unnamed_addr constant <{ ptr, [16 x i8] }> <{ ptr @alloc_f5ffd2fd1476bab43ad89fb40c72d0c5, [16 x i8] c"\0A\00\00\00\00\00\00\00[\01\00\00\15\00\00\00" }>, align 8
@alloc_89b2a93ae0de04f5d2ea47ab93d75242 = private unnamed_addr constant <{ ptr, [16 x i8] }> <{ ptr @alloc_f5ffd2fd1476bab43ad89fb40c72d0c5, [16 x i8] c"\0A\00\00\00\00\00\00\00_\01\00\00\17\00\00\00" }>, align 8
@alloc_8f965036c56e2b272a74f3d0f23a6ab6 = private unnamed_addr constant <{ ptr, [16 x i8] }> <{ ptr @alloc_f5ffd2fd1476bab43ad89fb40c72d0c5, [16 x i8] c"\0A\00\00\00\00\00\00\00`\01\00\00\10\00\00\00" }>, align 8
@alloc_aaf0f4fe87485ed701428e167a537cab = private unnamed_addr constant <{ ptr, [16 x i8] }> <{ ptr @alloc_f5ffd2fd1476bab43ad89fb40c72d0c5, [16 x i8] c"\0A\00\00\00\00\00\00\00a\01\00\001\00\00\00" }>, align 8
@alloc_1e107e0ab8ed78ce812c49cd12509e0f = private unnamed_addr constant <{ ptr, [16 x i8] }> <{ ptr @alloc_f5ffd2fd1476bab43ad89fb40c72d0c5, [16 x i8] c"\0A\00\00\00\00\00\00\00a\01\00\00C\00\00\00" }>, align 8
@alloc_b2a2cb37976bf05b3416315dd34d5b20 = private unnamed_addr constant <{ ptr, [16 x i8] }> <{ ptr @alloc_f5ffd2fd1476bab43ad89fb40c72d0c5, [16 x i8] c"\0A\00\00\00\00\00\00\00e\01\00\005\00\00\00" }>, align 8
@alloc_75efbc1572328ff9a848159f3849e941 = private unnamed_addr constant <{ ptr, [16 x i8] }> <{ ptr @alloc_f5ffd2fd1476bab43ad89fb40c72d0c5, [16 x i8] c"\0A\00\00\00\00\00\00\00f\01\00\00!\00\00\00" }>, align 8
@alloc_5810fe09f2cfadeffec869d61e7e5b15 = private unnamed_addr constant <{ ptr, [16 x i8] }> <{ ptr @alloc_f5ffd2fd1476bab43ad89fb40c72d0c5, [16 x i8] c"\0A\00\00\00\00\00\00\00f\01\00\00\15\00\00\00" }>, align 8
@alloc_6d5ed2358c35bbc977aad20b13f9b655 = private unnamed_addr constant <{ ptr, [16 x i8] }> <{ ptr @alloc_f5ffd2fd1476bab43ad89fb40c72d0c5, [16 x i8] c"\0A\00\00\00\00\00\00\00g\01\00\00!\00\00\00" }>, align 8
@alloc_867df6ee53509fe1cba8b9b3a0e4736a = private unnamed_addr constant <{ ptr, [16 x i8] }> <{ ptr @alloc_f5ffd2fd1476bab43ad89fb40c72d0c5, [16 x i8] c"\0A\00\00\00\00\00\00\00g\01\00\00\15\00\00\00" }>, align 8
@alloc_ed272520f11702304b0463de23aeb54c = private unnamed_addr constant <{ ptr, [16 x i8] }> <{ ptr @alloc_f5ffd2fd1476bab43ad89fb40c72d0c5, [16 x i8] c"\0A\00\00\00\00\00\00\00h\01\00\00\15\00\00\00" }>, align 8
@alloc_09ff84c60fea1bf26b8157b13a99461d = private unnamed_addr constant <{ ptr, [16 x i8] }> <{ ptr @alloc_f5ffd2fd1476bab43ad89fb40c72d0c5, [16 x i8] c"\0A\00\00\00\00\00\00\00i\01\00\00!\00\00\00" }>, align 8
@alloc_ffacb930fb85ea7a698d26af7a964d03 = private unnamed_addr constant <{ ptr, [16 x i8] }> <{ ptr @alloc_f5ffd2fd1476bab43ad89fb40c72d0c5, [16 x i8] c"\0A\00\00\00\00\00\00\00i\01\00\00\15\00\00\00" }>, align 8
@alloc_40b6b2cc43a91b298932e8e73f72c94f = private unnamed_addr constant <{ ptr, [16 x i8] }> <{ ptr @alloc_f5ffd2fd1476bab43ad89fb40c72d0c5, [16 x i8] c"\0A\00\00\00\00\00\00\00j\01\00\00-\00\00\00" }>, align 8
@alloc_6f0e806cb9ae028e0e3365246b5a5642 = private unnamed_addr constant <{ ptr, [16 x i8] }> <{ ptr @alloc_f5ffd2fd1476bab43ad89fb40c72d0c5, [16 x i8] c"\0A\00\00\00\00\00\00\00k\01\00\00!\00\00\00" }>, align 8
@alloc_66c23c40fdc8d1c574ec739876a2e5dd = private unnamed_addr constant <{ ptr, [16 x i8] }> <{ ptr @alloc_f5ffd2fd1476bab43ad89fb40c72d0c5, [16 x i8] c"\0A\00\00\00\00\00\00\00k\01\00\00\15\00\00\00" }>, align 8
@alloc_d068ce281bee4bbbbd8fd89095c96955 = private unnamed_addr constant <{ ptr, [16 x i8] }> <{ ptr @alloc_f5ffd2fd1476bab43ad89fb40c72d0c5, [16 x i8] c"\0A\00\00\00\00\00\00\00o\01\00\00\17\00\00\00" }>, align 8
@alloc_bb8307c62c12ece5861d4bb4a456072c = private unnamed_addr constant <{ ptr, [16 x i8] }> <{ ptr @alloc_f5ffd2fd1476bab43ad89fb40c72d0c5, [16 x i8] c"\0A\00\00\00\00\00\00\00p\01\00\00\10\00\00\00" }>, align 8
@alloc_ca59df0e3fc8105aeb7b297920f14020 = private unnamed_addr constant <{ ptr, [16 x i8] }> <{ ptr @alloc_f5ffd2fd1476bab43ad89fb40c72d0c5, [16 x i8] c"\0A\00\00\00\00\00\00\00q\01\00\002\00\00\00" }>, align 8
@alloc_4a6b340eeb54d47e172867d1e04fae25 = private unnamed_addr constant <{ ptr, [16 x i8] }> <{ ptr @alloc_f5ffd2fd1476bab43ad89fb40c72d0c5, [16 x i8] c"\0A\00\00\00\00\00\00\00q\01\00\00D\00\00\00" }>, align 8
@alloc_856259a2382dabed8beb372205efe3a9 = private unnamed_addr constant <{ ptr, [16 x i8] }> <{ ptr @alloc_f5ffd2fd1476bab43ad89fb40c72d0c5, [16 x i8] c"\0A\00\00\00\00\00\00\00u\01\00\005\00\00\00" }>, align 8
@alloc_af2b2bcfcf3c76fcde0c7f61258ec1ad = private unnamed_addr constant <{ ptr, [16 x i8] }> <{ ptr @alloc_f5ffd2fd1476bab43ad89fb40c72d0c5, [16 x i8] c"\0A\00\00\00\00\00\00\00v\01\00\00!\00\00\00" }>, align 8
@alloc_c1b3127b4dd133472bddb7b9e745e797 = private unnamed_addr constant <{ ptr, [16 x i8] }> <{ ptr @alloc_f5ffd2fd1476bab43ad89fb40c72d0c5, [16 x i8] c"\0A\00\00\00\00\00\00\00v\01\00\00\15\00\00\00" }>, align 8
@alloc_e4d86ece32818b42aaf6e6e881bcf673 = private unnamed_addr constant <{ ptr, [16 x i8] }> <{ ptr @alloc_f5ffd2fd1476bab43ad89fb40c72d0c5, [16 x i8] c"\0A\00\00\00\00\00\00\00w\01\00\00!\00\00\00" }>, align 8
@alloc_15d72a8261abc88e8293b09d2d3f1ff6 = private unnamed_addr constant <{ ptr, [16 x i8] }> <{ ptr @alloc_f5ffd2fd1476bab43ad89fb40c72d0c5, [16 x i8] c"\0A\00\00\00\00\00\00\00w\01\00\00\15\00\00\00" }>, align 8
@alloc_395cd0bd449e75448d47ce986a3a09f2 = private unnamed_addr constant <{ ptr, [16 x i8] }> <{ ptr @alloc_f5ffd2fd1476bab43ad89fb40c72d0c5, [16 x i8] c"\0A\00\00\00\00\00\00\00x\01\00\00\15\00\00\00" }>, align 8
@alloc_719ce17aef7b12c1b32671a773f22f33 = private unnamed_addr constant <{ ptr, [16 x i8] }> <{ ptr @alloc_f5ffd2fd1476bab43ad89fb40c72d0c5, [16 x i8] c"\0A\00\00\00\00\00\00\00y\01\00\00!\00\00\00" }>, align 8
@alloc_263ec2910806d4ec2c280ff7f5e92cca = private unnamed_addr constant <{ ptr, [16 x i8] }> <{ ptr @alloc_f5ffd2fd1476bab43ad89fb40c72d0c5, [16 x i8] c"\0A\00\00\00\00\00\00\00y\01\00\00\15\00\00\00" }>, align 8
@alloc_49a3179fa04a51bc4dadbae7c7a2d59e = private unnamed_addr constant <{ ptr, [16 x i8] }> <{ ptr @alloc_f5ffd2fd1476bab43ad89fb40c72d0c5, [16 x i8] c"\0A\00\00\00\00\00\00\00z\01\00\00-\00\00\00" }>, align 8
@alloc_b5708b452632ff0423885eaf37b4572a = private unnamed_addr constant <{ ptr, [16 x i8] }> <{ ptr @alloc_f5ffd2fd1476bab43ad89fb40c72d0c5, [16 x i8] c"\0A\00\00\00\00\00\00\00{\01\00\00!\00\00\00" }>, align 8
@alloc_a0660a4f27d4d93c53c5f51c1452479c = private unnamed_addr constant <{ ptr, [16 x i8] }> <{ ptr @alloc_f5ffd2fd1476bab43ad89fb40c72d0c5, [16 x i8] c"\0A\00\00\00\00\00\00\00{\01\00\00\15\00\00\00" }>, align 8

; core::intrinsics::cold_path
; Function Attrs: cold nounwind nonlazybind
define internal void @_ZN4core10intrinsics9cold_path17h09156cb0c599d932E() unnamed_addr #0 {
start:
  ret void
}

; core::ptr::mut_ptr::<impl *mut T>::offset::precondition_check
; Function Attrs: inlinehint nounwind nonlazybind
define internal void @"_ZN4core3ptr7mut_ptr31_$LT$impl$u20$$BP$mut$u20$T$GT$6offset18precondition_check17h9ddc65a497611677E"(ptr %this, i64 %count, i64 %size) unnamed_addr #1 {
start:
  %0 = call { i64, i1 } @llvm.smul.with.overflow.i64(i64 %count, i64 %size)
  %_10.0 = extractvalue { i64, i1 } %0, 0
  %_10.1 = extractvalue { i64, i1 } %0, 1
  br i1 %_10.1, label %bb3, label %bb5

bb5:                                              ; preds = %start
  %self = ptrtoint ptr %this to i64
  %1 = call { i64, i1 } @llvm.uadd.with.overflow.i64(i64 %self, i64 %_10.0)
  %_19.0 = extractvalue { i64, i1 } %1, 0
  %_19.1 = extractvalue { i64, i1 } %1, 1
  %_17 = icmp slt i64 %_10.0, 0
  %overflow = xor i1 %_19.1, %_17
  %_4 = xor i1 %overflow, true
  br i1 %_4, label %bb1, label %bb2

bb3:                                              ; preds = %start
  br label %bb2

bb2:                                              ; preds = %bb3, %bb5
; call core::panicking::panic_nounwind
  call void @_ZN4core9panicking14panic_nounwind17h211d9ce8d63f12e7E(ptr align 1 @alloc_0ed0763d8bf93ac79247e07858374e35, i64 210) #8
  unreachable

bb1:                                              ; preds = %bb5
  ret void
}

; core::ptr::mut_ptr::<impl *mut T>::is_null
; Function Attrs: inlinehint nounwind nonlazybind
define internal zeroext i1 @"_ZN4core3ptr7mut_ptr31_$LT$impl$u20$$BP$mut$u20$T$GT$7is_null17ha9aff25d23b50e3eE"(ptr %self) unnamed_addr #1 {
start:
  %_3 = ptrtoint ptr %self to i64
  %_0 = icmp eq i64 %_3, 0
  ret i1 %_0
}

; Function Attrs: nounwind nonlazybind
define i32 @heap_empty(ptr %heap) unnamed_addr #2 {
start:
  %_5 = ptrtoint ptr %heap to i64
  %_8 = and i64 %_5, 7
  %_9 = icmp eq i64 %_8, 0
  br i1 %_9, label %bb1, label %panic

bb1:                                              ; preds = %start
  %_11 = ptrtoint ptr %heap to i64
  %_14 = icmp eq i64 %_11, 0
  %_15 = and i1 %_14, true
  %_16 = xor i1 %_15, true
  br i1 %_16, label %bb2, label %panic1

panic:                                            ; preds = %start
; call core::panicking::panic_misaligned_pointer_dereference
  call void @_ZN4core9panicking36panic_misaligned_pointer_dereference17hcc3cbded9382b6e5E(i64 8, i64 %_5, ptr align 8 @alloc_3710faf6fec5008be645936189677119) #8
  unreachable

bb2:                                              ; preds = %bb1
  %_3 = load i32, ptr %heap, align 8
  %_2 = icmp eq i32 %_3, 0
  %_0 = zext i1 %_2 to i32
  ret i32 %_0

panic1:                                           ; preds = %bb1
; call core::panicking::panic_null_pointer_dereference
  call void @_ZN4core9panicking30panic_null_pointer_dereference17hf718fcc86a223baaE(ptr align 8 @alloc_3710faf6fec5008be645936189677119) #8
  unreachable
}

; Function Attrs: nounwind nonlazybind
define void @heap_swap(ptr %heap, i32 %pos1, i32 %pos2) unnamed_addr #2 {
start:
  %_51 = ptrtoint ptr %heap to i64
  %_54 = and i64 %_51, 7
  %_55 = icmp eq i64 %_54, 0
  br i1 %_55, label %bb10, label %panic

bb10:                                             ; preds = %start
  %_57 = ptrtoint ptr %heap to i64
  %_60 = icmp eq i64 %_57, 0
  %_61 = and i1 %_60, true
  %_62 = xor i1 %_61, true
  br i1 %_62, label %bb11, label %panic1

panic:                                            ; preds = %start
; call core::panicking::panic_misaligned_pointer_dereference
  call void @_ZN4core9panicking36panic_misaligned_pointer_dereference17hcc3cbded9382b6e5E(i64 8, i64 %_51, ptr align 8 @alloc_75140fcc85e09dc7239f45b1574f14c7) #8
  unreachable

bb11:                                             ; preds = %bb10
  %0 = getelementptr inbounds i8, ptr %heap, i64 8
  %_6 = load ptr, ptr %0, align 8
  %_7 = sext i32 %pos1 to i64
; call core::ptr::mut_ptr::<impl *mut T>::offset::precondition_check
  call void @"_ZN4core3ptr7mut_ptr31_$LT$impl$u20$$BP$mut$u20$T$GT$6offset18precondition_check17h9ddc65a497611677E"(ptr %_6, i64 %_7, i64 8) #9
  %_0.i16 = getelementptr inbounds ptr, ptr %_6, i64 %_7
  %_45 = ptrtoint ptr %_0.i16 to i64
  %_48 = and i64 %_45, 7
  %_49 = icmp eq i64 %_48, 0
  br i1 %_49, label %bb9, label %panic2

panic1:                                           ; preds = %bb10
; call core::panicking::panic_null_pointer_dereference
  call void @_ZN4core9panicking30panic_null_pointer_dereference17hf718fcc86a223baaE(ptr align 8 @alloc_75140fcc85e09dc7239f45b1574f14c7) #8
  unreachable

bb9:                                              ; preds = %bb11
  %_64 = ptrtoint ptr %_0.i16 to i64
  %_67 = icmp eq i64 %_64, 0
  %_68 = and i1 %_67, true
  %_69 = xor i1 %_68, true
  br i1 %_69, label %bb12, label %panic3

panic2:                                           ; preds = %bb11
; call core::panicking::panic_misaligned_pointer_dereference
  call void @_ZN4core9panicking36panic_misaligned_pointer_dereference17hcc3cbded9382b6e5E(i64 8, i64 %_45, ptr align 8 @alloc_9fb7d86ea3733b410792975594f00b90) #8
  unreachable

bb12:                                             ; preds = %bb9
  %tmp = load ptr, ptr %_0.i16, align 8
  %_39 = ptrtoint ptr %heap to i64
  %_42 = and i64 %_39, 7
  %_43 = icmp eq i64 %_42, 0
  br i1 %_43, label %bb8, label %panic4

panic3:                                           ; preds = %bb9
; call core::panicking::panic_null_pointer_dereference
  call void @_ZN4core9panicking30panic_null_pointer_dereference17hf718fcc86a223baaE(ptr align 8 @alloc_9fb7d86ea3733b410792975594f00b90) #8
  unreachable

bb8:                                              ; preds = %bb12
  %_71 = ptrtoint ptr %heap to i64
  %_74 = icmp eq i64 %_71, 0
  %_75 = and i1 %_74, true
  %_76 = xor i1 %_75, true
  br i1 %_76, label %bb13, label %panic5

panic4:                                           ; preds = %bb12
; call core::panicking::panic_misaligned_pointer_dereference
  call void @_ZN4core9panicking36panic_misaligned_pointer_dereference17hcc3cbded9382b6e5E(i64 8, i64 %_39, ptr align 8 @alloc_8baf104062d920872821bb5142db3d3a) #8
  unreachable

bb13:                                             ; preds = %bb8
  %1 = getelementptr inbounds i8, ptr %heap, i64 8
  %_10 = load ptr, ptr %1, align 8
  %_11 = sext i32 %pos1 to i64
; call core::ptr::mut_ptr::<impl *mut T>::offset::precondition_check
  call void @"_ZN4core3ptr7mut_ptr31_$LT$impl$u20$$BP$mut$u20$T$GT$6offset18precondition_check17h9ddc65a497611677E"(ptr %_10, i64 %_11, i64 8) #9
  %_0.i15 = getelementptr inbounds ptr, ptr %_10, i64 %_11
  %_104 = ptrtoint ptr %_0.i15 to i64
  %_105 = icmp eq i64 %_104, 0
  %_106 = and i1 %_105, true
  %_107 = xor i1 %_106, true
  br i1 %_107, label %bb18, label %panic6

panic5:                                           ; preds = %bb8
; call core::panicking::panic_null_pointer_dereference
  call void @_ZN4core9panicking30panic_null_pointer_dereference17hf718fcc86a223baaE(ptr align 8 @alloc_8baf104062d920872821bb5142db3d3a) #8
  unreachable

bb18:                                             ; preds = %bb13
  %_33 = ptrtoint ptr %heap to i64
  %_36 = and i64 %_33, 7
  %_37 = icmp eq i64 %_36, 0
  br i1 %_37, label %bb7, label %panic7

panic6:                                           ; preds = %bb13
; call core::panicking::panic_null_pointer_dereference
  call void @_ZN4core9panicking30panic_null_pointer_dereference17hf718fcc86a223baaE(ptr align 8 @alloc_43078581ed1b9780b3615b99000b748e) #8
  unreachable

bb7:                                              ; preds = %bb18
  %_78 = ptrtoint ptr %heap to i64
  %_81 = icmp eq i64 %_78, 0
  %_82 = and i1 %_81, true
  %_83 = xor i1 %_82, true
  br i1 %_83, label %bb14, label %panic8

panic7:                                           ; preds = %bb18
; call core::panicking::panic_misaligned_pointer_dereference
  call void @_ZN4core9panicking36panic_misaligned_pointer_dereference17hcc3cbded9382b6e5E(i64 8, i64 %_33, ptr align 8 @alloc_61eeba1c72b4d75b6940721aec003797) #8
  unreachable

bb14:                                             ; preds = %bb7
  %2 = getelementptr inbounds i8, ptr %heap, i64 8
  %_14 = load ptr, ptr %2, align 8
  %_15 = sext i32 %pos2 to i64
; call core::ptr::mut_ptr::<impl *mut T>::offset::precondition_check
  call void @"_ZN4core3ptr7mut_ptr31_$LT$impl$u20$$BP$mut$u20$T$GT$6offset18precondition_check17h9ddc65a497611677E"(ptr %_14, i64 %_15, i64 8) #9
  %_0.i14 = getelementptr inbounds ptr, ptr %_14, i64 %_15
  %_27 = ptrtoint ptr %_0.i14 to i64
  %_30 = and i64 %_27, 7
  %_31 = icmp eq i64 %_30, 0
  br i1 %_31, label %bb6, label %panic9

panic8:                                           ; preds = %bb7
; call core::panicking::panic_null_pointer_dereference
  call void @_ZN4core9panicking30panic_null_pointer_dereference17hf718fcc86a223baaE(ptr align 8 @alloc_61eeba1c72b4d75b6940721aec003797) #8
  unreachable

bb6:                                              ; preds = %bb14
  %_85 = ptrtoint ptr %_0.i14 to i64
  %_88 = icmp eq i64 %_85, 0
  %_89 = and i1 %_88, true
  %_90 = xor i1 %_89, true
  br i1 %_90, label %bb15, label %panic10

panic9:                                           ; preds = %bb14
; call core::panicking::panic_misaligned_pointer_dereference
  call void @_ZN4core9panicking36panic_misaligned_pointer_dereference17hcc3cbded9382b6e5E(i64 8, i64 %_27, ptr align 8 @alloc_9ceeb2b027b0a38cb7e1157a2294edee) #8
  unreachable

bb15:                                             ; preds = %bb6
  %_12 = load ptr, ptr %_0.i14, align 8
  store ptr %_12, ptr %_0.i15, align 8
  %_21 = ptrtoint ptr %heap to i64
  %_24 = and i64 %_21, 7
  %_25 = icmp eq i64 %_24, 0
  br i1 %_25, label %bb5, label %panic11

panic10:                                          ; preds = %bb6
; call core::panicking::panic_null_pointer_dereference
  call void @_ZN4core9panicking30panic_null_pointer_dereference17hf718fcc86a223baaE(ptr align 8 @alloc_9ceeb2b027b0a38cb7e1157a2294edee) #8
  unreachable

bb5:                                              ; preds = %bb15
  %_92 = ptrtoint ptr %heap to i64
  %_95 = icmp eq i64 %_92, 0
  %_96 = and i1 %_95, true
  %_97 = xor i1 %_96, true
  br i1 %_97, label %bb16, label %panic12

panic11:                                          ; preds = %bb15
; call core::panicking::panic_misaligned_pointer_dereference
  call void @_ZN4core9panicking36panic_misaligned_pointer_dereference17hcc3cbded9382b6e5E(i64 8, i64 %_21, ptr align 8 @alloc_6d543bd6dce114ee494eab7b6b856a66) #8
  unreachable

bb16:                                             ; preds = %bb5
  %3 = getelementptr inbounds i8, ptr %heap, i64 8
  %_18 = load ptr, ptr %3, align 8
  %_19 = sext i32 %pos2 to i64
; call core::ptr::mut_ptr::<impl *mut T>::offset::precondition_check
  call void @"_ZN4core3ptr7mut_ptr31_$LT$impl$u20$$BP$mut$u20$T$GT$6offset18precondition_check17h9ddc65a497611677E"(ptr %_18, i64 %_19, i64 8) #9
  %_0.i = getelementptr inbounds ptr, ptr %_18, i64 %_19
  %_99 = ptrtoint ptr %_0.i to i64
  %_100 = icmp eq i64 %_99, 0
  %_101 = and i1 %_100, true
  %_102 = xor i1 %_101, true
  br i1 %_102, label %bb17, label %panic13

panic12:                                          ; preds = %bb5
; call core::panicking::panic_null_pointer_dereference
  call void @_ZN4core9panicking30panic_null_pointer_dereference17hf718fcc86a223baaE(ptr align 8 @alloc_6d543bd6dce114ee494eab7b6b856a66) #8
  unreachable

bb17:                                             ; preds = %bb16
  store ptr %tmp, ptr %_0.i, align 8
  ret void

panic13:                                          ; preds = %bb16
; call core::panicking::panic_null_pointer_dereference
  call void @_ZN4core9panicking30panic_null_pointer_dereference17hf718fcc86a223baaE(ptr align 8 @alloc_c0984e0c1315b13285c38c2571ace8bd) #8
  unreachable
}

; Function Attrs: nounwind nonlazybind
define void @heap_hold(ptr %heap, i32 %pos) unnamed_addr #2 {
start:
  %minpos = alloca [4 x i8], align 4
  %_4 = mul i32 2, %pos
  %left = add i32 %_4, 1
  %_6 = mul i32 2, %pos
  %right = add i32 %_6, 2
  store i32 %pos, ptr %minpos, align 4
  %_97 = ptrtoint ptr %heap to i64
  %_100 = and i64 %_97, 7
  %_101 = icmp eq i64 %_100, 0
  br i1 %_101, label %bb23, label %panic

bb23:                                             ; preds = %start
  %_103 = ptrtoint ptr %heap to i64
  %_106 = icmp eq i64 %_103, 0
  %_107 = and i1 %_106, true
  %_108 = xor i1 %_107, true
  br i1 %_108, label %bb24, label %panic1

panic:                                            ; preds = %start
; call core::panicking::panic_misaligned_pointer_dereference
  call void @_ZN4core9panicking36panic_misaligned_pointer_dereference17hcc3cbded9382b6e5E(i64 8, i64 %_97, ptr align 8 @alloc_772df60789961433f70cf713bf2cfedf) #8
  unreachable

bb24:                                             ; preds = %bb23
  %_9 = load i32, ptr %heap, align 8
  %_8 = icmp slt i32 %right, %_9
  br i1 %_8, label %bb1, label %bb5

panic1:                                           ; preds = %bb23
; call core::panicking::panic_null_pointer_dereference
  call void @_ZN4core9panicking30panic_null_pointer_dereference17hf718fcc86a223baaE(ptr align 8 @alloc_772df60789961433f70cf713bf2cfedf) #8
  unreachable

bb5:                                              ; preds = %bb4, %bb28, %bb24
  %_67 = ptrtoint ptr %heap to i64
  %_70 = and i64 %_67, 7
  %_71 = icmp eq i64 %_70, 0
  br i1 %_71, label %bb18, label %panic10

bb1:                                              ; preds = %bb24
  %_91 = ptrtoint ptr %heap to i64
  %_94 = and i64 %_91, 7
  %_95 = icmp eq i64 %_94, 0
  br i1 %_95, label %bb22, label %panic2

bb22:                                             ; preds = %bb1
  %_110 = ptrtoint ptr %heap to i64
  %_113 = icmp eq i64 %_110, 0
  %_114 = and i1 %_113, true
  %_115 = xor i1 %_114, true
  br i1 %_115, label %bb25, label %panic3

panic2:                                           ; preds = %bb1
; call core::panicking::panic_misaligned_pointer_dereference
  call void @_ZN4core9panicking36panic_misaligned_pointer_dereference17hcc3cbded9382b6e5E(i64 8, i64 %_91, ptr align 8 @alloc_c5a6aab7f7b41ad8d832fc61ac38d1b8) #8
  unreachable

bb25:                                             ; preds = %bb22
  %0 = getelementptr inbounds i8, ptr %heap, i64 8
  %_13 = load ptr, ptr %0, align 8
  %_14 = sext i32 %right to i64
; call core::ptr::mut_ptr::<impl *mut T>::offset::precondition_check
  call void @"_ZN4core3ptr7mut_ptr31_$LT$impl$u20$$BP$mut$u20$T$GT$6offset18precondition_check17h9ddc65a497611677E"(ptr %_13, i64 %_14, i64 8) #9
  %_0.i22 = getelementptr inbounds ptr, ptr %_13, i64 %_14
  %_38 = load ptr, ptr %_0.i22, align 8
  %_85 = ptrtoint ptr %_38 to i64
  %_88 = and i64 %_85, 7
  %_89 = icmp eq i64 %_88, 0
  br i1 %_89, label %bb21, label %panic4

panic3:                                           ; preds = %bb22
; call core::panicking::panic_null_pointer_dereference
  call void @_ZN4core9panicking30panic_null_pointer_dereference17hf718fcc86a223baaE(ptr align 8 @alloc_c5a6aab7f7b41ad8d832fc61ac38d1b8) #8
  unreachable

bb21:                                             ; preds = %bb25
  %_117 = ptrtoint ptr %_38 to i64
  %_120 = icmp eq i64 %_117, 0
  %_121 = and i1 %_120, true
  %_122 = xor i1 %_121, true
  br i1 %_122, label %bb26, label %panic5

panic4:                                           ; preds = %bb25
; call core::panicking::panic_misaligned_pointer_dereference
  call void @_ZN4core9panicking36panic_misaligned_pointer_dereference17hcc3cbded9382b6e5E(i64 8, i64 %_85, ptr align 8 @alloc_1442133444eb479de740e379d4981f5f) #8
  unreachable

bb26:                                             ; preds = %bb21
  %1 = getelementptr inbounds i8, ptr %_38, i64 4
  %_11 = load i32, ptr %1, align 4
  %_79 = ptrtoint ptr %heap to i64
  %_82 = and i64 %_79, 7
  %_83 = icmp eq i64 %_82, 0
  br i1 %_83, label %bb20, label %panic6

panic5:                                           ; preds = %bb21
; call core::panicking::panic_null_pointer_dereference
  call void @_ZN4core9panicking30panic_null_pointer_dereference17hf718fcc86a223baaE(ptr align 8 @alloc_1442133444eb479de740e379d4981f5f) #8
  unreachable

bb20:                                             ; preds = %bb26
  %_124 = ptrtoint ptr %heap to i64
  %_127 = icmp eq i64 %_124, 0
  %_128 = and i1 %_127, true
  %_129 = xor i1 %_128, true
  br i1 %_129, label %bb27, label %panic7

panic6:                                           ; preds = %bb26
; call core::panicking::panic_misaligned_pointer_dereference
  call void @_ZN4core9panicking36panic_misaligned_pointer_dereference17hcc3cbded9382b6e5E(i64 8, i64 %_79, ptr align 8 @alloc_c3796b4925f401335867e06e06bc2a90) #8
  unreachable

bb27:                                             ; preds = %bb20
  %2 = getelementptr inbounds i8, ptr %heap, i64 8
  %_17 = load ptr, ptr %2, align 8
  %_19 = load i32, ptr %minpos, align 4
  %_18 = sext i32 %_19 to i64
; call core::ptr::mut_ptr::<impl *mut T>::offset::precondition_check
  call void @"_ZN4core3ptr7mut_ptr31_$LT$impl$u20$$BP$mut$u20$T$GT$6offset18precondition_check17h9ddc65a497611677E"(ptr %_17, i64 %_18, i64 8) #9
  %_0.i21 = getelementptr inbounds ptr, ptr %_17, i64 %_18
  %_39 = load ptr, ptr %_0.i21, align 8
  %_73 = ptrtoint ptr %_39 to i64
  %_76 = and i64 %_73, 7
  %_77 = icmp eq i64 %_76, 0
  br i1 %_77, label %bb19, label %panic8

panic7:                                           ; preds = %bb20
; call core::panicking::panic_null_pointer_dereference
  call void @_ZN4core9panicking30panic_null_pointer_dereference17hf718fcc86a223baaE(ptr align 8 @alloc_c3796b4925f401335867e06e06bc2a90) #8
  unreachable

bb19:                                             ; preds = %bb27
  %_131 = ptrtoint ptr %_39 to i64
  %_134 = icmp eq i64 %_131, 0
  %_135 = and i1 %_134, true
  %_136 = xor i1 %_135, true
  br i1 %_136, label %bb28, label %panic9

panic8:                                           ; preds = %bb27
; call core::panicking::panic_misaligned_pointer_dereference
  call void @_ZN4core9panicking36panic_misaligned_pointer_dereference17hcc3cbded9382b6e5E(i64 8, i64 %_73, ptr align 8 @alloc_104a26a5cfbfad815e39f488e83ffd06) #8
  unreachable

bb28:                                             ; preds = %bb19
  %3 = getelementptr inbounds i8, ptr %_39, i64 4
  %_15 = load i32, ptr %3, align 4
  %_10 = icmp slt i32 %_11, %_15
  br i1 %_10, label %bb4, label %bb5

panic9:                                           ; preds = %bb19
; call core::panicking::panic_null_pointer_dereference
  call void @_ZN4core9panicking30panic_null_pointer_dereference17hf718fcc86a223baaE(ptr align 8 @alloc_104a26a5cfbfad815e39f488e83ffd06) #8
  unreachable

bb4:                                              ; preds = %bb28
  store i32 %right, ptr %minpos, align 4
  br label %bb5

bb18:                                             ; preds = %bb5
  %_138 = ptrtoint ptr %heap to i64
  %_141 = icmp eq i64 %_138, 0
  %_142 = and i1 %_141, true
  %_143 = xor i1 %_142, true
  br i1 %_143, label %bb29, label %panic11

panic10:                                          ; preds = %bb5
; call core::panicking::panic_misaligned_pointer_dereference
  call void @_ZN4core9panicking36panic_misaligned_pointer_dereference17hcc3cbded9382b6e5E(i64 8, i64 %_67, ptr align 8 @alloc_1d228fcff3e4d7370127d1bd2fc0d23c) #8
  unreachable

bb29:                                             ; preds = %bb18
  %_21 = load i32, ptr %heap, align 8
  %_20 = icmp slt i32 %left, %_21
  br i1 %_20, label %bb6, label %bb10

panic11:                                          ; preds = %bb18
; call core::panicking::panic_null_pointer_dereference
  call void @_ZN4core9panicking30panic_null_pointer_dereference17hf718fcc86a223baaE(ptr align 8 @alloc_1d228fcff3e4d7370127d1bd2fc0d23c) #8
  unreachable

bb10:                                             ; preds = %bb9, %bb33, %bb29
  %_33 = load i32, ptr %minpos, align 4
  %_32 = icmp ne i32 %_33, %pos
  br i1 %_32, label %bb11, label %bb13

bb6:                                              ; preds = %bb29
  %_61 = ptrtoint ptr %heap to i64
  %_64 = and i64 %_61, 7
  %_65 = icmp eq i64 %_64, 0
  br i1 %_65, label %bb17, label %panic12

bb17:                                             ; preds = %bb6
  %_145 = ptrtoint ptr %heap to i64
  %_148 = icmp eq i64 %_145, 0
  %_149 = and i1 %_148, true
  %_150 = xor i1 %_149, true
  br i1 %_150, label %bb30, label %panic13

panic12:                                          ; preds = %bb6
; call core::panicking::panic_misaligned_pointer_dereference
  call void @_ZN4core9panicking36panic_misaligned_pointer_dereference17hcc3cbded9382b6e5E(i64 8, i64 %_61, ptr align 8 @alloc_a3ec9be7e117f4309e0a429974ad2022) #8
  unreachable

bb30:                                             ; preds = %bb17
  %4 = getelementptr inbounds i8, ptr %heap, i64 8
  %_25 = load ptr, ptr %4, align 8
  %_26 = sext i32 %left to i64
; call core::ptr::mut_ptr::<impl *mut T>::offset::precondition_check
  call void @"_ZN4core3ptr7mut_ptr31_$LT$impl$u20$$BP$mut$u20$T$GT$6offset18precondition_check17h9ddc65a497611677E"(ptr %_25, i64 %_26, i64 8) #9
  %_0.i20 = getelementptr inbounds ptr, ptr %_25, i64 %_26
  %_40 = load ptr, ptr %_0.i20, align 8
  %_55 = ptrtoint ptr %_40 to i64
  %_58 = and i64 %_55, 7
  %_59 = icmp eq i64 %_58, 0
  br i1 %_59, label %bb16, label %panic14

panic13:                                          ; preds = %bb17
; call core::panicking::panic_null_pointer_dereference
  call void @_ZN4core9panicking30panic_null_pointer_dereference17hf718fcc86a223baaE(ptr align 8 @alloc_a3ec9be7e117f4309e0a429974ad2022) #8
  unreachable

bb16:                                             ; preds = %bb30
  %_152 = ptrtoint ptr %_40 to i64
  %_155 = icmp eq i64 %_152, 0
  %_156 = and i1 %_155, true
  %_157 = xor i1 %_156, true
  br i1 %_157, label %bb31, label %panic15

panic14:                                          ; preds = %bb30
; call core::panicking::panic_misaligned_pointer_dereference
  call void @_ZN4core9panicking36panic_misaligned_pointer_dereference17hcc3cbded9382b6e5E(i64 8, i64 %_55, ptr align 8 @alloc_e11d8ae818c950887af898279b699a76) #8
  unreachable

bb31:                                             ; preds = %bb16
  %5 = getelementptr inbounds i8, ptr %_40, i64 4
  %_23 = load i32, ptr %5, align 4
  %_49 = ptrtoint ptr %heap to i64
  %_52 = and i64 %_49, 7
  %_53 = icmp eq i64 %_52, 0
  br i1 %_53, label %bb15, label %panic16

panic15:                                          ; preds = %bb16
; call core::panicking::panic_null_pointer_dereference
  call void @_ZN4core9panicking30panic_null_pointer_dereference17hf718fcc86a223baaE(ptr align 8 @alloc_e11d8ae818c950887af898279b699a76) #8
  unreachable

bb15:                                             ; preds = %bb31
  %_159 = ptrtoint ptr %heap to i64
  %_162 = icmp eq i64 %_159, 0
  %_163 = and i1 %_162, true
  %_164 = xor i1 %_163, true
  br i1 %_164, label %bb32, label %panic17

panic16:                                          ; preds = %bb31
; call core::panicking::panic_misaligned_pointer_dereference
  call void @_ZN4core9panicking36panic_misaligned_pointer_dereference17hcc3cbded9382b6e5E(i64 8, i64 %_49, ptr align 8 @alloc_7d5d6eab2e8d5d28c744714208152a47) #8
  unreachable

bb32:                                             ; preds = %bb15
  %6 = getelementptr inbounds i8, ptr %heap, i64 8
  %_29 = load ptr, ptr %6, align 8
  %_31 = load i32, ptr %minpos, align 4
  %_30 = sext i32 %_31 to i64
; call core::ptr::mut_ptr::<impl *mut T>::offset::precondition_check
  call void @"_ZN4core3ptr7mut_ptr31_$LT$impl$u20$$BP$mut$u20$T$GT$6offset18precondition_check17h9ddc65a497611677E"(ptr %_29, i64 %_30, i64 8) #9
  %_0.i = getelementptr inbounds ptr, ptr %_29, i64 %_30
  %_41 = load ptr, ptr %_0.i, align 8
  %_43 = ptrtoint ptr %_41 to i64
  %_46 = and i64 %_43, 7
  %_47 = icmp eq i64 %_46, 0
  br i1 %_47, label %bb14, label %panic18

panic17:                                          ; preds = %bb15
; call core::panicking::panic_null_pointer_dereference
  call void @_ZN4core9panicking30panic_null_pointer_dereference17hf718fcc86a223baaE(ptr align 8 @alloc_7d5d6eab2e8d5d28c744714208152a47) #8
  unreachable

bb14:                                             ; preds = %bb32
  %_166 = ptrtoint ptr %_41 to i64
  %_169 = icmp eq i64 %_166, 0
  %_170 = and i1 %_169, true
  %_171 = xor i1 %_170, true
  br i1 %_171, label %bb33, label %panic19

panic18:                                          ; preds = %bb32
; call core::panicking::panic_misaligned_pointer_dereference
  call void @_ZN4core9panicking36panic_misaligned_pointer_dereference17hcc3cbded9382b6e5E(i64 8, i64 %_43, ptr align 8 @alloc_f82a50b4d2040257fbf5bc7cb0a030e6) #8
  unreachable

bb33:                                             ; preds = %bb14
  %7 = getelementptr inbounds i8, ptr %_41, i64 4
  %_27 = load i32, ptr %7, align 4
  %_22 = icmp slt i32 %_23, %_27
  br i1 %_22, label %bb9, label %bb10

panic19:                                          ; preds = %bb14
; call core::panicking::panic_null_pointer_dereference
  call void @_ZN4core9panicking30panic_null_pointer_dereference17hf718fcc86a223baaE(ptr align 8 @alloc_f82a50b4d2040257fbf5bc7cb0a030e6) #8
  unreachable

bb9:                                              ; preds = %bb33
  store i32 %left, ptr %minpos, align 4
  br label %bb10

bb13:                                             ; preds = %bb11, %bb10
  ret void

bb11:                                             ; preds = %bb10
  %_35 = load i32, ptr %minpos, align 4
  call void @heap_swap(ptr %heap, i32 %_35, i32 %pos) #9
  %_37 = load i32, ptr %minpos, align 4
  call void @heap_hold(ptr %heap, i32 %_37) #9
  br label %bb13
}

; Function Attrs: nounwind nonlazybind
define ptr @init_heap() unnamed_addr #2 {
start:
  %_1 = call ptr @malloc(i64 16) #9
  %_29 = ptrtoint ptr %_1 to i64
  %_32 = and i64 %_29, 7
  %_33 = icmp eq i64 %_32, 0
  br i1 %_33, label %bb9, label %panic

bb9:                                              ; preds = %start
  %_35 = ptrtoint ptr %_1 to i64
  %_38 = icmp eq i64 %_35, 0
  %_39 = and i1 %_38, true
  %_40 = xor i1 %_39, true
  br i1 %_40, label %bb10, label %panic1

panic:                                            ; preds = %start
; call core::panicking::panic_misaligned_pointer_dereference
  call void @_ZN4core9panicking36panic_misaligned_pointer_dereference17hcc3cbded9382b6e5E(i64 8, i64 %_29, ptr align 8 @alloc_21bab6856a00df07d869582a6654a89d) #8
  unreachable

bb10:                                             ; preds = %bb9
  store i32 0, ptr %_1, align 8
  %_23 = ptrtoint ptr %_1 to i64
  %_26 = and i64 %_23, 7
  %_27 = icmp eq i64 %_26, 0
  br i1 %_27, label %bb8, label %panic2

panic1:                                           ; preds = %bb9
; call core::panicking::panic_null_pointer_dereference
  call void @_ZN4core9panicking30panic_null_pointer_dereference17hf718fcc86a223baaE(ptr align 8 @alloc_21bab6856a00df07d869582a6654a89d) #8
  unreachable

bb8:                                              ; preds = %bb10
  %_42 = ptrtoint ptr %_1 to i64
  %_45 = icmp eq i64 %_42, 0
  %_46 = and i1 %_45, true
  %_47 = xor i1 %_46, true
  br i1 %_47, label %bb11, label %panic3

panic2:                                           ; preds = %bb10
; call core::panicking::panic_misaligned_pointer_dereference
  call void @_ZN4core9panicking36panic_misaligned_pointer_dereference17hcc3cbded9382b6e5E(i64 8, i64 %_23, ptr align 8 @alloc_bb689b693e85b438ed3fcda2b087a10d) #8
  unreachable

bb11:                                             ; preds = %bb8
  %0 = getelementptr inbounds i8, ptr %_1, i64 4
  store i32 100, ptr %0, align 4
  %_17 = ptrtoint ptr %_1 to i64
  %_20 = and i64 %_17, 7
  %_21 = icmp eq i64 %_20, 0
  br i1 %_21, label %bb7, label %panic4

panic3:                                           ; preds = %bb8
; call core::panicking::panic_null_pointer_dereference
  call void @_ZN4core9panicking30panic_null_pointer_dereference17hf718fcc86a223baaE(ptr align 8 @alloc_bb689b693e85b438ed3fcda2b087a10d) #8
  unreachable

bb7:                                              ; preds = %bb11
  %_49 = ptrtoint ptr %_1 to i64
  %_52 = icmp eq i64 %_49, 0
  %_53 = and i1 %_52, true
  %_54 = xor i1 %_53, true
  br i1 %_54, label %bb12, label %panic5

panic4:                                           ; preds = %bb11
; call core::panicking::panic_misaligned_pointer_dereference
  call void @_ZN4core9panicking36panic_misaligned_pointer_dereference17hcc3cbded9382b6e5E(i64 8, i64 %_17, ptr align 8 @alloc_b1114e107bdc78915fbd4b8e45ce2cd0) #8
  unreachable

bb12:                                             ; preds = %bb7
  %1 = getelementptr inbounds i8, ptr %_1, i64 4
  %_9 = load i32, ptr %1, align 4
  %_8 = sext i32 %_9 to i64
  %_0.i = mul i64 8, %_8
  %_4 = call ptr @malloc(i64 %_0.i) #9
  %_11 = ptrtoint ptr %_1 to i64
  %_14 = and i64 %_11, 7
  %_15 = icmp eq i64 %_14, 0
  br i1 %_15, label %bb6, label %panic6

panic5:                                           ; preds = %bb7
; call core::panicking::panic_null_pointer_dereference
  call void @_ZN4core9panicking30panic_null_pointer_dereference17hf718fcc86a223baaE(ptr align 8 @alloc_b1114e107bdc78915fbd4b8e45ce2cd0) #8
  unreachable

bb6:                                              ; preds = %bb12
  %_56 = ptrtoint ptr %_1 to i64
  %_59 = icmp eq i64 %_56, 0
  %_60 = and i1 %_59, true
  %_61 = xor i1 %_60, true
  br i1 %_61, label %bb13, label %panic7

panic6:                                           ; preds = %bb12
; call core::panicking::panic_misaligned_pointer_dereference
  call void @_ZN4core9panicking36panic_misaligned_pointer_dereference17hcc3cbded9382b6e5E(i64 8, i64 %_11, ptr align 8 @alloc_7b3cfcd865bbaf9aa55e165bfbe8d2ee) #8
  unreachable

bb13:                                             ; preds = %bb6
  %2 = getelementptr inbounds i8, ptr %_1, i64 8
  store ptr %_4, ptr %2, align 8
  ret ptr %_1

panic7:                                           ; preds = %bb6
; call core::panicking::panic_null_pointer_dereference
  call void @_ZN4core9panicking30panic_null_pointer_dereference17hf718fcc86a223baaE(ptr align 8 @alloc_7b3cfcd865bbaf9aa55e165bfbe8d2ee) #8
  unreachable
}

; Function Attrs: nounwind nonlazybind
define void @insert_heap(ptr %heap, ptr %new) unnamed_addr #2 {
start:
  %parent = alloca [4 x i8], align 4
  %_82 = ptrtoint ptr %heap to i64
  %_85 = and i64 %_82, 7
  %_86 = icmp eq i64 %_85, 0
  br i1 %_86, label %bb18, label %panic

bb18:                                             ; preds = %start
  %_88 = ptrtoint ptr %heap to i64
  %_91 = icmp eq i64 %_88, 0
  %_92 = and i1 %_91, true
  %_93 = xor i1 %_92, true
  br i1 %_93, label %bb19, label %panic1

panic:                                            ; preds = %start
; call core::panicking::panic_misaligned_pointer_dereference
  call void @_ZN4core9panicking36panic_misaligned_pointer_dereference17hcc3cbded9382b6e5E(i64 8, i64 %_82, ptr align 8 @alloc_11feb0950e23ace33b25fb6183f8f8b7) #8
  unreachable

bb19:                                             ; preds = %bb18
  %currentpos = load i32, ptr %heap, align 8
  store i32 0, ptr %parent, align 4
  %_76 = ptrtoint ptr %heap to i64
  %_79 = and i64 %_76, 7
  %_80 = icmp eq i64 %_79, 0
  br i1 %_80, label %bb17, label %panic2

panic1:                                           ; preds = %bb18
; call core::panicking::panic_null_pointer_dereference
  call void @_ZN4core9panicking30panic_null_pointer_dereference17hf718fcc86a223baaE(ptr align 8 @alloc_11feb0950e23ace33b25fb6183f8f8b7) #8
  unreachable

bb17:                                             ; preds = %bb19
  %_95 = ptrtoint ptr %heap to i64
  %_98 = icmp eq i64 %_95, 0
  %_99 = and i1 %_98, true
  %_100 = xor i1 %_99, true
  br i1 %_100, label %bb20, label %panic3

panic2:                                           ; preds = %bb19
; call core::panicking::panic_misaligned_pointer_dereference
  call void @_ZN4core9panicking36panic_misaligned_pointer_dereference17hcc3cbded9382b6e5E(i64 8, i64 %_76, ptr align 8 @alloc_e57c14e6b1a6e88e655b6a132cc90f63) #8
  unreachable

bb20:                                             ; preds = %bb17
  %fresh2 = load i32, ptr %heap, align 8
  %_70 = ptrtoint ptr %heap to i64
  %_73 = and i64 %_70, 7
  %_74 = icmp eq i64 %_73, 0
  br i1 %_74, label %bb16, label %panic4

panic3:                                           ; preds = %bb17
; call core::panicking::panic_null_pointer_dereference
  call void @_ZN4core9panicking30panic_null_pointer_dereference17hf718fcc86a223baaE(ptr align 8 @alloc_e57c14e6b1a6e88e655b6a132cc90f63) #8
  unreachable

bb16:                                             ; preds = %bb20
  %_102 = ptrtoint ptr %heap to i64
  %_105 = icmp eq i64 %_102, 0
  %_106 = and i1 %_105, true
  %_107 = xor i1 %_106, true
  br i1 %_107, label %bb21, label %panic5

panic4:                                           ; preds = %bb20
; call core::panicking::panic_misaligned_pointer_dereference
  call void @_ZN4core9panicking36panic_misaligned_pointer_dereference17hcc3cbded9382b6e5E(i64 8, i64 %_70, ptr align 8 @alloc_a9eecefdb6a46df374744fb6e142ce17) #8
  unreachable

bb21:                                             ; preds = %bb16
  %_6 = load i32, ptr %heap, align 8
  %_64 = ptrtoint ptr %heap to i64
  %_67 = and i64 %_64, 7
  %_68 = icmp eq i64 %_67, 0
  br i1 %_68, label %bb15, label %panic6

panic5:                                           ; preds = %bb16
; call core::panicking::panic_null_pointer_dereference
  call void @_ZN4core9panicking30panic_null_pointer_dereference17hf718fcc86a223baaE(ptr align 8 @alloc_a9eecefdb6a46df374744fb6e142ce17) #8
  unreachable

bb15:                                             ; preds = %bb21
  %_109 = ptrtoint ptr %heap to i64
  %_112 = icmp eq i64 %_109, 0
  %_113 = and i1 %_112, true
  %_114 = xor i1 %_113, true
  br i1 %_114, label %bb22, label %panic7

panic6:                                           ; preds = %bb21
; call core::panicking::panic_misaligned_pointer_dereference
  call void @_ZN4core9panicking36panic_misaligned_pointer_dereference17hcc3cbded9382b6e5E(i64 8, i64 %_64, ptr align 8 @alloc_19a9d35a3f0dc6f4ec1f1516a86c2b37) #8
  unreachable

bb22:                                             ; preds = %bb15
  %0 = add i32 %_6, 1
  store i32 %0, ptr %heap, align 8
  %_58 = ptrtoint ptr %heap to i64
  %_61 = and i64 %_58, 7
  %_62 = icmp eq i64 %_61, 0
  br i1 %_62, label %bb14, label %panic8

panic7:                                           ; preds = %bb15
; call core::panicking::panic_null_pointer_dereference
  call void @_ZN4core9panicking30panic_null_pointer_dereference17hf718fcc86a223baaE(ptr align 8 @alloc_19a9d35a3f0dc6f4ec1f1516a86c2b37) #8
  unreachable

bb14:                                             ; preds = %bb22
  %_116 = ptrtoint ptr %heap to i64
  %_119 = icmp eq i64 %_116, 0
  %_120 = and i1 %_119, true
  %_121 = xor i1 %_120, true
  br i1 %_121, label %bb23, label %panic9

panic8:                                           ; preds = %bb22
; call core::panicking::panic_misaligned_pointer_dereference
  call void @_ZN4core9panicking36panic_misaligned_pointer_dereference17hcc3cbded9382b6e5E(i64 8, i64 %_58, ptr align 8 @alloc_edd9cc4ca6780cb4534cb28986d528c4) #8
  unreachable

bb23:                                             ; preds = %bb14
  %1 = getelementptr inbounds i8, ptr %heap, i64 8
  %_9 = load ptr, ptr %1, align 8
  %_10 = sext i32 %fresh2 to i64
; call core::ptr::mut_ptr::<impl *mut T>::offset::precondition_check
  call void @"_ZN4core3ptr7mut_ptr31_$LT$impl$u20$$BP$mut$u20$T$GT$6offset18precondition_check17h9ddc65a497611677E"(ptr %_9, i64 %_10, i64 8) #9
  %_0.i21 = getelementptr inbounds ptr, ptr %_9, i64 %_10
  %_151 = ptrtoint ptr %_0.i21 to i64
  %_152 = icmp eq i64 %_151, 0
  %_153 = and i1 %_152, true
  %_154 = xor i1 %_153, true
  br i1 %_154, label %bb28, label %panic10

panic9:                                           ; preds = %bb14
; call core::panicking::panic_null_pointer_dereference
  call void @_ZN4core9panicking30panic_null_pointer_dereference17hf718fcc86a223baaE(ptr align 8 @alloc_edd9cc4ca6780cb4534cb28986d528c4) #8
  unreachable

bb28:                                             ; preds = %bb23
  store ptr %new, ptr %_0.i21, align 8
  br label %bb2

panic10:                                          ; preds = %bb23
; call core::panicking::panic_null_pointer_dereference
  call void @_ZN4core9panicking30panic_null_pointer_dereference17hf718fcc86a223baaE(ptr align 8 @alloc_9fd0d8089602b49d7240982dd95949ba) #8
  unreachable

bb2:                                              ; preds = %bb8, %bb28
  %_11 = sub i32 %currentpos, 1
  %_15 = icmp eq i32 %_11, -2147483648
  %_16 = and i1 false, %_15
  br i1 %_16, label %panic11, label %bb4

bb4:                                              ; preds = %bb2
  %2 = sdiv i32 %_11, 2
  store i32 %2, ptr %parent, align 4
  %_18 = load i32, ptr %parent, align 4
  %_17 = icmp sge i32 %_18, 0
  br i1 %_17, label %bb5, label %bb9

panic11:                                          ; preds = %bb2
; call core::panicking::panic_const::panic_const_div_overflow
  call void @_ZN4core9panicking11panic_const24panic_const_div_overflow17h1ac73c9e33e18298E(ptr align 8 @alloc_52d4008dfc34a8928d7ca0d75832fac2) #8
  unreachable

bb9:                                              ; preds = %bb27, %bb4
  ret void

bb5:                                              ; preds = %bb4
  %_52 = ptrtoint ptr %heap to i64
  %_55 = and i64 %_52, 7
  %_56 = icmp eq i64 %_55, 0
  br i1 %_56, label %bb13, label %panic12

bb13:                                             ; preds = %bb5
  %_123 = ptrtoint ptr %heap to i64
  %_126 = icmp eq i64 %_123, 0
  %_127 = and i1 %_126, true
  %_128 = xor i1 %_127, true
  br i1 %_128, label %bb24, label %panic13

panic12:                                          ; preds = %bb5
; call core::panicking::panic_misaligned_pointer_dereference
  call void @_ZN4core9panicking36panic_misaligned_pointer_dereference17hcc3cbded9382b6e5E(i64 8, i64 %_52, ptr align 8 @alloc_a062cf032a11ee1b3911b66d09503066) #8
  unreachable

bb24:                                             ; preds = %bb13
  %3 = getelementptr inbounds i8, ptr %heap, i64 8
  %_22 = load ptr, ptr %3, align 8
  %_23 = sext i32 %currentpos to i64
; call core::ptr::mut_ptr::<impl *mut T>::offset::precondition_check
  call void @"_ZN4core3ptr7mut_ptr31_$LT$impl$u20$$BP$mut$u20$T$GT$6offset18precondition_check17h9ddc65a497611677E"(ptr %_22, i64 %_23, i64 8) #9
  %_0.i20 = getelementptr inbounds ptr, ptr %_22, i64 %_23
  %_31 = load ptr, ptr %_0.i20, align 8
  %_46 = ptrtoint ptr %_31 to i64
  %_49 = and i64 %_46, 7
  %_50 = icmp eq i64 %_49, 0
  br i1 %_50, label %bb12, label %panic14

panic13:                                          ; preds = %bb13
; call core::panicking::panic_null_pointer_dereference
  call void @_ZN4core9panicking30panic_null_pointer_dereference17hf718fcc86a223baaE(ptr align 8 @alloc_a062cf032a11ee1b3911b66d09503066) #8
  unreachable

bb12:                                             ; preds = %bb24
  %_130 = ptrtoint ptr %_31 to i64
  %_133 = icmp eq i64 %_130, 0
  %_134 = and i1 %_133, true
  %_135 = xor i1 %_134, true
  br i1 %_135, label %bb25, label %panic15

panic14:                                          ; preds = %bb24
; call core::panicking::panic_misaligned_pointer_dereference
  call void @_ZN4core9panicking36panic_misaligned_pointer_dereference17hcc3cbded9382b6e5E(i64 8, i64 %_46, ptr align 8 @alloc_1ef9410497a2dfc56ee017e710493c30) #8
  unreachable

bb25:                                             ; preds = %bb12
  %4 = getelementptr inbounds i8, ptr %_31, i64 4
  %_20 = load i32, ptr %4, align 4
  %_40 = ptrtoint ptr %heap to i64
  %_43 = and i64 %_40, 7
  %_44 = icmp eq i64 %_43, 0
  br i1 %_44, label %bb11, label %panic16

panic15:                                          ; preds = %bb12
; call core::panicking::panic_null_pointer_dereference
  call void @_ZN4core9panicking30panic_null_pointer_dereference17hf718fcc86a223baaE(ptr align 8 @alloc_1ef9410497a2dfc56ee017e710493c30) #8
  unreachable

bb11:                                             ; preds = %bb25
  %_137 = ptrtoint ptr %heap to i64
  %_140 = icmp eq i64 %_137, 0
  %_141 = and i1 %_140, true
  %_142 = xor i1 %_141, true
  br i1 %_142, label %bb26, label %panic17

panic16:                                          ; preds = %bb25
; call core::panicking::panic_misaligned_pointer_dereference
  call void @_ZN4core9panicking36panic_misaligned_pointer_dereference17hcc3cbded9382b6e5E(i64 8, i64 %_40, ptr align 8 @alloc_8a15a7387ec8196140b6b0100d90557f) #8
  unreachable

bb26:                                             ; preds = %bb11
  %5 = getelementptr inbounds i8, ptr %heap, i64 8
  %_26 = load ptr, ptr %5, align 8
  %_28 = load i32, ptr %parent, align 4
  %_27 = sext i32 %_28 to i64
; call core::ptr::mut_ptr::<impl *mut T>::offset::precondition_check
  call void @"_ZN4core3ptr7mut_ptr31_$LT$impl$u20$$BP$mut$u20$T$GT$6offset18precondition_check17h9ddc65a497611677E"(ptr %_26, i64 %_27, i64 8) #9
  %_0.i = getelementptr inbounds ptr, ptr %_26, i64 %_27
  %_32 = load ptr, ptr %_0.i, align 8
  %_34 = ptrtoint ptr %_32 to i64
  %_37 = and i64 %_34, 7
  %_38 = icmp eq i64 %_37, 0
  br i1 %_38, label %bb10, label %panic18

panic17:                                          ; preds = %bb11
; call core::panicking::panic_null_pointer_dereference
  call void @_ZN4core9panicking30panic_null_pointer_dereference17hf718fcc86a223baaE(ptr align 8 @alloc_8a15a7387ec8196140b6b0100d90557f) #8
  unreachable

bb10:                                             ; preds = %bb26
  %_144 = ptrtoint ptr %_32 to i64
  %_147 = icmp eq i64 %_144, 0
  %_148 = and i1 %_147, true
  %_149 = xor i1 %_148, true
  br i1 %_149, label %bb27, label %panic19

panic18:                                          ; preds = %bb26
; call core::panicking::panic_misaligned_pointer_dereference
  call void @_ZN4core9panicking36panic_misaligned_pointer_dereference17hcc3cbded9382b6e5E(i64 8, i64 %_34, ptr align 8 @alloc_f0676edb591267c52f45e8f841e4d039) #8
  unreachable

bb27:                                             ; preds = %bb10
  %6 = getelementptr inbounds i8, ptr %_32, i64 4
  %_24 = load i32, ptr %6, align 4
  %_19 = icmp sge i32 %_20, %_24
  br i1 %_19, label %bb9, label %bb8

panic19:                                          ; preds = %bb10
; call core::panicking::panic_null_pointer_dereference
  call void @_ZN4core9panicking30panic_null_pointer_dereference17hf718fcc86a223baaE(ptr align 8 @alloc_f0676edb591267c52f45e8f841e4d039) #8
  unreachable

bb8:                                              ; preds = %bb27
  %_30 = load i32, ptr %parent, align 4
  call void @heap_swap(ptr %heap, i32 %currentpos, i32 %_30) #9
  br label %bb2
}

; Function Attrs: nounwind nonlazybind
define ptr @delete_min(ptr %heap) unnamed_addr #2 {
start:
  %_0 = alloca [8 x i8], align 8
  %_2 = call i32 @heap_empty(ptr %heap) #9
  %0 = icmp eq i32 %_2, 0
  br i1 %0, label %bb3, label %bb2

bb3:                                              ; preds = %start
  %_60 = ptrtoint ptr %heap to i64
  %_63 = and i64 %_60, 7
  %_64 = icmp eq i64 %_63, 0
  br i1 %_64, label %bb16, label %panic

bb2:                                              ; preds = %start
  store ptr null, ptr %_0, align 8
  br label %bb8

bb16:                                             ; preds = %bb3
  %_66 = ptrtoint ptr %heap to i64
  %_69 = icmp eq i64 %_66, 0
  %_70 = and i1 %_69, true
  %_71 = xor i1 %_70, true
  br i1 %_71, label %bb17, label %panic1

panic:                                            ; preds = %bb3
; call core::panicking::panic_misaligned_pointer_dereference
  call void @_ZN4core9panicking36panic_misaligned_pointer_dereference17hcc3cbded9382b6e5E(i64 8, i64 %_60, ptr align 8 @alloc_0dfd20262a51f3000fbee40f85ac7d63) #8
  unreachable

bb17:                                             ; preds = %bb16
  %1 = getelementptr inbounds i8, ptr %heap, i64 8
  %_5 = load ptr, ptr %1, align 8
; call core::ptr::mut_ptr::<impl *mut T>::offset::precondition_check
  call void @"_ZN4core3ptr7mut_ptr31_$LT$impl$u20$$BP$mut$u20$T$GT$6offset18precondition_check17h9ddc65a497611677E"(ptr %_5, i64 0, i64 8) #9
  %_54 = ptrtoint ptr %_5 to i64
  %_57 = and i64 %_54, 7
  %_58 = icmp eq i64 %_57, 0
  br i1 %_58, label %bb15, label %panic2

panic1:                                           ; preds = %bb16
; call core::panicking::panic_null_pointer_dereference
  call void @_ZN4core9panicking30panic_null_pointer_dereference17hf718fcc86a223baaE(ptr align 8 @alloc_0dfd20262a51f3000fbee40f85ac7d63) #8
  unreachable

bb15:                                             ; preds = %bb17
  %_73 = ptrtoint ptr %_5 to i64
  %_76 = icmp eq i64 %_73, 0
  %_77 = and i1 %_76, true
  %_78 = xor i1 %_77, true
  br i1 %_78, label %bb18, label %panic3

panic2:                                           ; preds = %bb17
; call core::panicking::panic_misaligned_pointer_dereference
  call void @_ZN4core9panicking36panic_misaligned_pointer_dereference17hcc3cbded9382b6e5E(i64 8, i64 %_54, ptr align 8 @alloc_1e1aefa4b7159326c5f2ef6c841c0a83) #8
  unreachable

bb18:                                             ; preds = %bb15
  %retval = load ptr, ptr %_5, align 8
  %_48 = ptrtoint ptr %heap to i64
  %_51 = and i64 %_48, 7
  %_52 = icmp eq i64 %_51, 0
  br i1 %_52, label %bb14, label %panic4

panic3:                                           ; preds = %bb15
; call core::panicking::panic_null_pointer_dereference
  call void @_ZN4core9panicking30panic_null_pointer_dereference17hf718fcc86a223baaE(ptr align 8 @alloc_1e1aefa4b7159326c5f2ef6c841c0a83) #8
  unreachable

bb14:                                             ; preds = %bb18
  %_42 = ptrtoint ptr %heap to i64
  %_45 = and i64 %_42, 7
  %_46 = icmp eq i64 %_45, 0
  br i1 %_46, label %bb13, label %panic5

panic4:                                           ; preds = %bb18
; call core::panicking::panic_misaligned_pointer_dereference
  call void @_ZN4core9panicking36panic_misaligned_pointer_dereference17hcc3cbded9382b6e5E(i64 8, i64 %_48, ptr align 8 @alloc_d1a11e64fdd63add9ab4729a70b53b74) #8
  unreachable

bb13:                                             ; preds = %bb14
  %_87 = ptrtoint ptr %heap to i64
  %_90 = icmp eq i64 %_87, 0
  %_91 = and i1 %_90, true
  %_92 = xor i1 %_91, true
  br i1 %_92, label %bb20, label %panic6

panic5:                                           ; preds = %bb14
; call core::panicking::panic_misaligned_pointer_dereference
  call void @_ZN4core9panicking36panic_misaligned_pointer_dereference17hcc3cbded9382b6e5E(i64 8, i64 %_42, ptr align 8 @alloc_d1a11e64fdd63add9ab4729a70b53b74) #8
  unreachable

bb20:                                             ; preds = %bb13
  %_80 = ptrtoint ptr %heap to i64
  %_83 = icmp eq i64 %_80, 0
  %_84 = and i1 %_83, true
  %_85 = xor i1 %_84, true
  br i1 %_85, label %bb19, label %panic7

panic6:                                           ; preds = %bb13
; call core::panicking::panic_null_pointer_dereference
  call void @_ZN4core9panicking30panic_null_pointer_dereference17hf718fcc86a223baaE(ptr align 8 @alloc_d1a11e64fdd63add9ab4729a70b53b74) #8
  unreachable

bb19:                                             ; preds = %bb20
  %2 = load i32, ptr %heap, align 8
  %3 = sub i32 %2, 1
  store i32 %3, ptr %heap, align 8
  %_36 = ptrtoint ptr %heap to i64
  %_39 = and i64 %_36, 7
  %_40 = icmp eq i64 %_39, 0
  br i1 %_40, label %bb12, label %panic8

panic7:                                           ; preds = %bb20
; call core::panicking::panic_null_pointer_dereference
  call void @_ZN4core9panicking30panic_null_pointer_dereference17hf718fcc86a223baaE(ptr align 8 @alloc_d1a11e64fdd63add9ab4729a70b53b74) #8
  unreachable

bb12:                                             ; preds = %bb19
  %_94 = ptrtoint ptr %heap to i64
  %_97 = icmp eq i64 %_94, 0
  %_98 = and i1 %_97, true
  %_99 = xor i1 %_98, true
  br i1 %_99, label %bb21, label %panic9

panic8:                                           ; preds = %bb19
; call core::panicking::panic_misaligned_pointer_dereference
  call void @_ZN4core9panicking36panic_misaligned_pointer_dereference17hcc3cbded9382b6e5E(i64 8, i64 %_36, ptr align 8 @alloc_a6453793a4f3c961401faf7b9061379a) #8
  unreachable

bb21:                                             ; preds = %bb12
  %4 = getelementptr inbounds i8, ptr %heap, i64 8
  %_9 = load ptr, ptr %4, align 8
; call core::ptr::mut_ptr::<impl *mut T>::offset::precondition_check
  call void @"_ZN4core3ptr7mut_ptr31_$LT$impl$u20$$BP$mut$u20$T$GT$6offset18precondition_check17h9ddc65a497611677E"(ptr %_9, i64 0, i64 8) #9
  %_122 = ptrtoint ptr %_9 to i64
  %_123 = icmp eq i64 %_122, 0
  %_124 = and i1 %_123, true
  %_125 = xor i1 %_124, true
  br i1 %_125, label %bb25, label %panic10

panic9:                                           ; preds = %bb12
; call core::panicking::panic_null_pointer_dereference
  call void @_ZN4core9panicking30panic_null_pointer_dereference17hf718fcc86a223baaE(ptr align 8 @alloc_a6453793a4f3c961401faf7b9061379a) #8
  unreachable

bb25:                                             ; preds = %bb21
  %_30 = ptrtoint ptr %heap to i64
  %_33 = and i64 %_30, 7
  %_34 = icmp eq i64 %_33, 0
  br i1 %_34, label %bb11, label %panic11

panic10:                                          ; preds = %bb21
; call core::panicking::panic_null_pointer_dereference
  call void @_ZN4core9panicking30panic_null_pointer_dereference17hf718fcc86a223baaE(ptr align 8 @alloc_995e79e36bd3580d2ae8c82744b38faf) #8
  unreachable

bb11:                                             ; preds = %bb25
  %_101 = ptrtoint ptr %heap to i64
  %_104 = icmp eq i64 %_101, 0
  %_105 = and i1 %_104, true
  %_106 = xor i1 %_105, true
  br i1 %_106, label %bb22, label %panic12

panic11:                                          ; preds = %bb25
; call core::panicking::panic_misaligned_pointer_dereference
  call void @_ZN4core9panicking36panic_misaligned_pointer_dereference17hcc3cbded9382b6e5E(i64 8, i64 %_30, ptr align 8 @alloc_05c948c023b7cf295f45a6f12a35e930) #8
  unreachable

bb22:                                             ; preds = %bb11
  %5 = getelementptr inbounds i8, ptr %heap, i64 8
  %_13 = load ptr, ptr %5, align 8
  %_24 = ptrtoint ptr %heap to i64
  %_27 = and i64 %_24, 7
  %_28 = icmp eq i64 %_27, 0
  br i1 %_28, label %bb10, label %panic13

panic12:                                          ; preds = %bb11
; call core::panicking::panic_null_pointer_dereference
  call void @_ZN4core9panicking30panic_null_pointer_dereference17hf718fcc86a223baaE(ptr align 8 @alloc_05c948c023b7cf295f45a6f12a35e930) #8
  unreachable

bb10:                                             ; preds = %bb22
  %_108 = ptrtoint ptr %heap to i64
  %_111 = icmp eq i64 %_108, 0
  %_112 = and i1 %_111, true
  %_113 = xor i1 %_112, true
  br i1 %_113, label %bb23, label %panic14

panic13:                                          ; preds = %bb22
; call core::panicking::panic_misaligned_pointer_dereference
  call void @_ZN4core9panicking36panic_misaligned_pointer_dereference17hcc3cbded9382b6e5E(i64 8, i64 %_24, ptr align 8 @alloc_2a4b4cf0cefe38abf2670177a98f7be1) #8
  unreachable

bb23:                                             ; preds = %bb10
  %_15 = load i32, ptr %heap, align 8
  %_14 = sext i32 %_15 to i64
; call core::ptr::mut_ptr::<impl *mut T>::offset::precondition_check
  call void @"_ZN4core3ptr7mut_ptr31_$LT$impl$u20$$BP$mut$u20$T$GT$6offset18precondition_check17h9ddc65a497611677E"(ptr %_13, i64 %_14, i64 8) #9
  %_0.i = getelementptr inbounds ptr, ptr %_13, i64 %_14
  %_18 = ptrtoint ptr %_0.i to i64
  %_21 = and i64 %_18, 7
  %_22 = icmp eq i64 %_21, 0
  br i1 %_22, label %bb9, label %panic15

panic14:                                          ; preds = %bb10
; call core::panicking::panic_null_pointer_dereference
  call void @_ZN4core9panicking30panic_null_pointer_dereference17hf718fcc86a223baaE(ptr align 8 @alloc_2a4b4cf0cefe38abf2670177a98f7be1) #8
  unreachable

bb9:                                              ; preds = %bb23
  %_115 = ptrtoint ptr %_0.i to i64
  %_118 = icmp eq i64 %_115, 0
  %_119 = and i1 %_118, true
  %_120 = xor i1 %_119, true
  br i1 %_120, label %bb24, label %panic16

panic15:                                          ; preds = %bb23
; call core::panicking::panic_misaligned_pointer_dereference
  call void @_ZN4core9panicking36panic_misaligned_pointer_dereference17hcc3cbded9382b6e5E(i64 8, i64 %_18, ptr align 8 @alloc_0241f93830f24a6b86802cb00cabf2e6) #8
  unreachable

bb24:                                             ; preds = %bb9
  %_11 = load ptr, ptr %_0.i, align 8
  store ptr %_11, ptr %_9, align 8
  call void @heap_hold(ptr %heap, i32 0) #9
  store ptr %retval, ptr %_0, align 8
  br label %bb8

panic16:                                          ; preds = %bb9
; call core::panicking::panic_null_pointer_dereference
  call void @_ZN4core9panicking30panic_null_pointer_dereference17hf718fcc86a223baaE(ptr align 8 @alloc_0241f93830f24a6b86802cb00cabf2e6) #8
  unreachable

bb8:                                              ; preds = %bb2, %bb24
  %6 = load ptr, ptr %_0, align 8
  ret ptr %6
}

; Function Attrs: nounwind nonlazybind
define i32 @cube_equal(ptr %m1, ptr %m2) unnamed_addr #2 {
start:
  %ok = alloca [4 x i8], align 4
  %j = alloca [4 x i8], align 4
  %i = alloca [4 x i8], align 4
  store i32 0, ptr %i, align 4
  store i32 0, ptr %j, align 4
  store i32 1, ptr %ok, align 4
  store i32 0, ptr %i, align 4
  br label %bb1

bb1:                                              ; preds = %bb13, %start
  %_7 = load i32, ptr %i, align 4
  %_6 = icmp slt i32 %_7, 3
  br i1 %_6, label %bb2, label %bb14

bb14:                                             ; preds = %bb2, %bb1
  %_0 = load i32, ptr %ok, align 4
  ret i32 %_0

bb2:                                              ; preds = %bb1
  %_8 = load i32, ptr %ok, align 4
  %0 = icmp eq i32 %_8, 0
  br i1 %0, label %bb14, label %bb3

bb3:                                              ; preds = %bb2
  store i32 0, ptr %j, align 4
  br label %bb4

bb4:                                              ; preds = %bb12, %bb3
  %_10 = load i32, ptr %j, align 4
  %_9 = icmp slt i32 %_10, 3
  br i1 %_9, label %bb5, label %bb13

bb13:                                             ; preds = %bb5, %bb4
  %1 = load i32, ptr %i, align 4
  %2 = add i32 %1, 1
  store i32 %2, ptr %i, align 4
  br label %bb1

bb5:                                              ; preds = %bb4
  %_11 = load i32, ptr %ok, align 4
  %3 = icmp eq i32 %_11, 0
  br i1 %3, label %bb13, label %bb6

bb6:                                              ; preds = %bb5
  %_16 = load i32, ptr %i, align 4
  %_15 = sext i32 %_16 to i64
; call core::ptr::mut_ptr::<impl *mut T>::offset::precondition_check
  call void @"_ZN4core3ptr7mut_ptr31_$LT$impl$u20$$BP$mut$u20$T$GT$6offset18precondition_check17h9ddc65a497611677E"(ptr %m1, i64 %_15, i64 12) #9
  %_0.i6 = getelementptr inbounds [3 x i32], ptr %m1, i64 %_15
  %_18 = load i32, ptr %j, align 4
  %_17 = sext i32 %_18 to i64
  %_19 = icmp ult i64 %_17, 3
  br i1 %_19, label %bb8, label %panic

bb8:                                              ; preds = %bb6
  %_34 = ptrtoint ptr %_0.i6 to i64
  %_37 = and i64 %_34, 3
  %_38 = icmp eq i64 %_37, 0
  br i1 %_38, label %bb16, label %panic1

panic:                                            ; preds = %bb6
; call core::panicking::panic_bounds_check
  call void @_ZN4core9panicking18panic_bounds_check17h27d1e4f0cb1112dfE(i64 %_17, i64 3, ptr align 8 @alloc_2f3e8e3acbcdda9fee70033b7df481b3) #8
  unreachable

bb16:                                             ; preds = %bb8
  %_40 = ptrtoint ptr %_0.i6 to i64
  %_43 = icmp eq i64 %_40, 0
  %_44 = and i1 %_43, true
  %_45 = xor i1 %_44, true
  br i1 %_45, label %bb17, label %panic2

panic1:                                           ; preds = %bb8
; call core::panicking::panic_misaligned_pointer_dereference
  call void @_ZN4core9panicking36panic_misaligned_pointer_dereference17hcc3cbded9382b6e5E(i64 4, i64 %_34, ptr align 8 @alloc_2f3e8e3acbcdda9fee70033b7df481b3) #8
  unreachable

bb17:                                             ; preds = %bb16
  %4 = getelementptr inbounds nuw i32, ptr %_0.i6, i64 %_17
  %_13 = load i32, ptr %4, align 4
  %_23 = load i32, ptr %i, align 4
  %_22 = sext i32 %_23 to i64
; call core::ptr::mut_ptr::<impl *mut T>::offset::precondition_check
  call void @"_ZN4core3ptr7mut_ptr31_$LT$impl$u20$$BP$mut$u20$T$GT$6offset18precondition_check17h9ddc65a497611677E"(ptr %m2, i64 %_22, i64 12) #9
  %_0.i = getelementptr inbounds [3 x i32], ptr %m2, i64 %_22
  %_25 = load i32, ptr %j, align 4
  %_24 = sext i32 %_25 to i64
  %_26 = icmp ult i64 %_24, 3
  br i1 %_26, label %bb10, label %panic3

panic2:                                           ; preds = %bb16
; call core::panicking::panic_null_pointer_dereference
  call void @_ZN4core9panicking30panic_null_pointer_dereference17hf718fcc86a223baaE(ptr align 8 @alloc_2f3e8e3acbcdda9fee70033b7df481b3) #8
  unreachable

bb10:                                             ; preds = %bb17
  %_28 = ptrtoint ptr %_0.i to i64
  %_31 = and i64 %_28, 3
  %_32 = icmp eq i64 %_31, 0
  br i1 %_32, label %bb15, label %panic4

panic3:                                           ; preds = %bb17
; call core::panicking::panic_bounds_check
  call void @_ZN4core9panicking18panic_bounds_check17h27d1e4f0cb1112dfE(i64 %_24, i64 3, ptr align 8 @alloc_e16ebe9f0d45cde270924191958e9c71) #8
  unreachable

bb15:                                             ; preds = %bb10
  %_47 = ptrtoint ptr %_0.i to i64
  %_50 = icmp eq i64 %_47, 0
  %_51 = and i1 %_50, true
  %_52 = xor i1 %_51, true
  br i1 %_52, label %bb18, label %panic5

panic4:                                           ; preds = %bb10
; call core::panicking::panic_misaligned_pointer_dereference
  call void @_ZN4core9panicking36panic_misaligned_pointer_dereference17hcc3cbded9382b6e5E(i64 4, i64 %_28, ptr align 8 @alloc_e16ebe9f0d45cde270924191958e9c71) #8
  unreachable

bb18:                                             ; preds = %bb15
  %5 = getelementptr inbounds nuw i32, ptr %_0.i, i64 %_24
  %_20 = load i32, ptr %5, align 4
  %_12 = icmp ne i32 %_13, %_20
  br i1 %_12, label %bb11, label %bb12

panic5:                                           ; preds = %bb15
; call core::panicking::panic_null_pointer_dereference
  call void @_ZN4core9panicking30panic_null_pointer_dereference17hf718fcc86a223baaE(ptr align 8 @alloc_e16ebe9f0d45cde270924191958e9c71) #8
  unreachable

bb12:                                             ; preds = %bb11, %bb18
  %6 = load i32, ptr %j, align 4
  %7 = add i32 %6, 1
  store i32 %7, ptr %j, align 4
  br label %bb4

bb11:                                             ; preds = %bb18
  store i32 0, ptr %ok, align 4
  br label %bb12
}

; Function Attrs: nounwind nonlazybind
define void @cube_copy(ptr %source, ptr %dest) unnamed_addr #2 {
start:
  %j = alloca [4 x i8], align 4
  %i = alloca [4 x i8], align 4
  store i32 0, ptr %i, align 4
  store i32 0, ptr %j, align 4
  store i32 0, ptr %i, align 4
  br label %bb1

bb1:                                              ; preds = %bb9, %start
  %_6 = load i32, ptr %i, align 4
  %_5 = icmp slt i32 %_6, 3
  br i1 %_5, label %bb2, label %bb10

bb10:                                             ; preds = %bb1
  ret void

bb2:                                              ; preds = %bb1
  store i32 0, ptr %j, align 4
  br label %bb3

bb3:                                              ; preds = %bb14, %bb2
  %_8 = load i32, ptr %j, align 4
  %_7 = icmp slt i32 %_8, 3
  br i1 %_7, label %bb4, label %bb9

bb9:                                              ; preds = %bb3
  %0 = load i32, ptr %i, align 4
  %1 = add i32 %0, 1
  store i32 %1, ptr %i, align 4
  br label %bb1

bb4:                                              ; preds = %bb3
  %_12 = load i32, ptr %i, align 4
  %_11 = sext i32 %_12 to i64
; call core::ptr::mut_ptr::<impl *mut T>::offset::precondition_check
  call void @"_ZN4core3ptr7mut_ptr31_$LT$impl$u20$$BP$mut$u20$T$GT$6offset18precondition_check17h9ddc65a497611677E"(ptr %source, i64 %_11, i64 12) #9
  %_0.i6 = getelementptr inbounds [3 x i32], ptr %source, i64 %_11
  %_14 = load i32, ptr %j, align 4
  %_13 = sext i32 %_14 to i64
  %_15 = icmp ult i64 %_13, 3
  br i1 %_15, label %bb6, label %panic

bb6:                                              ; preds = %bb4
  %_29 = ptrtoint ptr %_0.i6 to i64
  %_32 = and i64 %_29, 3
  %_33 = icmp eq i64 %_32, 0
  br i1 %_33, label %bb12, label %panic1

panic:                                            ; preds = %bb4
; call core::panicking::panic_bounds_check
  call void @_ZN4core9panicking18panic_bounds_check17h27d1e4f0cb1112dfE(i64 %_13, i64 3, ptr align 8 @alloc_2cb4c15838efff24502012350f2143e0) #8
  unreachable

bb12:                                             ; preds = %bb6
  %_35 = ptrtoint ptr %_0.i6 to i64
  %_38 = icmp eq i64 %_35, 0
  %_39 = and i1 %_38, true
  %_40 = xor i1 %_39, true
  br i1 %_40, label %bb13, label %panic2

panic1:                                           ; preds = %bb6
; call core::panicking::panic_misaligned_pointer_dereference
  call void @_ZN4core9panicking36panic_misaligned_pointer_dereference17hcc3cbded9382b6e5E(i64 4, i64 %_29, ptr align 8 @alloc_2cb4c15838efff24502012350f2143e0) #8
  unreachable

bb13:                                             ; preds = %bb12
  %2 = getelementptr inbounds nuw i32, ptr %_0.i6, i64 %_13
  %_9 = load i32, ptr %2, align 4
  %_18 = load i32, ptr %i, align 4
  %_17 = sext i32 %_18 to i64
; call core::ptr::mut_ptr::<impl *mut T>::offset::precondition_check
  call void @"_ZN4core3ptr7mut_ptr31_$LT$impl$u20$$BP$mut$u20$T$GT$6offset18precondition_check17h9ddc65a497611677E"(ptr %dest, i64 %_17, i64 12) #9
  %_0.i = getelementptr inbounds [3 x i32], ptr %dest, i64 %_17
  %_20 = load i32, ptr %j, align 4
  %_19 = sext i32 %_20 to i64
  %_21 = icmp ult i64 %_19, 3
  br i1 %_21, label %bb8, label %panic3

panic2:                                           ; preds = %bb12
; call core::panicking::panic_null_pointer_dereference
  call void @_ZN4core9panicking30panic_null_pointer_dereference17hf718fcc86a223baaE(ptr align 8 @alloc_2cb4c15838efff24502012350f2143e0) #8
  unreachable

bb8:                                              ; preds = %bb13
  %_23 = ptrtoint ptr %_0.i to i64
  %_26 = and i64 %_23, 3
  %_27 = icmp eq i64 %_26, 0
  br i1 %_27, label %bb11, label %panic4

panic3:                                           ; preds = %bb13
; call core::panicking::panic_bounds_check
  call void @_ZN4core9panicking18panic_bounds_check17h27d1e4f0cb1112dfE(i64 %_19, i64 3, ptr align 8 @alloc_7b68064b5dc9ae848c0dbe227ee85bc6) #8
  unreachable

bb11:                                             ; preds = %bb8
  %_42 = ptrtoint ptr %_0.i to i64
  %_45 = icmp eq i64 %_42, 0
  %_46 = and i1 %_45, true
  %_47 = xor i1 %_46, true
  br i1 %_47, label %bb14, label %panic5

panic4:                                           ; preds = %bb8
; call core::panicking::panic_misaligned_pointer_dereference
  call void @_ZN4core9panicking36panic_misaligned_pointer_dereference17hcc3cbded9382b6e5E(i64 4, i64 %_23, ptr align 8 @alloc_7b68064b5dc9ae848c0dbe227ee85bc6) #8
  unreachable

bb14:                                             ; preds = %bb11
  %3 = getelementptr inbounds nuw i32, ptr %_0.i, i64 %_19
  store i32 %_9, ptr %3, align 4
  %4 = load i32, ptr %j, align 4
  %5 = add i32 %4, 1
  store i32 %5, ptr %j, align 4
  br label %bb3

panic5:                                           ; preds = %bb11
; call core::panicking::panic_null_pointer_dereference
  call void @_ZN4core9panicking30panic_null_pointer_dereference17hf718fcc86a223baaE(ptr align 8 @alloc_7b68064b5dc9ae848c0dbe227ee85bc6) #8
  unreachable
}

; Function Attrs: nounwind nonlazybind
define void @cube_display(ptr %m) unnamed_addr #2 {
start:
  %j = alloca [4 x i8], align 4
  %i = alloca [4 x i8], align 4
  store i32 0, ptr %i, align 4
  store i32 0, ptr %j, align 4
  store i32 0, ptr %i, align 4
  br label %bb1

bb1:                                              ; preds = %bb8, %start
  %_5 = load i32, ptr %i, align 4
  %_4 = icmp slt i32 %_5, 3
  br i1 %_4, label %bb2, label %bb10

bb10:                                             ; preds = %bb1
  ret void

bb2:                                              ; preds = %bb1
  store i32 0, ptr %j, align 4
  br label %bb3

bb3:                                              ; preds = %bb12, %bb2
  %_7 = load i32, ptr %j, align 4
  %_6 = icmp slt i32 %_7, 3
  br i1 %_6, label %bb4, label %bb8

bb8:                                              ; preds = %bb3
  %_20 = call i32 (ptr, ...) @printf(ptr @alloc_f3588b28b94f0809fcc8d717033d3e48) #9
  %0 = load i32, ptr %i, align 4
  %1 = add i32 %0, 1
  store i32 %1, ptr %i, align 4
  br label %bb1

bb4:                                              ; preds = %bb3
  %_16 = load i32, ptr %i, align 4
  %_15 = sext i32 %_16 to i64
; call core::ptr::mut_ptr::<impl *mut T>::offset::precondition_check
  call void @"_ZN4core3ptr7mut_ptr31_$LT$impl$u20$$BP$mut$u20$T$GT$6offset18precondition_check17h9ddc65a497611677E"(ptr %m, i64 %_15, i64 12) #9
  %_0.i = getelementptr inbounds [3 x i32], ptr %m, i64 %_15
  %_18 = load i32, ptr %j, align 4
  %_17 = sext i32 %_18 to i64
  %_19 = icmp ult i64 %_17, 3
  br i1 %_19, label %bb6, label %panic

bb6:                                              ; preds = %bb4
  %_26 = ptrtoint ptr %_0.i to i64
  %_29 = and i64 %_26, 3
  %_30 = icmp eq i64 %_29, 0
  br i1 %_30, label %bb11, label %panic1

panic:                                            ; preds = %bb4
; call core::panicking::panic_bounds_check
  call void @_ZN4core9panicking18panic_bounds_check17h27d1e4f0cb1112dfE(i64 %_17, i64 3, ptr align 8 @alloc_0a65defcc5b0c24d3c8885546e3d9748) #8
  unreachable

bb11:                                             ; preds = %bb6
  %_32 = ptrtoint ptr %_0.i to i64
  %_35 = icmp eq i64 %_32, 0
  %_36 = and i1 %_35, true
  %_37 = xor i1 %_36, true
  br i1 %_37, label %bb12, label %panic2

panic1:                                           ; preds = %bb6
; call core::panicking::panic_misaligned_pointer_dereference
  call void @_ZN4core9panicking36panic_misaligned_pointer_dereference17hcc3cbded9382b6e5E(i64 4, i64 %_26, ptr align 8 @alloc_0a65defcc5b0c24d3c8885546e3d9748) #8
  unreachable

bb12:                                             ; preds = %bb11
  %2 = getelementptr inbounds nuw i32, ptr %_0.i, i64 %_17
  %_13 = load i32, ptr %2, align 4
  %_8 = call i32 (ptr, ...) @printf(ptr @alloc_b929c71616281bfd1be2bd4038d3ddf1, i32 %_13) #9
  %3 = load i32, ptr %j, align 4
  %4 = add i32 %3, 1
  store i32 %4, ptr %j, align 4
  br label %bb3

panic2:                                           ; preds = %bb11
; call core::panicking::panic_null_pointer_dereference
  call void @_ZN4core9panicking30panic_null_pointer_dereference17hf718fcc86a223baaE(ptr align 8 @alloc_0a65defcc5b0c24d3c8885546e3d9748) #8
  unreachable
}

; Function Attrs: nounwind nonlazybind
define void @move_up(ptr %m, i32 %x, i32 %y) unnamed_addr #2 {
start:
  %_7 = sub i32 %x, 1
  %_6 = sext i32 %_7 to i64
; call core::ptr::mut_ptr::<impl *mut T>::offset::precondition_check
  call void @"_ZN4core3ptr7mut_ptr31_$LT$impl$u20$$BP$mut$u20$T$GT$6offset18precondition_check17h9ddc65a497611677E"(ptr %m, i64 %_6, i64 12) #9
  %_0.i10 = getelementptr inbounds [3 x i32], ptr %m, i64 %_6
  %_8 = sext i32 %y to i64
  %_9 = icmp ult i64 %_8, 3
  br i1 %_9, label %bb2, label %panic

bb2:                                              ; preds = %start
  %_32 = ptrtoint ptr %_0.i10 to i64
  %_35 = and i64 %_32, 3
  %_36 = icmp eq i64 %_35, 0
  br i1 %_36, label %bb9, label %panic1

panic:                                            ; preds = %start
; call core::panicking::panic_bounds_check
  call void @_ZN4core9panicking18panic_bounds_check17h27d1e4f0cb1112dfE(i64 %_8, i64 3, ptr align 8 @alloc_ec1550c57a087cc2f1edf17780a59e20) #8
  unreachable

bb9:                                              ; preds = %bb2
  %_38 = ptrtoint ptr %_0.i10 to i64
  %_41 = icmp eq i64 %_38, 0
  %_42 = and i1 %_41, true
  %_43 = xor i1 %_42, true
  br i1 %_43, label %bb10, label %panic2

panic1:                                           ; preds = %bb2
; call core::panicking::panic_misaligned_pointer_dereference
  call void @_ZN4core9panicking36panic_misaligned_pointer_dereference17hcc3cbded9382b6e5E(i64 4, i64 %_32, ptr align 8 @alloc_ec1550c57a087cc2f1edf17780a59e20) #8
  unreachable

bb10:                                             ; preds = %bb9
  %0 = getelementptr inbounds nuw i32, ptr %_0.i10, i64 %_8
  %_4 = load i32, ptr %0, align 4
  %_11 = sext i32 %x to i64
; call core::ptr::mut_ptr::<impl *mut T>::offset::precondition_check
  call void @"_ZN4core3ptr7mut_ptr31_$LT$impl$u20$$BP$mut$u20$T$GT$6offset18precondition_check17h9ddc65a497611677E"(ptr %m, i64 %_11, i64 12) #9
  %_0.i9 = getelementptr inbounds [3 x i32], ptr %m, i64 %_11
  %_12 = sext i32 %y to i64
  %_13 = icmp ult i64 %_12, 3
  br i1 %_13, label %bb4, label %panic3

panic2:                                           ; preds = %bb9
; call core::panicking::panic_null_pointer_dereference
  call void @_ZN4core9panicking30panic_null_pointer_dereference17hf718fcc86a223baaE(ptr align 8 @alloc_ec1550c57a087cc2f1edf17780a59e20) #8
  unreachable

bb4:                                              ; preds = %bb10
  %_26 = ptrtoint ptr %_0.i9 to i64
  %_29 = and i64 %_26, 3
  %_30 = icmp eq i64 %_29, 0
  br i1 %_30, label %bb8, label %panic4

panic3:                                           ; preds = %bb10
; call core::panicking::panic_bounds_check
  call void @_ZN4core9panicking18panic_bounds_check17h27d1e4f0cb1112dfE(i64 %_12, i64 3, ptr align 8 @alloc_b95678b168d07cea34a0ff987b0c895a) #8
  unreachable

bb8:                                              ; preds = %bb4
  %_45 = ptrtoint ptr %_0.i9 to i64
  %_48 = icmp eq i64 %_45, 0
  %_49 = and i1 %_48, true
  %_50 = xor i1 %_49, true
  br i1 %_50, label %bb11, label %panic5

panic4:                                           ; preds = %bb4
; call core::panicking::panic_misaligned_pointer_dereference
  call void @_ZN4core9panicking36panic_misaligned_pointer_dereference17hcc3cbded9382b6e5E(i64 4, i64 %_26, ptr align 8 @alloc_b95678b168d07cea34a0ff987b0c895a) #8
  unreachable

bb11:                                             ; preds = %bb8
  %1 = getelementptr inbounds nuw i32, ptr %_0.i9, i64 %_12
  store i32 %_4, ptr %1, align 4
  %_16 = sub i32 %x, 1
  %_15 = sext i32 %_16 to i64
; call core::ptr::mut_ptr::<impl *mut T>::offset::precondition_check
  call void @"_ZN4core3ptr7mut_ptr31_$LT$impl$u20$$BP$mut$u20$T$GT$6offset18precondition_check17h9ddc65a497611677E"(ptr %m, i64 %_15, i64 12) #9
  %_0.i = getelementptr inbounds [3 x i32], ptr %m, i64 %_15
  %_17 = sext i32 %y to i64
  %_18 = icmp ult i64 %_17, 3
  br i1 %_18, label %bb6, label %panic6

panic5:                                           ; preds = %bb8
; call core::panicking::panic_null_pointer_dereference
  call void @_ZN4core9panicking30panic_null_pointer_dereference17hf718fcc86a223baaE(ptr align 8 @alloc_b95678b168d07cea34a0ff987b0c895a) #8
  unreachable

bb6:                                              ; preds = %bb11
  %_20 = ptrtoint ptr %_0.i to i64
  %_23 = and i64 %_20, 3
  %_24 = icmp eq i64 %_23, 0
  br i1 %_24, label %bb7, label %panic7

panic6:                                           ; preds = %bb11
; call core::panicking::panic_bounds_check
  call void @_ZN4core9panicking18panic_bounds_check17h27d1e4f0cb1112dfE(i64 %_17, i64 3, ptr align 8 @alloc_275030156dd3f0ed4a995f42ffc25649) #8
  unreachable

bb7:                                              ; preds = %bb6
  %_52 = ptrtoint ptr %_0.i to i64
  %_55 = icmp eq i64 %_52, 0
  %_56 = and i1 %_55, true
  %_57 = xor i1 %_56, true
  br i1 %_57, label %bb12, label %panic8

panic7:                                           ; preds = %bb6
; call core::panicking::panic_misaligned_pointer_dereference
  call void @_ZN4core9panicking36panic_misaligned_pointer_dereference17hcc3cbded9382b6e5E(i64 4, i64 %_20, ptr align 8 @alloc_275030156dd3f0ed4a995f42ffc25649) #8
  unreachable

bb12:                                             ; preds = %bb7
  %2 = getelementptr inbounds nuw i32, ptr %_0.i, i64 %_17
  store i32 -1, ptr %2, align 4
  ret void

panic8:                                           ; preds = %bb7
; call core::panicking::panic_null_pointer_dereference
  call void @_ZN4core9panicking30panic_null_pointer_dereference17hf718fcc86a223baaE(ptr align 8 @alloc_275030156dd3f0ed4a995f42ffc25649) #8
  unreachable
}

; Function Attrs: nounwind nonlazybind
define void @move_down(ptr %m, i32 %x, i32 %y) unnamed_addr #2 {
start:
  %_7 = add i32 %x, 1
  %_6 = sext i32 %_7 to i64
; call core::ptr::mut_ptr::<impl *mut T>::offset::precondition_check
  call void @"_ZN4core3ptr7mut_ptr31_$LT$impl$u20$$BP$mut$u20$T$GT$6offset18precondition_check17h9ddc65a497611677E"(ptr %m, i64 %_6, i64 12) #9
  %_0.i10 = getelementptr inbounds [3 x i32], ptr %m, i64 %_6
  %_8 = sext i32 %y to i64
  %_9 = icmp ult i64 %_8, 3
  br i1 %_9, label %bb2, label %panic

bb2:                                              ; preds = %start
  %_32 = ptrtoint ptr %_0.i10 to i64
  %_35 = and i64 %_32, 3
  %_36 = icmp eq i64 %_35, 0
  br i1 %_36, label %bb9, label %panic1

panic:                                            ; preds = %start
; call core::panicking::panic_bounds_check
  call void @_ZN4core9panicking18panic_bounds_check17h27d1e4f0cb1112dfE(i64 %_8, i64 3, ptr align 8 @alloc_b445e99e9c0cb2dc475e05914d56e44c) #8
  unreachable

bb9:                                              ; preds = %bb2
  %_38 = ptrtoint ptr %_0.i10 to i64
  %_41 = icmp eq i64 %_38, 0
  %_42 = and i1 %_41, true
  %_43 = xor i1 %_42, true
  br i1 %_43, label %bb10, label %panic2

panic1:                                           ; preds = %bb2
; call core::panicking::panic_misaligned_pointer_dereference
  call void @_ZN4core9panicking36panic_misaligned_pointer_dereference17hcc3cbded9382b6e5E(i64 4, i64 %_32, ptr align 8 @alloc_b445e99e9c0cb2dc475e05914d56e44c) #8
  unreachable

bb10:                                             ; preds = %bb9
  %0 = getelementptr inbounds nuw i32, ptr %_0.i10, i64 %_8
  %_4 = load i32, ptr %0, align 4
  %_11 = sext i32 %x to i64
; call core::ptr::mut_ptr::<impl *mut T>::offset::precondition_check
  call void @"_ZN4core3ptr7mut_ptr31_$LT$impl$u20$$BP$mut$u20$T$GT$6offset18precondition_check17h9ddc65a497611677E"(ptr %m, i64 %_11, i64 12) #9
  %_0.i9 = getelementptr inbounds [3 x i32], ptr %m, i64 %_11
  %_12 = sext i32 %y to i64
  %_13 = icmp ult i64 %_12, 3
  br i1 %_13, label %bb4, label %panic3

panic2:                                           ; preds = %bb9
; call core::panicking::panic_null_pointer_dereference
  call void @_ZN4core9panicking30panic_null_pointer_dereference17hf718fcc86a223baaE(ptr align 8 @alloc_b445e99e9c0cb2dc475e05914d56e44c) #8
  unreachable

bb4:                                              ; preds = %bb10
  %_26 = ptrtoint ptr %_0.i9 to i64
  %_29 = and i64 %_26, 3
  %_30 = icmp eq i64 %_29, 0
  br i1 %_30, label %bb8, label %panic4

panic3:                                           ; preds = %bb10
; call core::panicking::panic_bounds_check
  call void @_ZN4core9panicking18panic_bounds_check17h27d1e4f0cb1112dfE(i64 %_12, i64 3, ptr align 8 @alloc_f443cc2d3441c3a6ddb57f0ffd942122) #8
  unreachable

bb8:                                              ; preds = %bb4
  %_45 = ptrtoint ptr %_0.i9 to i64
  %_48 = icmp eq i64 %_45, 0
  %_49 = and i1 %_48, true
  %_50 = xor i1 %_49, true
  br i1 %_50, label %bb11, label %panic5

panic4:                                           ; preds = %bb4
; call core::panicking::panic_misaligned_pointer_dereference
  call void @_ZN4core9panicking36panic_misaligned_pointer_dereference17hcc3cbded9382b6e5E(i64 4, i64 %_26, ptr align 8 @alloc_f443cc2d3441c3a6ddb57f0ffd942122) #8
  unreachable

bb11:                                             ; preds = %bb8
  %1 = getelementptr inbounds nuw i32, ptr %_0.i9, i64 %_12
  store i32 %_4, ptr %1, align 4
  %_16 = add i32 %x, 1
  %_15 = sext i32 %_16 to i64
; call core::ptr::mut_ptr::<impl *mut T>::offset::precondition_check
  call void @"_ZN4core3ptr7mut_ptr31_$LT$impl$u20$$BP$mut$u20$T$GT$6offset18precondition_check17h9ddc65a497611677E"(ptr %m, i64 %_15, i64 12) #9
  %_0.i = getelementptr inbounds [3 x i32], ptr %m, i64 %_15
  %_17 = sext i32 %y to i64
  %_18 = icmp ult i64 %_17, 3
  br i1 %_18, label %bb6, label %panic6

panic5:                                           ; preds = %bb8
; call core::panicking::panic_null_pointer_dereference
  call void @_ZN4core9panicking30panic_null_pointer_dereference17hf718fcc86a223baaE(ptr align 8 @alloc_f443cc2d3441c3a6ddb57f0ffd942122) #8
  unreachable

bb6:                                              ; preds = %bb11
  %_20 = ptrtoint ptr %_0.i to i64
  %_23 = and i64 %_20, 3
  %_24 = icmp eq i64 %_23, 0
  br i1 %_24, label %bb7, label %panic7

panic6:                                           ; preds = %bb11
; call core::panicking::panic_bounds_check
  call void @_ZN4core9panicking18panic_bounds_check17h27d1e4f0cb1112dfE(i64 %_17, i64 3, ptr align 8 @alloc_fb178a354adabb5a9cb6d85f5802ae15) #8
  unreachable

bb7:                                              ; preds = %bb6
  %_52 = ptrtoint ptr %_0.i to i64
  %_55 = icmp eq i64 %_52, 0
  %_56 = and i1 %_55, true
  %_57 = xor i1 %_56, true
  br i1 %_57, label %bb12, label %panic8

panic7:                                           ; preds = %bb6
; call core::panicking::panic_misaligned_pointer_dereference
  call void @_ZN4core9panicking36panic_misaligned_pointer_dereference17hcc3cbded9382b6e5E(i64 4, i64 %_20, ptr align 8 @alloc_fb178a354adabb5a9cb6d85f5802ae15) #8
  unreachable

bb12:                                             ; preds = %bb7
  %2 = getelementptr inbounds nuw i32, ptr %_0.i, i64 %_17
  store i32 -1, ptr %2, align 4
  ret void

panic8:                                           ; preds = %bb7
; call core::panicking::panic_null_pointer_dereference
  call void @_ZN4core9panicking30panic_null_pointer_dereference17hf718fcc86a223baaE(ptr align 8 @alloc_fb178a354adabb5a9cb6d85f5802ae15) #8
  unreachable
}

; Function Attrs: nounwind nonlazybind
define void @move_left(ptr %m, i32 %x, i32 %y) unnamed_addr #2 {
start:
  %_6 = sext i32 %x to i64
; call core::ptr::mut_ptr::<impl *mut T>::offset::precondition_check
  call void @"_ZN4core3ptr7mut_ptr31_$LT$impl$u20$$BP$mut$u20$T$GT$6offset18precondition_check17h9ddc65a497611677E"(ptr %m, i64 %_6, i64 12) #9
  %_0.i10 = getelementptr inbounds [3 x i32], ptr %m, i64 %_6
  %_8 = sub i32 %y, 1
  %_7 = sext i32 %_8 to i64
  %_9 = icmp ult i64 %_7, 3
  br i1 %_9, label %bb2, label %panic

bb2:                                              ; preds = %start
  %_32 = ptrtoint ptr %_0.i10 to i64
  %_35 = and i64 %_32, 3
  %_36 = icmp eq i64 %_35, 0
  br i1 %_36, label %bb9, label %panic1

panic:                                            ; preds = %start
; call core::panicking::panic_bounds_check
  call void @_ZN4core9panicking18panic_bounds_check17h27d1e4f0cb1112dfE(i64 %_7, i64 3, ptr align 8 @alloc_1805363a3956376273149d480c1edefc) #8
  unreachable

bb9:                                              ; preds = %bb2
  %_38 = ptrtoint ptr %_0.i10 to i64
  %_41 = icmp eq i64 %_38, 0
  %_42 = and i1 %_41, true
  %_43 = xor i1 %_42, true
  br i1 %_43, label %bb10, label %panic2

panic1:                                           ; preds = %bb2
; call core::panicking::panic_misaligned_pointer_dereference
  call void @_ZN4core9panicking36panic_misaligned_pointer_dereference17hcc3cbded9382b6e5E(i64 4, i64 %_32, ptr align 8 @alloc_1805363a3956376273149d480c1edefc) #8
  unreachable

bb10:                                             ; preds = %bb9
  %0 = getelementptr inbounds nuw i32, ptr %_0.i10, i64 %_7
  %_4 = load i32, ptr %0, align 4
  %_11 = sext i32 %x to i64
; call core::ptr::mut_ptr::<impl *mut T>::offset::precondition_check
  call void @"_ZN4core3ptr7mut_ptr31_$LT$impl$u20$$BP$mut$u20$T$GT$6offset18precondition_check17h9ddc65a497611677E"(ptr %m, i64 %_11, i64 12) #9
  %_0.i9 = getelementptr inbounds [3 x i32], ptr %m, i64 %_11
  %_12 = sext i32 %y to i64
  %_13 = icmp ult i64 %_12, 3
  br i1 %_13, label %bb4, label %panic3

panic2:                                           ; preds = %bb9
; call core::panicking::panic_null_pointer_dereference
  call void @_ZN4core9panicking30panic_null_pointer_dereference17hf718fcc86a223baaE(ptr align 8 @alloc_1805363a3956376273149d480c1edefc) #8
  unreachable

bb4:                                              ; preds = %bb10
  %_26 = ptrtoint ptr %_0.i9 to i64
  %_29 = and i64 %_26, 3
  %_30 = icmp eq i64 %_29, 0
  br i1 %_30, label %bb8, label %panic4

panic3:                                           ; preds = %bb10
; call core::panicking::panic_bounds_check
  call void @_ZN4core9panicking18panic_bounds_check17h27d1e4f0cb1112dfE(i64 %_12, i64 3, ptr align 8 @alloc_9d60f1461b42520c8f7fd112edeecf20) #8
  unreachable

bb8:                                              ; preds = %bb4
  %_45 = ptrtoint ptr %_0.i9 to i64
  %_48 = icmp eq i64 %_45, 0
  %_49 = and i1 %_48, true
  %_50 = xor i1 %_49, true
  br i1 %_50, label %bb11, label %panic5

panic4:                                           ; preds = %bb4
; call core::panicking::panic_misaligned_pointer_dereference
  call void @_ZN4core9panicking36panic_misaligned_pointer_dereference17hcc3cbded9382b6e5E(i64 4, i64 %_26, ptr align 8 @alloc_9d60f1461b42520c8f7fd112edeecf20) #8
  unreachable

bb11:                                             ; preds = %bb8
  %1 = getelementptr inbounds nuw i32, ptr %_0.i9, i64 %_12
  store i32 %_4, ptr %1, align 4
  %_15 = sext i32 %x to i64
; call core::ptr::mut_ptr::<impl *mut T>::offset::precondition_check
  call void @"_ZN4core3ptr7mut_ptr31_$LT$impl$u20$$BP$mut$u20$T$GT$6offset18precondition_check17h9ddc65a497611677E"(ptr %m, i64 %_15, i64 12) #9
  %_0.i = getelementptr inbounds [3 x i32], ptr %m, i64 %_15
  %_17 = sub i32 %y, 1
  %_16 = sext i32 %_17 to i64
  %_18 = icmp ult i64 %_16, 3
  br i1 %_18, label %bb6, label %panic6

panic5:                                           ; preds = %bb8
; call core::panicking::panic_null_pointer_dereference
  call void @_ZN4core9panicking30panic_null_pointer_dereference17hf718fcc86a223baaE(ptr align 8 @alloc_9d60f1461b42520c8f7fd112edeecf20) #8
  unreachable

bb6:                                              ; preds = %bb11
  %_20 = ptrtoint ptr %_0.i to i64
  %_23 = and i64 %_20, 3
  %_24 = icmp eq i64 %_23, 0
  br i1 %_24, label %bb7, label %panic7

panic6:                                           ; preds = %bb11
; call core::panicking::panic_bounds_check
  call void @_ZN4core9panicking18panic_bounds_check17h27d1e4f0cb1112dfE(i64 %_16, i64 3, ptr align 8 @alloc_16c5fd9e763a9af82626b08081e1de6a) #8
  unreachable

bb7:                                              ; preds = %bb6
  %_52 = ptrtoint ptr %_0.i to i64
  %_55 = icmp eq i64 %_52, 0
  %_56 = and i1 %_55, true
  %_57 = xor i1 %_56, true
  br i1 %_57, label %bb12, label %panic8

panic7:                                           ; preds = %bb6
; call core::panicking::panic_misaligned_pointer_dereference
  call void @_ZN4core9panicking36panic_misaligned_pointer_dereference17hcc3cbded9382b6e5E(i64 4, i64 %_20, ptr align 8 @alloc_16c5fd9e763a9af82626b08081e1de6a) #8
  unreachable

bb12:                                             ; preds = %bb7
  %2 = getelementptr inbounds nuw i32, ptr %_0.i, i64 %_16
  store i32 -1, ptr %2, align 4
  ret void

panic8:                                           ; preds = %bb7
; call core::panicking::panic_null_pointer_dereference
  call void @_ZN4core9panicking30panic_null_pointer_dereference17hf718fcc86a223baaE(ptr align 8 @alloc_16c5fd9e763a9af82626b08081e1de6a) #8
  unreachable
}

; Function Attrs: nounwind nonlazybind
define void @move_right(ptr %m, i32 %x, i32 %y) unnamed_addr #2 {
start:
  %_6 = sext i32 %x to i64
; call core::ptr::mut_ptr::<impl *mut T>::offset::precondition_check
  call void @"_ZN4core3ptr7mut_ptr31_$LT$impl$u20$$BP$mut$u20$T$GT$6offset18precondition_check17h9ddc65a497611677E"(ptr %m, i64 %_6, i64 12) #9
  %_0.i10 = getelementptr inbounds [3 x i32], ptr %m, i64 %_6
  %_8 = add i32 %y, 1
  %_7 = sext i32 %_8 to i64
  %_9 = icmp ult i64 %_7, 3
  br i1 %_9, label %bb2, label %panic

bb2:                                              ; preds = %start
  %_32 = ptrtoint ptr %_0.i10 to i64
  %_35 = and i64 %_32, 3
  %_36 = icmp eq i64 %_35, 0
  br i1 %_36, label %bb9, label %panic1

panic:                                            ; preds = %start
; call core::panicking::panic_bounds_check
  call void @_ZN4core9panicking18panic_bounds_check17h27d1e4f0cb1112dfE(i64 %_7, i64 3, ptr align 8 @alloc_e8d4613499c9d56117ab3a5ad0a330b0) #8
  unreachable

bb9:                                              ; preds = %bb2
  %_38 = ptrtoint ptr %_0.i10 to i64
  %_41 = icmp eq i64 %_38, 0
  %_42 = and i1 %_41, true
  %_43 = xor i1 %_42, true
  br i1 %_43, label %bb10, label %panic2

panic1:                                           ; preds = %bb2
; call core::panicking::panic_misaligned_pointer_dereference
  call void @_ZN4core9panicking36panic_misaligned_pointer_dereference17hcc3cbded9382b6e5E(i64 4, i64 %_32, ptr align 8 @alloc_e8d4613499c9d56117ab3a5ad0a330b0) #8
  unreachable

bb10:                                             ; preds = %bb9
  %0 = getelementptr inbounds nuw i32, ptr %_0.i10, i64 %_7
  %_4 = load i32, ptr %0, align 4
  %_11 = sext i32 %x to i64
; call core::ptr::mut_ptr::<impl *mut T>::offset::precondition_check
  call void @"_ZN4core3ptr7mut_ptr31_$LT$impl$u20$$BP$mut$u20$T$GT$6offset18precondition_check17h9ddc65a497611677E"(ptr %m, i64 %_11, i64 12) #9
  %_0.i9 = getelementptr inbounds [3 x i32], ptr %m, i64 %_11
  %_12 = sext i32 %y to i64
  %_13 = icmp ult i64 %_12, 3
  br i1 %_13, label %bb4, label %panic3

panic2:                                           ; preds = %bb9
; call core::panicking::panic_null_pointer_dereference
  call void @_ZN4core9panicking30panic_null_pointer_dereference17hf718fcc86a223baaE(ptr align 8 @alloc_e8d4613499c9d56117ab3a5ad0a330b0) #8
  unreachable

bb4:                                              ; preds = %bb10
  %_26 = ptrtoint ptr %_0.i9 to i64
  %_29 = and i64 %_26, 3
  %_30 = icmp eq i64 %_29, 0
  br i1 %_30, label %bb8, label %panic4

panic3:                                           ; preds = %bb10
; call core::panicking::panic_bounds_check
  call void @_ZN4core9panicking18panic_bounds_check17h27d1e4f0cb1112dfE(i64 %_12, i64 3, ptr align 8 @alloc_2a074f95f30c2e0799d0b51e1c259a3b) #8
  unreachable

bb8:                                              ; preds = %bb4
  %_45 = ptrtoint ptr %_0.i9 to i64
  %_48 = icmp eq i64 %_45, 0
  %_49 = and i1 %_48, true
  %_50 = xor i1 %_49, true
  br i1 %_50, label %bb11, label %panic5

panic4:                                           ; preds = %bb4
; call core::panicking::panic_misaligned_pointer_dereference
  call void @_ZN4core9panicking36panic_misaligned_pointer_dereference17hcc3cbded9382b6e5E(i64 4, i64 %_26, ptr align 8 @alloc_2a074f95f30c2e0799d0b51e1c259a3b) #8
  unreachable

bb11:                                             ; preds = %bb8
  %1 = getelementptr inbounds nuw i32, ptr %_0.i9, i64 %_12
  store i32 %_4, ptr %1, align 4
  %_15 = sext i32 %x to i64
; call core::ptr::mut_ptr::<impl *mut T>::offset::precondition_check
  call void @"_ZN4core3ptr7mut_ptr31_$LT$impl$u20$$BP$mut$u20$T$GT$6offset18precondition_check17h9ddc65a497611677E"(ptr %m, i64 %_15, i64 12) #9
  %_0.i = getelementptr inbounds [3 x i32], ptr %m, i64 %_15
  %_17 = add i32 %y, 1
  %_16 = sext i32 %_17 to i64
  %_18 = icmp ult i64 %_16, 3
  br i1 %_18, label %bb6, label %panic6

panic5:                                           ; preds = %bb8
; call core::panicking::panic_null_pointer_dereference
  call void @_ZN4core9panicking30panic_null_pointer_dereference17hf718fcc86a223baaE(ptr align 8 @alloc_2a074f95f30c2e0799d0b51e1c259a3b) #8
  unreachable

bb6:                                              ; preds = %bb11
  %_20 = ptrtoint ptr %_0.i to i64
  %_23 = and i64 %_20, 3
  %_24 = icmp eq i64 %_23, 0
  br i1 %_24, label %bb7, label %panic7

panic6:                                           ; preds = %bb11
; call core::panicking::panic_bounds_check
  call void @_ZN4core9panicking18panic_bounds_check17h27d1e4f0cb1112dfE(i64 %_16, i64 3, ptr align 8 @alloc_666769ed0c2ce36ae4e456402cbd1d83) #8
  unreachable

bb7:                                              ; preds = %bb6
  %_52 = ptrtoint ptr %_0.i to i64
  %_55 = icmp eq i64 %_52, 0
  %_56 = and i1 %_55, true
  %_57 = xor i1 %_56, true
  br i1 %_57, label %bb12, label %panic8

panic7:                                           ; preds = %bb6
; call core::panicking::panic_misaligned_pointer_dereference
  call void @_ZN4core9panicking36panic_misaligned_pointer_dereference17hcc3cbded9382b6e5E(i64 4, i64 %_20, ptr align 8 @alloc_666769ed0c2ce36ae4e456402cbd1d83) #8
  unreachable

bb12:                                             ; preds = %bb7
  %2 = getelementptr inbounds nuw i32, ptr %_0.i, i64 %_16
  store i32 -1, ptr %2, align 4
  ret void

panic8:                                           ; preds = %bb7
; call core::panicking::panic_null_pointer_dereference
  call void @_ZN4core9panicking30panic_null_pointer_dereference17hf718fcc86a223baaE(ptr align 8 @alloc_666769ed0c2ce36ae4e456402cbd1d83) #8
  unreachable
}

; Function Attrs: nounwind nonlazybind
define i32 @calc_weight(ptr %target, ptr %m) unnamed_addr #2 {
start:
  %j = alloca [4 x i8], align 4
  %i = alloca [4 x i8], align 4
  %weight = alloca [4 x i8], align 4
  store i32 0, ptr %weight, align 4
  store i32 0, ptr %i, align 4
  store i32 0, ptr %j, align 4
  store i32 0, ptr %i, align 4
  br label %bb1

bb1:                                              ; preds = %bb14, %start
  %_7 = load i32, ptr %i, align 4
  %_6 = icmp slt i32 %_7, 3
  br i1 %_6, label %bb2, label %bb15

bb15:                                             ; preds = %bb1
  %_0 = load i32, ptr %weight, align 4
  ret i32 %_0

bb2:                                              ; preds = %bb1
  store i32 0, ptr %j, align 4
  br label %bb3

bb3:                                              ; preds = %bb13, %bb2
  %_9 = load i32, ptr %j, align 4
  %_8 = icmp slt i32 %_9, 3
  br i1 %_8, label %bb4, label %bb14

bb14:                                             ; preds = %bb3
  %0 = load i32, ptr %i, align 4
  %1 = add i32 %0, 1
  store i32 %1, ptr %i, align 4
  br label %bb1

bb4:                                              ; preds = %bb3
  %_14 = load i32, ptr %i, align 4
  %_13 = sext i32 %_14 to i64
; call core::ptr::mut_ptr::<impl *mut T>::offset::precondition_check
  call void @"_ZN4core3ptr7mut_ptr31_$LT$impl$u20$$BP$mut$u20$T$GT$6offset18precondition_check17h9ddc65a497611677E"(ptr %m, i64 %_13, i64 12) #9
  %_0.i10 = getelementptr inbounds [3 x i32], ptr %m, i64 %_13
  %_16 = load i32, ptr %j, align 4
  %_15 = sext i32 %_16 to i64
  %_17 = icmp ult i64 %_15, 3
  br i1 %_17, label %bb6, label %panic

bb6:                                              ; preds = %bb4
  %_47 = ptrtoint ptr %_0.i10 to i64
  %_50 = and i64 %_47, 3
  %_51 = icmp eq i64 %_50, 0
  br i1 %_51, label %bb18, label %panic1

panic:                                            ; preds = %bb4
; call core::panicking::panic_bounds_check
  call void @_ZN4core9panicking18panic_bounds_check17h27d1e4f0cb1112dfE(i64 %_15, i64 3, ptr align 8 @alloc_81b7d97bb663cad8831ea8728519c526) #8
  unreachable

bb18:                                             ; preds = %bb6
  %_53 = ptrtoint ptr %_0.i10 to i64
  %_56 = icmp eq i64 %_53, 0
  %_57 = and i1 %_56, true
  %_58 = xor i1 %_57, true
  br i1 %_58, label %bb19, label %panic2

panic1:                                           ; preds = %bb6
; call core::panicking::panic_misaligned_pointer_dereference
  call void @_ZN4core9panicking36panic_misaligned_pointer_dereference17hcc3cbded9382b6e5E(i64 4, i64 %_47, ptr align 8 @alloc_81b7d97bb663cad8831ea8728519c526) #8
  unreachable

bb19:                                             ; preds = %bb18
  %2 = getelementptr inbounds nuw i32, ptr %_0.i10, i64 %_15
  %_11 = load i32, ptr %2, align 4
  %_10 = icmp eq i32 %_11, -1
  br i1 %_10, label %bb13, label %bb7

panic2:                                           ; preds = %bb18
; call core::panicking::panic_null_pointer_dereference
  call void @_ZN4core9panicking30panic_null_pointer_dereference17hf718fcc86a223baaE(ptr align 8 @alloc_81b7d97bb663cad8831ea8728519c526) #8
  unreachable

bb7:                                              ; preds = %bb19
  %_23 = load i32, ptr %i, align 4
  %_22 = sext i32 %_23 to i64
; call core::ptr::mut_ptr::<impl *mut T>::offset::precondition_check
  call void @"_ZN4core3ptr7mut_ptr31_$LT$impl$u20$$BP$mut$u20$T$GT$6offset18precondition_check17h9ddc65a497611677E"(ptr %m, i64 %_22, i64 12) #9
  %_0.i9 = getelementptr inbounds [3 x i32], ptr %m, i64 %_22
  %_25 = load i32, ptr %j, align 4
  %_24 = sext i32 %_25 to i64
  %_26 = icmp ult i64 %_24, 3
  br i1 %_26, label %bb9, label %panic3

bb13:                                             ; preds = %bb12, %bb21, %bb19
  %3 = load i32, ptr %j, align 4
  %4 = add i32 %3, 1
  store i32 %4, ptr %j, align 4
  br label %bb3

bb9:                                              ; preds = %bb7
  %_41 = ptrtoint ptr %_0.i9 to i64
  %_44 = and i64 %_41, 3
  %_45 = icmp eq i64 %_44, 0
  br i1 %_45, label %bb17, label %panic4

panic3:                                           ; preds = %bb7
; call core::panicking::panic_bounds_check
  call void @_ZN4core9panicking18panic_bounds_check17h27d1e4f0cb1112dfE(i64 %_24, i64 3, ptr align 8 @alloc_a9943a4ee89f225b6b7f09a32c8dbf26) #8
  unreachable

bb17:                                             ; preds = %bb9
  %_60 = ptrtoint ptr %_0.i9 to i64
  %_63 = icmp eq i64 %_60, 0
  %_64 = and i1 %_63, true
  %_65 = xor i1 %_64, true
  br i1 %_65, label %bb20, label %panic5

panic4:                                           ; preds = %bb9
; call core::panicking::panic_misaligned_pointer_dereference
  call void @_ZN4core9panicking36panic_misaligned_pointer_dereference17hcc3cbded9382b6e5E(i64 4, i64 %_41, ptr align 8 @alloc_a9943a4ee89f225b6b7f09a32c8dbf26) #8
  unreachable

bb20:                                             ; preds = %bb17
  %5 = getelementptr inbounds nuw i32, ptr %_0.i9, i64 %_24
  %_20 = load i32, ptr %5, align 4
  %_30 = load i32, ptr %i, align 4
  %_29 = sext i32 %_30 to i64
; call core::ptr::mut_ptr::<impl *mut T>::offset::precondition_check
  call void @"_ZN4core3ptr7mut_ptr31_$LT$impl$u20$$BP$mut$u20$T$GT$6offset18precondition_check17h9ddc65a497611677E"(ptr %target, i64 %_29, i64 12) #9
  %_0.i = getelementptr inbounds [3 x i32], ptr %target, i64 %_29
  %_32 = load i32, ptr %j, align 4
  %_31 = sext i32 %_32 to i64
  %_33 = icmp ult i64 %_31, 3
  br i1 %_33, label %bb11, label %panic6

panic5:                                           ; preds = %bb17
; call core::panicking::panic_null_pointer_dereference
  call void @_ZN4core9panicking30panic_null_pointer_dereference17hf718fcc86a223baaE(ptr align 8 @alloc_a9943a4ee89f225b6b7f09a32c8dbf26) #8
  unreachable

bb11:                                             ; preds = %bb20
  %_35 = ptrtoint ptr %_0.i to i64
  %_38 = and i64 %_35, 3
  %_39 = icmp eq i64 %_38, 0
  br i1 %_39, label %bb16, label %panic7

panic6:                                           ; preds = %bb20
; call core::panicking::panic_bounds_check
  call void @_ZN4core9panicking18panic_bounds_check17h27d1e4f0cb1112dfE(i64 %_31, i64 3, ptr align 8 @alloc_e90c1dda6df4031e7cec2d278dc7062a) #8
  unreachable

bb16:                                             ; preds = %bb11
  %_67 = ptrtoint ptr %_0.i to i64
  %_70 = icmp eq i64 %_67, 0
  %_71 = and i1 %_70, true
  %_72 = xor i1 %_71, true
  br i1 %_72, label %bb21, label %panic8

panic7:                                           ; preds = %bb11
; call core::panicking::panic_misaligned_pointer_dereference
  call void @_ZN4core9panicking36panic_misaligned_pointer_dereference17hcc3cbded9382b6e5E(i64 4, i64 %_35, ptr align 8 @alloc_e90c1dda6df4031e7cec2d278dc7062a) #8
  unreachable

bb21:                                             ; preds = %bb16
  %6 = getelementptr inbounds nuw i32, ptr %_0.i, i64 %_31
  %_27 = load i32, ptr %6, align 4
  %_19 = icmp ne i32 %_20, %_27
  br i1 %_19, label %bb12, label %bb13

panic8:                                           ; preds = %bb16
; call core::panicking::panic_null_pointer_dereference
  call void @_ZN4core9panicking30panic_null_pointer_dereference17hf718fcc86a223baaE(ptr align 8 @alloc_e90c1dda6df4031e7cec2d278dc7062a) #8
  unreachable

bb12:                                             ; preds = %bb21
  %7 = load i32, ptr %weight, align 4
  %8 = add i32 %7, 1
  store i32 %8, ptr %weight, align 4
  br label %bb13
}

; Function Attrs: nounwind nonlazybind
define void @displayoutcome(ptr %0) unnamed_addr #2 {
start:
  %node = alloca [8 x i8], align 8
  store ptr %0, ptr %node, align 8
  br label %bb1

bb1:                                              ; preds = %bb11, %start
  %_3 = load ptr, ptr %node, align 8
; call core::ptr::mut_ptr::<impl *mut T>::is_null
  %_2 = call zeroext i1 @"_ZN4core3ptr7mut_ptr31_$LT$impl$u20$$BP$mut$u20$T$GT$7is_null17ha9aff25d23b50e3eE"(ptr %_3) #9
  br i1 %_2, label %bb3, label %bb4

bb4:                                              ; preds = %bb1
  %_37 = load ptr, ptr %node, align 8
  %_38 = ptrtoint ptr %_37 to i64
  %_39 = icmp eq i64 %_38, 0
  %_40 = and i1 %_39, true
  %_41 = xor i1 %_40, true
  br i1 %_41, label %bb12, label %panic

bb3:                                              ; preds = %bb1
  ret void

bb12:                                             ; preds = %bb4
  %1 = load ptr, ptr %node, align 8
  %_7 = getelementptr inbounds i8, ptr %1, i64 16
  call void @cube_display(ptr %_7) #9
  %_8 = call i32 (ptr, ...) @printf(ptr @alloc_0255bdacfc758ed5f7f5c39e96c93d62) #9
  %_13 = call i32 (ptr, ...) @printf(ptr @alloc_0255bdacfc758ed5f7f5c39e96c93d62) #9
  %_18 = call i32 (ptr, ...) @printf(ptr @alloc_0255bdacfc758ed5f7f5c39e96c93d62) #9
  %_24 = load ptr, ptr %node, align 8
  %_25 = ptrtoint ptr %_24 to i64
  %_28 = and i64 %_25, 7
  %_29 = icmp eq i64 %_28, 0
  br i1 %_29, label %bb10, label %panic1

panic:                                            ; preds = %bb4
; call core::panicking::panic_null_pointer_dereference
  call void @_ZN4core9panicking30panic_null_pointer_dereference17hf718fcc86a223baaE(ptr align 8 @alloc_5d00082c93225ae742ad072b1e1acedc) #8
  unreachable

bb10:                                             ; preds = %bb12
  %_30 = load ptr, ptr %node, align 8
  %_31 = ptrtoint ptr %_30 to i64
  %_34 = icmp eq i64 %_31, 0
  %_35 = and i1 %_34, true
  %_36 = xor i1 %_35, true
  br i1 %_36, label %bb11, label %panic2

panic1:                                           ; preds = %bb12
; call core::panicking::panic_misaligned_pointer_dereference
  call void @_ZN4core9panicking36panic_misaligned_pointer_dereference17hcc3cbded9382b6e5E(i64 8, i64 %_25, ptr align 8 @alloc_1c90cfbd7633e6688dac7b2160b0779b) #8
  unreachable

bb11:                                             ; preds = %bb10
  %2 = load ptr, ptr %node, align 8
  %3 = getelementptr inbounds i8, ptr %2, i64 56
  %_23 = load ptr, ptr %3, align 8
  store ptr %_23, ptr %node, align 8
  br label %bb1

panic2:                                           ; preds = %bb10
; call core::panicking::panic_null_pointer_dereference
  call void @_ZN4core9panicking30panic_null_pointer_dereference17hf718fcc86a223baaE(ptr align 8 @alloc_1c90cfbd7633e6688dac7b2160b0779b) #8
  unreachable
}

; Function Attrs: nounwind nonlazybind
define i32 @inme(ptr %0, ptr %m) unnamed_addr #2 {
start:
  %ok = alloca [4 x i8], align 4
  %node = alloca [8 x i8], align 8
  store ptr %0, ptr %node, align 8
  store i32 0, ptr %ok, align 4
  br label %bb1

bb1:                                              ; preds = %bb11, %start
  %_5 = load ptr, ptr %node, align 8
; call core::ptr::mut_ptr::<impl *mut T>::is_null
  %_4 = call zeroext i1 @"_ZN4core3ptr7mut_ptr31_$LT$impl$u20$$BP$mut$u20$T$GT$7is_null17ha9aff25d23b50e3eE"(ptr %_5) #9
  br i1 %_4, label %bb9, label %bb3

bb3:                                              ; preds = %bb1
  %_6 = load i32, ptr %ok, align 4
  %1 = icmp eq i32 %_6, 0
  br i1 %1, label %bb4, label %bb9

bb9:                                              ; preds = %bb3, %bb1
  %_0 = load i32, ptr %ok, align 4
  ret i32 %_0

bb4:                                              ; preds = %bb3
  %_25 = load ptr, ptr %node, align 8
  %_26 = ptrtoint ptr %_25 to i64
  %_27 = icmp eq i64 %_26, 0
  %_28 = and i1 %_27, true
  %_29 = xor i1 %_28, true
  br i1 %_29, label %bb12, label %panic

bb12:                                             ; preds = %bb4
  %2 = load ptr, ptr %node, align 8
  %_10 = getelementptr inbounds i8, ptr %2, i64 16
  %_7 = call i32 @cube_equal(ptr %_10, ptr %m) #9
  %3 = icmp eq i32 %_7, 0
  br i1 %3, label %bb8, label %bb7

panic:                                            ; preds = %bb4
; call core::panicking::panic_null_pointer_dereference
  call void @_ZN4core9panicking30panic_null_pointer_dereference17hf718fcc86a223baaE(ptr align 8 @alloc_7aacd9bec35a5d448542a84ca4df070f) #8
  unreachable

bb8:                                              ; preds = %bb7, %bb12
  %_12 = load ptr, ptr %node, align 8
  %_13 = ptrtoint ptr %_12 to i64
  %_16 = and i64 %_13, 7
  %_17 = icmp eq i64 %_16, 0
  br i1 %_17, label %bb10, label %panic1

bb7:                                              ; preds = %bb12
  store i32 1, ptr %ok, align 4
  br label %bb8

bb10:                                             ; preds = %bb8
  %_18 = load ptr, ptr %node, align 8
  %_19 = ptrtoint ptr %_18 to i64
  %_22 = icmp eq i64 %_19, 0
  %_23 = and i1 %_22, true
  %_24 = xor i1 %_23, true
  br i1 %_24, label %bb11, label %panic2

panic1:                                           ; preds = %bb8
; call core::panicking::panic_misaligned_pointer_dereference
  call void @_ZN4core9panicking36panic_misaligned_pointer_dereference17hcc3cbded9382b6e5E(i64 8, i64 %_13, ptr align 8 @alloc_40b85da115377baf1b9c7a0b51ef2df7) #8
  unreachable

bb11:                                             ; preds = %bb10
  %4 = load ptr, ptr %node, align 8
  %5 = getelementptr inbounds i8, ptr %4, i64 56
  %_11 = load ptr, ptr %5, align 8
  store ptr %_11, ptr %node, align 8
  br label %bb1

panic2:                                           ; preds = %bb10
; call core::panicking::panic_null_pointer_dereference
  call void @_ZN4core9panicking30panic_null_pointer_dereference17hf718fcc86a223baaE(ptr align 8 @alloc_40b85da115377baf1b9c7a0b51ef2df7) #8
  unreachable
}

; Function Attrs: nounwind nonlazybind
define void @astar(ptr %cube, i32 %x, i32 %y, ptr %target) unnamed_addr #2 {
start:
  %h = alloca [4 x i8], align 4
  %counter = alloca [4 x i8], align 4
  %_18 = alloca [12 x i8], align 4
  %tmpcube = alloca [36 x i8], align 4
  %node = alloca [8 x i8], align 8
  %currentnode = alloca [8 x i8], align 8
  %_6 = call ptr @malloc(i64 64) #9
  store ptr %_6, ptr %currentnode, align 8
  store ptr null, ptr %node, align 8
  %_511 = load ptr, ptr %currentnode, align 8
  %_512 = ptrtoint ptr %_511 to i64
  %_515 = and i64 %_512, 7
  %_516 = icmp eq i64 %_515, 0
  br i1 %_516, label %bb135, label %panic

bb135:                                            ; preds = %start
  %_517 = load ptr, ptr %currentnode, align 8
  %_518 = ptrtoint ptr %_517 to i64
  %_521 = icmp eq i64 %_518, 0
  %_522 = and i1 %_521, true
  %_523 = xor i1 %_522, true
  br i1 %_523, label %bb136, label %panic1

panic:                                            ; preds = %start
; call core::panicking::panic_misaligned_pointer_dereference
  call void @_ZN4core9panicking36panic_misaligned_pointer_dereference17hcc3cbded9382b6e5E(i64 8, i64 %_512, ptr align 8 @alloc_73fa1d5d9b35d454e31a5ecaa134e9fb) #8
  unreachable

bb136:                                            ; preds = %bb135
  %0 = load ptr, ptr %currentnode, align 8
  %1 = getelementptr inbounds i8, ptr %0, i64 8
  store i32 %x, ptr %1, align 8
  %_505 = load ptr, ptr %currentnode, align 8
  %_506 = ptrtoint ptr %_505 to i64
  %_509 = and i64 %_506, 7
  %_510 = icmp eq i64 %_509, 0
  br i1 %_510, label %bb134, label %panic2

panic1:                                           ; preds = %bb135
; call core::panicking::panic_null_pointer_dereference
  call void @_ZN4core9panicking30panic_null_pointer_dereference17hf718fcc86a223baaE(ptr align 8 @alloc_73fa1d5d9b35d454e31a5ecaa134e9fb) #8
  unreachable

bb134:                                            ; preds = %bb136
  %_524 = load ptr, ptr %currentnode, align 8
  %_525 = ptrtoint ptr %_524 to i64
  %_528 = icmp eq i64 %_525, 0
  %_529 = and i1 %_528, true
  %_530 = xor i1 %_529, true
  br i1 %_530, label %bb137, label %panic3

panic2:                                           ; preds = %bb136
; call core::panicking::panic_misaligned_pointer_dereference
  call void @_ZN4core9panicking36panic_misaligned_pointer_dereference17hcc3cbded9382b6e5E(i64 8, i64 %_506, ptr align 8 @alloc_7eb107e9fb52096e74ae1e161e3ba445) #8
  unreachable

bb137:                                            ; preds = %bb134
  %2 = load ptr, ptr %currentnode, align 8
  %3 = getelementptr inbounds i8, ptr %2, i64 12
  store i32 %y, ptr %3, align 4
  %_499 = load ptr, ptr %currentnode, align 8
  %_500 = ptrtoint ptr %_499 to i64
  %_503 = and i64 %_500, 7
  %_504 = icmp eq i64 %_503, 0
  br i1 %_504, label %bb133, label %panic4

panic3:                                           ; preds = %bb134
; call core::panicking::panic_null_pointer_dereference
  call void @_ZN4core9panicking30panic_null_pointer_dereference17hf718fcc86a223baaE(ptr align 8 @alloc_7eb107e9fb52096e74ae1e161e3ba445) #8
  unreachable

bb133:                                            ; preds = %bb137
  %_531 = load ptr, ptr %currentnode, align 8
  %_532 = ptrtoint ptr %_531 to i64
  %_535 = icmp eq i64 %_532, 0
  %_536 = and i1 %_535, true
  %_537 = xor i1 %_536, true
  br i1 %_537, label %bb138, label %panic5

panic4:                                           ; preds = %bb137
; call core::panicking::panic_misaligned_pointer_dereference
  call void @_ZN4core9panicking36panic_misaligned_pointer_dereference17hcc3cbded9382b6e5E(i64 8, i64 %_500, ptr align 8 @alloc_45afa08f2b59c009968cf3fe264de138) #8
  unreachable

bb138:                                            ; preds = %bb133
  %4 = load ptr, ptr %currentnode, align 8
  %5 = getelementptr inbounds i8, ptr %4, i64 56
  store ptr null, ptr %5, align 8
  %_493 = load ptr, ptr %currentnode, align 8
  %_494 = ptrtoint ptr %_493 to i64
  %_497 = and i64 %_494, 7
  %_498 = icmp eq i64 %_497, 0
  br i1 %_498, label %bb132, label %panic6

panic5:                                           ; preds = %bb133
; call core::panicking::panic_null_pointer_dereference
  call void @_ZN4core9panicking30panic_null_pointer_dereference17hf718fcc86a223baaE(ptr align 8 @alloc_45afa08f2b59c009968cf3fe264de138) #8
  unreachable

bb132:                                            ; preds = %bb138
  %_538 = load ptr, ptr %currentnode, align 8
  %_539 = ptrtoint ptr %_538 to i64
  %_542 = icmp eq i64 %_539, 0
  %_543 = and i1 %_542, true
  %_544 = xor i1 %_543, true
  br i1 %_544, label %bb139, label %panic7

panic6:                                           ; preds = %bb138
; call core::panicking::panic_misaligned_pointer_dereference
  call void @_ZN4core9panicking36panic_misaligned_pointer_dereference17hcc3cbded9382b6e5E(i64 8, i64 %_494, ptr align 8 @alloc_7a2cd8faafd90eb6b8aa731e64a959d4) #8
  unreachable

bb139:                                            ; preds = %bb132
  %6 = load ptr, ptr %currentnode, align 8
  store i32 0, ptr %6, align 8
  %_487 = load ptr, ptr %currentnode, align 8
  %_488 = ptrtoint ptr %_487 to i64
  %_491 = and i64 %_488, 7
  %_492 = icmp eq i64 %_491, 0
  br i1 %_492, label %bb131, label %panic8

panic7:                                           ; preds = %bb132
; call core::panicking::panic_null_pointer_dereference
  call void @_ZN4core9panicking30panic_null_pointer_dereference17hf718fcc86a223baaE(ptr align 8 @alloc_7a2cd8faafd90eb6b8aa731e64a959d4) #8
  unreachable

bb131:                                            ; preds = %bb139
  %_550 = load ptr, ptr %currentnode, align 8
  %_551 = ptrtoint ptr %_550 to i64
  %_554 = icmp eq i64 %_551, 0
  %_555 = and i1 %_554, true
  %_556 = xor i1 %_555, true
  br i1 %_556, label %bb141, label %panic9

panic8:                                           ; preds = %bb139
; call core::panicking::panic_misaligned_pointer_dereference
  call void @_ZN4core9panicking36panic_misaligned_pointer_dereference17hcc3cbded9382b6e5E(i64 8, i64 %_488, ptr align 8 @alloc_584b2873cdd21fcd96bf6d25ac75c784) #8
  unreachable

bb141:                                            ; preds = %bb131
  %7 = load ptr, ptr %currentnode, align 8
  %8 = getelementptr inbounds i8, ptr %7, i64 4
  store i32 0, ptr %8, align 4
  %_545 = load ptr, ptr %currentnode, align 8
  %_546 = ptrtoint ptr %_545 to i64
  %_547 = icmp eq i64 %_546, 0
  %_548 = and i1 %_547, true
  %_549 = xor i1 %_548, true
  br i1 %_549, label %bb140, label %panic10

panic9:                                           ; preds = %bb131
; call core::panicking::panic_null_pointer_dereference
  call void @_ZN4core9panicking30panic_null_pointer_dereference17hf718fcc86a223baaE(ptr align 8 @alloc_584b2873cdd21fcd96bf6d25ac75c784) #8
  unreachable

bb140:                                            ; preds = %bb141
  %9 = load ptr, ptr %currentnode, align 8
  %_13 = getelementptr inbounds i8, ptr %9, i64 16
  call void @cube_copy(ptr %cube, ptr %_13) #9
  %heap = call ptr @init_heap() #9
  %_16 = load ptr, ptr %currentnode, align 8
  call void @insert_heap(ptr %heap, ptr %_16) #9
  call void @llvm.memset.p0.i64(ptr align 4 %_18, i8 0, i64 12, i1 false)
  br label %repeat_loop_header

panic10:                                          ; preds = %bb141
; call core::panicking::panic_null_pointer_dereference
  call void @_ZN4core9panicking30panic_null_pointer_dereference17hf718fcc86a223baaE(ptr align 8 @alloc_b579447ad999bce7eef4aa24f927a427) #8
  unreachable

repeat_loop_header:                               ; preds = %repeat_loop_body, %bb140
  %10 = phi i64 [ 0, %bb140 ], [ %13, %repeat_loop_body ]
  %11 = icmp ult i64 %10, 3
  br i1 %11, label %repeat_loop_body, label %repeat_loop_next

repeat_loop_body:                                 ; preds = %repeat_loop_header
  %12 = getelementptr inbounds nuw [3 x i32], ptr %tmpcube, i64 %10
  call void @llvm.memcpy.p0.p0.i64(ptr align 4 %12, ptr align 4 %_18, i64 12, i1 false)
  %13 = add nuw i64 %10, 1
  br label %repeat_loop_header

repeat_loop_next:                                 ; preds = %repeat_loop_header
  store i32 0, ptr %counter, align 4
  store i32 0, ptr %h, align 4
  br label %bb7

bb7:                                              ; preds = %bb193, %bb183, %bb181, %repeat_loop_next
  %_21 = call i32 @heap_empty(ptr %heap) #9
  %14 = icmp eq i32 %_21, 0
  br i1 %14, label %bb9, label %bb82

bb9:                                              ; preds = %bb7
  %15 = load i32, ptr %counter, align 4
  %16 = add i32 %15, 1
  store i32 %16, ptr %counter, align 4
  %_22 = call ptr @delete_min(ptr %heap) #9
  store ptr %_22, ptr %currentnode, align 8
  %_953 = load ptr, ptr %currentnode, align 8
  %_954 = ptrtoint ptr %_953 to i64
  %_955 = icmp eq i64 %_954, 0
  %_956 = and i1 %_955, true
  %_957 = xor i1 %_956, true
  br i1 %_957, label %bb202, label %panic11

bb82:                                             ; preds = %bb13, %bb7
  ret void

bb202:                                            ; preds = %bb9
  %17 = load ptr, ptr %currentnode, align 8
  %_26 = getelementptr inbounds i8, ptr %17, i64 16
  %_23 = call i32 @cube_equal(ptr %_26, ptr %target) #9
  %18 = icmp eq i32 %_23, 0
  br i1 %18, label %bb14, label %bb13

panic11:                                          ; preds = %bb9
; call core::panicking::panic_null_pointer_dereference
  call void @_ZN4core9panicking30panic_null_pointer_dereference17hf718fcc86a223baaE(ptr align 8 @alloc_cac2342e7d1577c4ba2e512b3b41eb3f) #8
  unreachable

bb14:                                             ; preds = %bb202
  %_948 = load ptr, ptr %currentnode, align 8
  %_949 = ptrtoint ptr %_948 to i64
  %_950 = icmp eq i64 %_949, 0
  %_951 = and i1 %_950, true
  %_952 = xor i1 %_951, true
  br i1 %_952, label %bb201, label %panic12

bb13:                                             ; preds = %bb202
  %_28 = load ptr, ptr %currentnode, align 8
  call void @displayoutcome(ptr %_28) #9
  br label %bb82

bb201:                                            ; preds = %bb14
  %19 = load ptr, ptr %currentnode, align 8
  %_32 = getelementptr inbounds i8, ptr %19, i64 16
  call void @cube_copy(ptr %_32, ptr %tmpcube) #9
  %_481 = load ptr, ptr %currentnode, align 8
  %_482 = ptrtoint ptr %_481 to i64
  %_485 = and i64 %_482, 7
  %_486 = icmp eq i64 %_485, 0
  br i1 %_486, label %bb130, label %panic13

panic12:                                          ; preds = %bb14
; call core::panicking::panic_null_pointer_dereference
  call void @_ZN4core9panicking30panic_null_pointer_dereference17hf718fcc86a223baaE(ptr align 8 @alloc_316e10541368bb317f53ee02bc0dcbb9) #8
  unreachable

bb130:                                            ; preds = %bb201
  %_557 = load ptr, ptr %currentnode, align 8
  %_558 = ptrtoint ptr %_557 to i64
  %_561 = icmp eq i64 %_558, 0
  %_562 = and i1 %_561, true
  %_563 = xor i1 %_562, true
  br i1 %_563, label %bb142, label %panic14

panic13:                                          ; preds = %bb201
; call core::panicking::panic_misaligned_pointer_dereference
  call void @_ZN4core9panicking36panic_misaligned_pointer_dereference17hcc3cbded9382b6e5E(i64 8, i64 %_482, ptr align 8 @alloc_2461a58b56aa0947b9485a40cfec0d29) #8
  unreachable

bb142:                                            ; preds = %bb130
  %20 = load ptr, ptr %currentnode, align 8
  %21 = getelementptr inbounds i8, ptr %20, i64 8
  %_37 = load i32, ptr %21, align 8
  %_36 = icmp sgt i32 %_37, 0
  br i1 %_36, label %bb18, label %bb31

panic14:                                          ; preds = %bb130
; call core::panicking::panic_null_pointer_dereference
  call void @_ZN4core9panicking30panic_null_pointer_dereference17hf718fcc86a223baaE(ptr align 8 @alloc_2461a58b56aa0947b9485a40cfec0d29) #8
  unreachable

bb31:                                             ; preds = %bb154, %bb144, %bb142
  %_938 = load ptr, ptr %currentnode, align 8
  %_939 = ptrtoint ptr %_938 to i64
  %_940 = icmp eq i64 %_939, 0
  %_941 = and i1 %_940, true
  %_942 = xor i1 %_941, true
  br i1 %_942, label %bb199, label %panic39

bb18:                                             ; preds = %bb142
  %_475 = load ptr, ptr %currentnode, align 8
  %_476 = ptrtoint ptr %_475 to i64
  %_479 = and i64 %_476, 7
  %_480 = icmp eq i64 %_479, 0
  br i1 %_480, label %bb129, label %panic15

bb129:                                            ; preds = %bb18
  %_564 = load ptr, ptr %currentnode, align 8
  %_565 = ptrtoint ptr %_564 to i64
  %_568 = icmp eq i64 %_565, 0
  %_569 = and i1 %_568, true
  %_570 = xor i1 %_569, true
  br i1 %_570, label %bb143, label %panic16

panic15:                                          ; preds = %bb18
; call core::panicking::panic_misaligned_pointer_dereference
  call void @_ZN4core9panicking36panic_misaligned_pointer_dereference17hcc3cbded9382b6e5E(i64 8, i64 %_476, ptr align 8 @alloc_e8b26ee959185d15c7e75563794d068d) #8
  unreachable

bb143:                                            ; preds = %bb129
  %22 = load ptr, ptr %currentnode, align 8
  %23 = getelementptr inbounds i8, ptr %22, i64 8
  %_42 = load i32, ptr %23, align 8
  %_469 = load ptr, ptr %currentnode, align 8
  %_470 = ptrtoint ptr %_469 to i64
  %_473 = and i64 %_470, 7
  %_474 = icmp eq i64 %_473, 0
  br i1 %_474, label %bb128, label %panic17

panic16:                                          ; preds = %bb129
; call core::panicking::panic_null_pointer_dereference
  call void @_ZN4core9panicking30panic_null_pointer_dereference17hf718fcc86a223baaE(ptr align 8 @alloc_e8b26ee959185d15c7e75563794d068d) #8
  unreachable

bb128:                                            ; preds = %bb143
  %_571 = load ptr, ptr %currentnode, align 8
  %_572 = ptrtoint ptr %_571 to i64
  %_575 = icmp eq i64 %_572, 0
  %_576 = and i1 %_575, true
  %_577 = xor i1 %_576, true
  br i1 %_577, label %bb144, label %panic18

panic17:                                          ; preds = %bb143
; call core::panicking::panic_misaligned_pointer_dereference
  call void @_ZN4core9panicking36panic_misaligned_pointer_dereference17hcc3cbded9382b6e5E(i64 8, i64 %_470, ptr align 8 @alloc_dddd54efeb045668eaebf82b333030dd) #8
  unreachable

bb144:                                            ; preds = %bb128
  %24 = load ptr, ptr %currentnode, align 8
  %25 = getelementptr inbounds i8, ptr %24, i64 12
  %_43 = load i32, ptr %25, align 4
  call void @move_up(ptr %tmpcube, i32 %_42, i32 %_43) #9
  %_45 = load ptr, ptr %currentnode, align 8
  %_44 = call i32 @inme(ptr %_45, ptr %tmpcube) #9
  %26 = icmp eq i32 %_44, 0
  br i1 %26, label %bb23, label %bb31

panic18:                                          ; preds = %bb128
; call core::panicking::panic_null_pointer_dereference
  call void @_ZN4core9panicking30panic_null_pointer_dereference17hf718fcc86a223baaE(ptr align 8 @alloc_dddd54efeb045668eaebf82b333030dd) #8
  unreachable

bb23:                                             ; preds = %bb144
  %_49 = call ptr @malloc(i64 64) #9
  store ptr %_49, ptr %node, align 8
  %_943 = load ptr, ptr %node, align 8
  %_944 = ptrtoint ptr %_943 to i64
  %_945 = icmp eq i64 %_944, 0
  %_946 = and i1 %_945, true
  %_947 = xor i1 %_946, true
  br i1 %_947, label %bb200, label %panic19

bb200:                                            ; preds = %bb23
  %27 = load ptr, ptr %node, align 8
  %_58 = getelementptr inbounds i8, ptr %27, i64 16
  call void @cube_copy(ptr %tmpcube, ptr %_58) #9
  %_463 = load ptr, ptr %currentnode, align 8
  %_464 = ptrtoint ptr %_463 to i64
  %_467 = and i64 %_464, 7
  %_468 = icmp eq i64 %_467, 0
  br i1 %_468, label %bb127, label %panic20

panic19:                                          ; preds = %bb23
; call core::panicking::panic_null_pointer_dereference
  call void @_ZN4core9panicking30panic_null_pointer_dereference17hf718fcc86a223baaE(ptr align 8 @alloc_a8ede129bb021cfd2aba9ecf57653477) #8
  unreachable

bb127:                                            ; preds = %bb200
  %_578 = load ptr, ptr %currentnode, align 8
  %_579 = ptrtoint ptr %_578 to i64
  %_582 = icmp eq i64 %_579, 0
  %_583 = and i1 %_582, true
  %_584 = xor i1 %_583, true
  br i1 %_584, label %bb145, label %panic21

panic20:                                          ; preds = %bb200
; call core::panicking::panic_misaligned_pointer_dereference
  call void @_ZN4core9panicking36panic_misaligned_pointer_dereference17hcc3cbded9382b6e5E(i64 8, i64 %_464, ptr align 8 @alloc_374d44cf36d0a78f4f5539f46fcb5150) #8
  unreachable

bb145:                                            ; preds = %bb127
  %28 = load ptr, ptr %currentnode, align 8
  %29 = getelementptr inbounds i8, ptr %28, i64 8
  %_59 = load i32, ptr %29, align 8
  %_457 = load ptr, ptr %node, align 8
  %_458 = ptrtoint ptr %_457 to i64
  %_461 = and i64 %_458, 7
  %_462 = icmp eq i64 %_461, 0
  br i1 %_462, label %bb126, label %panic22

panic21:                                          ; preds = %bb127
; call core::panicking::panic_null_pointer_dereference
  call void @_ZN4core9panicking30panic_null_pointer_dereference17hf718fcc86a223baaE(ptr align 8 @alloc_374d44cf36d0a78f4f5539f46fcb5150) #8
  unreachable

bb126:                                            ; preds = %bb145
  %_585 = load ptr, ptr %node, align 8
  %_586 = ptrtoint ptr %_585 to i64
  %_589 = icmp eq i64 %_586, 0
  %_590 = and i1 %_589, true
  %_591 = xor i1 %_590, true
  br i1 %_591, label %bb146, label %panic23

panic22:                                          ; preds = %bb145
; call core::panicking::panic_misaligned_pointer_dereference
  call void @_ZN4core9panicking36panic_misaligned_pointer_dereference17hcc3cbded9382b6e5E(i64 8, i64 %_458, ptr align 8 @alloc_ade1dfce9c54123ea33836e92b33f4dd) #8
  unreachable

bb146:                                            ; preds = %bb126
  %30 = load ptr, ptr %node, align 8
  %31 = getelementptr inbounds i8, ptr %30, i64 8
  %32 = sub i32 %_59, 1
  store i32 %32, ptr %31, align 8
  %_451 = load ptr, ptr %currentnode, align 8
  %_452 = ptrtoint ptr %_451 to i64
  %_455 = and i64 %_452, 7
  %_456 = icmp eq i64 %_455, 0
  br i1 %_456, label %bb125, label %panic24

panic23:                                          ; preds = %bb126
; call core::panicking::panic_null_pointer_dereference
  call void @_ZN4core9panicking30panic_null_pointer_dereference17hf718fcc86a223baaE(ptr align 8 @alloc_ade1dfce9c54123ea33836e92b33f4dd) #8
  unreachable

bb125:                                            ; preds = %bb146
  %_592 = load ptr, ptr %currentnode, align 8
  %_593 = ptrtoint ptr %_592 to i64
  %_596 = icmp eq i64 %_593, 0
  %_597 = and i1 %_596, true
  %_598 = xor i1 %_597, true
  br i1 %_598, label %bb147, label %panic25

panic24:                                          ; preds = %bb146
; call core::panicking::panic_misaligned_pointer_dereference
  call void @_ZN4core9panicking36panic_misaligned_pointer_dereference17hcc3cbded9382b6e5E(i64 8, i64 %_452, ptr align 8 @alloc_b11d9389dda9c423e7b62b48675f781b) #8
  unreachable

bb147:                                            ; preds = %bb125
  %33 = load ptr, ptr %currentnode, align 8
  %34 = getelementptr inbounds i8, ptr %33, i64 12
  %_60 = load i32, ptr %34, align 4
  %_445 = load ptr, ptr %node, align 8
  %_446 = ptrtoint ptr %_445 to i64
  %_449 = and i64 %_446, 7
  %_450 = icmp eq i64 %_449, 0
  br i1 %_450, label %bb124, label %panic26

panic25:                                          ; preds = %bb125
; call core::panicking::panic_null_pointer_dereference
  call void @_ZN4core9panicking30panic_null_pointer_dereference17hf718fcc86a223baaE(ptr align 8 @alloc_b11d9389dda9c423e7b62b48675f781b) #8
  unreachable

bb124:                                            ; preds = %bb147
  %_599 = load ptr, ptr %node, align 8
  %_600 = ptrtoint ptr %_599 to i64
  %_603 = icmp eq i64 %_600, 0
  %_604 = and i1 %_603, true
  %_605 = xor i1 %_604, true
  br i1 %_605, label %bb148, label %panic27

panic26:                                          ; preds = %bb147
; call core::panicking::panic_misaligned_pointer_dereference
  call void @_ZN4core9panicking36panic_misaligned_pointer_dereference17hcc3cbded9382b6e5E(i64 8, i64 %_446, ptr align 8 @alloc_c9f177d3ad5d35d7166ac8b991c9051a) #8
  unreachable

bb148:                                            ; preds = %bb124
  %35 = load ptr, ptr %node, align 8
  %36 = getelementptr inbounds i8, ptr %35, i64 12
  store i32 %_60, ptr %36, align 4
  %_61 = load ptr, ptr %currentnode, align 8
  %_439 = load ptr, ptr %node, align 8
  %_440 = ptrtoint ptr %_439 to i64
  %_443 = and i64 %_440, 7
  %_444 = icmp eq i64 %_443, 0
  br i1 %_444, label %bb123, label %panic28

panic27:                                          ; preds = %bb124
; call core::panicking::panic_null_pointer_dereference
  call void @_ZN4core9panicking30panic_null_pointer_dereference17hf718fcc86a223baaE(ptr align 8 @alloc_c9f177d3ad5d35d7166ac8b991c9051a) #8
  unreachable

bb123:                                            ; preds = %bb148
  %_606 = load ptr, ptr %node, align 8
  %_607 = ptrtoint ptr %_606 to i64
  %_610 = icmp eq i64 %_607, 0
  %_611 = and i1 %_610, true
  %_612 = xor i1 %_611, true
  br i1 %_612, label %bb149, label %panic29

panic28:                                          ; preds = %bb148
; call core::panicking::panic_misaligned_pointer_dereference
  call void @_ZN4core9panicking36panic_misaligned_pointer_dereference17hcc3cbded9382b6e5E(i64 8, i64 %_440, ptr align 8 @alloc_fef21cc49ea7befc6ab2a726f15bd6c5) #8
  unreachable

bb149:                                            ; preds = %bb123
  %37 = load ptr, ptr %node, align 8
  %38 = getelementptr inbounds i8, ptr %37, i64 56
  store ptr %_61, ptr %38, align 8
  %_433 = load ptr, ptr %currentnode, align 8
  %_434 = ptrtoint ptr %_433 to i64
  %_437 = and i64 %_434, 7
  %_438 = icmp eq i64 %_437, 0
  br i1 %_438, label %bb122, label %panic30

panic29:                                          ; preds = %bb123
; call core::panicking::panic_null_pointer_dereference
  call void @_ZN4core9panicking30panic_null_pointer_dereference17hf718fcc86a223baaE(ptr align 8 @alloc_fef21cc49ea7befc6ab2a726f15bd6c5) #8
  unreachable

bb122:                                            ; preds = %bb149
  %_613 = load ptr, ptr %currentnode, align 8
  %_614 = ptrtoint ptr %_613 to i64
  %_617 = icmp eq i64 %_614, 0
  %_618 = and i1 %_617, true
  %_619 = xor i1 %_618, true
  br i1 %_619, label %bb150, label %panic31

panic30:                                          ; preds = %bb149
; call core::panicking::panic_misaligned_pointer_dereference
  call void @_ZN4core9panicking36panic_misaligned_pointer_dereference17hcc3cbded9382b6e5E(i64 8, i64 %_434, ptr align 8 @alloc_7b1e676acf787dfdcc67c550cdf9c006) #8
  unreachable

bb150:                                            ; preds = %bb122
  %39 = load ptr, ptr %currentnode, align 8
  %_62 = load i32, ptr %39, align 8
  %_427 = load ptr, ptr %node, align 8
  %_428 = ptrtoint ptr %_427 to i64
  %_431 = and i64 %_428, 7
  %_432 = icmp eq i64 %_431, 0
  br i1 %_432, label %bb121, label %panic32

panic31:                                          ; preds = %bb122
; call core::panicking::panic_null_pointer_dereference
  call void @_ZN4core9panicking30panic_null_pointer_dereference17hf718fcc86a223baaE(ptr align 8 @alloc_7b1e676acf787dfdcc67c550cdf9c006) #8
  unreachable

bb121:                                            ; preds = %bb150
  %_625 = load ptr, ptr %node, align 8
  %_626 = ptrtoint ptr %_625 to i64
  %_629 = icmp eq i64 %_626, 0
  %_630 = and i1 %_629, true
  %_631 = xor i1 %_630, true
  br i1 %_631, label %bb152, label %panic33

panic32:                                          ; preds = %bb150
; call core::panicking::panic_misaligned_pointer_dereference
  call void @_ZN4core9panicking36panic_misaligned_pointer_dereference17hcc3cbded9382b6e5E(i64 8, i64 %_428, ptr align 8 @alloc_c05b586b78f8ad9ea332fce8e169faba) #8
  unreachable

bb152:                                            ; preds = %bb121
  %40 = load ptr, ptr %node, align 8
  %41 = add i32 %_62, 1
  store i32 %41, ptr %40, align 8
  %_620 = load ptr, ptr %node, align 8
  %_621 = ptrtoint ptr %_620 to i64
  %_622 = icmp eq i64 %_621, 0
  %_623 = and i1 %_622, true
  %_624 = xor i1 %_623, true
  br i1 %_624, label %bb151, label %panic34

panic33:                                          ; preds = %bb121
; call core::panicking::panic_null_pointer_dereference
  call void @_ZN4core9panicking30panic_null_pointer_dereference17hf718fcc86a223baaE(ptr align 8 @alloc_c05b586b78f8ad9ea332fce8e169faba) #8
  unreachable

bb151:                                            ; preds = %bb152
  %42 = load ptr, ptr %node, align 8
  %_66 = getelementptr inbounds i8, ptr %42, i64 16
  %_63 = call i32 @calc_weight(ptr %target, ptr %_66) #9
  store i32 %_63, ptr %h, align 4
  %_421 = load ptr, ptr %node, align 8
  %_422 = ptrtoint ptr %_421 to i64
  %_425 = and i64 %_422, 7
  %_426 = icmp eq i64 %_425, 0
  br i1 %_426, label %bb120, label %panic35

panic34:                                          ; preds = %bb152
; call core::panicking::panic_null_pointer_dereference
  call void @_ZN4core9panicking30panic_null_pointer_dereference17hf718fcc86a223baaE(ptr align 8 @alloc_edb4f56293b0a16d75505729212bb9b4) #8
  unreachable

bb120:                                            ; preds = %bb151
  %_632 = load ptr, ptr %node, align 8
  %_633 = ptrtoint ptr %_632 to i64
  %_636 = icmp eq i64 %_633, 0
  %_637 = and i1 %_636, true
  %_638 = xor i1 %_637, true
  br i1 %_638, label %bb153, label %panic36

panic35:                                          ; preds = %bb151
; call core::panicking::panic_misaligned_pointer_dereference
  call void @_ZN4core9panicking36panic_misaligned_pointer_dereference17hcc3cbded9382b6e5E(i64 8, i64 %_422, ptr align 8 @alloc_de343a7284a895c0e755e0ea5400d3d6) #8
  unreachable

bb153:                                            ; preds = %bb120
  %43 = load ptr, ptr %node, align 8
  %_67 = load i32, ptr %43, align 8
  %_68 = load i32, ptr %h, align 4
  %_415 = load ptr, ptr %node, align 8
  %_416 = ptrtoint ptr %_415 to i64
  %_419 = and i64 %_416, 7
  %_420 = icmp eq i64 %_419, 0
  br i1 %_420, label %bb119, label %panic37

panic36:                                          ; preds = %bb120
; call core::panicking::panic_null_pointer_dereference
  call void @_ZN4core9panicking30panic_null_pointer_dereference17hf718fcc86a223baaE(ptr align 8 @alloc_de343a7284a895c0e755e0ea5400d3d6) #8
  unreachable

bb119:                                            ; preds = %bb153
  %_639 = load ptr, ptr %node, align 8
  %_640 = ptrtoint ptr %_639 to i64
  %_643 = icmp eq i64 %_640, 0
  %_644 = and i1 %_643, true
  %_645 = xor i1 %_644, true
  br i1 %_645, label %bb154, label %panic38

panic37:                                          ; preds = %bb153
; call core::panicking::panic_misaligned_pointer_dereference
  call void @_ZN4core9panicking36panic_misaligned_pointer_dereference17hcc3cbded9382b6e5E(i64 8, i64 %_416, ptr align 8 @alloc_c97a072e648c1ec3b9079730ef975d7f) #8
  unreachable

bb154:                                            ; preds = %bb119
  %44 = load ptr, ptr %node, align 8
  %45 = getelementptr inbounds i8, ptr %44, i64 4
  %46 = add i32 %_67, %_68
  store i32 %46, ptr %45, align 4
  %_70 = load ptr, ptr %node, align 8
  call void @insert_heap(ptr %heap, ptr %_70) #9
  br label %bb31

panic38:                                          ; preds = %bb119
; call core::panicking::panic_null_pointer_dereference
  call void @_ZN4core9panicking30panic_null_pointer_dereference17hf718fcc86a223baaE(ptr align 8 @alloc_c97a072e648c1ec3b9079730ef975d7f) #8
  unreachable

bb199:                                            ; preds = %bb31
  %47 = load ptr, ptr %currentnode, align 8
  %_74 = getelementptr inbounds i8, ptr %47, i64 16
  call void @cube_copy(ptr %_74, ptr %tmpcube) #9
  %_409 = load ptr, ptr %currentnode, align 8
  %_410 = ptrtoint ptr %_409 to i64
  %_413 = and i64 %_410, 7
  %_414 = icmp eq i64 %_413, 0
  br i1 %_414, label %bb118, label %panic40

panic39:                                          ; preds = %bb31
; call core::panicking::panic_null_pointer_dereference
  call void @_ZN4core9panicking30panic_null_pointer_dereference17hf718fcc86a223baaE(ptr align 8 @alloc_4aace895ed3aea2c91a193d22c1b579a) #8
  unreachable

bb118:                                            ; preds = %bb199
  %_646 = load ptr, ptr %currentnode, align 8
  %_647 = ptrtoint ptr %_646 to i64
  %_650 = icmp eq i64 %_647, 0
  %_651 = and i1 %_650, true
  %_652 = xor i1 %_651, true
  br i1 %_652, label %bb155, label %panic41

panic40:                                          ; preds = %bb199
; call core::panicking::panic_misaligned_pointer_dereference
  call void @_ZN4core9panicking36panic_misaligned_pointer_dereference17hcc3cbded9382b6e5E(i64 8, i64 %_410, ptr align 8 @alloc_4d7a904218c881e0dff0b02e5cc8868f) #8
  unreachable

bb155:                                            ; preds = %bb118
  %48 = load ptr, ptr %currentnode, align 8
  %49 = getelementptr inbounds i8, ptr %48, i64 8
  %_79 = load i32, ptr %49, align 8
  %_78 = icmp slt i32 %_79, 2
  br i1 %_78, label %bb35, label %bb48

panic41:                                          ; preds = %bb118
; call core::panicking::panic_null_pointer_dereference
  call void @_ZN4core9panicking30panic_null_pointer_dereference17hf718fcc86a223baaE(ptr align 8 @alloc_4d7a904218c881e0dff0b02e5cc8868f) #8
  unreachable

bb48:                                             ; preds = %bb167, %bb157, %bb155
  %_928 = load ptr, ptr %currentnode, align 8
  %_929 = ptrtoint ptr %_928 to i64
  %_930 = icmp eq i64 %_929, 0
  %_931 = and i1 %_930, true
  %_932 = xor i1 %_931, true
  br i1 %_932, label %bb197, label %panic66

bb35:                                             ; preds = %bb155
  %_403 = load ptr, ptr %currentnode, align 8
  %_404 = ptrtoint ptr %_403 to i64
  %_407 = and i64 %_404, 7
  %_408 = icmp eq i64 %_407, 0
  br i1 %_408, label %bb117, label %panic42

bb117:                                            ; preds = %bb35
  %_653 = load ptr, ptr %currentnode, align 8
  %_654 = ptrtoint ptr %_653 to i64
  %_657 = icmp eq i64 %_654, 0
  %_658 = and i1 %_657, true
  %_659 = xor i1 %_658, true
  br i1 %_659, label %bb156, label %panic43

panic42:                                          ; preds = %bb35
; call core::panicking::panic_misaligned_pointer_dereference
  call void @_ZN4core9panicking36panic_misaligned_pointer_dereference17hcc3cbded9382b6e5E(i64 8, i64 %_404, ptr align 8 @alloc_e2626d641508ad088661f8e9f513d689) #8
  unreachable

bb156:                                            ; preds = %bb117
  %50 = load ptr, ptr %currentnode, align 8
  %51 = getelementptr inbounds i8, ptr %50, i64 8
  %_85 = load i32, ptr %51, align 8
  %_397 = load ptr, ptr %currentnode, align 8
  %_398 = ptrtoint ptr %_397 to i64
  %_401 = and i64 %_398, 7
  %_402 = icmp eq i64 %_401, 0
  br i1 %_402, label %bb116, label %panic44

panic43:                                          ; preds = %bb117
; call core::panicking::panic_null_pointer_dereference
  call void @_ZN4core9panicking30panic_null_pointer_dereference17hf718fcc86a223baaE(ptr align 8 @alloc_e2626d641508ad088661f8e9f513d689) #8
  unreachable

bb116:                                            ; preds = %bb156
  %_660 = load ptr, ptr %currentnode, align 8
  %_661 = ptrtoint ptr %_660 to i64
  %_664 = icmp eq i64 %_661, 0
  %_665 = and i1 %_664, true
  %_666 = xor i1 %_665, true
  br i1 %_666, label %bb157, label %panic45

panic44:                                          ; preds = %bb156
; call core::panicking::panic_misaligned_pointer_dereference
  call void @_ZN4core9panicking36panic_misaligned_pointer_dereference17hcc3cbded9382b6e5E(i64 8, i64 %_398, ptr align 8 @alloc_da3b8c8ab2547652d161cf70b6376b73) #8
  unreachable

bb157:                                            ; preds = %bb116
  %52 = load ptr, ptr %currentnode, align 8
  %53 = getelementptr inbounds i8, ptr %52, i64 12
  %_86 = load i32, ptr %53, align 4
  call void @move_down(ptr %tmpcube, i32 %_85, i32 %_86) #9
  %_88 = load ptr, ptr %currentnode, align 8
  %_87 = call i32 @inme(ptr %_88, ptr %tmpcube) #9
  %54 = icmp eq i32 %_87, 0
  br i1 %54, label %bb40, label %bb48

panic45:                                          ; preds = %bb116
; call core::panicking::panic_null_pointer_dereference
  call void @_ZN4core9panicking30panic_null_pointer_dereference17hf718fcc86a223baaE(ptr align 8 @alloc_da3b8c8ab2547652d161cf70b6376b73) #8
  unreachable

bb40:                                             ; preds = %bb157
  %_92 = call ptr @malloc(i64 64) #9
  store ptr %_92, ptr %node, align 8
  %_933 = load ptr, ptr %node, align 8
  %_934 = ptrtoint ptr %_933 to i64
  %_935 = icmp eq i64 %_934, 0
  %_936 = and i1 %_935, true
  %_937 = xor i1 %_936, true
  br i1 %_937, label %bb198, label %panic46

bb198:                                            ; preds = %bb40
  %55 = load ptr, ptr %node, align 8
  %_101 = getelementptr inbounds i8, ptr %55, i64 16
  call void @cube_copy(ptr %tmpcube, ptr %_101) #9
  %_391 = load ptr, ptr %currentnode, align 8
  %_392 = ptrtoint ptr %_391 to i64
  %_395 = and i64 %_392, 7
  %_396 = icmp eq i64 %_395, 0
  br i1 %_396, label %bb115, label %panic47

panic46:                                          ; preds = %bb40
; call core::panicking::panic_null_pointer_dereference
  call void @_ZN4core9panicking30panic_null_pointer_dereference17hf718fcc86a223baaE(ptr align 8 @alloc_e8ade50a4bdb4727a9de5b1e3d952c2a) #8
  unreachable

bb115:                                            ; preds = %bb198
  %_667 = load ptr, ptr %currentnode, align 8
  %_668 = ptrtoint ptr %_667 to i64
  %_671 = icmp eq i64 %_668, 0
  %_672 = and i1 %_671, true
  %_673 = xor i1 %_672, true
  br i1 %_673, label %bb158, label %panic48

panic47:                                          ; preds = %bb198
; call core::panicking::panic_misaligned_pointer_dereference
  call void @_ZN4core9panicking36panic_misaligned_pointer_dereference17hcc3cbded9382b6e5E(i64 8, i64 %_392, ptr align 8 @alloc_a9bd8b4046dd281b106b62c85449feee) #8
  unreachable

bb158:                                            ; preds = %bb115
  %56 = load ptr, ptr %currentnode, align 8
  %57 = getelementptr inbounds i8, ptr %56, i64 8
  %_102 = load i32, ptr %57, align 8
  %_385 = load ptr, ptr %node, align 8
  %_386 = ptrtoint ptr %_385 to i64
  %_389 = and i64 %_386, 7
  %_390 = icmp eq i64 %_389, 0
  br i1 %_390, label %bb114, label %panic49

panic48:                                          ; preds = %bb115
; call core::panicking::panic_null_pointer_dereference
  call void @_ZN4core9panicking30panic_null_pointer_dereference17hf718fcc86a223baaE(ptr align 8 @alloc_a9bd8b4046dd281b106b62c85449feee) #8
  unreachable

bb114:                                            ; preds = %bb158
  %_674 = load ptr, ptr %node, align 8
  %_675 = ptrtoint ptr %_674 to i64
  %_678 = icmp eq i64 %_675, 0
  %_679 = and i1 %_678, true
  %_680 = xor i1 %_679, true
  br i1 %_680, label %bb159, label %panic50

panic49:                                          ; preds = %bb158
; call core::panicking::panic_misaligned_pointer_dereference
  call void @_ZN4core9panicking36panic_misaligned_pointer_dereference17hcc3cbded9382b6e5E(i64 8, i64 %_386, ptr align 8 @alloc_53b68ee39c9dffe22c76ece80b84da84) #8
  unreachable

bb159:                                            ; preds = %bb114
  %58 = load ptr, ptr %node, align 8
  %59 = getelementptr inbounds i8, ptr %58, i64 8
  %60 = add i32 %_102, 1
  store i32 %60, ptr %59, align 8
  %_379 = load ptr, ptr %currentnode, align 8
  %_380 = ptrtoint ptr %_379 to i64
  %_383 = and i64 %_380, 7
  %_384 = icmp eq i64 %_383, 0
  br i1 %_384, label %bb113, label %panic51

panic50:                                          ; preds = %bb114
; call core::panicking::panic_null_pointer_dereference
  call void @_ZN4core9panicking30panic_null_pointer_dereference17hf718fcc86a223baaE(ptr align 8 @alloc_53b68ee39c9dffe22c76ece80b84da84) #8
  unreachable

bb113:                                            ; preds = %bb159
  %_681 = load ptr, ptr %currentnode, align 8
  %_682 = ptrtoint ptr %_681 to i64
  %_685 = icmp eq i64 %_682, 0
  %_686 = and i1 %_685, true
  %_687 = xor i1 %_686, true
  br i1 %_687, label %bb160, label %panic52

panic51:                                          ; preds = %bb159
; call core::panicking::panic_misaligned_pointer_dereference
  call void @_ZN4core9panicking36panic_misaligned_pointer_dereference17hcc3cbded9382b6e5E(i64 8, i64 %_380, ptr align 8 @alloc_de9bdec6c12283c6ba3ba93992d0d85e) #8
  unreachable

bb160:                                            ; preds = %bb113
  %61 = load ptr, ptr %currentnode, align 8
  %62 = getelementptr inbounds i8, ptr %61, i64 12
  %_103 = load i32, ptr %62, align 4
  %_373 = load ptr, ptr %node, align 8
  %_374 = ptrtoint ptr %_373 to i64
  %_377 = and i64 %_374, 7
  %_378 = icmp eq i64 %_377, 0
  br i1 %_378, label %bb112, label %panic53

panic52:                                          ; preds = %bb113
; call core::panicking::panic_null_pointer_dereference
  call void @_ZN4core9panicking30panic_null_pointer_dereference17hf718fcc86a223baaE(ptr align 8 @alloc_de9bdec6c12283c6ba3ba93992d0d85e) #8
  unreachable

bb112:                                            ; preds = %bb160
  %_688 = load ptr, ptr %node, align 8
  %_689 = ptrtoint ptr %_688 to i64
  %_692 = icmp eq i64 %_689, 0
  %_693 = and i1 %_692, true
  %_694 = xor i1 %_693, true
  br i1 %_694, label %bb161, label %panic54

panic53:                                          ; preds = %bb160
; call core::panicking::panic_misaligned_pointer_dereference
  call void @_ZN4core9panicking36panic_misaligned_pointer_dereference17hcc3cbded9382b6e5E(i64 8, i64 %_374, ptr align 8 @alloc_cb36a29d0f9d0c296b919a2632546b95) #8
  unreachable

bb161:                                            ; preds = %bb112
  %63 = load ptr, ptr %node, align 8
  %64 = getelementptr inbounds i8, ptr %63, i64 12
  store i32 %_103, ptr %64, align 4
  %_104 = load ptr, ptr %currentnode, align 8
  %_367 = load ptr, ptr %node, align 8
  %_368 = ptrtoint ptr %_367 to i64
  %_371 = and i64 %_368, 7
  %_372 = icmp eq i64 %_371, 0
  br i1 %_372, label %bb111, label %panic55

panic54:                                          ; preds = %bb112
; call core::panicking::panic_null_pointer_dereference
  call void @_ZN4core9panicking30panic_null_pointer_dereference17hf718fcc86a223baaE(ptr align 8 @alloc_cb36a29d0f9d0c296b919a2632546b95) #8
  unreachable

bb111:                                            ; preds = %bb161
  %_695 = load ptr, ptr %node, align 8
  %_696 = ptrtoint ptr %_695 to i64
  %_699 = icmp eq i64 %_696, 0
  %_700 = and i1 %_699, true
  %_701 = xor i1 %_700, true
  br i1 %_701, label %bb162, label %panic56

panic55:                                          ; preds = %bb161
; call core::panicking::panic_misaligned_pointer_dereference
  call void @_ZN4core9panicking36panic_misaligned_pointer_dereference17hcc3cbded9382b6e5E(i64 8, i64 %_368, ptr align 8 @alloc_1a03635bec02b33b0028dc22f86ce1fa) #8
  unreachable

bb162:                                            ; preds = %bb111
  %65 = load ptr, ptr %node, align 8
  %66 = getelementptr inbounds i8, ptr %65, i64 56
  store ptr %_104, ptr %66, align 8
  %_361 = load ptr, ptr %currentnode, align 8
  %_362 = ptrtoint ptr %_361 to i64
  %_365 = and i64 %_362, 7
  %_366 = icmp eq i64 %_365, 0
  br i1 %_366, label %bb110, label %panic57

panic56:                                          ; preds = %bb111
; call core::panicking::panic_null_pointer_dereference
  call void @_ZN4core9panicking30panic_null_pointer_dereference17hf718fcc86a223baaE(ptr align 8 @alloc_1a03635bec02b33b0028dc22f86ce1fa) #8
  unreachable

bb110:                                            ; preds = %bb162
  %_702 = load ptr, ptr %currentnode, align 8
  %_703 = ptrtoint ptr %_702 to i64
  %_706 = icmp eq i64 %_703, 0
  %_707 = and i1 %_706, true
  %_708 = xor i1 %_707, true
  br i1 %_708, label %bb163, label %panic58

panic57:                                          ; preds = %bb162
; call core::panicking::panic_misaligned_pointer_dereference
  call void @_ZN4core9panicking36panic_misaligned_pointer_dereference17hcc3cbded9382b6e5E(i64 8, i64 %_362, ptr align 8 @alloc_d14860202e76186a23431e729bd65b32) #8
  unreachable

bb163:                                            ; preds = %bb110
  %67 = load ptr, ptr %currentnode, align 8
  %_105 = load i32, ptr %67, align 8
  %_355 = load ptr, ptr %node, align 8
  %_356 = ptrtoint ptr %_355 to i64
  %_359 = and i64 %_356, 7
  %_360 = icmp eq i64 %_359, 0
  br i1 %_360, label %bb109, label %panic59

panic58:                                          ; preds = %bb110
; call core::panicking::panic_null_pointer_dereference
  call void @_ZN4core9panicking30panic_null_pointer_dereference17hf718fcc86a223baaE(ptr align 8 @alloc_d14860202e76186a23431e729bd65b32) #8
  unreachable

bb109:                                            ; preds = %bb163
  %_714 = load ptr, ptr %node, align 8
  %_715 = ptrtoint ptr %_714 to i64
  %_718 = icmp eq i64 %_715, 0
  %_719 = and i1 %_718, true
  %_720 = xor i1 %_719, true
  br i1 %_720, label %bb165, label %panic60

panic59:                                          ; preds = %bb163
; call core::panicking::panic_misaligned_pointer_dereference
  call void @_ZN4core9panicking36panic_misaligned_pointer_dereference17hcc3cbded9382b6e5E(i64 8, i64 %_356, ptr align 8 @alloc_ac280b430b4f090ba154940e4ebe9fb8) #8
  unreachable

bb165:                                            ; preds = %bb109
  %68 = load ptr, ptr %node, align 8
  %69 = add i32 %_105, 1
  store i32 %69, ptr %68, align 8
  %_709 = load ptr, ptr %node, align 8
  %_710 = ptrtoint ptr %_709 to i64
  %_711 = icmp eq i64 %_710, 0
  %_712 = and i1 %_711, true
  %_713 = xor i1 %_712, true
  br i1 %_713, label %bb164, label %panic61

panic60:                                          ; preds = %bb109
; call core::panicking::panic_null_pointer_dereference
  call void @_ZN4core9panicking30panic_null_pointer_dereference17hf718fcc86a223baaE(ptr align 8 @alloc_ac280b430b4f090ba154940e4ebe9fb8) #8
  unreachable

bb164:                                            ; preds = %bb165
  %70 = load ptr, ptr %node, align 8
  %_109 = getelementptr inbounds i8, ptr %70, i64 16
  %_106 = call i32 @calc_weight(ptr %target, ptr %_109) #9
  store i32 %_106, ptr %h, align 4
  %_349 = load ptr, ptr %node, align 8
  %_350 = ptrtoint ptr %_349 to i64
  %_353 = and i64 %_350, 7
  %_354 = icmp eq i64 %_353, 0
  br i1 %_354, label %bb108, label %panic62

panic61:                                          ; preds = %bb165
; call core::panicking::panic_null_pointer_dereference
  call void @_ZN4core9panicking30panic_null_pointer_dereference17hf718fcc86a223baaE(ptr align 8 @alloc_c2f9eefd33fca2bbb8b7ce4e2c3dc2ae) #8
  unreachable

bb108:                                            ; preds = %bb164
  %_721 = load ptr, ptr %node, align 8
  %_722 = ptrtoint ptr %_721 to i64
  %_725 = icmp eq i64 %_722, 0
  %_726 = and i1 %_725, true
  %_727 = xor i1 %_726, true
  br i1 %_727, label %bb166, label %panic63

panic62:                                          ; preds = %bb164
; call core::panicking::panic_misaligned_pointer_dereference
  call void @_ZN4core9panicking36panic_misaligned_pointer_dereference17hcc3cbded9382b6e5E(i64 8, i64 %_350, ptr align 8 @alloc_ef2575f5f1898b76d9bc9bf957dc254d) #8
  unreachable

bb166:                                            ; preds = %bb108
  %71 = load ptr, ptr %node, align 8
  %_110 = load i32, ptr %71, align 8
  %_111 = load i32, ptr %h, align 4
  %_343 = load ptr, ptr %node, align 8
  %_344 = ptrtoint ptr %_343 to i64
  %_347 = and i64 %_344, 7
  %_348 = icmp eq i64 %_347, 0
  br i1 %_348, label %bb107, label %panic64

panic63:                                          ; preds = %bb108
; call core::panicking::panic_null_pointer_dereference
  call void @_ZN4core9panicking30panic_null_pointer_dereference17hf718fcc86a223baaE(ptr align 8 @alloc_ef2575f5f1898b76d9bc9bf957dc254d) #8
  unreachable

bb107:                                            ; preds = %bb166
  %_728 = load ptr, ptr %node, align 8
  %_729 = ptrtoint ptr %_728 to i64
  %_732 = icmp eq i64 %_729, 0
  %_733 = and i1 %_732, true
  %_734 = xor i1 %_733, true
  br i1 %_734, label %bb167, label %panic65

panic64:                                          ; preds = %bb166
; call core::panicking::panic_misaligned_pointer_dereference
  call void @_ZN4core9panicking36panic_misaligned_pointer_dereference17hcc3cbded9382b6e5E(i64 8, i64 %_344, ptr align 8 @alloc_b316e50b61750e38288fd40b9fee757b) #8
  unreachable

bb167:                                            ; preds = %bb107
  %72 = load ptr, ptr %node, align 8
  %73 = getelementptr inbounds i8, ptr %72, i64 4
  %74 = add i32 %_110, %_111
  store i32 %74, ptr %73, align 4
  %_113 = load ptr, ptr %node, align 8
  call void @insert_heap(ptr %heap, ptr %_113) #9
  br label %bb48

panic65:                                          ; preds = %bb107
; call core::panicking::panic_null_pointer_dereference
  call void @_ZN4core9panicking30panic_null_pointer_dereference17hf718fcc86a223baaE(ptr align 8 @alloc_b316e50b61750e38288fd40b9fee757b) #8
  unreachable

bb197:                                            ; preds = %bb48
  %75 = load ptr, ptr %currentnode, align 8
  %_117 = getelementptr inbounds i8, ptr %75, i64 16
  call void @cube_copy(ptr %_117, ptr %tmpcube) #9
  %_337 = load ptr, ptr %currentnode, align 8
  %_338 = ptrtoint ptr %_337 to i64
  %_341 = and i64 %_338, 7
  %_342 = icmp eq i64 %_341, 0
  br i1 %_342, label %bb106, label %panic67

panic66:                                          ; preds = %bb48
; call core::panicking::panic_null_pointer_dereference
  call void @_ZN4core9panicking30panic_null_pointer_dereference17hf718fcc86a223baaE(ptr align 8 @alloc_89b2a93ae0de04f5d2ea47ab93d75242) #8
  unreachable

bb106:                                            ; preds = %bb197
  %_735 = load ptr, ptr %currentnode, align 8
  %_736 = ptrtoint ptr %_735 to i64
  %_739 = icmp eq i64 %_736, 0
  %_740 = and i1 %_739, true
  %_741 = xor i1 %_740, true
  br i1 %_741, label %bb168, label %panic68

panic67:                                          ; preds = %bb197
; call core::panicking::panic_misaligned_pointer_dereference
  call void @_ZN4core9panicking36panic_misaligned_pointer_dereference17hcc3cbded9382b6e5E(i64 8, i64 %_338, ptr align 8 @alloc_8f965036c56e2b272a74f3d0f23a6ab6) #8
  unreachable

bb168:                                            ; preds = %bb106
  %76 = load ptr, ptr %currentnode, align 8
  %77 = getelementptr inbounds i8, ptr %76, i64 12
  %_122 = load i32, ptr %77, align 4
  %_121 = icmp sgt i32 %_122, 0
  br i1 %_121, label %bb52, label %bb65

panic68:                                          ; preds = %bb106
; call core::panicking::panic_null_pointer_dereference
  call void @_ZN4core9panicking30panic_null_pointer_dereference17hf718fcc86a223baaE(ptr align 8 @alloc_8f965036c56e2b272a74f3d0f23a6ab6) #8
  unreachable

bb65:                                             ; preds = %bb180, %bb170, %bb168
  %_918 = load ptr, ptr %currentnode, align 8
  %_919 = ptrtoint ptr %_918 to i64
  %_920 = icmp eq i64 %_919, 0
  %_921 = and i1 %_920, true
  %_922 = xor i1 %_921, true
  br i1 %_922, label %bb195, label %panic93

bb52:                                             ; preds = %bb168
  %_331 = load ptr, ptr %currentnode, align 8
  %_332 = ptrtoint ptr %_331 to i64
  %_335 = and i64 %_332, 7
  %_336 = icmp eq i64 %_335, 0
  br i1 %_336, label %bb105, label %panic69

bb105:                                            ; preds = %bb52
  %_742 = load ptr, ptr %currentnode, align 8
  %_743 = ptrtoint ptr %_742 to i64
  %_746 = icmp eq i64 %_743, 0
  %_747 = and i1 %_746, true
  %_748 = xor i1 %_747, true
  br i1 %_748, label %bb169, label %panic70

panic69:                                          ; preds = %bb52
; call core::panicking::panic_misaligned_pointer_dereference
  call void @_ZN4core9panicking36panic_misaligned_pointer_dereference17hcc3cbded9382b6e5E(i64 8, i64 %_332, ptr align 8 @alloc_aaf0f4fe87485ed701428e167a537cab) #8
  unreachable

bb169:                                            ; preds = %bb105
  %78 = load ptr, ptr %currentnode, align 8
  %79 = getelementptr inbounds i8, ptr %78, i64 8
  %_127 = load i32, ptr %79, align 8
  %_325 = load ptr, ptr %currentnode, align 8
  %_326 = ptrtoint ptr %_325 to i64
  %_329 = and i64 %_326, 7
  %_330 = icmp eq i64 %_329, 0
  br i1 %_330, label %bb104, label %panic71

panic70:                                          ; preds = %bb105
; call core::panicking::panic_null_pointer_dereference
  call void @_ZN4core9panicking30panic_null_pointer_dereference17hf718fcc86a223baaE(ptr align 8 @alloc_aaf0f4fe87485ed701428e167a537cab) #8
  unreachable

bb104:                                            ; preds = %bb169
  %_749 = load ptr, ptr %currentnode, align 8
  %_750 = ptrtoint ptr %_749 to i64
  %_753 = icmp eq i64 %_750, 0
  %_754 = and i1 %_753, true
  %_755 = xor i1 %_754, true
  br i1 %_755, label %bb170, label %panic72

panic71:                                          ; preds = %bb169
; call core::panicking::panic_misaligned_pointer_dereference
  call void @_ZN4core9panicking36panic_misaligned_pointer_dereference17hcc3cbded9382b6e5E(i64 8, i64 %_326, ptr align 8 @alloc_1e107e0ab8ed78ce812c49cd12509e0f) #8
  unreachable

bb170:                                            ; preds = %bb104
  %80 = load ptr, ptr %currentnode, align 8
  %81 = getelementptr inbounds i8, ptr %80, i64 12
  %_128 = load i32, ptr %81, align 4
  call void @move_left(ptr %tmpcube, i32 %_127, i32 %_128) #9
  %_130 = load ptr, ptr %currentnode, align 8
  %_129 = call i32 @inme(ptr %_130, ptr %tmpcube) #9
  %82 = icmp eq i32 %_129, 0
  br i1 %82, label %bb57, label %bb65

panic72:                                          ; preds = %bb104
; call core::panicking::panic_null_pointer_dereference
  call void @_ZN4core9panicking30panic_null_pointer_dereference17hf718fcc86a223baaE(ptr align 8 @alloc_1e107e0ab8ed78ce812c49cd12509e0f) #8
  unreachable

bb57:                                             ; preds = %bb170
  %_134 = call ptr @malloc(i64 64) #9
  store ptr %_134, ptr %node, align 8
  %_923 = load ptr, ptr %node, align 8
  %_924 = ptrtoint ptr %_923 to i64
  %_925 = icmp eq i64 %_924, 0
  %_926 = and i1 %_925, true
  %_927 = xor i1 %_926, true
  br i1 %_927, label %bb196, label %panic73

bb196:                                            ; preds = %bb57
  %83 = load ptr, ptr %node, align 8
  %_143 = getelementptr inbounds i8, ptr %83, i64 16
  call void @cube_copy(ptr %tmpcube, ptr %_143) #9
  %_319 = load ptr, ptr %currentnode, align 8
  %_320 = ptrtoint ptr %_319 to i64
  %_323 = and i64 %_320, 7
  %_324 = icmp eq i64 %_323, 0
  br i1 %_324, label %bb103, label %panic74

panic73:                                          ; preds = %bb57
; call core::panicking::panic_null_pointer_dereference
  call void @_ZN4core9panicking30panic_null_pointer_dereference17hf718fcc86a223baaE(ptr align 8 @alloc_b2a2cb37976bf05b3416315dd34d5b20) #8
  unreachable

bb103:                                            ; preds = %bb196
  %_756 = load ptr, ptr %currentnode, align 8
  %_757 = ptrtoint ptr %_756 to i64
  %_760 = icmp eq i64 %_757, 0
  %_761 = and i1 %_760, true
  %_762 = xor i1 %_761, true
  br i1 %_762, label %bb171, label %panic75

panic74:                                          ; preds = %bb196
; call core::panicking::panic_misaligned_pointer_dereference
  call void @_ZN4core9panicking36panic_misaligned_pointer_dereference17hcc3cbded9382b6e5E(i64 8, i64 %_320, ptr align 8 @alloc_75efbc1572328ff9a848159f3849e941) #8
  unreachable

bb171:                                            ; preds = %bb103
  %84 = load ptr, ptr %currentnode, align 8
  %85 = getelementptr inbounds i8, ptr %84, i64 8
  %_144 = load i32, ptr %85, align 8
  %_313 = load ptr, ptr %node, align 8
  %_314 = ptrtoint ptr %_313 to i64
  %_317 = and i64 %_314, 7
  %_318 = icmp eq i64 %_317, 0
  br i1 %_318, label %bb102, label %panic76

panic75:                                          ; preds = %bb103
; call core::panicking::panic_null_pointer_dereference
  call void @_ZN4core9panicking30panic_null_pointer_dereference17hf718fcc86a223baaE(ptr align 8 @alloc_75efbc1572328ff9a848159f3849e941) #8
  unreachable

bb102:                                            ; preds = %bb171
  %_763 = load ptr, ptr %node, align 8
  %_764 = ptrtoint ptr %_763 to i64
  %_767 = icmp eq i64 %_764, 0
  %_768 = and i1 %_767, true
  %_769 = xor i1 %_768, true
  br i1 %_769, label %bb172, label %panic77

panic76:                                          ; preds = %bb171
; call core::panicking::panic_misaligned_pointer_dereference
  call void @_ZN4core9panicking36panic_misaligned_pointer_dereference17hcc3cbded9382b6e5E(i64 8, i64 %_314, ptr align 8 @alloc_5810fe09f2cfadeffec869d61e7e5b15) #8
  unreachable

bb172:                                            ; preds = %bb102
  %86 = load ptr, ptr %node, align 8
  %87 = getelementptr inbounds i8, ptr %86, i64 8
  store i32 %_144, ptr %87, align 8
  %_307 = load ptr, ptr %currentnode, align 8
  %_308 = ptrtoint ptr %_307 to i64
  %_311 = and i64 %_308, 7
  %_312 = icmp eq i64 %_311, 0
  br i1 %_312, label %bb101, label %panic78

panic77:                                          ; preds = %bb102
; call core::panicking::panic_null_pointer_dereference
  call void @_ZN4core9panicking30panic_null_pointer_dereference17hf718fcc86a223baaE(ptr align 8 @alloc_5810fe09f2cfadeffec869d61e7e5b15) #8
  unreachable

bb101:                                            ; preds = %bb172
  %_770 = load ptr, ptr %currentnode, align 8
  %_771 = ptrtoint ptr %_770 to i64
  %_774 = icmp eq i64 %_771, 0
  %_775 = and i1 %_774, true
  %_776 = xor i1 %_775, true
  br i1 %_776, label %bb173, label %panic79

panic78:                                          ; preds = %bb172
; call core::panicking::panic_misaligned_pointer_dereference
  call void @_ZN4core9panicking36panic_misaligned_pointer_dereference17hcc3cbded9382b6e5E(i64 8, i64 %_308, ptr align 8 @alloc_6d5ed2358c35bbc977aad20b13f9b655) #8
  unreachable

bb173:                                            ; preds = %bb101
  %88 = load ptr, ptr %currentnode, align 8
  %89 = getelementptr inbounds i8, ptr %88, i64 12
  %_145 = load i32, ptr %89, align 4
  %_301 = load ptr, ptr %node, align 8
  %_302 = ptrtoint ptr %_301 to i64
  %_305 = and i64 %_302, 7
  %_306 = icmp eq i64 %_305, 0
  br i1 %_306, label %bb100, label %panic80

panic79:                                          ; preds = %bb101
; call core::panicking::panic_null_pointer_dereference
  call void @_ZN4core9panicking30panic_null_pointer_dereference17hf718fcc86a223baaE(ptr align 8 @alloc_6d5ed2358c35bbc977aad20b13f9b655) #8
  unreachable

bb100:                                            ; preds = %bb173
  %_777 = load ptr, ptr %node, align 8
  %_778 = ptrtoint ptr %_777 to i64
  %_781 = icmp eq i64 %_778, 0
  %_782 = and i1 %_781, true
  %_783 = xor i1 %_782, true
  br i1 %_783, label %bb174, label %panic81

panic80:                                          ; preds = %bb173
; call core::panicking::panic_misaligned_pointer_dereference
  call void @_ZN4core9panicking36panic_misaligned_pointer_dereference17hcc3cbded9382b6e5E(i64 8, i64 %_302, ptr align 8 @alloc_867df6ee53509fe1cba8b9b3a0e4736a) #8
  unreachable

bb174:                                            ; preds = %bb100
  %90 = load ptr, ptr %node, align 8
  %91 = getelementptr inbounds i8, ptr %90, i64 12
  %92 = sub i32 %_145, 1
  store i32 %92, ptr %91, align 4
  %_146 = load ptr, ptr %currentnode, align 8
  %_295 = load ptr, ptr %node, align 8
  %_296 = ptrtoint ptr %_295 to i64
  %_299 = and i64 %_296, 7
  %_300 = icmp eq i64 %_299, 0
  br i1 %_300, label %bb99, label %panic82

panic81:                                          ; preds = %bb100
; call core::panicking::panic_null_pointer_dereference
  call void @_ZN4core9panicking30panic_null_pointer_dereference17hf718fcc86a223baaE(ptr align 8 @alloc_867df6ee53509fe1cba8b9b3a0e4736a) #8
  unreachable

bb99:                                             ; preds = %bb174
  %_784 = load ptr, ptr %node, align 8
  %_785 = ptrtoint ptr %_784 to i64
  %_788 = icmp eq i64 %_785, 0
  %_789 = and i1 %_788, true
  %_790 = xor i1 %_789, true
  br i1 %_790, label %bb175, label %panic83

panic82:                                          ; preds = %bb174
; call core::panicking::panic_misaligned_pointer_dereference
  call void @_ZN4core9panicking36panic_misaligned_pointer_dereference17hcc3cbded9382b6e5E(i64 8, i64 %_296, ptr align 8 @alloc_ed272520f11702304b0463de23aeb54c) #8
  unreachable

bb175:                                            ; preds = %bb99
  %93 = load ptr, ptr %node, align 8
  %94 = getelementptr inbounds i8, ptr %93, i64 56
  store ptr %_146, ptr %94, align 8
  %_289 = load ptr, ptr %currentnode, align 8
  %_290 = ptrtoint ptr %_289 to i64
  %_293 = and i64 %_290, 7
  %_294 = icmp eq i64 %_293, 0
  br i1 %_294, label %bb98, label %panic84

panic83:                                          ; preds = %bb99
; call core::panicking::panic_null_pointer_dereference
  call void @_ZN4core9panicking30panic_null_pointer_dereference17hf718fcc86a223baaE(ptr align 8 @alloc_ed272520f11702304b0463de23aeb54c) #8
  unreachable

bb98:                                             ; preds = %bb175
  %_791 = load ptr, ptr %currentnode, align 8
  %_792 = ptrtoint ptr %_791 to i64
  %_795 = icmp eq i64 %_792, 0
  %_796 = and i1 %_795, true
  %_797 = xor i1 %_796, true
  br i1 %_797, label %bb176, label %panic85

panic84:                                          ; preds = %bb175
; call core::panicking::panic_misaligned_pointer_dereference
  call void @_ZN4core9panicking36panic_misaligned_pointer_dereference17hcc3cbded9382b6e5E(i64 8, i64 %_290, ptr align 8 @alloc_09ff84c60fea1bf26b8157b13a99461d) #8
  unreachable

bb176:                                            ; preds = %bb98
  %95 = load ptr, ptr %currentnode, align 8
  %_147 = load i32, ptr %95, align 8
  %_283 = load ptr, ptr %node, align 8
  %_284 = ptrtoint ptr %_283 to i64
  %_287 = and i64 %_284, 7
  %_288 = icmp eq i64 %_287, 0
  br i1 %_288, label %bb97, label %panic86

panic85:                                          ; preds = %bb98
; call core::panicking::panic_null_pointer_dereference
  call void @_ZN4core9panicking30panic_null_pointer_dereference17hf718fcc86a223baaE(ptr align 8 @alloc_09ff84c60fea1bf26b8157b13a99461d) #8
  unreachable

bb97:                                             ; preds = %bb176
  %_803 = load ptr, ptr %node, align 8
  %_804 = ptrtoint ptr %_803 to i64
  %_807 = icmp eq i64 %_804, 0
  %_808 = and i1 %_807, true
  %_809 = xor i1 %_808, true
  br i1 %_809, label %bb178, label %panic87

panic86:                                          ; preds = %bb176
; call core::panicking::panic_misaligned_pointer_dereference
  call void @_ZN4core9panicking36panic_misaligned_pointer_dereference17hcc3cbded9382b6e5E(i64 8, i64 %_284, ptr align 8 @alloc_ffacb930fb85ea7a698d26af7a964d03) #8
  unreachable

bb178:                                            ; preds = %bb97
  %96 = load ptr, ptr %node, align 8
  %97 = add i32 %_147, 1
  store i32 %97, ptr %96, align 8
  %_798 = load ptr, ptr %node, align 8
  %_799 = ptrtoint ptr %_798 to i64
  %_800 = icmp eq i64 %_799, 0
  %_801 = and i1 %_800, true
  %_802 = xor i1 %_801, true
  br i1 %_802, label %bb177, label %panic88

panic87:                                          ; preds = %bb97
; call core::panicking::panic_null_pointer_dereference
  call void @_ZN4core9panicking30panic_null_pointer_dereference17hf718fcc86a223baaE(ptr align 8 @alloc_ffacb930fb85ea7a698d26af7a964d03) #8
  unreachable

bb177:                                            ; preds = %bb178
  %98 = load ptr, ptr %node, align 8
  %_151 = getelementptr inbounds i8, ptr %98, i64 16
  %_148 = call i32 @calc_weight(ptr %target, ptr %_151) #9
  store i32 %_148, ptr %h, align 4
  %_277 = load ptr, ptr %node, align 8
  %_278 = ptrtoint ptr %_277 to i64
  %_281 = and i64 %_278, 7
  %_282 = icmp eq i64 %_281, 0
  br i1 %_282, label %bb96, label %panic89

panic88:                                          ; preds = %bb178
; call core::panicking::panic_null_pointer_dereference
  call void @_ZN4core9panicking30panic_null_pointer_dereference17hf718fcc86a223baaE(ptr align 8 @alloc_40b6b2cc43a91b298932e8e73f72c94f) #8
  unreachable

bb96:                                             ; preds = %bb177
  %_810 = load ptr, ptr %node, align 8
  %_811 = ptrtoint ptr %_810 to i64
  %_814 = icmp eq i64 %_811, 0
  %_815 = and i1 %_814, true
  %_816 = xor i1 %_815, true
  br i1 %_816, label %bb179, label %panic90

panic89:                                          ; preds = %bb177
; call core::panicking::panic_misaligned_pointer_dereference
  call void @_ZN4core9panicking36panic_misaligned_pointer_dereference17hcc3cbded9382b6e5E(i64 8, i64 %_278, ptr align 8 @alloc_6f0e806cb9ae028e0e3365246b5a5642) #8
  unreachable

bb179:                                            ; preds = %bb96
  %99 = load ptr, ptr %node, align 8
  %_152 = load i32, ptr %99, align 8
  %_153 = load i32, ptr %h, align 4
  %_271 = load ptr, ptr %node, align 8
  %_272 = ptrtoint ptr %_271 to i64
  %_275 = and i64 %_272, 7
  %_276 = icmp eq i64 %_275, 0
  br i1 %_276, label %bb95, label %panic91

panic90:                                          ; preds = %bb96
; call core::panicking::panic_null_pointer_dereference
  call void @_ZN4core9panicking30panic_null_pointer_dereference17hf718fcc86a223baaE(ptr align 8 @alloc_6f0e806cb9ae028e0e3365246b5a5642) #8
  unreachable

bb95:                                             ; preds = %bb179
  %_817 = load ptr, ptr %node, align 8
  %_818 = ptrtoint ptr %_817 to i64
  %_821 = icmp eq i64 %_818, 0
  %_822 = and i1 %_821, true
  %_823 = xor i1 %_822, true
  br i1 %_823, label %bb180, label %panic92

panic91:                                          ; preds = %bb179
; call core::panicking::panic_misaligned_pointer_dereference
  call void @_ZN4core9panicking36panic_misaligned_pointer_dereference17hcc3cbded9382b6e5E(i64 8, i64 %_272, ptr align 8 @alloc_66c23c40fdc8d1c574ec739876a2e5dd) #8
  unreachable

bb180:                                            ; preds = %bb95
  %100 = load ptr, ptr %node, align 8
  %101 = getelementptr inbounds i8, ptr %100, i64 4
  %102 = add i32 %_152, %_153
  store i32 %102, ptr %101, align 4
  %_155 = load ptr, ptr %node, align 8
  call void @insert_heap(ptr %heap, ptr %_155) #9
  br label %bb65

panic92:                                          ; preds = %bb95
; call core::panicking::panic_null_pointer_dereference
  call void @_ZN4core9panicking30panic_null_pointer_dereference17hf718fcc86a223baaE(ptr align 8 @alloc_66c23c40fdc8d1c574ec739876a2e5dd) #8
  unreachable

bb195:                                            ; preds = %bb65
  %103 = load ptr, ptr %currentnode, align 8
  %_159 = getelementptr inbounds i8, ptr %103, i64 16
  call void @cube_copy(ptr %_159, ptr %tmpcube) #9
  %_265 = load ptr, ptr %currentnode, align 8
  %_266 = ptrtoint ptr %_265 to i64
  %_269 = and i64 %_266, 7
  %_270 = icmp eq i64 %_269, 0
  br i1 %_270, label %bb94, label %panic94

panic93:                                          ; preds = %bb65
; call core::panicking::panic_null_pointer_dereference
  call void @_ZN4core9panicking30panic_null_pointer_dereference17hf718fcc86a223baaE(ptr align 8 @alloc_d068ce281bee4bbbbd8fd89095c96955) #8
  unreachable

bb94:                                             ; preds = %bb195
  %_824 = load ptr, ptr %currentnode, align 8
  %_825 = ptrtoint ptr %_824 to i64
  %_828 = icmp eq i64 %_825, 0
  %_829 = and i1 %_828, true
  %_830 = xor i1 %_829, true
  br i1 %_830, label %bb181, label %panic95

panic94:                                          ; preds = %bb195
; call core::panicking::panic_misaligned_pointer_dereference
  call void @_ZN4core9panicking36panic_misaligned_pointer_dereference17hcc3cbded9382b6e5E(i64 8, i64 %_266, ptr align 8 @alloc_bb8307c62c12ece5861d4bb4a456072c) #8
  unreachable

bb181:                                            ; preds = %bb94
  %104 = load ptr, ptr %currentnode, align 8
  %105 = getelementptr inbounds i8, ptr %104, i64 12
  %_164 = load i32, ptr %105, align 4
  %_163 = icmp slt i32 %_164, 2
  br i1 %_163, label %bb69, label %bb7

panic95:                                          ; preds = %bb94
; call core::panicking::panic_null_pointer_dereference
  call void @_ZN4core9panicking30panic_null_pointer_dereference17hf718fcc86a223baaE(ptr align 8 @alloc_bb8307c62c12ece5861d4bb4a456072c) #8
  unreachable

bb69:                                             ; preds = %bb181
  %_259 = load ptr, ptr %currentnode, align 8
  %_260 = ptrtoint ptr %_259 to i64
  %_263 = and i64 %_260, 7
  %_264 = icmp eq i64 %_263, 0
  br i1 %_264, label %bb93, label %panic96

bb93:                                             ; preds = %bb69
  %_831 = load ptr, ptr %currentnode, align 8
  %_832 = ptrtoint ptr %_831 to i64
  %_835 = icmp eq i64 %_832, 0
  %_836 = and i1 %_835, true
  %_837 = xor i1 %_836, true
  br i1 %_837, label %bb182, label %panic97

panic96:                                          ; preds = %bb69
; call core::panicking::panic_misaligned_pointer_dereference
  call void @_ZN4core9panicking36panic_misaligned_pointer_dereference17hcc3cbded9382b6e5E(i64 8, i64 %_260, ptr align 8 @alloc_ca59df0e3fc8105aeb7b297920f14020) #8
  unreachable

bb182:                                            ; preds = %bb93
  %106 = load ptr, ptr %currentnode, align 8
  %107 = getelementptr inbounds i8, ptr %106, i64 8
  %_170 = load i32, ptr %107, align 8
  %_253 = load ptr, ptr %currentnode, align 8
  %_254 = ptrtoint ptr %_253 to i64
  %_257 = and i64 %_254, 7
  %_258 = icmp eq i64 %_257, 0
  br i1 %_258, label %bb92, label %panic98

panic97:                                          ; preds = %bb93
; call core::panicking::panic_null_pointer_dereference
  call void @_ZN4core9panicking30panic_null_pointer_dereference17hf718fcc86a223baaE(ptr align 8 @alloc_ca59df0e3fc8105aeb7b297920f14020) #8
  unreachable

bb92:                                             ; preds = %bb182
  %_838 = load ptr, ptr %currentnode, align 8
  %_839 = ptrtoint ptr %_838 to i64
  %_842 = icmp eq i64 %_839, 0
  %_843 = and i1 %_842, true
  %_844 = xor i1 %_843, true
  br i1 %_844, label %bb183, label %panic99

panic98:                                          ; preds = %bb182
; call core::panicking::panic_misaligned_pointer_dereference
  call void @_ZN4core9panicking36panic_misaligned_pointer_dereference17hcc3cbded9382b6e5E(i64 8, i64 %_254, ptr align 8 @alloc_4a6b340eeb54d47e172867d1e04fae25) #8
  unreachable

bb183:                                            ; preds = %bb92
  %108 = load ptr, ptr %currentnode, align 8
  %109 = getelementptr inbounds i8, ptr %108, i64 12
  %_171 = load i32, ptr %109, align 4
  call void @move_right(ptr %tmpcube, i32 %_170, i32 %_171) #9
  %_173 = load ptr, ptr %currentnode, align 8
  %_172 = call i32 @inme(ptr %_173, ptr %tmpcube) #9
  %110 = icmp eq i32 %_172, 0
  br i1 %110, label %bb74, label %bb7

panic99:                                          ; preds = %bb92
; call core::panicking::panic_null_pointer_dereference
  call void @_ZN4core9panicking30panic_null_pointer_dereference17hf718fcc86a223baaE(ptr align 8 @alloc_4a6b340eeb54d47e172867d1e04fae25) #8
  unreachable

bb74:                                             ; preds = %bb183
  %_177 = call ptr @malloc(i64 64) #9
  store ptr %_177, ptr %node, align 8
  %_913 = load ptr, ptr %node, align 8
  %_914 = ptrtoint ptr %_913 to i64
  %_915 = icmp eq i64 %_914, 0
  %_916 = and i1 %_915, true
  %_917 = xor i1 %_916, true
  br i1 %_917, label %bb194, label %panic100

bb194:                                            ; preds = %bb74
  %111 = load ptr, ptr %node, align 8
  %_186 = getelementptr inbounds i8, ptr %111, i64 16
  call void @cube_copy(ptr %tmpcube, ptr %_186) #9
  %_247 = load ptr, ptr %currentnode, align 8
  %_248 = ptrtoint ptr %_247 to i64
  %_251 = and i64 %_248, 7
  %_252 = icmp eq i64 %_251, 0
  br i1 %_252, label %bb91, label %panic101

panic100:                                         ; preds = %bb74
; call core::panicking::panic_null_pointer_dereference
  call void @_ZN4core9panicking30panic_null_pointer_dereference17hf718fcc86a223baaE(ptr align 8 @alloc_856259a2382dabed8beb372205efe3a9) #8
  unreachable

bb91:                                             ; preds = %bb194
  %_845 = load ptr, ptr %currentnode, align 8
  %_846 = ptrtoint ptr %_845 to i64
  %_849 = icmp eq i64 %_846, 0
  %_850 = and i1 %_849, true
  %_851 = xor i1 %_850, true
  br i1 %_851, label %bb184, label %panic102

panic101:                                         ; preds = %bb194
; call core::panicking::panic_misaligned_pointer_dereference
  call void @_ZN4core9panicking36panic_misaligned_pointer_dereference17hcc3cbded9382b6e5E(i64 8, i64 %_248, ptr align 8 @alloc_af2b2bcfcf3c76fcde0c7f61258ec1ad) #8
  unreachable

bb184:                                            ; preds = %bb91
  %112 = load ptr, ptr %currentnode, align 8
  %113 = getelementptr inbounds i8, ptr %112, i64 8
  %_187 = load i32, ptr %113, align 8
  %_241 = load ptr, ptr %node, align 8
  %_242 = ptrtoint ptr %_241 to i64
  %_245 = and i64 %_242, 7
  %_246 = icmp eq i64 %_245, 0
  br i1 %_246, label %bb90, label %panic103

panic102:                                         ; preds = %bb91
; call core::panicking::panic_null_pointer_dereference
  call void @_ZN4core9panicking30panic_null_pointer_dereference17hf718fcc86a223baaE(ptr align 8 @alloc_af2b2bcfcf3c76fcde0c7f61258ec1ad) #8
  unreachable

bb90:                                             ; preds = %bb184
  %_852 = load ptr, ptr %node, align 8
  %_853 = ptrtoint ptr %_852 to i64
  %_856 = icmp eq i64 %_853, 0
  %_857 = and i1 %_856, true
  %_858 = xor i1 %_857, true
  br i1 %_858, label %bb185, label %panic104

panic103:                                         ; preds = %bb184
; call core::panicking::panic_misaligned_pointer_dereference
  call void @_ZN4core9panicking36panic_misaligned_pointer_dereference17hcc3cbded9382b6e5E(i64 8, i64 %_242, ptr align 8 @alloc_c1b3127b4dd133472bddb7b9e745e797) #8
  unreachable

bb185:                                            ; preds = %bb90
  %114 = load ptr, ptr %node, align 8
  %115 = getelementptr inbounds i8, ptr %114, i64 8
  store i32 %_187, ptr %115, align 8
  %_235 = load ptr, ptr %currentnode, align 8
  %_236 = ptrtoint ptr %_235 to i64
  %_239 = and i64 %_236, 7
  %_240 = icmp eq i64 %_239, 0
  br i1 %_240, label %bb89, label %panic105

panic104:                                         ; preds = %bb90
; call core::panicking::panic_null_pointer_dereference
  call void @_ZN4core9panicking30panic_null_pointer_dereference17hf718fcc86a223baaE(ptr align 8 @alloc_c1b3127b4dd133472bddb7b9e745e797) #8
  unreachable

bb89:                                             ; preds = %bb185
  %_859 = load ptr, ptr %currentnode, align 8
  %_860 = ptrtoint ptr %_859 to i64
  %_863 = icmp eq i64 %_860, 0
  %_864 = and i1 %_863, true
  %_865 = xor i1 %_864, true
  br i1 %_865, label %bb186, label %panic106

panic105:                                         ; preds = %bb185
; call core::panicking::panic_misaligned_pointer_dereference
  call void @_ZN4core9panicking36panic_misaligned_pointer_dereference17hcc3cbded9382b6e5E(i64 8, i64 %_236, ptr align 8 @alloc_e4d86ece32818b42aaf6e6e881bcf673) #8
  unreachable

bb186:                                            ; preds = %bb89
  %116 = load ptr, ptr %currentnode, align 8
  %117 = getelementptr inbounds i8, ptr %116, i64 12
  %_188 = load i32, ptr %117, align 4
  %_229 = load ptr, ptr %node, align 8
  %_230 = ptrtoint ptr %_229 to i64
  %_233 = and i64 %_230, 7
  %_234 = icmp eq i64 %_233, 0
  br i1 %_234, label %bb88, label %panic107

panic106:                                         ; preds = %bb89
; call core::panicking::panic_null_pointer_dereference
  call void @_ZN4core9panicking30panic_null_pointer_dereference17hf718fcc86a223baaE(ptr align 8 @alloc_e4d86ece32818b42aaf6e6e881bcf673) #8
  unreachable

bb88:                                             ; preds = %bb186
  %_866 = load ptr, ptr %node, align 8
  %_867 = ptrtoint ptr %_866 to i64
  %_870 = icmp eq i64 %_867, 0
  %_871 = and i1 %_870, true
  %_872 = xor i1 %_871, true
  br i1 %_872, label %bb187, label %panic108

panic107:                                         ; preds = %bb186
; call core::panicking::panic_misaligned_pointer_dereference
  call void @_ZN4core9panicking36panic_misaligned_pointer_dereference17hcc3cbded9382b6e5E(i64 8, i64 %_230, ptr align 8 @alloc_15d72a8261abc88e8293b09d2d3f1ff6) #8
  unreachable

bb187:                                            ; preds = %bb88
  %118 = load ptr, ptr %node, align 8
  %119 = getelementptr inbounds i8, ptr %118, i64 12
  %120 = add i32 %_188, 1
  store i32 %120, ptr %119, align 4
  %_189 = load ptr, ptr %currentnode, align 8
  %_223 = load ptr, ptr %node, align 8
  %_224 = ptrtoint ptr %_223 to i64
  %_227 = and i64 %_224, 7
  %_228 = icmp eq i64 %_227, 0
  br i1 %_228, label %bb87, label %panic109

panic108:                                         ; preds = %bb88
; call core::panicking::panic_null_pointer_dereference
  call void @_ZN4core9panicking30panic_null_pointer_dereference17hf718fcc86a223baaE(ptr align 8 @alloc_15d72a8261abc88e8293b09d2d3f1ff6) #8
  unreachable

bb87:                                             ; preds = %bb187
  %_873 = load ptr, ptr %node, align 8
  %_874 = ptrtoint ptr %_873 to i64
  %_877 = icmp eq i64 %_874, 0
  %_878 = and i1 %_877, true
  %_879 = xor i1 %_878, true
  br i1 %_879, label %bb188, label %panic110

panic109:                                         ; preds = %bb187
; call core::panicking::panic_misaligned_pointer_dereference
  call void @_ZN4core9panicking36panic_misaligned_pointer_dereference17hcc3cbded9382b6e5E(i64 8, i64 %_224, ptr align 8 @alloc_395cd0bd449e75448d47ce986a3a09f2) #8
  unreachable

bb188:                                            ; preds = %bb87
  %121 = load ptr, ptr %node, align 8
  %122 = getelementptr inbounds i8, ptr %121, i64 56
  store ptr %_189, ptr %122, align 8
  %_217 = load ptr, ptr %currentnode, align 8
  %_218 = ptrtoint ptr %_217 to i64
  %_221 = and i64 %_218, 7
  %_222 = icmp eq i64 %_221, 0
  br i1 %_222, label %bb86, label %panic111

panic110:                                         ; preds = %bb87
; call core::panicking::panic_null_pointer_dereference
  call void @_ZN4core9panicking30panic_null_pointer_dereference17hf718fcc86a223baaE(ptr align 8 @alloc_395cd0bd449e75448d47ce986a3a09f2) #8
  unreachable

bb86:                                             ; preds = %bb188
  %_880 = load ptr, ptr %currentnode, align 8
  %_881 = ptrtoint ptr %_880 to i64
  %_884 = icmp eq i64 %_881, 0
  %_885 = and i1 %_884, true
  %_886 = xor i1 %_885, true
  br i1 %_886, label %bb189, label %panic112

panic111:                                         ; preds = %bb188
; call core::panicking::panic_misaligned_pointer_dereference
  call void @_ZN4core9panicking36panic_misaligned_pointer_dereference17hcc3cbded9382b6e5E(i64 8, i64 %_218, ptr align 8 @alloc_719ce17aef7b12c1b32671a773f22f33) #8
  unreachable

bb189:                                            ; preds = %bb86
  %123 = load ptr, ptr %currentnode, align 8
  %_190 = load i32, ptr %123, align 8
  %_211 = load ptr, ptr %node, align 8
  %_212 = ptrtoint ptr %_211 to i64
  %_215 = and i64 %_212, 7
  %_216 = icmp eq i64 %_215, 0
  br i1 %_216, label %bb85, label %panic113

panic112:                                         ; preds = %bb86
; call core::panicking::panic_null_pointer_dereference
  call void @_ZN4core9panicking30panic_null_pointer_dereference17hf718fcc86a223baaE(ptr align 8 @alloc_719ce17aef7b12c1b32671a773f22f33) #8
  unreachable

bb85:                                             ; preds = %bb189
  %_892 = load ptr, ptr %node, align 8
  %_893 = ptrtoint ptr %_892 to i64
  %_896 = icmp eq i64 %_893, 0
  %_897 = and i1 %_896, true
  %_898 = xor i1 %_897, true
  br i1 %_898, label %bb191, label %panic114

panic113:                                         ; preds = %bb189
; call core::panicking::panic_misaligned_pointer_dereference
  call void @_ZN4core9panicking36panic_misaligned_pointer_dereference17hcc3cbded9382b6e5E(i64 8, i64 %_212, ptr align 8 @alloc_263ec2910806d4ec2c280ff7f5e92cca) #8
  unreachable

bb191:                                            ; preds = %bb85
  %124 = load ptr, ptr %node, align 8
  %125 = add i32 %_190, 1
  store i32 %125, ptr %124, align 8
  %_887 = load ptr, ptr %node, align 8
  %_888 = ptrtoint ptr %_887 to i64
  %_889 = icmp eq i64 %_888, 0
  %_890 = and i1 %_889, true
  %_891 = xor i1 %_890, true
  br i1 %_891, label %bb190, label %panic115

panic114:                                         ; preds = %bb85
; call core::panicking::panic_null_pointer_dereference
  call void @_ZN4core9panicking30panic_null_pointer_dereference17hf718fcc86a223baaE(ptr align 8 @alloc_263ec2910806d4ec2c280ff7f5e92cca) #8
  unreachable

bb190:                                            ; preds = %bb191
  %126 = load ptr, ptr %node, align 8
  %_194 = getelementptr inbounds i8, ptr %126, i64 16
  %_191 = call i32 @calc_weight(ptr %target, ptr %_194) #9
  store i32 %_191, ptr %h, align 4
  %_205 = load ptr, ptr %node, align 8
  %_206 = ptrtoint ptr %_205 to i64
  %_209 = and i64 %_206, 7
  %_210 = icmp eq i64 %_209, 0
  br i1 %_210, label %bb84, label %panic116

panic115:                                         ; preds = %bb191
; call core::panicking::panic_null_pointer_dereference
  call void @_ZN4core9panicking30panic_null_pointer_dereference17hf718fcc86a223baaE(ptr align 8 @alloc_49a3179fa04a51bc4dadbae7c7a2d59e) #8
  unreachable

bb84:                                             ; preds = %bb190
  %_899 = load ptr, ptr %node, align 8
  %_900 = ptrtoint ptr %_899 to i64
  %_903 = icmp eq i64 %_900, 0
  %_904 = and i1 %_903, true
  %_905 = xor i1 %_904, true
  br i1 %_905, label %bb192, label %panic117

panic116:                                         ; preds = %bb190
; call core::panicking::panic_misaligned_pointer_dereference
  call void @_ZN4core9panicking36panic_misaligned_pointer_dereference17hcc3cbded9382b6e5E(i64 8, i64 %_206, ptr align 8 @alloc_b5708b452632ff0423885eaf37b4572a) #8
  unreachable

bb192:                                            ; preds = %bb84
  %127 = load ptr, ptr %node, align 8
  %_195 = load i32, ptr %127, align 8
  %_196 = load i32, ptr %h, align 4
  %_199 = load ptr, ptr %node, align 8
  %_200 = ptrtoint ptr %_199 to i64
  %_203 = and i64 %_200, 7
  %_204 = icmp eq i64 %_203, 0
  br i1 %_204, label %bb83, label %panic118

panic117:                                         ; preds = %bb84
; call core::panicking::panic_null_pointer_dereference
  call void @_ZN4core9panicking30panic_null_pointer_dereference17hf718fcc86a223baaE(ptr align 8 @alloc_b5708b452632ff0423885eaf37b4572a) #8
  unreachable

bb83:                                             ; preds = %bb192
  %_906 = load ptr, ptr %node, align 8
  %_907 = ptrtoint ptr %_906 to i64
  %_910 = icmp eq i64 %_907, 0
  %_911 = and i1 %_910, true
  %_912 = xor i1 %_911, true
  br i1 %_912, label %bb193, label %panic119

panic118:                                         ; preds = %bb192
; call core::panicking::panic_misaligned_pointer_dereference
  call void @_ZN4core9panicking36panic_misaligned_pointer_dereference17hcc3cbded9382b6e5E(i64 8, i64 %_200, ptr align 8 @alloc_a0660a4f27d4d93c53c5f51c1452479c) #8
  unreachable

bb193:                                            ; preds = %bb83
  %128 = load ptr, ptr %node, align 8
  %129 = getelementptr inbounds i8, ptr %128, i64 4
  %130 = add i32 %_195, %_196
  store i32 %130, ptr %129, align 4
  %_198 = load ptr, ptr %node, align 8
  call void @insert_heap(ptr %heap, ptr %_198) #9
  br label %bb7

panic119:                                         ; preds = %bb83
; call core::panicking::panic_null_pointer_dereference
  call void @_ZN4core9panicking30panic_null_pointer_dereference17hf718fcc86a223baaE(ptr align 8 @alloc_a0660a4f27d4d93c53c5f51c1452479c) #8
  unreachable
}

; Function Attrs: nocallback nofree nosync nounwind speculatable willreturn memory(none)
declare { i64, i1 } @llvm.smul.with.overflow.i64(i64, i64) #3

; Function Attrs: nocallback nofree nosync nounwind speculatable willreturn memory(none)
declare { i64, i1 } @llvm.uadd.with.overflow.i64(i64, i64) #3

; core::panicking::panic_nounwind
; Function Attrs: cold noinline noreturn nounwind nonlazybind
declare void @_ZN4core9panicking14panic_nounwind17h211d9ce8d63f12e7E(ptr align 1, i64) unnamed_addr #4

; core::panicking::panic_misaligned_pointer_dereference
; Function Attrs: cold minsize noinline noreturn nounwind nonlazybind optsize
declare void @_ZN4core9panicking36panic_misaligned_pointer_dereference17hcc3cbded9382b6e5E(i64, i64, ptr align 8) unnamed_addr #5

; core::panicking::panic_null_pointer_dereference
; Function Attrs: cold minsize noinline noreturn nounwind nonlazybind optsize
declare void @_ZN4core9panicking30panic_null_pointer_dereference17hf718fcc86a223baaE(ptr align 8) unnamed_addr #5

; Function Attrs: nounwind nonlazybind
declare ptr @malloc(i64) unnamed_addr #2

; core::panicking::panic_const::panic_const_div_overflow
; Function Attrs: cold noinline noreturn nounwind nonlazybind
declare void @_ZN4core9panicking11panic_const24panic_const_div_overflow17h1ac73c9e33e18298E(ptr align 8) unnamed_addr #4

; core::panicking::panic_bounds_check
; Function Attrs: cold minsize noinline noreturn nounwind nonlazybind optsize
declare void @_ZN4core9panicking18panic_bounds_check17h27d1e4f0cb1112dfE(i64, i64, ptr align 8) unnamed_addr #5

; Function Attrs: nounwind nonlazybind
declare i32 @printf(ptr, ...) unnamed_addr #2

; Function Attrs: nocallback nofree nounwind willreturn memory(argmem: write)
declare void @llvm.memset.p0.i64(ptr nocapture writeonly, i8, i64, i1 immarg) #6

; Function Attrs: nocallback nofree nounwind willreturn memory(argmem: readwrite)
declare void @llvm.memcpy.p0.p0.i64(ptr noalias nocapture writeonly, ptr noalias nocapture readonly, i64, i1 immarg) #7

attributes #0 = { cold nounwind nonlazybind "probe-stack"="inline-asm" "target-cpu"="x86-64" }
attributes #1 = { inlinehint nounwind nonlazybind "probe-stack"="inline-asm" "target-cpu"="x86-64" }
attributes #2 = { nounwind nonlazybind "probe-stack"="inline-asm" "target-cpu"="x86-64" }
attributes #3 = { nocallback nofree nosync nounwind speculatable willreturn memory(none) }
attributes #4 = { cold noinline noreturn nounwind nonlazybind "probe-stack"="inline-asm" "target-cpu"="x86-64" }
attributes #5 = { cold minsize noinline noreturn nounwind nonlazybind optsize "probe-stack"="inline-asm" "target-cpu"="x86-64" }
attributes #6 = { nocallback nofree nounwind willreturn memory(argmem: write) }
attributes #7 = { nocallback nofree nounwind willreturn memory(argmem: readwrite) }
attributes #8 = { noreturn nounwind }
attributes #9 = { nounwind }

!llvm.module.flags = !{!0, !1}
!llvm.ident = !{!2}

!0 = !{i32 8, !"PIC Level", i32 2}
!1 = !{i32 2, !"RtLibUseGOT", i32 1}
!2 = !{!"rustc version 1.88.0-nightly (0b45675cf 2025-03-31)"}
