; ModuleID = 'chbbk1ijn1zqfyrpv5axerjq8'
source_filename = "chbbk1ijn1zqfyrpv5axerjq8"
target datalayout = "e-m:e-p270:32:32-p271:32:32-p272:64:64-i64:64-i128:128-f80:128-n8:16:32:64-S128"
target triple = "x86_64-unknown-linux-gnu"

@head = global [8 x i8] zeroinitializer, align 8
@tail = global [8 x i8] zeroinitializer, align 8
@alloc_f5ffd2fd1476bab43ad89fb40c72d0c5 = private unnamed_addr constant [10 x i8] c"src/lib.rs", align 1
@alloc_fdd5048d75195a5f8c3f35c7fc1eeaa0 = private unnamed_addr constant <{ ptr, [16 x i8] }> <{ ptr @alloc_f5ffd2fd1476bab43ad89fb40c72d0c5, [16 x i8] c"\0A\00\00\00\00\00\00\00l\00\00\00\05\00\00\00" }>, align 8
@alloc_a4254ae4d91647b86dcdec4349d19c0f = private unnamed_addr constant <{ ptr, [16 x i8] }> <{ ptr @alloc_f5ffd2fd1476bab43ad89fb40c72d0c5, [16 x i8] c"\0A\00\00\00\00\00\00\00m\00\00\00\05\00\00\00" }>, align 8
@alloc_cf3d8a340c15c1327f3709a0c70215f0 = private unnamed_addr constant <{ ptr, [16 x i8] }> <{ ptr @alloc_f5ffd2fd1476bab43ad89fb40c72d0c5, [16 x i8] c"\0A\00\00\00\00\00\00\00n\00\00\00\08\00\00\00" }>, align 8
@alloc_0a87f4bf1de384718424b0ef5e069434 = private unnamed_addr constant <{ ptr, [16 x i8] }> <{ ptr @alloc_f5ffd2fd1476bab43ad89fb40c72d0c5, [16 x i8] c"\0A\00\00\00\00\00\00\00r\00\00\00\1B\00\00\00" }>, align 8
@alloc_992ca00fb69b04b518e4832572a4fd54 = private unnamed_addr constant <{ ptr, [16 x i8] }> <{ ptr @alloc_f5ffd2fd1476bab43ad89fb40c72d0c5, [16 x i8] c"\0A\00\00\00\00\00\00\00r\00\00\00\09\00\00\00" }>, align 8
@alloc_600339098278502175543d2275ed6a1b = private unnamed_addr constant <{ ptr, [16 x i8] }> <{ ptr @alloc_f5ffd2fd1476bab43ad89fb40c72d0c5, [16 x i8] c"\0A\00\00\00\00\00\00\00s\00\00\00\09\00\00\00" }>, align 8
@alloc_82cbe4ffa897c76617bd917e833439a8 = private unnamed_addr constant <{ ptr, [16 x i8] }> <{ ptr @alloc_f5ffd2fd1476bab43ad89fb40c72d0c5, [16 x i8] c"\0A\00\00\00\00\00\00\00t\00\00\00\09\00\00\00" }>, align 8
@alloc_35903e2beae833791f15e8c3785889c6 = private unnamed_addr constant <{ ptr, [16 x i8] }> <{ ptr @alloc_f5ffd2fd1476bab43ad89fb40c72d0c5, [16 x i8] c"\0A\00\00\00\00\00\00\00o\00\00\00\09\00\00\00" }>, align 8
@alloc_f2f081886f331dc949da0f4fbdad1cbe = private unnamed_addr constant <{ ptr, [16 x i8] }> <{ ptr @alloc_f5ffd2fd1476bab43ad89fb40c72d0c5, [16 x i8] c"\0A\00\00\00\00\00\00\00p\00\00\00\09\00\00\00" }>, align 8
@alloc_e775549eefcb2e98916021b762d6b1ad = private unnamed_addr constant <{ ptr, [16 x i8] }> <{ ptr @alloc_f5ffd2fd1476bab43ad89fb40c72d0c5, [16 x i8] c"\0A\00\00\00\00\00\00\00{\00\00\00\05\00\00\00" }>, align 8
@alloc_c4466528589d31085d9a9c779de99164 = private unnamed_addr constant <{ ptr, [16 x i8] }> <{ ptr @alloc_f5ffd2fd1476bab43ad89fb40c72d0c5, [16 x i8] c"\0A\00\00\00\00\00\00\00|\00\00\00\05\00\00\00" }>, align 8
@alloc_2869dcfb657f7f7c3065a0527ec2bd44 = private unnamed_addr constant <{ ptr, [16 x i8] }> <{ ptr @alloc_f5ffd2fd1476bab43ad89fb40c72d0c5, [16 x i8] c"\0A\00\00\00\00\00\00\00}\00\00\00\08\00\00\00" }>, align 8
@alloc_89961032cc8c4a7dcdb0a48b5861b468 = private unnamed_addr constant <{ ptr, [16 x i8] }> <{ ptr @alloc_f5ffd2fd1476bab43ad89fb40c72d0c5, [16 x i8] c"\0A\00\00\00\00\00\00\00\81\00\00\00\09\00\00\00" }>, align 8
@alloc_f669935929866d15c10e39576ef43f76 = private unnamed_addr constant <{ ptr, [16 x i8] }> <{ ptr @alloc_f5ffd2fd1476bab43ad89fb40c72d0c5, [16 x i8] c"\0A\00\00\00\00\00\00\00\82\00\00\00\1B\00\00\00" }>, align 8
@alloc_3aefe61f9c9227222ff0845684ee9c96 = private unnamed_addr constant <{ ptr, [16 x i8] }> <{ ptr @alloc_f5ffd2fd1476bab43ad89fb40c72d0c5, [16 x i8] c"\0A\00\00\00\00\00\00\00\82\00\00\00\09\00\00\00" }>, align 8
@alloc_24b91c732873032889156a0bc504f73e = private unnamed_addr constant <{ ptr, [16 x i8] }> <{ ptr @alloc_f5ffd2fd1476bab43ad89fb40c72d0c5, [16 x i8] c"\0A\00\00\00\00\00\00\00\83\00\00\00\09\00\00\00" }>, align 8
@alloc_a36005e6c8643271d28bd8edf2a6f760 = private unnamed_addr constant <{ ptr, [16 x i8] }> <{ ptr @alloc_f5ffd2fd1476bab43ad89fb40c72d0c5, [16 x i8] c"\0A\00\00\00\00\00\00\00~\00\00\00\09\00\00\00" }>, align 8
@alloc_be7452df8c180fa1736a845b90103292 = private unnamed_addr constant <{ ptr, [16 x i8] }> <{ ptr @alloc_f5ffd2fd1476bab43ad89fb40c72d0c5, [16 x i8] c"\0A\00\00\00\00\00\00\00\7F\00\00\00\09\00\00\00" }>, align 8
@alloc_f4de32214278f280a8627e70b6d48ac2 = private unnamed_addr constant <{ ptr, [16 x i8] }> <{ ptr @alloc_f5ffd2fd1476bab43ad89fb40c72d0c5, [16 x i8] c"\0A\00\00\00\00\00\00\00\8E\00\00\00/\00\00\00" }>, align 8
@alloc_8bf9c5e076def0960519d754484a81c1 = private unnamed_addr constant <{ ptr, [16 x i8] }> <{ ptr @alloc_f5ffd2fd1476bab43ad89fb40c72d0c5, [16 x i8] c"\0A\00\00\00\00\00\00\00\8F\00\00\00&\00\00\00" }>, align 8
@alloc_87e48d846372a3244fb3257e4b87eddc = private unnamed_addr constant <{ ptr, [16 x i8] }> <{ ptr @alloc_f5ffd2fd1476bab43ad89fb40c72d0c5, [16 x i8] c"\0A\00\00\00\00\00\00\00\97\00\00\00\17\00\00\00" }>, align 8
@alloc_2e75590740ca68e479d6c7eacc7b1b28 = private unnamed_addr constant <{ ptr, [16 x i8] }> <{ ptr @alloc_f5ffd2fd1476bab43ad89fb40c72d0c5, [16 x i8] c"\0A\00\00\00\00\00\00\00\98\00\00\00\12\00\00\00" }>, align 8
@alloc_41b72f57f314ce43373d67fe668b790b = private unnamed_addr constant <{ ptr, [16 x i8] }> <{ ptr @alloc_f5ffd2fd1476bab43ad89fb40c72d0c5, [16 x i8] c"\0A\00\00\00\00\00\00\00\98\00\00\00%\00\00\00" }>, align 8
@alloc_3eb77799d9fac7d621d6e99e6f3941a9 = private unnamed_addr constant <{ ptr, [16 x i8] }> <{ ptr @alloc_f5ffd2fd1476bab43ad89fb40c72d0c5, [16 x i8] c"\0A\00\00\00\00\00\00\00\9D\00\00\00\18\00\00\00" }>, align 8
@alloc_b4de1deadbc7394533c305a1e46a67e2 = private unnamed_addr constant <{ ptr, [16 x i8] }> <{ ptr @alloc_f5ffd2fd1476bab43ad89fb40c72d0c5, [16 x i8] c"\0A\00\00\00\00\00\00\00\A3\00\00\00\11\00\00\00" }>, align 8
@alloc_65c030de5a93a5087ce4e26a720a77ea = private unnamed_addr constant <{ ptr, [16 x i8] }> <{ ptr @alloc_f5ffd2fd1476bab43ad89fb40c72d0c5, [16 x i8] c"\0A\00\00\00\00\00\00\00\A4\00\00\00\11\00\00\00" }>, align 8
@alloc_9d47ec4948a652aba595c7719557a627 = private unnamed_addr constant <{ ptr, [16 x i8] }> <{ ptr @alloc_f5ffd2fd1476bab43ad89fb40c72d0c5, [16 x i8] c"\0A\00\00\00\00\00\00\00\A5\00\00\00\11\00\00\00" }>, align 8
@alloc_a5da04c27b3cdb26543d2fd3b65cc73f = private unnamed_addr constant [26 x i8] c"Position does not exist!\0A\00", align 1
@alloc_888677f3128936883f1a9a71a987c9bc = private unnamed_addr constant <{ ptr, [16 x i8] }> <{ ptr @alloc_f5ffd2fd1476bab43ad89fb40c72d0c5, [16 x i8] c"\0A\00\00\00\00\00\00\00\AE\00\00\00\08\00\00\00" }>, align 8
@alloc_c2cb716404541b261e20eef24dd32dfd = private unnamed_addr constant <{ ptr, [16 x i8] }> <{ ptr @alloc_f5ffd2fd1476bab43ad89fb40c72d0c5, [16 x i8] c"\0A\00\00\00\00\00\00\00\B1\00\00\00\1F\00\00\00" }>, align 8
@alloc_b6f982ad78b38a2f04c46df45f8125dd = private unnamed_addr constant <{ ptr, [16 x i8] }> <{ ptr @alloc_f5ffd2fd1476bab43ad89fb40c72d0c5, [16 x i8] c"\0A\00\00\00\00\00\00\00\B2\00\00\00\14\00\00\00" }>, align 8
@alloc_5af7884d1493ee4bd0ceffd5fc929290 = private unnamed_addr constant <{ ptr, [16 x i8] }> <{ ptr @alloc_f5ffd2fd1476bab43ad89fb40c72d0c5, [16 x i8] c"\0A\00\00\00\00\00\00\00\B2\00\00\00\05\00\00\00" }>, align 8
@alloc_46f7de8419e019d32756307d40155515 = private unnamed_addr constant <{ ptr, [16 x i8] }> <{ ptr @alloc_f5ffd2fd1476bab43ad89fb40c72d0c5, [16 x i8] c"\0A\00\00\00\00\00\00\00\B3\00\00\00\0C\00\00\00" }>, align 8
@alloc_71707608417539c29b58e3851d893895 = private unnamed_addr constant <{ ptr, [16 x i8] }> <{ ptr @alloc_f5ffd2fd1476bab43ad89fb40c72d0c5, [16 x i8] c"\0A\00\00\00\00\00\00\00\B3\00\00\00\05\00\00\00" }>, align 8
@alloc_f6af996d9a83641fd0d0d98d50f4356c = private unnamed_addr constant <{ ptr, [16 x i8] }> <{ ptr @alloc_f5ffd2fd1476bab43ad89fb40c72d0c5, [16 x i8] c"\0A\00\00\00\00\00\00\00\B8\00\00\00\08\00\00\00" }>, align 8
@alloc_bb4d1800745d439df6e58829025c9a2e = private unnamed_addr constant <{ ptr, [16 x i8] }> <{ ptr @alloc_f5ffd2fd1476bab43ad89fb40c72d0c5, [16 x i8] c"\0A\00\00\00\00\00\00\00\BB\00\00\00\1F\00\00\00" }>, align 8
@alloc_2177f4b2b0a37757596bccc536a65b98 = private unnamed_addr constant <{ ptr, [16 x i8] }> <{ ptr @alloc_f5ffd2fd1476bab43ad89fb40c72d0c5, [16 x i8] c"\0A\00\00\00\00\00\00\00\BC\00\00\00\22\00\00\00" }>, align 8
@alloc_01296a7ed459c5f99acaaf123b149d00 = private unnamed_addr constant <{ ptr, [16 x i8] }> <{ ptr @alloc_f5ffd2fd1476bab43ad89fb40c72d0c5, [16 x i8] c"\0A\00\00\00\00\00\00\00\BD\00\00\00\0B\00\00\00" }>, align 8
@alloc_df37eadd0d6259c4eeb42c375e7c75df = private unnamed_addr constant <{ ptr, [16 x i8] }> <{ ptr @alloc_f5ffd2fd1476bab43ad89fb40c72d0c5, [16 x i8] c"\0A\00\00\00\00\00\00\00\BD\00\00\00\1E\00\00\00" }>, align 8
@alloc_c26f784f48d319f4a166e1d7878f5f37 = private unnamed_addr constant <{ ptr, [16 x i8] }> <{ ptr @alloc_f5ffd2fd1476bab43ad89fb40c72d0c5, [16 x i8] c"\0A\00\00\00\00\00\00\00\C1\00\00\00\14\00\00\00" }>, align 8
@alloc_147709643234c0e43fb19b8058ab450f = private unnamed_addr constant <{ ptr, [16 x i8] }> <{ ptr @alloc_f5ffd2fd1476bab43ad89fb40c72d0c5, [16 x i8] c"\0A\00\00\00\00\00\00\00\C1\00\00\00\05\00\00\00" }>, align 8
@alloc_c45baa1f3a7c99d88c7d8f140477241e = private unnamed_addr constant <{ ptr, [16 x i8] }> <{ ptr @alloc_f5ffd2fd1476bab43ad89fb40c72d0c5, [16 x i8] c"\0A\00\00\00\00\00\00\00\C2\00\00\00\05\00\00\00" }>, align 8
@alloc_351a7054cc3a93dbd264e5f61d98aa50 = private unnamed_addr constant <{ ptr, [16 x i8] }> <{ ptr @alloc_f5ffd2fd1476bab43ad89fb40c72d0c5, [16 x i8] c"\0A\00\00\00\00\00\00\00\BF\00\00\00\13\00\00\00" }>, align 8
@alloc_2b652db09c65cd625b44a0205462decd = private unnamed_addr constant <{ ptr, [16 x i8] }> <{ ptr @alloc_f5ffd2fd1476bab43ad89fb40c72d0c5, [16 x i8] c"\0A\00\00\00\00\00\00\00\C7\00\00\00\08\00\00\00" }>, align 8
@alloc_2c342fd570c34f6ec173f51d46cc2e5b = private unnamed_addr constant <{ ptr, [16 x i8] }> <{ ptr @alloc_f5ffd2fd1476bab43ad89fb40c72d0c5, [16 x i8] c"\0A\00\00\00\00\00\00\00\CE\00\00\00\22\00\00\00" }>, align 8
@alloc_b2a824b6a269c77db867df2ce450703f = private unnamed_addr constant <{ ptr, [16 x i8] }> <{ ptr @alloc_f5ffd2fd1476bab43ad89fb40c72d0c5, [16 x i8] c"\0A\00\00\00\00\00\00\00\D5\00\00\00\13\00\00\00" }>, align 8
@alloc_d7cedd2d79fb2c6c8046665da82a3e72 = private unnamed_addr constant <{ ptr, [16 x i8] }> <{ ptr @alloc_f5ffd2fd1476bab43ad89fb40c72d0c5, [16 x i8] c"\0A\00\00\00\00\00\00\00\D6\00\00\00\0E\00\00\00" }>, align 8
@alloc_e0cd658be2054677552de0a49060fc0e = private unnamed_addr constant <{ ptr, [16 x i8] }> <{ ptr @alloc_f5ffd2fd1476bab43ad89fb40c72d0c5, [16 x i8] c"\0A\00\00\00\00\00\00\00\D6\00\00\00!\00\00\00" }>, align 8
@alloc_b62b0b346d31c31a080ca9aac96351fb = private unnamed_addr constant [31 x i8] c"Position (%d) does not exist!\0A\00", align 1
@alloc_db4de8e22037f0fa85ce152d82c0543c = private unnamed_addr constant <{ ptr, [16 x i8] }> <{ ptr @alloc_f5ffd2fd1476bab43ad89fb40c72d0c5, [16 x i8] c"\0A\00\00\00\00\00\00\00\DB\00\00\00\17\00\00\00" }>, align 8
@alloc_24b2e59ca87486e48b007855a9eb4957 = private unnamed_addr constant <{ ptr, [16 x i8] }> <{ ptr @alloc_f5ffd2fd1476bab43ad89fb40c72d0c5, [16 x i8] c"\0A\00\00\00\00\00\00\00\DF\00\00\00\18\00\00\00" }>, align 8
@alloc_2b310286d17cc9c6a2b36564dca99de9 = private unnamed_addr constant <{ ptr, [16 x i8] }> <{ ptr @alloc_f5ffd2fd1476bab43ad89fb40c72d0c5, [16 x i8] c"\0A\00\00\00\00\00\00\00\DF\00\00\00\09\00\00\00" }>, align 8
@alloc_2310e43be30c08728d0a8a426341dd22 = private unnamed_addr constant <{ ptr, [16 x i8] }> <{ ptr @alloc_f5ffd2fd1476bab43ad89fb40c72d0c5, [16 x i8] c"\0A\00\00\00\00\00\00\00\EA\00\00\00\08\00\00\00" }>, align 8
@alloc_0f5bd48b5a60887661e66d127777f244 = private unnamed_addr constant <{ ptr, [16 x i8] }> <{ ptr @alloc_f5ffd2fd1476bab43ad89fb40c72d0c5, [16 x i8] c"\0A\00\00\00\00\00\00\00\ED\00\00\00\22\00\00\00" }>, align 8
@alloc_b929c71616281bfd1be2bd4038d3ddf1 = private unnamed_addr constant [4 x i8] c"%d \00", align 1
@alloc_bf48802ef9b8bb6b8466d5ff8bbf9a35 = private unnamed_addr constant <{ ptr, [16 x i8] }> <{ ptr @alloc_f5ffd2fd1476bab43ad89fb40c72d0c5, [16 x i8] c"\0A\00\00\00\00\00\00\00\EF\00\00\00>\00\00\00" }>, align 8
@alloc_26d4d0570ae2fbb0261d7205be095bb8 = private unnamed_addr constant <{ ptr, [16 x i8] }> <{ ptr @alloc_f5ffd2fd1476bab43ad89fb40c72d0c5, [16 x i8] c"\0A\00\00\00\00\00\00\00\F0\00\00\00\13\00\00\00" }>, align 8
@alloc_6ee793a60db8ee42eca86c1a1b5f8787 = private unnamed_addr constant <{ ptr, [16 x i8] }> <{ ptr @alloc_f5ffd2fd1476bab43ad89fb40c72d0c5, [16 x i8] c"\0A\00\00\00\00\00\00\00\F1\00\00\00\19\00\00\00" }>, align 8
@alloc_de0e21f5e8cca6812e598f2feea3cc12 = private unnamed_addr constant [18 x i8] c"\0AList Length: %d\0A\00", align 1
@alloc_f3588b28b94f0809fcc8d717033d3e48 = private unnamed_addr constant [2 x i8] c"\0A\00", align 1
@alloc_c555082cf734a72c46e1119f80f64dbf = private unnamed_addr constant <{ ptr, [16 x i8] }> <{ ptr @alloc_f5ffd2fd1476bab43ad89fb40c72d0c5, [16 x i8] c"\0A\00\00\00\00\00\00\00\FD\00\00\00\08\00\00\00" }>, align 8
@alloc_983a30ee4ad5617938b0658368d97c6d = private unnamed_addr constant <{ ptr, [16 x i8] }> <{ ptr @alloc_f5ffd2fd1476bab43ad89fb40c72d0c5, [16 x i8] c"\0A\00\00\00\00\00\00\00\01\01\00\00\22\00\00\00" }>, align 8
@alloc_7741d1a45546b0df1cded224b4e29e2a = private unnamed_addr constant <{ ptr, [16 x i8] }> <{ ptr @alloc_f5ffd2fd1476bab43ad89fb40c72d0c5, [16 x i8] c"\0A\00\00\00\00\00\00\00\05\01\00\00\13\00\00\00" }>, align 8
@alloc_7ec23c07d6f36341fe57f78244ba9cf5 = private unnamed_addr constant <{ ptr, [16 x i8] }> <{ ptr @alloc_f5ffd2fd1476bab43ad89fb40c72d0c5, [16 x i8] c"\0A\00\00\00\00\00\00\00\06\01\00\00\19\00\00\00" }>, align 8

; core::ptr::mut_ptr::<impl *mut T>::is_null
; Function Attrs: inlinehint nounwind nonlazybind
define internal zeroext i1 @"_ZN4core3ptr7mut_ptr31_$LT$impl$u20$$BP$mut$u20$T$GT$7is_null17h351378d5a4b1ebc0E"(ptr %self) unnamed_addr #0 {
start:
  %_3 = ptrtoint ptr %self to i64
  %_0 = icmp eq i64 %_3, 0
  ret i1 %_0
}

; Function Attrs: nounwind nonlazybind
define void @insert_at_head(i32 %number) unnamed_addr #1 {
start:
  %_3 = call ptr @malloc(i64 16) #3
  %_65 = ptrtoint ptr %_3 to i64
  %_68 = and i64 %_65, 7
  %_69 = icmp eq i64 %_68, 0
  br i1 %_69, label %bb15, label %panic

bb15:                                             ; preds = %start
  %_71 = ptrtoint ptr %_3 to i64
  %_74 = icmp eq i64 %_71, 0
  %_75 = and i1 %_74, true
  %_76 = xor i1 %_75, true
  br i1 %_76, label %bb16, label %panic1

panic:                                            ; preds = %start
; call core::panicking::panic_misaligned_pointer_dereference
  call void @_ZN4core9panicking36panic_misaligned_pointer_dereference17hcc3cbded9382b6e5E(i64 8, i64 %_65, ptr align 8 @alloc_fdd5048d75195a5f8c3f35c7fc1eeaa0) #4
  unreachable

bb16:                                             ; preds = %bb15
  store i32 %number, ptr %_3, align 8
  %_59 = ptrtoint ptr %_3 to i64
  %_62 = and i64 %_59, 7
  %_63 = icmp eq i64 %_62, 0
  br i1 %_63, label %bb14, label %panic2

panic1:                                           ; preds = %bb15
; call core::panicking::panic_null_pointer_dereference
  call void @_ZN4core9panicking30panic_null_pointer_dereference17hf718fcc86a223baaE(ptr align 8 @alloc_fdd5048d75195a5f8c3f35c7fc1eeaa0) #4
  unreachable

bb14:                                             ; preds = %bb16
  %_78 = ptrtoint ptr %_3 to i64
  %_81 = icmp eq i64 %_78, 0
  %_82 = and i1 %_81, true
  %_83 = xor i1 %_82, true
  br i1 %_83, label %bb17, label %panic3

panic2:                                           ; preds = %bb16
; call core::panicking::panic_misaligned_pointer_dereference
  call void @_ZN4core9panicking36panic_misaligned_pointer_dereference17hcc3cbded9382b6e5E(i64 8, i64 %_59, ptr align 8 @alloc_a4254ae4d91647b86dcdec4349d19c0f) #4
  unreachable

bb17:                                             ; preds = %bb14
  %0 = getelementptr inbounds i8, ptr %_3, i64 8
  store ptr %_3, ptr %0, align 8
  %_88 = icmp eq i64 ptrtoint (ptr @head to i64), 0
  %_89 = and i1 %_88, true
  %_90 = xor i1 %_89, true
  br i1 %_90, label %bb18, label %panic4

panic3:                                           ; preds = %bb14
; call core::panicking::panic_null_pointer_dereference
  call void @_ZN4core9panicking30panic_null_pointer_dereference17hf718fcc86a223baaE(ptr align 8 @alloc_a4254ae4d91647b86dcdec4349d19c0f) #4
  unreachable

bb18:                                             ; preds = %bb17
  %_7 = load ptr, ptr @head, align 8
; call core::ptr::mut_ptr::<impl *mut T>::is_null
  %_6 = call zeroext i1 @"_ZN4core3ptr7mut_ptr31_$LT$impl$u20$$BP$mut$u20$T$GT$7is_null17h351378d5a4b1ebc0E"(ptr %_7) #3
  br i1 %_6, label %bb4, label %bb5

panic4:                                           ; preds = %bb17
; call core::panicking::panic_null_pointer_dereference
  call void @_ZN4core9panicking30panic_null_pointer_dereference17hf718fcc86a223baaE(ptr align 8 @alloc_cf3d8a340c15c1327f3709a0c70215f0) #4
  unreachable

bb5:                                              ; preds = %bb18
  %_109 = icmp eq i64 ptrtoint (ptr @head to i64), 0
  %_110 = and i1 %_109, true
  %_111 = xor i1 %_110, true
  br i1 %_111, label %bb21, label %panic5

bb4:                                              ; preds = %bb18
  %_95 = icmp eq i64 ptrtoint (ptr @head to i64), 0
  %_96 = and i1 %_95, true
  %_97 = xor i1 %_96, true
  br i1 %_97, label %bb19, label %panic11

bb21:                                             ; preds = %bb5
  %_11 = load ptr, ptr @head, align 8
  %_29 = ptrtoint ptr %_3 to i64
  %_32 = and i64 %_29, 7
  %_33 = icmp eq i64 %_32, 0
  br i1 %_33, label %bb9, label %panic6

panic5:                                           ; preds = %bb5
; call core::panicking::panic_null_pointer_dereference
  call void @_ZN4core9panicking30panic_null_pointer_dereference17hf718fcc86a223baaE(ptr align 8 @alloc_0a87f4bf1de384718424b0ef5e069434) #4
  unreachable

bb9:                                              ; preds = %bb21
  %_113 = ptrtoint ptr %_3 to i64
  %_116 = icmp eq i64 %_113, 0
  %_117 = and i1 %_116, true
  %_118 = xor i1 %_117, true
  br i1 %_118, label %bb22, label %panic7

panic6:                                           ; preds = %bb21
; call core::panicking::panic_misaligned_pointer_dereference
  call void @_ZN4core9panicking36panic_misaligned_pointer_dereference17hcc3cbded9382b6e5E(i64 8, i64 %_29, ptr align 8 @alloc_992ca00fb69b04b518e4832572a4fd54) #4
  unreachable

bb22:                                             ; preds = %bb9
  %1 = getelementptr inbounds i8, ptr %_3, i64 8
  store ptr %_11, ptr %1, align 8
  %_15 = load ptr, ptr @tail, align 8
  %_23 = ptrtoint ptr %_15 to i64
  %_26 = and i64 %_23, 7
  %_27 = icmp eq i64 %_26, 0
  br i1 %_27, label %bb8, label %panic8

panic7:                                           ; preds = %bb9
; call core::panicking::panic_null_pointer_dereference
  call void @_ZN4core9panicking30panic_null_pointer_dereference17hf718fcc86a223baaE(ptr align 8 @alloc_992ca00fb69b04b518e4832572a4fd54) #4
  unreachable

bb8:                                              ; preds = %bb22
  %_120 = ptrtoint ptr %_15 to i64
  %_123 = icmp eq i64 %_120, 0
  %_124 = and i1 %_123, true
  %_125 = xor i1 %_124, true
  br i1 %_125, label %bb23, label %panic9

panic8:                                           ; preds = %bb22
; call core::panicking::panic_misaligned_pointer_dereference
  call void @_ZN4core9panicking36panic_misaligned_pointer_dereference17hcc3cbded9382b6e5E(i64 8, i64 %_23, ptr align 8 @alloc_600339098278502175543d2275ed6a1b) #4
  unreachable

bb23:                                             ; preds = %bb8
  %2 = getelementptr inbounds i8, ptr %_15, i64 8
  store ptr %_3, ptr %2, align 8
  %_130 = icmp eq i64 ptrtoint (ptr @head to i64), 0
  %_131 = and i1 %_130, true
  %_132 = xor i1 %_131, true
  br i1 %_132, label %bb24, label %panic10

panic9:                                           ; preds = %bb8
; call core::panicking::panic_null_pointer_dereference
  call void @_ZN4core9panicking30panic_null_pointer_dereference17hf718fcc86a223baaE(ptr align 8 @alloc_600339098278502175543d2275ed6a1b) #4
  unreachable

bb24:                                             ; preds = %bb23
  store ptr %_3, ptr @head, align 8
  br label %bb6

panic10:                                          ; preds = %bb23
; call core::panicking::panic_null_pointer_dereference
  call void @_ZN4core9panicking30panic_null_pointer_dereference17hf718fcc86a223baaE(ptr align 8 @alloc_82cbe4ffa897c76617bd917e833439a8) #4
  unreachable

bb6:                                              ; preds = %bb20, %bb24
  ret void

bb19:                                             ; preds = %bb4
  store ptr %_3, ptr @head, align 8
  %_102 = icmp eq i64 ptrtoint (ptr @tail to i64), 0
  %_103 = and i1 %_102, true
  %_104 = xor i1 %_103, true
  br i1 %_104, label %bb20, label %panic12

panic11:                                          ; preds = %bb4
; call core::panicking::panic_null_pointer_dereference
  call void @_ZN4core9panicking30panic_null_pointer_dereference17hf718fcc86a223baaE(ptr align 8 @alloc_35903e2beae833791f15e8c3785889c6) #4
  unreachable

bb20:                                             ; preds = %bb19
  store ptr %_3, ptr @tail, align 8
  br label %bb6

panic12:                                          ; preds = %bb19
; call core::panicking::panic_null_pointer_dereference
  call void @_ZN4core9panicking30panic_null_pointer_dereference17hf718fcc86a223baaE(ptr align 8 @alloc_f2f081886f331dc949da0f4fbdad1cbe) #4
  unreachable
}

; Function Attrs: nounwind nonlazybind
define void @insert_at_tail(i32 %number) unnamed_addr #1 {
start:
  %_3 = call ptr @malloc(i64 16) #3
  %_65 = ptrtoint ptr %_3 to i64
  %_68 = and i64 %_65, 7
  %_69 = icmp eq i64 %_68, 0
  br i1 %_69, label %bb15, label %panic

bb15:                                             ; preds = %start
  %_71 = ptrtoint ptr %_3 to i64
  %_74 = icmp eq i64 %_71, 0
  %_75 = and i1 %_74, true
  %_76 = xor i1 %_75, true
  br i1 %_76, label %bb16, label %panic1

panic:                                            ; preds = %start
; call core::panicking::panic_misaligned_pointer_dereference
  call void @_ZN4core9panicking36panic_misaligned_pointer_dereference17hcc3cbded9382b6e5E(i64 8, i64 %_65, ptr align 8 @alloc_e775549eefcb2e98916021b762d6b1ad) #4
  unreachable

bb16:                                             ; preds = %bb15
  store i32 %number, ptr %_3, align 8
  %_59 = ptrtoint ptr %_3 to i64
  %_62 = and i64 %_59, 7
  %_63 = icmp eq i64 %_62, 0
  br i1 %_63, label %bb14, label %panic2

panic1:                                           ; preds = %bb15
; call core::panicking::panic_null_pointer_dereference
  call void @_ZN4core9panicking30panic_null_pointer_dereference17hf718fcc86a223baaE(ptr align 8 @alloc_e775549eefcb2e98916021b762d6b1ad) #4
  unreachable

bb14:                                             ; preds = %bb16
  %_78 = ptrtoint ptr %_3 to i64
  %_81 = icmp eq i64 %_78, 0
  %_82 = and i1 %_81, true
  %_83 = xor i1 %_82, true
  br i1 %_83, label %bb17, label %panic3

panic2:                                           ; preds = %bb16
; call core::panicking::panic_misaligned_pointer_dereference
  call void @_ZN4core9panicking36panic_misaligned_pointer_dereference17hcc3cbded9382b6e5E(i64 8, i64 %_59, ptr align 8 @alloc_c4466528589d31085d9a9c779de99164) #4
  unreachable

bb17:                                             ; preds = %bb14
  %0 = getelementptr inbounds i8, ptr %_3, i64 8
  store ptr %_3, ptr %0, align 8
  %_88 = icmp eq i64 ptrtoint (ptr @head to i64), 0
  %_89 = and i1 %_88, true
  %_90 = xor i1 %_89, true
  br i1 %_90, label %bb18, label %panic4

panic3:                                           ; preds = %bb14
; call core::panicking::panic_null_pointer_dereference
  call void @_ZN4core9panicking30panic_null_pointer_dereference17hf718fcc86a223baaE(ptr align 8 @alloc_c4466528589d31085d9a9c779de99164) #4
  unreachable

bb18:                                             ; preds = %bb17
  %_7 = load ptr, ptr @head, align 8
; call core::ptr::mut_ptr::<impl *mut T>::is_null
  %_6 = call zeroext i1 @"_ZN4core3ptr7mut_ptr31_$LT$impl$u20$$BP$mut$u20$T$GT$7is_null17h351378d5a4b1ebc0E"(ptr %_7) #3
  br i1 %_6, label %bb4, label %bb5

panic4:                                           ; preds = %bb17
; call core::panicking::panic_null_pointer_dereference
  call void @_ZN4core9panicking30panic_null_pointer_dereference17hf718fcc86a223baaE(ptr align 8 @alloc_2869dcfb657f7f7c3065a0527ec2bd44) #4
  unreachable

bb5:                                              ; preds = %bb18
  %_15 = load ptr, ptr @tail, align 8
  %_35 = ptrtoint ptr %_15 to i64
  %_38 = and i64 %_35, 7
  %_39 = icmp eq i64 %_38, 0
  br i1 %_39, label %bb10, label %panic5

bb4:                                              ; preds = %bb18
  %_95 = icmp eq i64 ptrtoint (ptr @head to i64), 0
  %_96 = and i1 %_95, true
  %_97 = xor i1 %_96, true
  br i1 %_97, label %bb19, label %panic11

bb10:                                             ; preds = %bb5
  %_106 = ptrtoint ptr %_15 to i64
  %_109 = icmp eq i64 %_106, 0
  %_110 = and i1 %_109, true
  %_111 = xor i1 %_110, true
  br i1 %_111, label %bb21, label %panic6

panic5:                                           ; preds = %bb5
; call core::panicking::panic_misaligned_pointer_dereference
  call void @_ZN4core9panicking36panic_misaligned_pointer_dereference17hcc3cbded9382b6e5E(i64 8, i64 %_35, ptr align 8 @alloc_89961032cc8c4a7dcdb0a48b5861b468) #4
  unreachable

bb21:                                             ; preds = %bb10
  %1 = getelementptr inbounds i8, ptr %_15, i64 8
  store ptr %_3, ptr %1, align 8
  %_116 = icmp eq i64 ptrtoint (ptr @head to i64), 0
  %_117 = and i1 %_116, true
  %_118 = xor i1 %_117, true
  br i1 %_118, label %bb22, label %panic7

panic6:                                           ; preds = %bb10
; call core::panicking::panic_null_pointer_dereference
  call void @_ZN4core9panicking30panic_null_pointer_dereference17hf718fcc86a223baaE(ptr align 8 @alloc_89961032cc8c4a7dcdb0a48b5861b468) #4
  unreachable

bb22:                                             ; preds = %bb21
  %_12 = load ptr, ptr @head, align 8
  %_23 = ptrtoint ptr %_3 to i64
  %_26 = and i64 %_23, 7
  %_27 = icmp eq i64 %_26, 0
  br i1 %_27, label %bb8, label %panic8

panic7:                                           ; preds = %bb21
; call core::panicking::panic_null_pointer_dereference
  call void @_ZN4core9panicking30panic_null_pointer_dereference17hf718fcc86a223baaE(ptr align 8 @alloc_f669935929866d15c10e39576ef43f76) #4
  unreachable

bb8:                                              ; preds = %bb22
  %_120 = ptrtoint ptr %_3 to i64
  %_123 = icmp eq i64 %_120, 0
  %_124 = and i1 %_123, true
  %_125 = xor i1 %_124, true
  br i1 %_125, label %bb23, label %panic9

panic8:                                           ; preds = %bb22
; call core::panicking::panic_misaligned_pointer_dereference
  call void @_ZN4core9panicking36panic_misaligned_pointer_dereference17hcc3cbded9382b6e5E(i64 8, i64 %_23, ptr align 8 @alloc_3aefe61f9c9227222ff0845684ee9c96) #4
  unreachable

bb23:                                             ; preds = %bb8
  %2 = getelementptr inbounds i8, ptr %_3, i64 8
  store ptr %_12, ptr %2, align 8
  %_130 = icmp eq i64 ptrtoint (ptr @tail to i64), 0
  %_131 = and i1 %_130, true
  %_132 = xor i1 %_131, true
  br i1 %_132, label %bb24, label %panic10

panic9:                                           ; preds = %bb8
; call core::panicking::panic_null_pointer_dereference
  call void @_ZN4core9panicking30panic_null_pointer_dereference17hf718fcc86a223baaE(ptr align 8 @alloc_3aefe61f9c9227222ff0845684ee9c96) #4
  unreachable

bb24:                                             ; preds = %bb23
  store ptr %_3, ptr @tail, align 8
  br label %bb6

panic10:                                          ; preds = %bb23
; call core::panicking::panic_null_pointer_dereference
  call void @_ZN4core9panicking30panic_null_pointer_dereference17hf718fcc86a223baaE(ptr align 8 @alloc_24b91c732873032889156a0bc504f73e) #4
  unreachable

bb6:                                              ; preds = %bb20, %bb24
  ret void

bb19:                                             ; preds = %bb4
  store ptr %_3, ptr @head, align 8
  %_102 = icmp eq i64 ptrtoint (ptr @tail to i64), 0
  %_103 = and i1 %_102, true
  %_104 = xor i1 %_103, true
  br i1 %_104, label %bb20, label %panic12

panic11:                                          ; preds = %bb4
; call core::panicking::panic_null_pointer_dereference
  call void @_ZN4core9panicking30panic_null_pointer_dereference17hf718fcc86a223baaE(ptr align 8 @alloc_a36005e6c8643271d28bd8edf2a6f760) #4
  unreachable

bb20:                                             ; preds = %bb19
  store ptr %_3, ptr @tail, align 8
  br label %bb6

panic12:                                          ; preds = %bb19
; call core::panicking::panic_null_pointer_dereference
  call void @_ZN4core9panicking30panic_null_pointer_dereference17hf718fcc86a223baaE(ptr align 8 @alloc_be7452df8c180fa1736a845b90103292) #4
  unreachable
}

; Function Attrs: nounwind nonlazybind
define void @insert_at_middle(i32 %number, i32 %position) unnamed_addr #1 {
start:
  %count = alloca [4 x i8], align 4
  %temp = alloca [8 x i8], align 8
  %current = alloca [8 x i8], align 8
  %0 = icmp eq i32 %position, 1
  br i1 %0, label %bb1, label %bb2

bb1:                                              ; preds = %start
  call void @insert_at_head(i32 %number) #3
  br label %bb17

bb2:                                              ; preds = %start
  %_4 = icmp sgt i32 %position, 1
  br i1 %_4, label %bb3, label %bb16

bb17:                                             ; preds = %bb16, %bb12, %bb35, %bb1
  ret void

bb16:                                             ; preds = %bb10, %bb27, %bb2
  %_37 = call i32 (ptr, ...) @printf(ptr @alloc_a5da04c27b3cdb26543d2fd3b65cc73f) #3
  br label %bb17

bb3:                                              ; preds = %bb2
  %_100 = icmp eq i64 ptrtoint (ptr @head to i64), 0
  %_101 = and i1 %_100, true
  %_102 = xor i1 %_101, true
  br i1 %_102, label %bb27, label %panic

bb27:                                             ; preds = %bb3
  %_6 = load ptr, ptr @head, align 8
; call core::ptr::mut_ptr::<impl *mut T>::is_null
  %_5 = call zeroext i1 @"_ZN4core3ptr7mut_ptr31_$LT$impl$u20$$BP$mut$u20$T$GT$7is_null17h351378d5a4b1ebc0E"(ptr %_6) #3
  br i1 %_5, label %bb16, label %bb5

panic:                                            ; preds = %bb3
; call core::panicking::panic_null_pointer_dereference
  call void @_ZN4core9panicking30panic_null_pointer_dereference17hf718fcc86a223baaE(ptr align 8 @alloc_f4de32214278f280a8627e70b6d48ac2) #4
  unreachable

bb5:                                              ; preds = %bb27
  %_107 = icmp eq i64 ptrtoint (ptr @head to i64), 0
  %_108 = and i1 %_107, true
  %_109 = xor i1 %_108, true
  br i1 %_109, label %bb28, label %panic1

bb28:                                             ; preds = %bb5
  %1 = load ptr, ptr @head, align 8
  store ptr %1, ptr %current, align 8
  %_11 = call ptr @malloc(i64 16) #3
  store ptr %_11, ptr %temp, align 8
  store i32 0, ptr %count, align 4
  br label %bb8

panic1:                                           ; preds = %bb5
; call core::panicking::panic_null_pointer_dereference
  call void @_ZN4core9panicking30panic_null_pointer_dereference17hf718fcc86a223baaE(ptr align 8 @alloc_8bf9c5e076def0960519d754484a81c1) #4
  unreachable

bb8:                                              ; preds = %bb9, %bb28
  %2 = load i32, ptr %count, align 4
  %3 = add i32 %2, 1
  store i32 %3, ptr %count, align 4
  %_15 = load ptr, ptr %current, align 8
  store ptr %_15, ptr %temp, align 8
  %_78 = load ptr, ptr %current, align 8
  %_79 = ptrtoint ptr %_78 to i64
  %_82 = and i64 %_79, 7
  %_83 = icmp eq i64 %_82, 0
  br i1 %_83, label %bb24, label %panic2

bb24:                                             ; preds = %bb8
  %_110 = load ptr, ptr %current, align 8
  %_111 = ptrtoint ptr %_110 to i64
  %_114 = icmp eq i64 %_111, 0
  %_115 = and i1 %_114, true
  %_116 = xor i1 %_115, true
  br i1 %_116, label %bb29, label %panic3

panic2:                                           ; preds = %bb8
; call core::panicking::panic_misaligned_pointer_dereference
  call void @_ZN4core9panicking36panic_misaligned_pointer_dereference17hcc3cbded9382b6e5E(i64 8, i64 %_79, ptr align 8 @alloc_87e48d846372a3244fb3257e4b87eddc) #4
  unreachable

bb29:                                             ; preds = %bb24
  %4 = load ptr, ptr %current, align 8
  %5 = getelementptr inbounds i8, ptr %4, i64 8
  %_16 = load ptr, ptr %5, align 8
  store ptr %_16, ptr %current, align 8
  %_72 = load ptr, ptr %current, align 8
  %_73 = ptrtoint ptr %_72 to i64
  %_76 = and i64 %_73, 7
  %_77 = icmp eq i64 %_76, 0
  br i1 %_77, label %bb23, label %panic4

panic3:                                           ; preds = %bb24
; call core::panicking::panic_null_pointer_dereference
  call void @_ZN4core9panicking30panic_null_pointer_dereference17hf718fcc86a223baaE(ptr align 8 @alloc_87e48d846372a3244fb3257e4b87eddc) #4
  unreachable

bb23:                                             ; preds = %bb29
  %_117 = load ptr, ptr %current, align 8
  %_118 = ptrtoint ptr %_117 to i64
  %_121 = icmp eq i64 %_118, 0
  %_122 = and i1 %_121, true
  %_123 = xor i1 %_122, true
  br i1 %_123, label %bb30, label %panic5

panic4:                                           ; preds = %bb29
; call core::panicking::panic_misaligned_pointer_dereference
  call void @_ZN4core9panicking36panic_misaligned_pointer_dereference17hcc3cbded9382b6e5E(i64 8, i64 %_73, ptr align 8 @alloc_2e75590740ca68e479d6c7eacc7b1b28) #4
  unreachable

bb30:                                             ; preds = %bb23
  %6 = load ptr, ptr %current, align 8
  %7 = getelementptr inbounds i8, ptr %6, i64 8
  %_18 = load ptr, ptr %7, align 8
  %_128 = icmp eq i64 ptrtoint (ptr @head to i64), 0
  %_129 = and i1 %_128, true
  %_130 = xor i1 %_129, true
  br i1 %_130, label %bb31, label %panic6

panic5:                                           ; preds = %bb23
; call core::panicking::panic_null_pointer_dereference
  call void @_ZN4core9panicking30panic_null_pointer_dereference17hf718fcc86a223baaE(ptr align 8 @alloc_2e75590740ca68e479d6c7eacc7b1b28) #4
  unreachable

bb31:                                             ; preds = %bb30
  %_19 = load ptr, ptr @head, align 8
  %_17 = icmp ne ptr %_18, %_19
  br i1 %_17, label %bb9, label %bb10

panic6:                                           ; preds = %bb30
; call core::panicking::panic_null_pointer_dereference
  call void @_ZN4core9panicking30panic_null_pointer_dereference17hf718fcc86a223baaE(ptr align 8 @alloc_41b72f57f314ce43373d67fe668b790b) #4
  unreachable

bb10:                                             ; preds = %bb9, %bb31
  %_25 = load i32, ptr %count, align 4
  %_26 = sub i32 %position, 1
  %_24 = icmp eq i32 %_25, %_26
  br i1 %_24, label %bb11, label %bb16

bb9:                                              ; preds = %bb31
  %_22 = load i32, ptr %count, align 4
  %_23 = sub i32 %position, 1
  %_21 = icmp slt i32 %_22, %_23
  br i1 %_21, label %bb8, label %bb10

bb11:                                             ; preds = %bb10
  %_28 = load ptr, ptr %temp, align 8
  %_135 = icmp eq i64 ptrtoint (ptr @tail to i64), 0
  %_136 = and i1 %_135, true
  %_137 = xor i1 %_136, true
  br i1 %_137, label %bb32, label %panic7

bb32:                                             ; preds = %bb11
  %_29 = load ptr, ptr @tail, align 8
  %_27 = icmp eq ptr %_28, %_29
  br i1 %_27, label %bb12, label %bb13

panic7:                                           ; preds = %bb11
; call core::panicking::panic_null_pointer_dereference
  call void @_ZN4core9panicking30panic_null_pointer_dereference17hf718fcc86a223baaE(ptr align 8 @alloc_3eb77799d9fac7d621d6e99e6f3941a9) #4
  unreachable

bb13:                                             ; preds = %bb32
  %_33 = call ptr @malloc(i64 16) #3
  %_55 = ptrtoint ptr %_33 to i64
  %_58 = and i64 %_55, 7
  %_59 = icmp eq i64 %_58, 0
  br i1 %_59, label %bb20, label %panic8

bb12:                                             ; preds = %bb32
  call void @insert_at_tail(i32 %number) #3
  br label %bb17

bb20:                                             ; preds = %bb13
  %_139 = ptrtoint ptr %_33 to i64
  %_142 = icmp eq i64 %_139, 0
  %_143 = and i1 %_142, true
  %_144 = xor i1 %_143, true
  br i1 %_144, label %bb33, label %panic9

panic8:                                           ; preds = %bb13
; call core::panicking::panic_misaligned_pointer_dereference
  call void @_ZN4core9panicking36panic_misaligned_pointer_dereference17hcc3cbded9382b6e5E(i64 8, i64 %_55, ptr align 8 @alloc_b4de1deadbc7394533c305a1e46a67e2) #4
  unreachable

bb33:                                             ; preds = %bb20
  store i32 %number, ptr %_33, align 8
  %_48 = load ptr, ptr %temp, align 8
  %_49 = ptrtoint ptr %_48 to i64
  %_52 = and i64 %_49, 7
  %_53 = icmp eq i64 %_52, 0
  br i1 %_53, label %bb19, label %panic10

panic9:                                           ; preds = %bb20
; call core::panicking::panic_null_pointer_dereference
  call void @_ZN4core9panicking30panic_null_pointer_dereference17hf718fcc86a223baaE(ptr align 8 @alloc_b4de1deadbc7394533c305a1e46a67e2) #4
  unreachable

bb19:                                             ; preds = %bb33
  %_145 = load ptr, ptr %temp, align 8
  %_146 = ptrtoint ptr %_145 to i64
  %_149 = icmp eq i64 %_146, 0
  %_150 = and i1 %_149, true
  %_151 = xor i1 %_150, true
  br i1 %_151, label %bb34, label %panic11

panic10:                                          ; preds = %bb33
; call core::panicking::panic_misaligned_pointer_dereference
  call void @_ZN4core9panicking36panic_misaligned_pointer_dereference17hcc3cbded9382b6e5E(i64 8, i64 %_49, ptr align 8 @alloc_65c030de5a93a5087ce4e26a720a77ea) #4
  unreachable

bb34:                                             ; preds = %bb19
  %8 = load ptr, ptr %temp, align 8
  %9 = getelementptr inbounds i8, ptr %8, i64 8
  store ptr %_33, ptr %9, align 8
  %_36 = load ptr, ptr %current, align 8
  %_43 = ptrtoint ptr %_33 to i64
  %_46 = and i64 %_43, 7
  %_47 = icmp eq i64 %_46, 0
  br i1 %_47, label %bb18, label %panic12

panic11:                                          ; preds = %bb19
; call core::panicking::panic_null_pointer_dereference
  call void @_ZN4core9panicking30panic_null_pointer_dereference17hf718fcc86a223baaE(ptr align 8 @alloc_65c030de5a93a5087ce4e26a720a77ea) #4
  unreachable

bb18:                                             ; preds = %bb34
  %_153 = ptrtoint ptr %_33 to i64
  %_156 = icmp eq i64 %_153, 0
  %_157 = and i1 %_156, true
  %_158 = xor i1 %_157, true
  br i1 %_158, label %bb35, label %panic13

panic12:                                          ; preds = %bb34
; call core::panicking::panic_misaligned_pointer_dereference
  call void @_ZN4core9panicking36panic_misaligned_pointer_dereference17hcc3cbded9382b6e5E(i64 8, i64 %_43, ptr align 8 @alloc_9d47ec4948a652aba595c7719557a627) #4
  unreachable

bb35:                                             ; preds = %bb18
  %10 = getelementptr inbounds i8, ptr %_33, i64 8
  store ptr %_36, ptr %10, align 8
  br label %bb17

panic13:                                          ; preds = %bb18
; call core::panicking::panic_null_pointer_dereference
  call void @_ZN4core9panicking30panic_null_pointer_dereference17hf718fcc86a223baaE(ptr align 8 @alloc_9d47ec4948a652aba595c7719557a627) #4
  unreachable
}

; Function Attrs: nounwind nonlazybind
define void @delete_head() unnamed_addr #1 {
start:
  %_57 = icmp eq i64 ptrtoint (ptr @head to i64), 0
  %_58 = and i1 %_57, true
  %_59 = xor i1 %_58, true
  br i1 %_59, label %bb10, label %panic

bb10:                                             ; preds = %start
  %_2 = load ptr, ptr @head, align 8
; call core::ptr::mut_ptr::<impl *mut T>::is_null
  %_1 = call zeroext i1 @"_ZN4core3ptr7mut_ptr31_$LT$impl$u20$$BP$mut$u20$T$GT$7is_null17h351378d5a4b1ebc0E"(ptr %_2) #3
  br i1 %_1, label %bb3, label %bb2

panic:                                            ; preds = %start
; call core::panicking::panic_null_pointer_dereference
  call void @_ZN4core9panicking30panic_null_pointer_dereference17hf718fcc86a223baaE(ptr align 8 @alloc_888677f3128936883f1a9a71a987c9bc) #4
  unreachable

bb2:                                              ; preds = %bb10
  %_64 = icmp eq i64 ptrtoint (ptr @head to i64), 0
  %_65 = and i1 %_64, true
  %_66 = xor i1 %_65, true
  br i1 %_66, label %bb11, label %panic1

bb3:                                              ; preds = %bb15, %bb10
  ret void

bb11:                                             ; preds = %bb2
  %temp = load ptr, ptr @head, align 8
  %_14 = load ptr, ptr @head, align 8
  %_36 = ptrtoint ptr %_14 to i64
  %_39 = and i64 %_36, 7
  %_40 = icmp eq i64 %_39, 0
  br i1 %_40, label %bb7, label %panic2

panic1:                                           ; preds = %bb2
; call core::panicking::panic_null_pointer_dereference
  call void @_ZN4core9panicking30panic_null_pointer_dereference17hf718fcc86a223baaE(ptr align 8 @alloc_c2cb716404541b261e20eef24dd32dfd) #4
  unreachable

bb7:                                              ; preds = %bb11
  %_68 = ptrtoint ptr %_14 to i64
  %_71 = icmp eq i64 %_68, 0
  %_72 = and i1 %_71, true
  %_73 = xor i1 %_72, true
  br i1 %_73, label %bb12, label %panic3

panic2:                                           ; preds = %bb11
; call core::panicking::panic_misaligned_pointer_dereference
  call void @_ZN4core9panicking36panic_misaligned_pointer_dereference17hcc3cbded9382b6e5E(i64 8, i64 %_36, ptr align 8 @alloc_b6f982ad78b38a2f04c46df45f8125dd) #4
  unreachable

bb12:                                             ; preds = %bb7
  %0 = getelementptr inbounds i8, ptr %_14, i64 8
  %_6 = load ptr, ptr %0, align 8
  %_15 = load ptr, ptr @tail, align 8
  %_30 = ptrtoint ptr %_15 to i64
  %_33 = and i64 %_30, 7
  %_34 = icmp eq i64 %_33, 0
  br i1 %_34, label %bb6, label %panic4

panic3:                                           ; preds = %bb7
; call core::panicking::panic_null_pointer_dereference
  call void @_ZN4core9panicking30panic_null_pointer_dereference17hf718fcc86a223baaE(ptr align 8 @alloc_b6f982ad78b38a2f04c46df45f8125dd) #4
  unreachable

bb6:                                              ; preds = %bb12
  %_75 = ptrtoint ptr %_15 to i64
  %_78 = icmp eq i64 %_75, 0
  %_79 = and i1 %_78, true
  %_80 = xor i1 %_79, true
  br i1 %_80, label %bb13, label %panic5

panic4:                                           ; preds = %bb12
; call core::panicking::panic_misaligned_pointer_dereference
  call void @_ZN4core9panicking36panic_misaligned_pointer_dereference17hcc3cbded9382b6e5E(i64 8, i64 %_30, ptr align 8 @alloc_5af7884d1493ee4bd0ceffd5fc929290) #4
  unreachable

bb13:                                             ; preds = %bb6
  %1 = getelementptr inbounds i8, ptr %_15, i64 8
  store ptr %_6, ptr %1, align 8
  %_16 = load ptr, ptr @head, align 8
  %_24 = ptrtoint ptr %_16 to i64
  %_27 = and i64 %_24, 7
  %_28 = icmp eq i64 %_27, 0
  br i1 %_28, label %bb5, label %panic6

panic5:                                           ; preds = %bb6
; call core::panicking::panic_null_pointer_dereference
  call void @_ZN4core9panicking30panic_null_pointer_dereference17hf718fcc86a223baaE(ptr align 8 @alloc_5af7884d1493ee4bd0ceffd5fc929290) #4
  unreachable

bb5:                                              ; preds = %bb13
  %_82 = ptrtoint ptr %_16 to i64
  %_85 = icmp eq i64 %_82, 0
  %_86 = and i1 %_85, true
  %_87 = xor i1 %_86, true
  br i1 %_87, label %bb14, label %panic7

panic6:                                           ; preds = %bb13
; call core::panicking::panic_misaligned_pointer_dereference
  call void @_ZN4core9panicking36panic_misaligned_pointer_dereference17hcc3cbded9382b6e5E(i64 8, i64 %_24, ptr align 8 @alloc_46f7de8419e019d32756307d40155515) #4
  unreachable

bb14:                                             ; preds = %bb5
  %2 = getelementptr inbounds i8, ptr %_16, i64 8
  %_9 = load ptr, ptr %2, align 8
  %_92 = icmp eq i64 ptrtoint (ptr @head to i64), 0
  %_93 = and i1 %_92, true
  %_94 = xor i1 %_93, true
  br i1 %_94, label %bb15, label %panic8

panic7:                                           ; preds = %bb5
; call core::panicking::panic_null_pointer_dereference
  call void @_ZN4core9panicking30panic_null_pointer_dereference17hf718fcc86a223baaE(ptr align 8 @alloc_46f7de8419e019d32756307d40155515) #4
  unreachable

bb15:                                             ; preds = %bb14
  store ptr %_9, ptr @head, align 8
  call void @free(ptr %temp) #3
  br label %bb3

panic8:                                           ; preds = %bb14
; call core::panicking::panic_null_pointer_dereference
  call void @_ZN4core9panicking30panic_null_pointer_dereference17hf718fcc86a223baaE(ptr align 8 @alloc_71707608417539c29b58e3851d893895) #4
  unreachable
}

; Function Attrs: nounwind nonlazybind
define void @delete_tail() unnamed_addr #1 {
start:
  %current = alloca [8 x i8], align 8
  %temp = alloca [8 x i8], align 8
  %_79 = icmp eq i64 ptrtoint (ptr @head to i64), 0
  %_80 = and i1 %_79, true
  %_81 = xor i1 %_80, true
  br i1 %_81, label %bb16, label %panic

bb16:                                             ; preds = %start
  %_2 = load ptr, ptr @head, align 8
; call core::ptr::mut_ptr::<impl *mut T>::is_null
  %_1 = call zeroext i1 @"_ZN4core3ptr7mut_ptr31_$LT$impl$u20$$BP$mut$u20$T$GT$7is_null17h351378d5a4b1ebc0E"(ptr %_2) #3
  br i1 %_1, label %bb6, label %bb2

panic:                                            ; preds = %start
; call core::panicking::panic_null_pointer_dereference
  call void @_ZN4core9panicking30panic_null_pointer_dereference17hf718fcc86a223baaE(ptr align 8 @alloc_f6af996d9a83641fd0d0d98d50f4356c) #4
  unreachable

bb2:                                              ; preds = %bb16
  %_86 = icmp eq i64 ptrtoint (ptr @head to i64), 0
  %_87 = and i1 %_86, true
  %_88 = xor i1 %_87, true
  br i1 %_88, label %bb17, label %panic1

bb6:                                              ; preds = %bb24, %bb16
  ret void

bb17:                                             ; preds = %bb2
  %0 = load ptr, ptr @head, align 8
  store ptr %0, ptr %temp, align 8
  %_93 = icmp eq i64 ptrtoint (ptr @head to i64), 0
  %_94 = and i1 %_93, true
  %_95 = xor i1 %_94, true
  br i1 %_95, label %bb18, label %panic2

panic1:                                           ; preds = %bb2
; call core::panicking::panic_null_pointer_dereference
  call void @_ZN4core9panicking30panic_null_pointer_dereference17hf718fcc86a223baaE(ptr align 8 @alloc_bb4d1800745d439df6e58829025c9a2e) #4
  unreachable

bb18:                                             ; preds = %bb17
  %1 = load ptr, ptr @head, align 8
  store ptr %1, ptr %current, align 8
  br label %bb3

panic2:                                           ; preds = %bb17
; call core::panicking::panic_null_pointer_dereference
  call void @_ZN4core9panicking30panic_null_pointer_dereference17hf718fcc86a223baaE(ptr align 8 @alloc_2177f4b2b0a37757596bccc536a65b98) #4
  unreachable

bb3:                                              ; preds = %bb21, %bb18
  %_51 = load ptr, ptr %current, align 8
  %_52 = ptrtoint ptr %_51 to i64
  %_55 = and i64 %_52, 7
  %_56 = icmp eq i64 %_55, 0
  br i1 %_56, label %bb12, label %panic3

bb12:                                             ; preds = %bb3
  %_96 = load ptr, ptr %current, align 8
  %_97 = ptrtoint ptr %_96 to i64
  %_100 = icmp eq i64 %_97, 0
  %_101 = and i1 %_100, true
  %_102 = xor i1 %_101, true
  br i1 %_102, label %bb19, label %panic4

panic3:                                           ; preds = %bb3
; call core::panicking::panic_misaligned_pointer_dereference
  call void @_ZN4core9panicking36panic_misaligned_pointer_dereference17hcc3cbded9382b6e5E(i64 8, i64 %_52, ptr align 8 @alloc_01296a7ed459c5f99acaaf123b149d00) #4
  unreachable

bb19:                                             ; preds = %bb12
  %2 = load ptr, ptr %current, align 8
  %3 = getelementptr inbounds i8, ptr %2, i64 8
  %_9 = load ptr, ptr %3, align 8
  %_107 = icmp eq i64 ptrtoint (ptr @head to i64), 0
  %_108 = and i1 %_107, true
  %_109 = xor i1 %_108, true
  br i1 %_109, label %bb20, label %panic5

panic4:                                           ; preds = %bb12
; call core::panicking::panic_null_pointer_dereference
  call void @_ZN4core9panicking30panic_null_pointer_dereference17hf718fcc86a223baaE(ptr align 8 @alloc_01296a7ed459c5f99acaaf123b149d00) #4
  unreachable

bb20:                                             ; preds = %bb19
  %_10 = load ptr, ptr @head, align 8
  %_8 = icmp ne ptr %_9, %_10
  br i1 %_8, label %bb4, label %bb5

panic5:                                           ; preds = %bb19
; call core::panicking::panic_null_pointer_dereference
  call void @_ZN4core9panicking30panic_null_pointer_dereference17hf718fcc86a223baaE(ptr align 8 @alloc_df37eadd0d6259c4eeb42c375e7c75df) #4
  unreachable

bb5:                                              ; preds = %bb20
  %_121 = icmp eq i64 ptrtoint (ptr @head to i64), 0
  %_122 = and i1 %_121, true
  %_123 = xor i1 %_122, true
  br i1 %_123, label %bb22, label %panic6

bb4:                                              ; preds = %bb20
  %_12 = load ptr, ptr %current, align 8
  store ptr %_12, ptr %temp, align 8
  %_39 = load ptr, ptr %current, align 8
  %_40 = ptrtoint ptr %_39 to i64
  %_43 = and i64 %_40, 7
  %_44 = icmp eq i64 %_43, 0
  br i1 %_44, label %bb10, label %panic10

bb22:                                             ; preds = %bb5
  %_14 = load ptr, ptr @head, align 8
  %_27 = load ptr, ptr %temp, align 8
  %_28 = ptrtoint ptr %_27 to i64
  %_31 = and i64 %_28, 7
  %_32 = icmp eq i64 %_31, 0
  br i1 %_32, label %bb8, label %panic7

panic6:                                           ; preds = %bb5
; call core::panicking::panic_null_pointer_dereference
  call void @_ZN4core9panicking30panic_null_pointer_dereference17hf718fcc86a223baaE(ptr align 8 @alloc_c26f784f48d319f4a166e1d7878f5f37) #4
  unreachable

bb8:                                              ; preds = %bb22
  %_124 = load ptr, ptr %temp, align 8
  %_125 = ptrtoint ptr %_124 to i64
  %_128 = icmp eq i64 %_125, 0
  %_129 = and i1 %_128, true
  %_130 = xor i1 %_129, true
  br i1 %_130, label %bb23, label %panic8

panic7:                                           ; preds = %bb22
; call core::panicking::panic_misaligned_pointer_dereference
  call void @_ZN4core9panicking36panic_misaligned_pointer_dereference17hcc3cbded9382b6e5E(i64 8, i64 %_28, ptr align 8 @alloc_147709643234c0e43fb19b8058ab450f) #4
  unreachable

bb23:                                             ; preds = %bb8
  %4 = load ptr, ptr %temp, align 8
  %5 = getelementptr inbounds i8, ptr %4, i64 8
  store ptr %_14, ptr %5, align 8
  %_16 = load ptr, ptr %temp, align 8
  %_135 = icmp eq i64 ptrtoint (ptr @tail to i64), 0
  %_136 = and i1 %_135, true
  %_137 = xor i1 %_136, true
  br i1 %_137, label %bb24, label %panic9

panic8:                                           ; preds = %bb8
; call core::panicking::panic_null_pointer_dereference
  call void @_ZN4core9panicking30panic_null_pointer_dereference17hf718fcc86a223baaE(ptr align 8 @alloc_147709643234c0e43fb19b8058ab450f) #4
  unreachable

bb24:                                             ; preds = %bb23
  store ptr %_16, ptr @tail, align 8
  %_20 = load ptr, ptr %current, align 8
  call void @free(ptr %_20) #3
  br label %bb6

panic9:                                           ; preds = %bb23
; call core::panicking::panic_null_pointer_dereference
  call void @_ZN4core9panicking30panic_null_pointer_dereference17hf718fcc86a223baaE(ptr align 8 @alloc_c45baa1f3a7c99d88c7d8f140477241e) #4
  unreachable

bb10:                                             ; preds = %bb4
  %_110 = load ptr, ptr %current, align 8
  %_111 = ptrtoint ptr %_110 to i64
  %_114 = icmp eq i64 %_111, 0
  %_115 = and i1 %_114, true
  %_116 = xor i1 %_115, true
  br i1 %_116, label %bb21, label %panic11

panic10:                                          ; preds = %bb4
; call core::panicking::panic_misaligned_pointer_dereference
  call void @_ZN4core9panicking36panic_misaligned_pointer_dereference17hcc3cbded9382b6e5E(i64 8, i64 %_40, ptr align 8 @alloc_351a7054cc3a93dbd264e5f61d98aa50) #4
  unreachable

bb21:                                             ; preds = %bb10
  %6 = load ptr, ptr %current, align 8
  %7 = getelementptr inbounds i8, ptr %6, i64 8
  %_13 = load ptr, ptr %7, align 8
  store ptr %_13, ptr %current, align 8
  br label %bb3

panic11:                                          ; preds = %bb10
; call core::panicking::panic_null_pointer_dereference
  call void @_ZN4core9panicking30panic_null_pointer_dereference17hf718fcc86a223baaE(ptr align 8 @alloc_351a7054cc3a93dbd264e5f61d98aa50) #4
  unreachable
}

; Function Attrs: nounwind nonlazybind
define void @delete_middle(i32 %position) unnamed_addr #1 {
start:
  %count = alloca [4 x i8], align 4
  %temp = alloca [8 x i8], align 8
  %current = alloca [8 x i8], align 8
  %_88 = icmp eq i64 ptrtoint (ptr @head to i64), 0
  %_89 = and i1 %_88, true
  %_90 = xor i1 %_89, true
  br i1 %_90, label %bb21, label %panic

bb21:                                             ; preds = %start
  %_3 = load ptr, ptr @head, align 8
; call core::ptr::mut_ptr::<impl *mut T>::is_null
  %_2 = call zeroext i1 @"_ZN4core3ptr7mut_ptr31_$LT$impl$u20$$BP$mut$u20$T$GT$7is_null17h351378d5a4b1ebc0E"(ptr %_3) #3
  br i1 %_2, label %bb12, label %bb2

panic:                                            ; preds = %start
; call core::panicking::panic_null_pointer_dereference
  call void @_ZN4core9panicking30panic_null_pointer_dereference17hf718fcc86a223baaE(ptr align 8 @alloc_2b652db09c65cd625b44a0205462decd) #4
  unreachable

bb2:                                              ; preds = %bb21
  %0 = icmp eq i32 %position, 1
  br i1 %0, label %bb3, label %bb4

bb12:                                             ; preds = %bb10, %bb28, %bb9, %bb3, %bb21
  ret void

bb3:                                              ; preds = %bb2
  call void @delete_head() #3
  br label %bb12

bb4:                                              ; preds = %bb2
  %_95 = icmp eq i64 ptrtoint (ptr @head to i64), 0
  %_96 = and i1 %_95, true
  %_97 = xor i1 %_96, true
  br i1 %_97, label %bb22, label %panic1

bb22:                                             ; preds = %bb4
  %1 = load ptr, ptr @head, align 8
  store ptr %1, ptr %current, align 8
  store ptr null, ptr %temp, align 8
  store i32 0, ptr %count, align 4
  br label %bb5

panic1:                                           ; preds = %bb4
; call core::panicking::panic_null_pointer_dereference
  call void @_ZN4core9panicking30panic_null_pointer_dereference17hf718fcc86a223baaE(ptr align 8 @alloc_2c342fd570c34f6ec173f51d46cc2e5b) #4
  unreachable

bb5:                                              ; preds = %bb6, %bb22
  %2 = load i32, ptr %count, align 4
  %3 = add i32 %2, 1
  store i32 %3, ptr %count, align 4
  %_10 = load ptr, ptr %current, align 8
  store ptr %_10, ptr %temp, align 8
  %_66 = load ptr, ptr %current, align 8
  %_67 = ptrtoint ptr %_66 to i64
  %_70 = and i64 %_67, 7
  %_71 = icmp eq i64 %_70, 0
  br i1 %_71, label %bb18, label %panic2

bb18:                                             ; preds = %bb5
  %_98 = load ptr, ptr %current, align 8
  %_99 = ptrtoint ptr %_98 to i64
  %_102 = icmp eq i64 %_99, 0
  %_103 = and i1 %_102, true
  %_104 = xor i1 %_103, true
  br i1 %_104, label %bb23, label %panic3

panic2:                                           ; preds = %bb5
; call core::panicking::panic_misaligned_pointer_dereference
  call void @_ZN4core9panicking36panic_misaligned_pointer_dereference17hcc3cbded9382b6e5E(i64 8, i64 %_67, ptr align 8 @alloc_b2a824b6a269c77db867df2ce450703f) #4
  unreachable

bb23:                                             ; preds = %bb18
  %4 = load ptr, ptr %current, align 8
  %5 = getelementptr inbounds i8, ptr %4, i64 8
  %_11 = load ptr, ptr %5, align 8
  store ptr %_11, ptr %current, align 8
  %_60 = load ptr, ptr %current, align 8
  %_61 = ptrtoint ptr %_60 to i64
  %_64 = and i64 %_61, 7
  %_65 = icmp eq i64 %_64, 0
  br i1 %_65, label %bb17, label %panic4

panic3:                                           ; preds = %bb18
; call core::panicking::panic_null_pointer_dereference
  call void @_ZN4core9panicking30panic_null_pointer_dereference17hf718fcc86a223baaE(ptr align 8 @alloc_b2a824b6a269c77db867df2ce450703f) #4
  unreachable

bb17:                                             ; preds = %bb23
  %_105 = load ptr, ptr %current, align 8
  %_106 = ptrtoint ptr %_105 to i64
  %_109 = icmp eq i64 %_106, 0
  %_110 = and i1 %_109, true
  %_111 = xor i1 %_110, true
  br i1 %_111, label %bb24, label %panic5

panic4:                                           ; preds = %bb23
; call core::panicking::panic_misaligned_pointer_dereference
  call void @_ZN4core9panicking36panic_misaligned_pointer_dereference17hcc3cbded9382b6e5E(i64 8, i64 %_61, ptr align 8 @alloc_d7cedd2d79fb2c6c8046665da82a3e72) #4
  unreachable

bb24:                                             ; preds = %bb17
  %6 = load ptr, ptr %current, align 8
  %7 = getelementptr inbounds i8, ptr %6, i64 8
  %_13 = load ptr, ptr %7, align 8
  %_116 = icmp eq i64 ptrtoint (ptr @head to i64), 0
  %_117 = and i1 %_116, true
  %_118 = xor i1 %_117, true
  br i1 %_118, label %bb25, label %panic6

panic5:                                           ; preds = %bb17
; call core::panicking::panic_null_pointer_dereference
  call void @_ZN4core9panicking30panic_null_pointer_dereference17hf718fcc86a223baaE(ptr align 8 @alloc_d7cedd2d79fb2c6c8046665da82a3e72) #4
  unreachable

bb25:                                             ; preds = %bb24
  %_14 = load ptr, ptr @head, align 8
  %_12 = icmp ne ptr %_13, %_14
  br i1 %_12, label %bb6, label %bb7

panic6:                                           ; preds = %bb24
; call core::panicking::panic_null_pointer_dereference
  call void @_ZN4core9panicking30panic_null_pointer_dereference17hf718fcc86a223baaE(ptr align 8 @alloc_e0cd658be2054677552de0a49060fc0e) #4
  unreachable

bb7:                                              ; preds = %bb6, %bb25
  %_20 = load i32, ptr %count, align 4
  %_21 = sub i32 %position, 1
  %_19 = icmp eq i32 %_20, %_21
  br i1 %_19, label %bb8, label %bb9

bb6:                                              ; preds = %bb25
  %_17 = load i32, ptr %count, align 4
  %_18 = sub i32 %position, 1
  %_16 = icmp slt i32 %_17, %_18
  br i1 %_16, label %bb5, label %bb7

bb9:                                              ; preds = %bb7
  %_31 = call i32 (ptr, ...) @printf(ptr @alloc_b62b0b346d31c31a080ca9aac96351fb, i32 %position) #3
  br label %bb12

bb8:                                              ; preds = %bb7
  %_23 = load ptr, ptr %current, align 8
  %_123 = icmp eq i64 ptrtoint (ptr @tail to i64), 0
  %_124 = and i1 %_123, true
  %_125 = xor i1 %_124, true
  br i1 %_125, label %bb26, label %panic7

bb26:                                             ; preds = %bb8
  %_24 = load ptr, ptr @tail, align 8
  %_22 = icmp eq ptr %_23, %_24
  br i1 %_22, label %bb10, label %bb11

panic7:                                           ; preds = %bb8
; call core::panicking::panic_null_pointer_dereference
  call void @_ZN4core9panicking30panic_null_pointer_dereference17hf718fcc86a223baaE(ptr align 8 @alloc_db4de8e22037f0fa85ce152d82c0543c) #4
  unreachable

bb11:                                             ; preds = %bb26
  %_42 = load ptr, ptr %current, align 8
  %_43 = ptrtoint ptr %_42 to i64
  %_46 = and i64 %_43, 7
  %_47 = icmp eq i64 %_46, 0
  br i1 %_47, label %bb14, label %panic8

bb10:                                             ; preds = %bb26
  call void @delete_tail() #3
  br label %bb12

bb14:                                             ; preds = %bb11
  %_126 = load ptr, ptr %current, align 8
  %_127 = ptrtoint ptr %_126 to i64
  %_130 = icmp eq i64 %_127, 0
  %_131 = and i1 %_130, true
  %_132 = xor i1 %_131, true
  br i1 %_132, label %bb27, label %panic9

panic8:                                           ; preds = %bb11
; call core::panicking::panic_misaligned_pointer_dereference
  call void @_ZN4core9panicking36panic_misaligned_pointer_dereference17hcc3cbded9382b6e5E(i64 8, i64 %_43, ptr align 8 @alloc_24b2e59ca87486e48b007855a9eb4957) #4
  unreachable

bb27:                                             ; preds = %bb14
  %8 = load ptr, ptr %current, align 8
  %9 = getelementptr inbounds i8, ptr %8, i64 8
  %_27 = load ptr, ptr %9, align 8
  %_36 = load ptr, ptr %temp, align 8
  %_37 = ptrtoint ptr %_36 to i64
  %_40 = and i64 %_37, 7
  %_41 = icmp eq i64 %_40, 0
  br i1 %_41, label %bb13, label %panic10

panic9:                                           ; preds = %bb14
; call core::panicking::panic_null_pointer_dereference
  call void @_ZN4core9panicking30panic_null_pointer_dereference17hf718fcc86a223baaE(ptr align 8 @alloc_24b2e59ca87486e48b007855a9eb4957) #4
  unreachable

bb13:                                             ; preds = %bb27
  %_133 = load ptr, ptr %temp, align 8
  %_134 = ptrtoint ptr %_133 to i64
  %_137 = icmp eq i64 %_134, 0
  %_138 = and i1 %_137, true
  %_139 = xor i1 %_138, true
  br i1 %_139, label %bb28, label %panic11

panic10:                                          ; preds = %bb27
; call core::panicking::panic_misaligned_pointer_dereference
  call void @_ZN4core9panicking36panic_misaligned_pointer_dereference17hcc3cbded9382b6e5E(i64 8, i64 %_37, ptr align 8 @alloc_2b310286d17cc9c6a2b36564dca99de9) #4
  unreachable

bb28:                                             ; preds = %bb13
  %10 = load ptr, ptr %temp, align 8
  %11 = getelementptr inbounds i8, ptr %10, i64 8
  store ptr %_27, ptr %11, align 8
  %_30 = load ptr, ptr %current, align 8
  call void @free(ptr %_30) #3
  br label %bb12

panic11:                                          ; preds = %bb13
; call core::panicking::panic_null_pointer_dereference
  call void @_ZN4core9panicking30panic_null_pointer_dereference17hf718fcc86a223baaE(ptr align 8 @alloc_2b310286d17cc9c6a2b36564dca99de9) #4
  unreachable
}

; Function Attrs: nounwind nonlazybind
define void @print_list() unnamed_addr #1 {
start:
  %current = alloca [8 x i8], align 8
  %_62 = icmp eq i64 ptrtoint (ptr @head to i64), 0
  %_63 = and i1 %_62, true
  %_64 = xor i1 %_63, true
  br i1 %_64, label %bb14, label %panic

bb14:                                             ; preds = %start
  %_2 = load ptr, ptr @head, align 8
; call core::ptr::mut_ptr::<impl *mut T>::is_null
  %_1 = call zeroext i1 @"_ZN4core3ptr7mut_ptr31_$LT$impl$u20$$BP$mut$u20$T$GT$7is_null17h351378d5a4b1ebc0E"(ptr %_2) #3
  br i1 %_1, label %bb8, label %bb2

panic:                                            ; preds = %start
; call core::panicking::panic_null_pointer_dereference
  call void @_ZN4core9panicking30panic_null_pointer_dereference17hf718fcc86a223baaE(ptr align 8 @alloc_2310e43be30c08728d0a8a426341dd22) #4
  unreachable

bb2:                                              ; preds = %bb14
  %_69 = icmp eq i64 ptrtoint (ptr @head to i64), 0
  %_70 = and i1 %_69, true
  %_71 = xor i1 %_70, true
  br i1 %_71, label %bb15, label %panic1

bb8:                                              ; preds = %bb5, %bb14
  ret void

bb15:                                             ; preds = %bb2
  %0 = load ptr, ptr @head, align 8
  store ptr %0, ptr %current, align 8
  br label %bb3

panic1:                                           ; preds = %bb2
; call core::panicking::panic_null_pointer_dereference
  call void @_ZN4core9panicking30panic_null_pointer_dereference17hf718fcc86a223baaE(ptr align 8 @alloc_0f5bd48b5a60887661e66d127777f244) #4
  unreachable

bb3:                                              ; preds = %bb18, %bb15
  %_40 = load ptr, ptr %current, align 8
  %_41 = ptrtoint ptr %_40 to i64
  %_44 = and i64 %_41, 7
  %_45 = icmp eq i64 %_44, 0
  br i1 %_45, label %bb11, label %panic2

bb11:                                             ; preds = %bb3
  %_72 = load ptr, ptr %current, align 8
  %_73 = ptrtoint ptr %_72 to i64
  %_76 = icmp eq i64 %_73, 0
  %_77 = and i1 %_76, true
  %_78 = xor i1 %_77, true
  br i1 %_78, label %bb16, label %panic3

panic2:                                           ; preds = %bb3
; call core::panicking::panic_misaligned_pointer_dereference
  call void @_ZN4core9panicking36panic_misaligned_pointer_dereference17hcc3cbded9382b6e5E(i64 8, i64 %_41, ptr align 8 @alloc_bf48802ef9b8bb6b8466d5ff8bbf9a35) #4
  unreachable

bb16:                                             ; preds = %bb11
  %1 = load ptr, ptr %current, align 8
  %_11 = load i32, ptr %1, align 8
  %_6 = call i32 (ptr, ...) @printf(ptr @alloc_b929c71616281bfd1be2bd4038d3ddf1, i32 %_11) #3
  %_34 = load ptr, ptr %current, align 8
  %_35 = ptrtoint ptr %_34 to i64
  %_38 = and i64 %_35, 7
  %_39 = icmp eq i64 %_38, 0
  br i1 %_39, label %bb10, label %panic4

panic3:                                           ; preds = %bb11
; call core::panicking::panic_null_pointer_dereference
  call void @_ZN4core9panicking30panic_null_pointer_dereference17hf718fcc86a223baaE(ptr align 8 @alloc_bf48802ef9b8bb6b8466d5ff8bbf9a35) #4
  unreachable

bb10:                                             ; preds = %bb16
  %_79 = load ptr, ptr %current, align 8
  %_80 = ptrtoint ptr %_79 to i64
  %_83 = icmp eq i64 %_80, 0
  %_84 = and i1 %_83, true
  %_85 = xor i1 %_84, true
  br i1 %_85, label %bb17, label %panic5

panic4:                                           ; preds = %bb16
; call core::panicking::panic_misaligned_pointer_dereference
  call void @_ZN4core9panicking36panic_misaligned_pointer_dereference17hcc3cbded9382b6e5E(i64 8, i64 %_35, ptr align 8 @alloc_26d4d0570ae2fbb0261d7205be095bb8) #4
  unreachable

bb17:                                             ; preds = %bb10
  %2 = load ptr, ptr %current, align 8
  %3 = getelementptr inbounds i8, ptr %2, i64 8
  %_12 = load ptr, ptr %3, align 8
  store ptr %_12, ptr %current, align 8
  %_14 = load ptr, ptr %current, align 8
  %_90 = icmp eq i64 ptrtoint (ptr @head to i64), 0
  %_91 = and i1 %_90, true
  %_92 = xor i1 %_91, true
  br i1 %_92, label %bb18, label %panic6

panic5:                                           ; preds = %bb10
; call core::panicking::panic_null_pointer_dereference
  call void @_ZN4core9panicking30panic_null_pointer_dereference17hf718fcc86a223baaE(ptr align 8 @alloc_26d4d0570ae2fbb0261d7205be095bb8) #4
  unreachable

bb18:                                             ; preds = %bb17
  %_15 = load ptr, ptr @head, align 8
  %_13 = icmp ne ptr %_14, %_15
  br i1 %_13, label %bb3, label %bb5

panic6:                                           ; preds = %bb17
; call core::panicking::panic_null_pointer_dereference
  call void @_ZN4core9panicking30panic_null_pointer_dereference17hf718fcc86a223baaE(ptr align 8 @alloc_6ee793a60db8ee42eca86c1a1b5f8787) #4
  unreachable

bb5:                                              ; preds = %bb18
  %_22 = call i32 @getListLength() #3
  %_17 = call i32 (ptr, ...) @printf(ptr @alloc_de0e21f5e8cca6812e598f2feea3cc12, i32 %_22) #3
  %_23 = call i32 @puts(ptr @alloc_f3588b28b94f0809fcc8d717033d3e48) #3
  br label %bb8
}

; Function Attrs: nounwind nonlazybind
define i32 @getListLength() unnamed_addr #1 {
start:
  %current = alloca [8 x i8], align 8
  %count = alloca [4 x i8], align 4
  %_0 = alloca [4 x i8], align 4
  %_40 = icmp eq i64 ptrtoint (ptr @head to i64), 0
  %_41 = and i1 %_40, true
  %_42 = xor i1 %_41, true
  br i1 %_42, label %bb11, label %panic

bb11:                                             ; preds = %start
  %_2 = load ptr, ptr @head, align 8
; call core::ptr::mut_ptr::<impl *mut T>::is_null
  %_1 = call zeroext i1 @"_ZN4core3ptr7mut_ptr31_$LT$impl$u20$$BP$mut$u20$T$GT$7is_null17h351378d5a4b1ebc0E"(ptr %_2) #3
  br i1 %_1, label %bb2, label %bb3

panic:                                            ; preds = %start
; call core::panicking::panic_null_pointer_dereference
  call void @_ZN4core9panicking30panic_null_pointer_dereference17hf718fcc86a223baaE(ptr align 8 @alloc_c555082cf734a72c46e1119f80f64dbf) #4
  unreachable

bb3:                                              ; preds = %bb11
  store i32 0, ptr %count, align 4
  %_47 = icmp eq i64 ptrtoint (ptr @head to i64), 0
  %_48 = and i1 %_47, true
  %_49 = xor i1 %_48, true
  br i1 %_49, label %bb12, label %panic1

bb2:                                              ; preds = %bb11
  store i32 0, ptr %_0, align 4
  br label %bb6

bb12:                                             ; preds = %bb3
  %0 = load ptr, ptr @head, align 8
  store ptr %0, ptr %current, align 8
  br label %bb4

panic1:                                           ; preds = %bb3
; call core::panicking::panic_null_pointer_dereference
  call void @_ZN4core9panicking30panic_null_pointer_dereference17hf718fcc86a223baaE(ptr align 8 @alloc_983a30ee4ad5617938b0658368d97c6d) #4
  unreachable

bb4:                                              ; preds = %bb14, %bb12
  %1 = load i32, ptr %count, align 4
  %2 = add i32 %1, 1
  store i32 %2, ptr %count, align 4
  %_18 = load ptr, ptr %current, align 8
  %_19 = ptrtoint ptr %_18 to i64
  %_22 = and i64 %_19, 7
  %_23 = icmp eq i64 %_22, 0
  br i1 %_23, label %bb8, label %panic2

bb8:                                              ; preds = %bb4
  %_50 = load ptr, ptr %current, align 8
  %_51 = ptrtoint ptr %_50 to i64
  %_54 = icmp eq i64 %_51, 0
  %_55 = and i1 %_54, true
  %_56 = xor i1 %_55, true
  br i1 %_56, label %bb13, label %panic3

panic2:                                           ; preds = %bb4
; call core::panicking::panic_misaligned_pointer_dereference
  call void @_ZN4core9panicking36panic_misaligned_pointer_dereference17hcc3cbded9382b6e5E(i64 8, i64 %_19, ptr align 8 @alloc_7741d1a45546b0df1cded224b4e29e2a) #4
  unreachable

bb13:                                             ; preds = %bb8
  %3 = load ptr, ptr %current, align 8
  %4 = getelementptr inbounds i8, ptr %3, i64 8
  %_7 = load ptr, ptr %4, align 8
  store ptr %_7, ptr %current, align 8
  %_9 = load ptr, ptr %current, align 8
  %_61 = icmp eq i64 ptrtoint (ptr @head to i64), 0
  %_62 = and i1 %_61, true
  %_63 = xor i1 %_62, true
  br i1 %_63, label %bb14, label %panic4

panic3:                                           ; preds = %bb8
; call core::panicking::panic_null_pointer_dereference
  call void @_ZN4core9panicking30panic_null_pointer_dereference17hf718fcc86a223baaE(ptr align 8 @alloc_7741d1a45546b0df1cded224b4e29e2a) #4
  unreachable

bb14:                                             ; preds = %bb13
  %_10 = load ptr, ptr @head, align 8
  %_8 = icmp ne ptr %_9, %_10
  br i1 %_8, label %bb4, label %bb5

panic4:                                           ; preds = %bb13
; call core::panicking::panic_null_pointer_dereference
  call void @_ZN4core9panicking30panic_null_pointer_dereference17hf718fcc86a223baaE(ptr align 8 @alloc_7ec23c07d6f36341fe57f78244ba9cf5) #4
  unreachable

bb5:                                              ; preds = %bb14
  %5 = load i32, ptr %count, align 4
  store i32 %5, ptr %_0, align 4
  br label %bb6

bb6:                                              ; preds = %bb2, %bb5
  %6 = load i32, ptr %_0, align 4
  ret i32 %6
}

; Function Attrs: nounwind nonlazybind
declare ptr @malloc(i64) unnamed_addr #1

; core::panicking::panic_misaligned_pointer_dereference
; Function Attrs: cold minsize noinline noreturn nounwind nonlazybind optsize
declare void @_ZN4core9panicking36panic_misaligned_pointer_dereference17hcc3cbded9382b6e5E(i64, i64, ptr align 8) unnamed_addr #2

; core::panicking::panic_null_pointer_dereference
; Function Attrs: cold minsize noinline noreturn nounwind nonlazybind optsize
declare void @_ZN4core9panicking30panic_null_pointer_dereference17hf718fcc86a223baaE(ptr align 8) unnamed_addr #2

; Function Attrs: nounwind nonlazybind
declare i32 @printf(ptr, ...) unnamed_addr #1

; Function Attrs: nounwind nonlazybind
declare void @free(ptr) unnamed_addr #1

; Function Attrs: nounwind nonlazybind
declare i32 @puts(ptr) unnamed_addr #1

attributes #0 = { inlinehint nounwind nonlazybind "probe-stack"="inline-asm" "target-cpu"="x86-64" }
attributes #1 = { nounwind nonlazybind "probe-stack"="inline-asm" "target-cpu"="x86-64" }
attributes #2 = { cold minsize noinline noreturn nounwind nonlazybind optsize "probe-stack"="inline-asm" "target-cpu"="x86-64" }
attributes #3 = { nounwind }
attributes #4 = { noreturn nounwind }

!llvm.module.flags = !{!0, !1}
!llvm.ident = !{!2}

!0 = !{i32 8, !"PIC Level", i32 2}
!1 = !{i32 2, !"RtLibUseGOT", i32 1}
!2 = !{!"rustc version 1.88.0-nightly (0b45675cf 2025-03-31)"}
