; ModuleID = '3bayfjm2zibq7nmjprzllf7oo'
source_filename = "3bayfjm2zibq7nmjprzllf7oo"
target datalayout = "e-m:e-p270:32:32-p271:32:32-p272:64:64-i64:64-i128:128-f80:128-n8:16:32:64-S128"
target triple = "x86_64-unknown-linux-gnu"

@alloc_f5ffd2fd1476bab43ad89fb40c72d0c5 = private unnamed_addr constant [10 x i8] c"src/lib.rs", align 1
@alloc_ca20538c37cf777301e64f36757617b4 = private unnamed_addr constant <{ ptr, [16 x i8] }> <{ ptr @alloc_f5ffd2fd1476bab43ad89fb40c72d0c5, [16 x i8] c"\0A\00\00\00\00\00\00\003\00\00\00\1E\00\00\00" }>, align 8
@alloc_78772e9746ba4e4bb2aaf51ea1bd1391 = private unnamed_addr constant <{ ptr, [16 x i8] }> <{ ptr @alloc_f5ffd2fd1476bab43ad89fb40c72d0c5, [16 x i8] c"\0A\00\00\00\00\00\00\004\00\00\00\05\00\00\00" }>, align 8
@alloc_7e3fb20a7114daca931f00ad16ba181b = private unnamed_addr constant <{ ptr, [16 x i8] }> <{ ptr @alloc_f5ffd2fd1476bab43ad89fb40c72d0c5, [16 x i8] c"\0A\00\00\00\00\00\00\005\00\00\00\05\00\00\00" }>, align 8
@alloc_b88e51dd48bed7e7836045b7d503c26f = private unnamed_addr constant <{ ptr, [16 x i8] }> <{ ptr @alloc_f5ffd2fd1476bab43ad89fb40c72d0c5, [16 x i8] c"\0A\00\00\00\00\00\00\006\00\00\00\05\00\00\00" }>, align 8
@alloc_00e94dd8e07ae97896c26b46f43cbda2 = private unnamed_addr constant <{ ptr, [16 x i8] }> <{ ptr @alloc_f5ffd2fd1476bab43ad89fb40c72d0c5, [16 x i8] c"\0A\00\00\00\00\00\00\007\00\00\00\05\00\00\00" }>, align 8
@alloc_e1cfc5e65e0e0d8887bc69443fd54186 = private unnamed_addr constant <{ ptr, [16 x i8] }> <{ ptr @alloc_f5ffd2fd1476bab43ad89fb40c72d0c5, [16 x i8] c"\0A\00\00\00\00\00\00\008\00\00\00\05\00\00\00" }>, align 8
@alloc_6939081ac62fb3603135e3880f0726eb = private unnamed_addr constant <{ ptr, [16 x i8] }> <{ ptr @alloc_f5ffd2fd1476bab43ad89fb40c72d0c5, [16 x i8] c"\0A\00\00\00\00\00\00\009\00\00\00\05\00\00\00" }>, align 8
@alloc_05519a5e87539bab8368e2f0eb332379 = private unnamed_addr constant <{ ptr, [16 x i8] }> <{ ptr @alloc_f5ffd2fd1476bab43ad89fb40c72d0c5, [16 x i8] c"\0A\00\00\00\00\00\00\00:\00\00\00\05\00\00\00" }>, align 8
@alloc_f0feb2aece4921177f6c6a020c995740 = private unnamed_addr constant <{ ptr, [16 x i8] }> <{ ptr @alloc_f5ffd2fd1476bab43ad89fb40c72d0c5, [16 x i8] c"\0A\00\00\00\00\00\00\00;\00\00\00\05\00\00\00" }>, align 8
@alloc_8693478e7b4e8a998374da26f0f0e103 = private unnamed_addr constant <{ ptr, [16 x i8] }> <{ ptr @alloc_f5ffd2fd1476bab43ad89fb40c72d0c5, [16 x i8] c"\0A\00\00\00\00\00\00\00<\00\00\00\08\00\00\00" }>, align 8
@alloc_2e5a67add5b4157b4fa798a5d14a2ec1 = private unnamed_addr constant <{ ptr, [16 x i8] }> <{ ptr @alloc_f5ffd2fd1476bab43ad89fb40c72d0c5, [16 x i8] c"\0A\00\00\00\00\00\00\00@\00\00\00\0C\00\00\00" }>, align 8
@alloc_f77e4ca413fd413b8d0dbfaac50e1b0d = private unnamed_addr constant <{ ptr, [16 x i8] }> <{ ptr @alloc_f5ffd2fd1476bab43ad89fb40c72d0c5, [16 x i8] c"\0A\00\00\00\00\00\00\00A\00\00\00\0F\00\00\00" }>, align 8
@alloc_fed22b540af341725ca93da381473a8d = private unnamed_addr constant <{ ptr, [16 x i8] }> <{ ptr @alloc_f5ffd2fd1476bab43ad89fb40c72d0c5, [16 x i8] c"\0A\00\00\00\00\00\00\00C\00\00\00\05\00\00\00" }>, align 8
@alloc_d72a9f8fb4af32f6b0dd8db31663a995 = private unnamed_addr constant <{ ptr, [16 x i8] }> <{ ptr @alloc_f5ffd2fd1476bab43ad89fb40c72d0c5, [16 x i8] c"\0A\00\00\00\00\00\00\00=\00\00\00\09\00\00\00" }>, align 8
@alloc_cec6fc88f95e7b7f3174c51c560e40c3 = private unnamed_addr constant <{ ptr, [16 x i8] }> <{ ptr @alloc_f5ffd2fd1476bab43ad89fb40c72d0c5, [16 x i8] c"\0A\00\00\00\00\00\00\00G\00\00\00\1E\00\00\00" }>, align 8
@alloc_5641af611437933b52efdafe9f524b94 = private unnamed_addr constant <{ ptr, [16 x i8] }> <{ ptr @alloc_f5ffd2fd1476bab43ad89fb40c72d0c5, [16 x i8] c"\0A\00\00\00\00\00\00\00L\00\00\00\08\00\00\00" }>, align 8
@alloc_1d73e66a8b777ca2aa2a0f8927f78b9f = private unnamed_addr constant <{ ptr, [16 x i8] }> <{ ptr @alloc_f5ffd2fd1476bab43ad89fb40c72d0c5, [16 x i8] c"\0A\00\00\00\00\00\00\00Q\00\00\00\1D\00\00\00" }>, align 8
@alloc_7bed3bad79b3c05b34a35f82edac66f9 = private unnamed_addr constant <{ ptr, [16 x i8] }> <{ ptr @alloc_f5ffd2fd1476bab43ad89fb40c72d0c5, [16 x i8] c"\0A\00\00\00\00\00\00\00S\00\00\00\0F\00\00\00" }>, align 8
@alloc_539f3f1b9c5f472fb6baf2ecf9dc0bc9 = private unnamed_addr constant <{ ptr, [16 x i8] }> <{ ptr @alloc_f5ffd2fd1476bab43ad89fb40c72d0c5, [16 x i8] c"\0A\00\00\00\00\00\00\00X\00\00\00\14\00\00\00" }>, align 8
@alloc_158cd7a8450781746e6b2baa76967723 = private unnamed_addr constant <{ ptr, [16 x i8] }> <{ ptr @alloc_f5ffd2fd1476bab43ad89fb40c72d0c5, [16 x i8] c"\0A\00\00\00\00\00\00\00X\00\00\00\05\00\00\00" }>, align 8
@alloc_d6e62cbdde3667d40411f15d0fa90ea6 = private unnamed_addr constant <{ ptr, [16 x i8] }> <{ ptr @alloc_f5ffd2fd1476bab43ad89fb40c72d0c5, [16 x i8] c"\0A\00\00\00\00\00\00\00M\00\00\00\11\00\00\00" }>, align 8
@alloc_35d90a707abd40a3ae5b455348d0ea81 = private unnamed_addr constant <{ ptr, [16 x i8] }> <{ ptr @alloc_f5ffd2fd1476bab43ad89fb40c72d0c5, [16 x i8] c"\0A\00\00\00\00\00\00\00M\00\00\00\09\00\00\00" }>, align 8
@alloc_cd859f4803ed2d17174f97599ad8304d = private unnamed_addr constant [35 x i8] c"Process Priority AT BT CT TAT WT \0A\00", align 1
@alloc_4c173fa037d8f630eee12b3a76449063 = private unnamed_addr constant [25 x i8] c"P%d. %d %d %d %d %d %d \0A\00", align 1
@alloc_0cf861d311894289134f7342c90191f1 = private unnamed_addr constant <{ ptr, [16 x i8] }> <{ ptr @alloc_f5ffd2fd1476bab43ad89fb40c72d0c5, [16 x i8] c"\0A\00\00\00\00\00\00\00a\00\00\00\0D\00\00\00" }>, align 8
@alloc_83c970aa04769eb790e7d0c2e6f3a336 = private unnamed_addr constant <{ ptr, [16 x i8] }> <{ ptr @alloc_f5ffd2fd1476bab43ad89fb40c72d0c5, [16 x i8] c"\0A\00\00\00\00\00\00\00b\00\00\00\0D\00\00\00" }>, align 8
@alloc_ec148ec1cf57a62932882f23ce0ebf3e = private unnamed_addr constant <{ ptr, [16 x i8] }> <{ ptr @alloc_f5ffd2fd1476bab43ad89fb40c72d0c5, [16 x i8] c"\0A\00\00\00\00\00\00\00c\00\00\00\0D\00\00\00" }>, align 8
@alloc_e577449b88d269ebd831e409cc97e8ac = private unnamed_addr constant <{ ptr, [16 x i8] }> <{ ptr @alloc_f5ffd2fd1476bab43ad89fb40c72d0c5, [16 x i8] c"\0A\00\00\00\00\00\00\00d\00\00\00\0D\00\00\00" }>, align 8
@alloc_88d35e2688e20d58b2364e2e9f502ca3 = private unnamed_addr constant <{ ptr, [16 x i8] }> <{ ptr @alloc_f5ffd2fd1476bab43ad89fb40c72d0c5, [16 x i8] c"\0A\00\00\00\00\00\00\00e\00\00\00\0D\00\00\00" }>, align 8
@alloc_25cccdb447fd3f34ffdfc4817c88ace6 = private unnamed_addr constant <{ ptr, [16 x i8] }> <{ ptr @alloc_f5ffd2fd1476bab43ad89fb40c72d0c5, [16 x i8] c"\0A\00\00\00\00\00\00\00f\00\00\00\0D\00\00\00" }>, align 8
@alloc_b0b064e74fdb2038bbe3efe7f1061f8f = private unnamed_addr constant <{ ptr, [16 x i8] }> <{ ptr @alloc_f5ffd2fd1476bab43ad89fb40c72d0c5, [16 x i8] c"\0A\00\00\00\00\00\00\00g\00\00\00\0D\00\00\00" }>, align 8
@alloc_f053862d19316335a7cb4d24970fe23a = private unnamed_addr constant <{ ptr, [16 x i8] }> <{ ptr @alloc_f5ffd2fd1476bab43ad89fb40c72d0c5, [16 x i8] c"\0A\00\00\00\00\00\00\00i\00\00\00\10\00\00\00" }>, align 8
@alloc_6dd2f1a4e73e63f27caabb0706e08eb0 = private unnamed_addr constant <{ ptr, [16 x i8] }> <{ ptr @alloc_f5ffd2fd1476bab43ad89fb40c72d0c5, [16 x i8] c"\0A\00\00\00\00\00\00\00o\00\00\00\1E\00\00\00" }>, align 8
@alloc_24c923319f6ccb289057ea78f5f90e17 = private unnamed_addr constant <{ ptr, [16 x i8] }> <{ ptr @alloc_f5ffd2fd1476bab43ad89fb40c72d0c5, [16 x i8] c"\0A\00\00\00\00\00\00\00s\00\00\00\0F\00\00\00" }>, align 8
@alloc_c003855ffad169c88596f226028a8c02 = private unnamed_addr constant <{ ptr, [16 x i8] }> <{ ptr @alloc_f5ffd2fd1476bab43ad89fb40c72d0c5, [16 x i8] c"\0A\00\00\00\00\00\00\00\7F\00\00\00\1E\00\00\00" }>, align 8
@alloc_db68b7fee3958fee6882ae4b2fca37a8 = private unnamed_addr constant <{ ptr, [16 x i8] }> <{ ptr @alloc_f5ffd2fd1476bab43ad89fb40c72d0c5, [16 x i8] c"\0A\00\00\00\00\00\00\00\80\00\00\00\1A\00\00\00" }>, align 8
@alloc_9860fb69fecd049fe02a8887b8fca456 = private unnamed_addr constant <{ ptr, [16 x i8] }> <{ ptr @alloc_f5ffd2fd1476bab43ad89fb40c72d0c5, [16 x i8] c"\0A\00\00\00\00\00\00\00\82\00\00\00\0D\00\00\00" }>, align 8
@alloc_8f4e2aa55ecfe6726981da220c5122ab = private unnamed_addr constant <{ ptr, [16 x i8] }> <{ ptr @alloc_f5ffd2fd1476bab43ad89fb40c72d0c5, [16 x i8] c"\0A\00\00\00\00\00\00\00\85\00\00\00\0D\00\00\00" }>, align 8
@alloc_2b2567ee47e5af2a32cd25b892bc51cd = private unnamed_addr constant <{ ptr, [16 x i8] }> <{ ptr @alloc_f5ffd2fd1476bab43ad89fb40c72d0c5, [16 x i8] c"\0A\00\00\00\00\00\00\00\88\00\00\00\0D\00\00\00" }>, align 8
@alloc_27e278adcf14db1116ad55ee26a95b50 = private unnamed_addr constant <{ ptr, [16 x i8] }> <{ ptr @alloc_f5ffd2fd1476bab43ad89fb40c72d0c5, [16 x i8] c"\0A\00\00\00\00\00\00\00\8C\00\00\00\1D\00\00\00" }>, align 8
@alloc_f98ae8efed8d67a31cf67da941a5f791 = private unnamed_addr constant <{ ptr, [16 x i8] }> <{ ptr @alloc_f5ffd2fd1476bab43ad89fb40c72d0c5, [16 x i8] c"\0A\00\00\00\00\00\00\00\8D\00\00\00\0F\00\00\00" }>, align 8
@alloc_6b1f3654d4336af3d5c9ccfe5cd6786f = private unnamed_addr constant <{ ptr, [16 x i8] }> <{ ptr @alloc_f5ffd2fd1476bab43ad89fb40c72d0c5, [16 x i8] c"\0A\00\00\00\00\00\00\00\90\00\00\00\09\00\00\00" }>, align 8
@alloc_e0f55af8ba14d1ad556d8e5f4bc59db9 = private unnamed_addr constant <{ ptr, [16 x i8] }> <{ ptr @alloc_f5ffd2fd1476bab43ad89fb40c72d0c5, [16 x i8] c"\0A\00\00\00\00\00\00\00\93\00\00\00\09\00\00\00" }>, align 8
@alloc_918a92c90d290e6e2e18d4e54b76dea3 = private unnamed_addr constant <{ ptr, [16 x i8] }> <{ ptr @alloc_f5ffd2fd1476bab43ad89fb40c72d0c5, [16 x i8] c"\0A\00\00\00\00\00\00\00\96\00\00\00\09\00\00\00" }>, align 8
@alloc_5c73959e7848ac7eb6f7106dbd226433 = private unnamed_addr constant <{ ptr, [16 x i8] }> <{ ptr @alloc_f5ffd2fd1476bab43ad89fb40c72d0c5, [16 x i8] c"\0A\00\00\00\00\00\00\00\9B\00\00\00\08\00\00\00" }>, align 8
@alloc_67917eaad185a878e0f4d72460423370 = private unnamed_addr constant <{ ptr, [16 x i8] }> <{ ptr @alloc_f5ffd2fd1476bab43ad89fb40c72d0c5, [16 x i8] c"\0A\00\00\00\00\00\00\00\9B\00\00\00\13\00\00\00" }>, align 8
@alloc_eaec2396f157ff98a5368eca61611152 = private unnamed_addr constant <{ ptr, [16 x i8] }> <{ ptr @alloc_f5ffd2fd1476bab43ad89fb40c72d0c5, [16 x i8] c"\0A\00\00\00\00\00\00\00\9E\00\00\00\10\00\00\00" }>, align 8
@alloc_268527d69417a0a855fc749a27d86f88 = private unnamed_addr constant <{ ptr, [16 x i8] }> <{ ptr @alloc_f5ffd2fd1476bab43ad89fb40c72d0c5, [16 x i8] c"\0A\00\00\00\00\00\00\00\9E\00\00\00\1A\00\00\00" }>, align 8
@alloc_c0ffd8bb6199500482fed097e59cd212 = private unnamed_addr constant <{ ptr, [16 x i8] }> <{ ptr @alloc_f5ffd2fd1476bab43ad89fb40c72d0c5, [16 x i8] c"\0A\00\00\00\00\00\00\00\9C\00\00\00\10\00\00\00" }>, align 8
@alloc_5dd0eddadd7be5182af776a19337c561 = private unnamed_addr constant <{ ptr, [16 x i8] }> <{ ptr @alloc_f5ffd2fd1476bab43ad89fb40c72d0c5, [16 x i8] c"\0A\00\00\00\00\00\00\00\9C\00\00\00 \00\00\00" }>, align 8
@alloc_356940536e3d0185c811543066639c96 = private unnamed_addr constant <{ ptr, [16 x i8] }> <{ ptr @alloc_f5ffd2fd1476bab43ad89fb40c72d0c5, [16 x i8] c"\0A\00\00\00\00\00\00\00\A3\00\00\00\1E\00\00\00" }>, align 8
@alloc_cc3dfda50311ab0fabdb606a0747dc3a = private unnamed_addr constant <{ ptr, [16 x i8] }> <{ ptr @alloc_f5ffd2fd1476bab43ad89fb40c72d0c5, [16 x i8] c"\0A\00\00\00\00\00\00\00\AE\00\00\00\1E\00\00\00" }>, align 8
@alloc_e7631631a6a3898fa76760b145a8d654 = private unnamed_addr constant <{ ptr, [16 x i8] }> <{ ptr @alloc_f5ffd2fd1476bab43ad89fb40c72d0c5, [16 x i8] c"\0A\00\00\00\00\00\00\00\AE\00\00\00)\00\00\00" }>, align 8
@alloc_2d72f87524543ed92f18b437b0314b13 = private unnamed_addr constant <{ ptr, [16 x i8] }> <{ ptr @alloc_f5ffd2fd1476bab43ad89fb40c72d0c5, [16 x i8] c"\0A\00\00\00\00\00\00\00\AE\00\00\004\00\00\00" }>, align 8
@alloc_7558903eb1e5aa499c498dfc9727e2bc = private unnamed_addr constant <{ ptr, [16 x i8] }> <{ ptr @alloc_f5ffd2fd1476bab43ad89fb40c72d0c5, [16 x i8] c"\0A\00\00\00\00\00\00\00\AE\00\00\00?\00\00\00" }>, align 8
@alloc_ac6d535600a274db2f57be193527219d = private unnamed_addr constant <{ ptr, [16 x i8] }> <{ ptr @alloc_f5ffd2fd1476bab43ad89fb40c72d0c5, [16 x i8] c"\0A\00\00\00\00\00\00\00\AF\00\00\00\0F\00\00\00" }>, align 8
@alloc_4216cc1e97efdec0f24e32c76cb8cc62 = private unnamed_addr constant <{ ptr, [16 x i8] }> <{ ptr @alloc_f5ffd2fd1476bab43ad89fb40c72d0c5, [16 x i8] c"\0A\00\00\00\00\00\00\00\B2\00\00\00\0B\00\00\00" }>, align 8
@alloc_6cc558e82aa7ef1f4c8734ba2ee6cbee = private unnamed_addr constant <{ ptr, [16 x i8] }> <{ ptr @alloc_f5ffd2fd1476bab43ad89fb40c72d0c5, [16 x i8] c"\0A\00\00\00\00\00\00\00\B7\00\00\00\0F\00\00\00" }>, align 8
@alloc_3d040f47c6e9b36a6ee4f8c1bc347bf9 = private unnamed_addr constant <{ ptr, [16 x i8] }> <{ ptr @alloc_f5ffd2fd1476bab43ad89fb40c72d0c5, [16 x i8] c"\0A\00\00\00\00\00\00\00\B9\00\00\00\0A\00\00\00" }>, align 8
@alloc_72a4d6b8ddc2ef571e2eeccbc2f41cf9 = private unnamed_addr constant <{ ptr, [16 x i8] }> <{ ptr @alloc_f5ffd2fd1476bab43ad89fb40c72d0c5, [16 x i8] c"\0A\00\00\00\00\00\00\00\B9\00\00\00\16\00\00\00" }>, align 8
@alloc_4553b29c5344541642188650974ca440 = private unnamed_addr constant <{ ptr, [16 x i8] }> <{ ptr @alloc_f5ffd2fd1476bab43ad89fb40c72d0c5, [16 x i8] c"\0A\00\00\00\00\00\00\00\BC\00\00\00\12\00\00\00" }>, align 8
@alloc_40f2349cc59f5ab12c4672246484840b = private unnamed_addr constant <{ ptr, [16 x i8] }> <{ ptr @alloc_f5ffd2fd1476bab43ad89fb40c72d0c5, [16 x i8] c"\0A\00\00\00\00\00\00\00\BD\00\00\00\1A\00\00\00" }>, align 8
@alloc_63227595485b7b7365263e236fcf0ef2 = private unnamed_addr constant <{ ptr, [16 x i8] }> <{ ptr @alloc_f5ffd2fd1476bab43ad89fb40c72d0c5, [16 x i8] c"\0A\00\00\00\00\00\00\00\C1\00\00\00!\00\00\00" }>, align 8
@alloc_2c900438f27bbcda21d667fc1a141ee3 = private unnamed_addr constant <{ ptr, [16 x i8] }> <{ ptr @alloc_f5ffd2fd1476bab43ad89fb40c72d0c5, [16 x i8] c"\0A\00\00\00\00\00\00\00\C2\00\00\00\13\00\00\00" }>, align 8
@alloc_131b19c26424b808818f2587a2d6c930 = private unnamed_addr constant <{ ptr, [16 x i8] }> <{ ptr @alloc_f5ffd2fd1476bab43ad89fb40c72d0c5, [16 x i8] c"\0A\00\00\00\00\00\00\00\C4\00\00\00\0F\00\00\00" }>, align 8
@alloc_7a227c562d71858087a7a7ebb02cb9f5 = private unnamed_addr constant <{ ptr, [16 x i8] }> <{ ptr @alloc_f5ffd2fd1476bab43ad89fb40c72d0c5, [16 x i8] c"\0A\00\00\00\00\00\00\00\C6\00\00\00\10\00\00\00" }>, align 8
@alloc_9244a9e6d2f38a93e3ff21c37f0138b1 = private unnamed_addr constant <{ ptr, [16 x i8] }> <{ ptr @alloc_f5ffd2fd1476bab43ad89fb40c72d0c5, [16 x i8] c"\0A\00\00\00\00\00\00\00\C7\00\00\00\14\00\00\00" }>, align 8
@alloc_f05125dc32058f03140442720bcc0fa6 = private unnamed_addr constant <{ ptr, [16 x i8] }> <{ ptr @alloc_f5ffd2fd1476bab43ad89fb40c72d0c5, [16 x i8] c"\0A\00\00\00\00\00\00\00\C7\00\00\00&\00\00\00" }>, align 8
@alloc_82da31e18cc1bb13599dae40146bdca2 = private unnamed_addr constant <{ ptr, [16 x i8] }> <{ ptr @alloc_f5ffd2fd1476bab43ad89fb40c72d0c5, [16 x i8] c"\0A\00\00\00\00\00\00\00\CB\00\00\00\13\00\00\00" }>, align 8
@alloc_28ea22bbe15217d64a7c521e2ae571cf = private unnamed_addr constant <{ ptr, [16 x i8] }> <{ ptr @alloc_f5ffd2fd1476bab43ad89fb40c72d0c5, [16 x i8] c"\0A\00\00\00\00\00\00\00\CD\00\00\00\0F\00\00\00" }>, align 8
@alloc_f5fb986831bfe4b06f64d057e21bd0ab = private unnamed_addr constant <{ ptr, [16 x i8] }> <{ ptr @alloc_f5ffd2fd1476bab43ad89fb40c72d0c5, [16 x i8] c"\0A\00\00\00\00\00\00\00\CE\00\00\00\11\00\00\00" }>, align 8
@alloc_eb561d9f0e8d401673c65ca2cbcfe32c = private unnamed_addr constant <{ ptr, [16 x i8] }> <{ ptr @alloc_f5ffd2fd1476bab43ad89fb40c72d0c5, [16 x i8] c"\0A\00\00\00\00\00\00\00\D0\00\00\00\16\00\00\00" }>, align 8
@alloc_182c349c68616dc4ac1a7f8720306cd2 = private unnamed_addr constant <{ ptr, [16 x i8] }> <{ ptr @alloc_f5ffd2fd1476bab43ad89fb40c72d0c5, [16 x i8] c"\0A\00\00\00\00\00\00\00\D1\00\00\00\1E\00\00\00" }>, align 8
@alloc_ae887e084105a74647b27dfea00c70de = private unnamed_addr constant <{ ptr, [16 x i8] }> <{ ptr @alloc_f5ffd2fd1476bab43ad89fb40c72d0c5, [16 x i8] c"\0A\00\00\00\00\00\00\00\DD\00\00\00\1E\00\00\00" }>, align 8
@alloc_8a37f86cefb6090043fab19432bb8b47 = private unnamed_addr constant <{ ptr, [16 x i8] }> <{ ptr @alloc_f5ffd2fd1476bab43ad89fb40c72d0c5, [16 x i8] c"\0A\00\00\00\00\00\00\00\DE\00\00\00\08\00\00\00" }>, align 8
@alloc_745f8e410582c5609a11085eea1bb0b0 = private unnamed_addr constant <{ ptr, [16 x i8] }> <{ ptr @alloc_f5ffd2fd1476bab43ad89fb40c72d0c5, [16 x i8] c"\0A\00\00\00\00\00\00\00\E2\00\00\00\16\00\00\00" }>, align 8
@alloc_7aa582e9a73a3604879f973fe89dcdbb = private unnamed_addr constant <{ ptr, [16 x i8] }> <{ ptr @alloc_f5ffd2fd1476bab43ad89fb40c72d0c5, [16 x i8] c"\0A\00\00\00\00\00\00\00\E2\00\00\00\22\00\00\00" }>, align 8
@alloc_d9d817104817e5e98d0a7a1cc71f15a0 = private unnamed_addr constant <{ ptr, [16 x i8] }> <{ ptr @alloc_f5ffd2fd1476bab43ad89fb40c72d0c5, [16 x i8] c"\0A\00\00\00\00\00\00\00\E2\00\00\00\09\00\00\00" }>, align 8
@alloc_97dde4d4bdf2f4d1a3806f0069d67d16 = private unnamed_addr constant <{ ptr, [16 x i8] }> <{ ptr @alloc_f5ffd2fd1476bab43ad89fb40c72d0c5, [16 x i8] c"\0A\00\00\00\00\00\00\00\E3\00\00\00\10\00\00\00" }>, align 8
@alloc_75c02754540f0873b3df6e9ccc38fb16 = private unnamed_addr constant <{ ptr, [16 x i8] }> <{ ptr @alloc_f5ffd2fd1476bab43ad89fb40c72d0c5, [16 x i8] c"\0A\00\00\00\00\00\00\00\E4\00\00\00\0F\00\00\00" }>, align 8
@alloc_60f3f4c05d9ca955a55c237155056ae3 = private unnamed_addr constant <{ ptr, [16 x i8] }> <{ ptr @alloc_f5ffd2fd1476bab43ad89fb40c72d0c5, [16 x i8] c"\0A\00\00\00\00\00\00\00\EE\00\00\00\1E\00\00\00" }>, align 8
@alloc_290413aa0cd80994369e176fc98fc962 = private unnamed_addr constant <{ ptr, [16 x i8] }> <{ ptr @alloc_f5ffd2fd1476bab43ad89fb40c72d0c5, [16 x i8] c"\0A\00\00\00\00\00\00\00\EF\00\00\00\08\00\00\00" }>, align 8
@alloc_daf72c1f7319aa4aed757330a177962e = private unnamed_addr constant <{ ptr, [16 x i8] }> <{ ptr @alloc_f5ffd2fd1476bab43ad89fb40c72d0c5, [16 x i8] c"\0A\00\00\00\00\00\00\00\F3\00\00\00\15\00\00\00" }>, align 8
@alloc_be948c1909f858341a9f3fb8e7cff3d6 = private unnamed_addr constant <{ ptr, [16 x i8] }> <{ ptr @alloc_f5ffd2fd1476bab43ad89fb40c72d0c5, [16 x i8] c"\0A\00\00\00\00\00\00\00\F3\00\00\00\22\00\00\00" }>, align 8
@alloc_22c074f8323a347b4b18d77710344a31 = private unnamed_addr constant <{ ptr, [16 x i8] }> <{ ptr @alloc_f5ffd2fd1476bab43ad89fb40c72d0c5, [16 x i8] c"\0A\00\00\00\00\00\00\00\F3\00\00\00\09\00\00\00" }>, align 8
@alloc_e5a2abac0cd4f1d6e74300fbbdf2890d = private unnamed_addr constant <{ ptr, [16 x i8] }> <{ ptr @alloc_f5ffd2fd1476bab43ad89fb40c72d0c5, [16 x i8] c"\0A\00\00\00\00\00\00\00\F4\00\00\00\10\00\00\00" }>, align 8
@alloc_a6bba0f65f45e305a89e02e7b9e6af9c = private unnamed_addr constant <{ ptr, [16 x i8] }> <{ ptr @alloc_f5ffd2fd1476bab43ad89fb40c72d0c5, [16 x i8] c"\0A\00\00\00\00\00\00\00\F5\00\00\00\0F\00\00\00" }>, align 8

; core::ptr::mut_ptr::<impl *mut T>::is_null
; Function Attrs: inlinehint nounwind nonlazybind
define internal zeroext i1 @"_ZN4core3ptr7mut_ptr31_$LT$impl$u20$$BP$mut$u20$T$GT$7is_null17h94e9dd4f165e1bb4E"(ptr %self) unnamed_addr #0 {
start:
  %_3 = ptrtoint ptr %self to i64
  %_0 = icmp eq i64 %_3, 0
  ret i1 %_0
}

; Function Attrs: nounwind nonlazybind
define void @insert(ptr %root, i32 %id, i32 %at, i32 %bt, i32 %prior) unnamed_addr #1 {
start:
  %ptr = alloca [8 x i8], align 8
  %_7 = call ptr @malloc(i64 40) #3
  %_95 = ptrtoint ptr %root to i64
  %_98 = and i64 %_95, 7
  %_99 = icmp eq i64 %_98, 0
  br i1 %_99, label %bb23, label %panic

bb23:                                             ; preds = %start
  %_101 = ptrtoint ptr %root to i64
  %_104 = icmp eq i64 %_101, 0
  %_105 = and i1 %_104, true
  %_106 = xor i1 %_105, true
  br i1 %_106, label %bb24, label %panic1

panic:                                            ; preds = %start
; call core::panicking::panic_misaligned_pointer_dereference
  call void @_ZN4core9panicking36panic_misaligned_pointer_dereference17hcc3cbded9382b6e5E(i64 8, i64 %_95, ptr align 8 @alloc_ca20538c37cf777301e64f36757617b4) #4
  unreachable

bb24:                                             ; preds = %bb23
  %0 = load ptr, ptr %root, align 8
  store ptr %0, ptr %ptr, align 8
  %_89 = ptrtoint ptr %_7 to i64
  %_92 = and i64 %_89, 7
  %_93 = icmp eq i64 %_92, 0
  br i1 %_93, label %bb22, label %panic2

panic1:                                           ; preds = %bb23
; call core::panicking::panic_null_pointer_dereference
  call void @_ZN4core9panicking30panic_null_pointer_dereference17hf718fcc86a223baaE(ptr align 8 @alloc_ca20538c37cf777301e64f36757617b4) #4
  unreachable

bb22:                                             ; preds = %bb24
  %_108 = ptrtoint ptr %_7 to i64
  %_111 = icmp eq i64 %_108, 0
  %_112 = and i1 %_111, true
  %_113 = xor i1 %_112, true
  br i1 %_113, label %bb25, label %panic3

panic2:                                           ; preds = %bb24
; call core::panicking::panic_misaligned_pointer_dereference
  call void @_ZN4core9panicking36panic_misaligned_pointer_dereference17hcc3cbded9382b6e5E(i64 8, i64 %_89, ptr align 8 @alloc_78772e9746ba4e4bb2aaf51ea1bd1391) #4
  unreachable

bb25:                                             ; preds = %bb22
  store i32 %id, ptr %_7, align 8
  %_83 = ptrtoint ptr %_7 to i64
  %_86 = and i64 %_83, 7
  %_87 = icmp eq i64 %_86, 0
  br i1 %_87, label %bb21, label %panic4

panic3:                                           ; preds = %bb22
; call core::panicking::panic_null_pointer_dereference
  call void @_ZN4core9panicking30panic_null_pointer_dereference17hf718fcc86a223baaE(ptr align 8 @alloc_78772e9746ba4e4bb2aaf51ea1bd1391) #4
  unreachable

bb21:                                             ; preds = %bb25
  %_115 = ptrtoint ptr %_7 to i64
  %_118 = icmp eq i64 %_115, 0
  %_119 = and i1 %_118, true
  %_120 = xor i1 %_119, true
  br i1 %_120, label %bb26, label %panic5

panic4:                                           ; preds = %bb25
; call core::panicking::panic_misaligned_pointer_dereference
  call void @_ZN4core9panicking36panic_misaligned_pointer_dereference17hcc3cbded9382b6e5E(i64 8, i64 %_83, ptr align 8 @alloc_7e3fb20a7114daca931f00ad16ba181b) #4
  unreachable

bb26:                                             ; preds = %bb21
  %1 = getelementptr inbounds i8, ptr %_7, i64 4
  store i32 %at, ptr %1, align 4
  %_77 = ptrtoint ptr %_7 to i64
  %_80 = and i64 %_77, 7
  %_81 = icmp eq i64 %_80, 0
  br i1 %_81, label %bb20, label %panic6

panic5:                                           ; preds = %bb21
; call core::panicking::panic_null_pointer_dereference
  call void @_ZN4core9panicking30panic_null_pointer_dereference17hf718fcc86a223baaE(ptr align 8 @alloc_7e3fb20a7114daca931f00ad16ba181b) #4
  unreachable

bb20:                                             ; preds = %bb26
  %_122 = ptrtoint ptr %_7 to i64
  %_125 = icmp eq i64 %_122, 0
  %_126 = and i1 %_125, true
  %_127 = xor i1 %_126, true
  br i1 %_127, label %bb27, label %panic7

panic6:                                           ; preds = %bb26
; call core::panicking::panic_misaligned_pointer_dereference
  call void @_ZN4core9panicking36panic_misaligned_pointer_dereference17hcc3cbded9382b6e5E(i64 8, i64 %_77, ptr align 8 @alloc_b88e51dd48bed7e7836045b7d503c26f) #4
  unreachable

bb27:                                             ; preds = %bb20
  %2 = getelementptr inbounds i8, ptr %_7, i64 8
  store i32 %bt, ptr %2, align 8
  %_71 = ptrtoint ptr %_7 to i64
  %_74 = and i64 %_71, 7
  %_75 = icmp eq i64 %_74, 0
  br i1 %_75, label %bb19, label %panic8

panic7:                                           ; preds = %bb20
; call core::panicking::panic_null_pointer_dereference
  call void @_ZN4core9panicking30panic_null_pointer_dereference17hf718fcc86a223baaE(ptr align 8 @alloc_b88e51dd48bed7e7836045b7d503c26f) #4
  unreachable

bb19:                                             ; preds = %bb27
  %_129 = ptrtoint ptr %_7 to i64
  %_132 = icmp eq i64 %_129, 0
  %_133 = and i1 %_132, true
  %_134 = xor i1 %_133, true
  br i1 %_134, label %bb28, label %panic9

panic8:                                           ; preds = %bb27
; call core::panicking::panic_misaligned_pointer_dereference
  call void @_ZN4core9panicking36panic_misaligned_pointer_dereference17hcc3cbded9382b6e5E(i64 8, i64 %_71, ptr align 8 @alloc_00e94dd8e07ae97896c26b46f43cbda2) #4
  unreachable

bb28:                                             ; preds = %bb19
  %3 = getelementptr inbounds i8, ptr %_7, i64 12
  store i32 %prior, ptr %3, align 4
  %_65 = ptrtoint ptr %_7 to i64
  %_68 = and i64 %_65, 7
  %_69 = icmp eq i64 %_68, 0
  br i1 %_69, label %bb18, label %panic10

panic9:                                           ; preds = %bb19
; call core::panicking::panic_null_pointer_dereference
  call void @_ZN4core9panicking30panic_null_pointer_dereference17hf718fcc86a223baaE(ptr align 8 @alloc_00e94dd8e07ae97896c26b46f43cbda2) #4
  unreachable

bb18:                                             ; preds = %bb28
  %_136 = ptrtoint ptr %_7 to i64
  %_139 = icmp eq i64 %_136, 0
  %_140 = and i1 %_139, true
  %_141 = xor i1 %_140, true
  br i1 %_141, label %bb29, label %panic11

panic10:                                          ; preds = %bb28
; call core::panicking::panic_misaligned_pointer_dereference
  call void @_ZN4core9panicking36panic_misaligned_pointer_dereference17hcc3cbded9382b6e5E(i64 8, i64 %_65, ptr align 8 @alloc_e1cfc5e65e0e0d8887bc69443fd54186) #4
  unreachable

bb29:                                             ; preds = %bb18
  %4 = getelementptr inbounds i8, ptr %_7, i64 32
  store ptr null, ptr %4, align 8
  %_59 = ptrtoint ptr %_7 to i64
  %_62 = and i64 %_59, 7
  %_63 = icmp eq i64 %_62, 0
  br i1 %_63, label %bb17, label %panic12

panic11:                                          ; preds = %bb18
; call core::panicking::panic_null_pointer_dereference
  call void @_ZN4core9panicking30panic_null_pointer_dereference17hf718fcc86a223baaE(ptr align 8 @alloc_e1cfc5e65e0e0d8887bc69443fd54186) #4
  unreachable

bb17:                                             ; preds = %bb29
  %_143 = ptrtoint ptr %_7 to i64
  %_146 = icmp eq i64 %_143, 0
  %_147 = and i1 %_146, true
  %_148 = xor i1 %_147, true
  br i1 %_148, label %bb30, label %panic13

panic12:                                          ; preds = %bb29
; call core::panicking::panic_misaligned_pointer_dereference
  call void @_ZN4core9panicking36panic_misaligned_pointer_dereference17hcc3cbded9382b6e5E(i64 8, i64 %_59, ptr align 8 @alloc_6939081ac62fb3603135e3880f0726eb) #4
  unreachable

bb30:                                             ; preds = %bb17
  %5 = getelementptr inbounds i8, ptr %_7, i64 16
  store i32 0, ptr %5, align 8
  %_53 = ptrtoint ptr %_7 to i64
  %_56 = and i64 %_53, 7
  %_57 = icmp eq i64 %_56, 0
  br i1 %_57, label %bb16, label %panic14

panic13:                                          ; preds = %bb17
; call core::panicking::panic_null_pointer_dereference
  call void @_ZN4core9panicking30panic_null_pointer_dereference17hf718fcc86a223baaE(ptr align 8 @alloc_6939081ac62fb3603135e3880f0726eb) #4
  unreachable

bb16:                                             ; preds = %bb30
  %_150 = ptrtoint ptr %_7 to i64
  %_153 = icmp eq i64 %_150, 0
  %_154 = and i1 %_153, true
  %_155 = xor i1 %_154, true
  br i1 %_155, label %bb31, label %panic15

panic14:                                          ; preds = %bb30
; call core::panicking::panic_misaligned_pointer_dereference
  call void @_ZN4core9panicking36panic_misaligned_pointer_dereference17hcc3cbded9382b6e5E(i64 8, i64 %_53, ptr align 8 @alloc_05519a5e87539bab8368e2f0eb332379) #4
  unreachable

bb31:                                             ; preds = %bb16
  %6 = getelementptr inbounds i8, ptr %_7, i64 20
  store i32 0, ptr %6, align 4
  %_47 = ptrtoint ptr %_7 to i64
  %_50 = and i64 %_47, 7
  %_51 = icmp eq i64 %_50, 0
  br i1 %_51, label %bb15, label %panic16

panic15:                                          ; preds = %bb16
; call core::panicking::panic_null_pointer_dereference
  call void @_ZN4core9panicking30panic_null_pointer_dereference17hf718fcc86a223baaE(ptr align 8 @alloc_05519a5e87539bab8368e2f0eb332379) #4
  unreachable

bb15:                                             ; preds = %bb31
  %_157 = ptrtoint ptr %_7 to i64
  %_160 = icmp eq i64 %_157, 0
  %_161 = and i1 %_160, true
  %_162 = xor i1 %_161, true
  br i1 %_162, label %bb32, label %panic17

panic16:                                          ; preds = %bb31
; call core::panicking::panic_misaligned_pointer_dereference
  call void @_ZN4core9panicking36panic_misaligned_pointer_dereference17hcc3cbded9382b6e5E(i64 8, i64 %_47, ptr align 8 @alloc_f0feb2aece4921177f6c6a020c995740) #4
  unreachable

bb32:                                             ; preds = %bb15
  %7 = getelementptr inbounds i8, ptr %_7, i64 24
  store i32 0, ptr %7, align 8
  %_41 = ptrtoint ptr %root to i64
  %_44 = and i64 %_41, 7
  %_45 = icmp eq i64 %_44, 0
  br i1 %_45, label %bb14, label %panic18

panic17:                                          ; preds = %bb15
; call core::panicking::panic_null_pointer_dereference
  call void @_ZN4core9panicking30panic_null_pointer_dereference17hf718fcc86a223baaE(ptr align 8 @alloc_f0feb2aece4921177f6c6a020c995740) #4
  unreachable

bb14:                                             ; preds = %bb32
  %_164 = ptrtoint ptr %root to i64
  %_167 = icmp eq i64 %_164, 0
  %_168 = and i1 %_167, true
  %_169 = xor i1 %_168, true
  br i1 %_169, label %bb33, label %panic19

panic18:                                          ; preds = %bb32
; call core::panicking::panic_misaligned_pointer_dereference
  call void @_ZN4core9panicking36panic_misaligned_pointer_dereference17hcc3cbded9382b6e5E(i64 8, i64 %_41, ptr align 8 @alloc_8693478e7b4e8a998374da26f0f0e103) #4
  unreachable

bb33:                                             ; preds = %bb14
  %_12 = load ptr, ptr %root, align 8
; call core::ptr::mut_ptr::<impl *mut T>::is_null
  %_11 = call zeroext i1 @"_ZN4core3ptr7mut_ptr31_$LT$impl$u20$$BP$mut$u20$T$GT$7is_null17h94e9dd4f165e1bb4E"(ptr %_12) #3
  br i1 %_11, label %bb4, label %bb5

panic19:                                          ; preds = %bb14
; call core::panicking::panic_null_pointer_dereference
  call void @_ZN4core9panicking30panic_null_pointer_dereference17hf718fcc86a223baaE(ptr align 8 @alloc_8693478e7b4e8a998374da26f0f0e103) #4
  unreachable

bb5:                                              ; preds = %bb37, %bb33
  %_28 = load ptr, ptr %ptr, align 8
  %_29 = ptrtoint ptr %_28 to i64
  %_32 = and i64 %_29, 7
  %_33 = icmp eq i64 %_32, 0
  br i1 %_33, label %bb12, label %panic20

bb4:                                              ; preds = %bb33
  %_35 = ptrtoint ptr %root to i64
  %_38 = and i64 %_35, 7
  %_39 = icmp eq i64 %_38, 0
  br i1 %_39, label %bb13, label %panic26

bb12:                                             ; preds = %bb5
  %_177 = load ptr, ptr %ptr, align 8
  %_178 = ptrtoint ptr %_177 to i64
  %_181 = icmp eq i64 %_178, 0
  %_182 = and i1 %_181, true
  %_183 = xor i1 %_182, true
  br i1 %_183, label %bb35, label %panic21

panic20:                                          ; preds = %bb5
; call core::panicking::panic_misaligned_pointer_dereference
  call void @_ZN4core9panicking36panic_misaligned_pointer_dereference17hcc3cbded9382b6e5E(i64 8, i64 %_29, ptr align 8 @alloc_2e5a67add5b4157b4fa798a5d14a2ec1) #4
  unreachable

bb35:                                             ; preds = %bb12
  %8 = load ptr, ptr %ptr, align 8
  %9 = getelementptr inbounds i8, ptr %8, i64 32
  %_14 = load ptr, ptr %9, align 8
; call core::ptr::mut_ptr::<impl *mut T>::is_null
  %_13 = call zeroext i1 @"_ZN4core3ptr7mut_ptr31_$LT$impl$u20$$BP$mut$u20$T$GT$7is_null17h94e9dd4f165e1bb4E"(ptr %_14) #3
  br i1 %_13, label %bb7, label %bb8

panic21:                                          ; preds = %bb12
; call core::panicking::panic_null_pointer_dereference
  call void @_ZN4core9panicking30panic_null_pointer_dereference17hf718fcc86a223baaE(ptr align 8 @alloc_2e5a67add5b4157b4fa798a5d14a2ec1) #4
  unreachable

bb8:                                              ; preds = %bb35
  %_16 = load ptr, ptr %ptr, align 8
  %_17 = ptrtoint ptr %_16 to i64
  %_20 = and i64 %_17, 7
  %_21 = icmp eq i64 %_20, 0
  br i1 %_21, label %bb10, label %panic22

bb7:                                              ; preds = %bb35
  %_22 = load ptr, ptr %ptr, align 8
  %_23 = ptrtoint ptr %_22 to i64
  %_26 = and i64 %_23, 7
  %_27 = icmp eq i64 %_26, 0
  br i1 %_27, label %bb11, label %panic24

bb10:                                             ; preds = %bb8
  %_191 = load ptr, ptr %ptr, align 8
  %_192 = ptrtoint ptr %_191 to i64
  %_195 = icmp eq i64 %_192, 0
  %_196 = and i1 %_195, true
  %_197 = xor i1 %_196, true
  br i1 %_197, label %bb37, label %panic23

panic22:                                          ; preds = %bb8
; call core::panicking::panic_misaligned_pointer_dereference
  call void @_ZN4core9panicking36panic_misaligned_pointer_dereference17hcc3cbded9382b6e5E(i64 8, i64 %_17, ptr align 8 @alloc_f77e4ca413fd413b8d0dbfaac50e1b0d) #4
  unreachable

bb37:                                             ; preds = %bb10
  %10 = load ptr, ptr %ptr, align 8
  %11 = getelementptr inbounds i8, ptr %10, i64 32
  %_15 = load ptr, ptr %11, align 8
  store ptr %_15, ptr %ptr, align 8
  br label %bb5

panic23:                                          ; preds = %bb10
; call core::panicking::panic_null_pointer_dereference
  call void @_ZN4core9panicking30panic_null_pointer_dereference17hf718fcc86a223baaE(ptr align 8 @alloc_f77e4ca413fd413b8d0dbfaac50e1b0d) #4
  unreachable

bb11:                                             ; preds = %bb7
  %_184 = load ptr, ptr %ptr, align 8
  %_185 = ptrtoint ptr %_184 to i64
  %_188 = icmp eq i64 %_185, 0
  %_189 = and i1 %_188, true
  %_190 = xor i1 %_189, true
  br i1 %_190, label %bb36, label %panic25

panic24:                                          ; preds = %bb7
; call core::panicking::panic_misaligned_pointer_dereference
  call void @_ZN4core9panicking36panic_misaligned_pointer_dereference17hcc3cbded9382b6e5E(i64 8, i64 %_23, ptr align 8 @alloc_fed22b540af341725ca93da381473a8d) #4
  unreachable

bb36:                                             ; preds = %bb11
  %12 = load ptr, ptr %ptr, align 8
  %13 = getelementptr inbounds i8, ptr %12, i64 32
  store ptr %_7, ptr %13, align 8
  br label %bb9

panic25:                                          ; preds = %bb11
; call core::panicking::panic_null_pointer_dereference
  call void @_ZN4core9panicking30panic_null_pointer_dereference17hf718fcc86a223baaE(ptr align 8 @alloc_fed22b540af341725ca93da381473a8d) #4
  unreachable

bb9:                                              ; preds = %bb34, %bb36
  ret void

bb13:                                             ; preds = %bb4
  %_171 = ptrtoint ptr %root to i64
  %_174 = icmp eq i64 %_171, 0
  %_175 = and i1 %_174, true
  %_176 = xor i1 %_175, true
  br i1 %_176, label %bb34, label %panic27

panic26:                                          ; preds = %bb4
; call core::panicking::panic_misaligned_pointer_dereference
  call void @_ZN4core9panicking36panic_misaligned_pointer_dereference17hcc3cbded9382b6e5E(i64 8, i64 %_35, ptr align 8 @alloc_d72a9f8fb4af32f6b0dd8db31663a995) #4
  unreachable

bb34:                                             ; preds = %bb13
  store ptr %_7, ptr %root, align 8
  br label %bb9

panic27:                                          ; preds = %bb13
; call core::panicking::panic_null_pointer_dereference
  call void @_ZN4core9panicking30panic_null_pointer_dereference17hf718fcc86a223baaE(ptr align 8 @alloc_d72a9f8fb4af32f6b0dd8db31663a995) #4
  unreachable
}

; Function Attrs: nounwind nonlazybind
define void @delete(ptr %root, i32 %id) unnamed_addr #1 {
start:
  %prev = alloca [8 x i8], align 8
  %ptr = alloca [8 x i8], align 8
  %_68 = ptrtoint ptr %root to i64
  %_71 = and i64 %_68, 7
  %_72 = icmp eq i64 %_71, 0
  br i1 %_72, label %bb19, label %panic

bb19:                                             ; preds = %start
  %_74 = ptrtoint ptr %root to i64
  %_77 = icmp eq i64 %_74, 0
  %_78 = and i1 %_77, true
  %_79 = xor i1 %_78, true
  br i1 %_79, label %bb20, label %panic1

panic:                                            ; preds = %start
; call core::panicking::panic_misaligned_pointer_dereference
  call void @_ZN4core9panicking36panic_misaligned_pointer_dereference17hcc3cbded9382b6e5E(i64 8, i64 %_68, ptr align 8 @alloc_cec6fc88f95e7b7f3174c51c560e40c3) #4
  unreachable

bb20:                                             ; preds = %bb19
  %0 = load ptr, ptr %root, align 8
  store ptr %0, ptr %ptr, align 8
  store ptr null, ptr %prev, align 8
  %_6 = load ptr, ptr %ptr, align 8
; call core::ptr::mut_ptr::<impl *mut T>::is_null
  %_5 = call zeroext i1 @"_ZN4core3ptr7mut_ptr31_$LT$impl$u20$$BP$mut$u20$T$GT$7is_null17h94e9dd4f165e1bb4E"(ptr %_6) #3
  br i1 %_5, label %bb11, label %bb2

panic1:                                           ; preds = %bb19
; call core::panicking::panic_null_pointer_dereference
  call void @_ZN4core9panicking30panic_null_pointer_dereference17hf718fcc86a223baaE(ptr align 8 @alloc_cec6fc88f95e7b7f3174c51c560e40c3) #4
  unreachable

bb2:                                              ; preds = %bb20
  %_61 = load ptr, ptr %ptr, align 8
  %_62 = ptrtoint ptr %_61 to i64
  %_65 = and i64 %_62, 7
  %_66 = icmp eq i64 %_65, 0
  br i1 %_66, label %bb18, label %panic2

bb11:                                             ; preds = %bb23, %bb27, %bb8, %bb20
  ret void

bb18:                                             ; preds = %bb2
  %_80 = load ptr, ptr %ptr, align 8
  %_81 = ptrtoint ptr %_80 to i64
  %_84 = icmp eq i64 %_81, 0
  %_85 = and i1 %_84, true
  %_86 = xor i1 %_85, true
  br i1 %_86, label %bb21, label %panic3

panic2:                                           ; preds = %bb2
; call core::panicking::panic_misaligned_pointer_dereference
  call void @_ZN4core9panicking36panic_misaligned_pointer_dereference17hcc3cbded9382b6e5E(i64 8, i64 %_62, ptr align 8 @alloc_5641af611437933b52efdafe9f524b94) #4
  unreachable

bb21:                                             ; preds = %bb18
  %1 = load ptr, ptr %ptr, align 8
  %_8 = load i32, ptr %1, align 8
  %_7 = icmp eq i32 %_8, %id
  br i1 %_7, label %bb3, label %bb4

panic3:                                           ; preds = %bb18
; call core::panicking::panic_null_pointer_dereference
  call void @_ZN4core9panicking30panic_null_pointer_dereference17hf718fcc86a223baaE(ptr align 8 @alloc_5641af611437933b52efdafe9f524b94) #4
  unreachable

bb4:                                              ; preds = %bb25, %bb21
  %_14 = load ptr, ptr %ptr, align 8
; call core::ptr::mut_ptr::<impl *mut T>::is_null
  %_13 = call zeroext i1 @"_ZN4core3ptr7mut_ptr31_$LT$impl$u20$$BP$mut$u20$T$GT$7is_null17h94e9dd4f165e1bb4E"(ptr %_14) #3
  br i1 %_13, label %bb8, label %bb6

bb3:                                              ; preds = %bb21
  %_55 = load ptr, ptr %ptr, align 8
  %_56 = ptrtoint ptr %_55 to i64
  %_59 = and i64 %_56, 7
  %_60 = icmp eq i64 %_59, 0
  br i1 %_60, label %bb17, label %panic12

bb6:                                              ; preds = %bb4
  %_43 = load ptr, ptr %ptr, align 8
  %_44 = ptrtoint ptr %_43 to i64
  %_47 = and i64 %_44, 7
  %_48 = icmp eq i64 %_47, 0
  br i1 %_48, label %bb15, label %panic4

bb8:                                              ; preds = %bb24, %bb4
  %_20 = load ptr, ptr %ptr, align 8
; call core::ptr::mut_ptr::<impl *mut T>::is_null
  %_19 = call zeroext i1 @"_ZN4core3ptr7mut_ptr31_$LT$impl$u20$$BP$mut$u20$T$GT$7is_null17h94e9dd4f165e1bb4E"(ptr %_20) #3
  br i1 %_19, label %bb11, label %bb10

bb15:                                             ; preds = %bb6
  %_101 = load ptr, ptr %ptr, align 8
  %_102 = ptrtoint ptr %_101 to i64
  %_105 = icmp eq i64 %_102, 0
  %_106 = and i1 %_105, true
  %_107 = xor i1 %_106, true
  br i1 %_107, label %bb24, label %panic5

panic4:                                           ; preds = %bb6
; call core::panicking::panic_misaligned_pointer_dereference
  call void @_ZN4core9panicking36panic_misaligned_pointer_dereference17hcc3cbded9382b6e5E(i64 8, i64 %_44, ptr align 8 @alloc_1d73e66a8b777ca2aa2a0f8927f78b9f) #4
  unreachable

bb24:                                             ; preds = %bb15
  %2 = load ptr, ptr %ptr, align 8
  %_16 = load i32, ptr %2, align 8
  %_15 = icmp ne i32 %_16, %id
  br i1 %_15, label %bb7, label %bb8

panic5:                                           ; preds = %bb15
; call core::panicking::panic_null_pointer_dereference
  call void @_ZN4core9panicking30panic_null_pointer_dereference17hf718fcc86a223baaE(ptr align 8 @alloc_1d73e66a8b777ca2aa2a0f8927f78b9f) #4
  unreachable

bb7:                                              ; preds = %bb24
  %_17 = load ptr, ptr %ptr, align 8
  store ptr %_17, ptr %prev, align 8
  %_37 = load ptr, ptr %ptr, align 8
  %_38 = ptrtoint ptr %_37 to i64
  %_41 = and i64 %_38, 7
  %_42 = icmp eq i64 %_41, 0
  br i1 %_42, label %bb14, label %panic6

bb14:                                             ; preds = %bb7
  %_108 = load ptr, ptr %ptr, align 8
  %_109 = ptrtoint ptr %_108 to i64
  %_112 = icmp eq i64 %_109, 0
  %_113 = and i1 %_112, true
  %_114 = xor i1 %_113, true
  br i1 %_114, label %bb25, label %panic7

panic6:                                           ; preds = %bb7
; call core::panicking::panic_misaligned_pointer_dereference
  call void @_ZN4core9panicking36panic_misaligned_pointer_dereference17hcc3cbded9382b6e5E(i64 8, i64 %_38, ptr align 8 @alloc_7bed3bad79b3c05b34a35f82edac66f9) #4
  unreachable

bb25:                                             ; preds = %bb14
  %3 = load ptr, ptr %ptr, align 8
  %4 = getelementptr inbounds i8, ptr %3, i64 32
  %_18 = load ptr, ptr %4, align 8
  store ptr %_18, ptr %ptr, align 8
  br label %bb4

panic7:                                           ; preds = %bb14
; call core::panicking::panic_null_pointer_dereference
  call void @_ZN4core9panicking30panic_null_pointer_dereference17hf718fcc86a223baaE(ptr align 8 @alloc_7bed3bad79b3c05b34a35f82edac66f9) #4
  unreachable

bb10:                                             ; preds = %bb8
  %_31 = load ptr, ptr %ptr, align 8
  %_32 = ptrtoint ptr %_31 to i64
  %_35 = and i64 %_32, 7
  %_36 = icmp eq i64 %_35, 0
  br i1 %_36, label %bb13, label %panic8

bb13:                                             ; preds = %bb10
  %_115 = load ptr, ptr %ptr, align 8
  %_116 = ptrtoint ptr %_115 to i64
  %_119 = icmp eq i64 %_116, 0
  %_120 = and i1 %_119, true
  %_121 = xor i1 %_120, true
  br i1 %_121, label %bb26, label %panic9

panic8:                                           ; preds = %bb10
; call core::panicking::panic_misaligned_pointer_dereference
  call void @_ZN4core9panicking36panic_misaligned_pointer_dereference17hcc3cbded9382b6e5E(i64 8, i64 %_32, ptr align 8 @alloc_539f3f1b9c5f472fb6baf2ecf9dc0bc9) #4
  unreachable

bb26:                                             ; preds = %bb13
  %5 = load ptr, ptr %ptr, align 8
  %6 = getelementptr inbounds i8, ptr %5, i64 32
  %_21 = load ptr, ptr %6, align 8
  %_25 = load ptr, ptr %prev, align 8
  %_26 = ptrtoint ptr %_25 to i64
  %_29 = and i64 %_26, 7
  %_30 = icmp eq i64 %_29, 0
  br i1 %_30, label %bb12, label %panic10

panic9:                                           ; preds = %bb13
; call core::panicking::panic_null_pointer_dereference
  call void @_ZN4core9panicking30panic_null_pointer_dereference17hf718fcc86a223baaE(ptr align 8 @alloc_539f3f1b9c5f472fb6baf2ecf9dc0bc9) #4
  unreachable

bb12:                                             ; preds = %bb26
  %_122 = load ptr, ptr %prev, align 8
  %_123 = ptrtoint ptr %_122 to i64
  %_126 = icmp eq i64 %_123, 0
  %_127 = and i1 %_126, true
  %_128 = xor i1 %_127, true
  br i1 %_128, label %bb27, label %panic11

panic10:                                          ; preds = %bb26
; call core::panicking::panic_misaligned_pointer_dereference
  call void @_ZN4core9panicking36panic_misaligned_pointer_dereference17hcc3cbded9382b6e5E(i64 8, i64 %_26, ptr align 8 @alloc_158cd7a8450781746e6b2baa76967723) #4
  unreachable

bb27:                                             ; preds = %bb12
  %7 = load ptr, ptr %prev, align 8
  %8 = getelementptr inbounds i8, ptr %7, i64 32
  store ptr %_21, ptr %8, align 8
  %_24 = load ptr, ptr %ptr, align 8
  call void @free(ptr %_24) #3
  br label %bb11

panic11:                                          ; preds = %bb12
; call core::panicking::panic_null_pointer_dereference
  call void @_ZN4core9panicking30panic_null_pointer_dereference17hf718fcc86a223baaE(ptr align 8 @alloc_158cd7a8450781746e6b2baa76967723) #4
  unreachable

bb17:                                             ; preds = %bb3
  %_87 = load ptr, ptr %ptr, align 8
  %_88 = ptrtoint ptr %_87 to i64
  %_91 = icmp eq i64 %_88, 0
  %_92 = and i1 %_91, true
  %_93 = xor i1 %_92, true
  br i1 %_93, label %bb22, label %panic13

panic12:                                          ; preds = %bb3
; call core::panicking::panic_misaligned_pointer_dereference
  call void @_ZN4core9panicking36panic_misaligned_pointer_dereference17hcc3cbded9382b6e5E(i64 8, i64 %_56, ptr align 8 @alloc_d6e62cbdde3667d40411f15d0fa90ea6) #4
  unreachable

bb22:                                             ; preds = %bb17
  %9 = load ptr, ptr %ptr, align 8
  %10 = getelementptr inbounds i8, ptr %9, i64 32
  %_9 = load ptr, ptr %10, align 8
  %_50 = ptrtoint ptr %root to i64
  %_53 = and i64 %_50, 7
  %_54 = icmp eq i64 %_53, 0
  br i1 %_54, label %bb16, label %panic14

panic13:                                          ; preds = %bb17
; call core::panicking::panic_null_pointer_dereference
  call void @_ZN4core9panicking30panic_null_pointer_dereference17hf718fcc86a223baaE(ptr align 8 @alloc_d6e62cbdde3667d40411f15d0fa90ea6) #4
  unreachable

bb16:                                             ; preds = %bb22
  %_95 = ptrtoint ptr %root to i64
  %_98 = icmp eq i64 %_95, 0
  %_99 = and i1 %_98, true
  %_100 = xor i1 %_99, true
  br i1 %_100, label %bb23, label %panic15

panic14:                                          ; preds = %bb22
; call core::panicking::panic_misaligned_pointer_dereference
  call void @_ZN4core9panicking36panic_misaligned_pointer_dereference17hcc3cbded9382b6e5E(i64 8, i64 %_50, ptr align 8 @alloc_35d90a707abd40a3ae5b455348d0ea81) #4
  unreachable

bb23:                                             ; preds = %bb16
  store ptr %_9, ptr %root, align 8
  %_12 = load ptr, ptr %ptr, align 8
  call void @free(ptr %_12) #3
  br label %bb11

panic15:                                          ; preds = %bb16
; call core::panicking::panic_null_pointer_dereference
  call void @_ZN4core9panicking30panic_null_pointer_dereference17hf718fcc86a223baaE(ptr align 8 @alloc_35d90a707abd40a3ae5b455348d0ea81) #4
  unreachable
}

; Function Attrs: nounwind nonlazybind
define void @show_list(ptr %0) unnamed_addr #1 {
start:
  %head = alloca [8 x i8], align 8
  store ptr %0, ptr %head, align 8
  %_2 = call i32 (ptr, ...) @printf(ptr @alloc_cd859f4803ed2d17174f97599ad8304d) #3
  br label %bb1

bb1:                                              ; preds = %bb21, %start
  %_8 = load ptr, ptr %head, align 8
; call core::ptr::mut_ptr::<impl *mut T>::is_null
  %_7 = call zeroext i1 @"_ZN4core3ptr7mut_ptr31_$LT$impl$u20$$BP$mut$u20$T$GT$7is_null17h94e9dd4f165e1bb4E"(ptr %_8) #3
  br i1 %_7, label %bb3, label %bb4

bb4:                                              ; preds = %bb1
  %_64 = load ptr, ptr %head, align 8
  %_65 = ptrtoint ptr %_64 to i64
  %_68 = and i64 %_65, 7
  %_69 = icmp eq i64 %_68, 0
  br i1 %_69, label %bb13, label %panic

bb3:                                              ; preds = %bb1
  ret void

bb13:                                             ; preds = %bb4
  %_70 = load ptr, ptr %head, align 8
  %_71 = ptrtoint ptr %_70 to i64
  %_74 = icmp eq i64 %_71, 0
  %_75 = and i1 %_74, true
  %_76 = xor i1 %_75, true
  br i1 %_76, label %bb14, label %panic1

panic:                                            ; preds = %bb4
; call core::panicking::panic_misaligned_pointer_dereference
  call void @_ZN4core9panicking36panic_misaligned_pointer_dereference17hcc3cbded9382b6e5E(i64 8, i64 %_65, ptr align 8 @alloc_0cf861d311894289134f7342c90191f1) #4
  unreachable

bb14:                                             ; preds = %bb13
  %1 = load ptr, ptr %head, align 8
  %_14 = load i32, ptr %1, align 8
  %_58 = load ptr, ptr %head, align 8
  %_59 = ptrtoint ptr %_58 to i64
  %_62 = and i64 %_59, 7
  %_63 = icmp eq i64 %_62, 0
  br i1 %_63, label %bb12, label %panic2

panic1:                                           ; preds = %bb13
; call core::panicking::panic_null_pointer_dereference
  call void @_ZN4core9panicking30panic_null_pointer_dereference17hf718fcc86a223baaE(ptr align 8 @alloc_0cf861d311894289134f7342c90191f1) #4
  unreachable

bb12:                                             ; preds = %bb14
  %_77 = load ptr, ptr %head, align 8
  %_78 = ptrtoint ptr %_77 to i64
  %_81 = icmp eq i64 %_78, 0
  %_82 = and i1 %_81, true
  %_83 = xor i1 %_82, true
  br i1 %_83, label %bb15, label %panic3

panic2:                                           ; preds = %bb14
; call core::panicking::panic_misaligned_pointer_dereference
  call void @_ZN4core9panicking36panic_misaligned_pointer_dereference17hcc3cbded9382b6e5E(i64 8, i64 %_59, ptr align 8 @alloc_83c970aa04769eb790e7d0c2e6f3a336) #4
  unreachable

bb15:                                             ; preds = %bb12
  %2 = load ptr, ptr %head, align 8
  %3 = getelementptr inbounds i8, ptr %2, i64 12
  %_15 = load i32, ptr %3, align 4
  %_52 = load ptr, ptr %head, align 8
  %_53 = ptrtoint ptr %_52 to i64
  %_56 = and i64 %_53, 7
  %_57 = icmp eq i64 %_56, 0
  br i1 %_57, label %bb11, label %panic4

panic3:                                           ; preds = %bb12
; call core::panicking::panic_null_pointer_dereference
  call void @_ZN4core9panicking30panic_null_pointer_dereference17hf718fcc86a223baaE(ptr align 8 @alloc_83c970aa04769eb790e7d0c2e6f3a336) #4
  unreachable

bb11:                                             ; preds = %bb15
  %_84 = load ptr, ptr %head, align 8
  %_85 = ptrtoint ptr %_84 to i64
  %_88 = icmp eq i64 %_85, 0
  %_89 = and i1 %_88, true
  %_90 = xor i1 %_89, true
  br i1 %_90, label %bb16, label %panic5

panic4:                                           ; preds = %bb15
; call core::panicking::panic_misaligned_pointer_dereference
  call void @_ZN4core9panicking36panic_misaligned_pointer_dereference17hcc3cbded9382b6e5E(i64 8, i64 %_53, ptr align 8 @alloc_ec148ec1cf57a62932882f23ce0ebf3e) #4
  unreachable

bb16:                                             ; preds = %bb11
  %4 = load ptr, ptr %head, align 8
  %5 = getelementptr inbounds i8, ptr %4, i64 4
  %_16 = load i32, ptr %5, align 4
  %_46 = load ptr, ptr %head, align 8
  %_47 = ptrtoint ptr %_46 to i64
  %_50 = and i64 %_47, 7
  %_51 = icmp eq i64 %_50, 0
  br i1 %_51, label %bb10, label %panic6

panic5:                                           ; preds = %bb11
; call core::panicking::panic_null_pointer_dereference
  call void @_ZN4core9panicking30panic_null_pointer_dereference17hf718fcc86a223baaE(ptr align 8 @alloc_ec148ec1cf57a62932882f23ce0ebf3e) #4
  unreachable

bb10:                                             ; preds = %bb16
  %_91 = load ptr, ptr %head, align 8
  %_92 = ptrtoint ptr %_91 to i64
  %_95 = icmp eq i64 %_92, 0
  %_96 = and i1 %_95, true
  %_97 = xor i1 %_96, true
  br i1 %_97, label %bb17, label %panic7

panic6:                                           ; preds = %bb16
; call core::panicking::panic_misaligned_pointer_dereference
  call void @_ZN4core9panicking36panic_misaligned_pointer_dereference17hcc3cbded9382b6e5E(i64 8, i64 %_47, ptr align 8 @alloc_e577449b88d269ebd831e409cc97e8ac) #4
  unreachable

bb17:                                             ; preds = %bb10
  %6 = load ptr, ptr %head, align 8
  %7 = getelementptr inbounds i8, ptr %6, i64 8
  %_17 = load i32, ptr %7, align 8
  %_40 = load ptr, ptr %head, align 8
  %_41 = ptrtoint ptr %_40 to i64
  %_44 = and i64 %_41, 7
  %_45 = icmp eq i64 %_44, 0
  br i1 %_45, label %bb9, label %panic8

panic7:                                           ; preds = %bb10
; call core::panicking::panic_null_pointer_dereference
  call void @_ZN4core9panicking30panic_null_pointer_dereference17hf718fcc86a223baaE(ptr align 8 @alloc_e577449b88d269ebd831e409cc97e8ac) #4
  unreachable

bb9:                                              ; preds = %bb17
  %_98 = load ptr, ptr %head, align 8
  %_99 = ptrtoint ptr %_98 to i64
  %_102 = icmp eq i64 %_99, 0
  %_103 = and i1 %_102, true
  %_104 = xor i1 %_103, true
  br i1 %_104, label %bb18, label %panic9

panic8:                                           ; preds = %bb17
; call core::panicking::panic_misaligned_pointer_dereference
  call void @_ZN4core9panicking36panic_misaligned_pointer_dereference17hcc3cbded9382b6e5E(i64 8, i64 %_41, ptr align 8 @alloc_88d35e2688e20d58b2364e2e9f502ca3) #4
  unreachable

bb18:                                             ; preds = %bb9
  %8 = load ptr, ptr %head, align 8
  %9 = getelementptr inbounds i8, ptr %8, i64 16
  %_18 = load i32, ptr %9, align 8
  %_34 = load ptr, ptr %head, align 8
  %_35 = ptrtoint ptr %_34 to i64
  %_38 = and i64 %_35, 7
  %_39 = icmp eq i64 %_38, 0
  br i1 %_39, label %bb8, label %panic10

panic9:                                           ; preds = %bb9
; call core::panicking::panic_null_pointer_dereference
  call void @_ZN4core9panicking30panic_null_pointer_dereference17hf718fcc86a223baaE(ptr align 8 @alloc_88d35e2688e20d58b2364e2e9f502ca3) #4
  unreachable

bb8:                                              ; preds = %bb18
  %_105 = load ptr, ptr %head, align 8
  %_106 = ptrtoint ptr %_105 to i64
  %_109 = icmp eq i64 %_106, 0
  %_110 = and i1 %_109, true
  %_111 = xor i1 %_110, true
  br i1 %_111, label %bb19, label %panic11

panic10:                                          ; preds = %bb18
; call core::panicking::panic_misaligned_pointer_dereference
  call void @_ZN4core9panicking36panic_misaligned_pointer_dereference17hcc3cbded9382b6e5E(i64 8, i64 %_35, ptr align 8 @alloc_25cccdb447fd3f34ffdfc4817c88ace6) #4
  unreachable

bb19:                                             ; preds = %bb8
  %10 = load ptr, ptr %head, align 8
  %11 = getelementptr inbounds i8, ptr %10, i64 24
  %_19 = load i32, ptr %11, align 8
  %_28 = load ptr, ptr %head, align 8
  %_29 = ptrtoint ptr %_28 to i64
  %_32 = and i64 %_29, 7
  %_33 = icmp eq i64 %_32, 0
  br i1 %_33, label %bb7, label %panic12

panic11:                                          ; preds = %bb8
; call core::panicking::panic_null_pointer_dereference
  call void @_ZN4core9panicking30panic_null_pointer_dereference17hf718fcc86a223baaE(ptr align 8 @alloc_25cccdb447fd3f34ffdfc4817c88ace6) #4
  unreachable

bb7:                                              ; preds = %bb19
  %_112 = load ptr, ptr %head, align 8
  %_113 = ptrtoint ptr %_112 to i64
  %_116 = icmp eq i64 %_113, 0
  %_117 = and i1 %_116, true
  %_118 = xor i1 %_117, true
  br i1 %_118, label %bb20, label %panic13

panic12:                                          ; preds = %bb19
; call core::panicking::panic_misaligned_pointer_dereference
  call void @_ZN4core9panicking36panic_misaligned_pointer_dereference17hcc3cbded9382b6e5E(i64 8, i64 %_29, ptr align 8 @alloc_b0b064e74fdb2038bbe3efe7f1061f8f) #4
  unreachable

bb20:                                             ; preds = %bb7
  %12 = load ptr, ptr %head, align 8
  %13 = getelementptr inbounds i8, ptr %12, i64 20
  %_20 = load i32, ptr %13, align 4
  %_9 = call i32 (ptr, ...) @printf(ptr @alloc_4c173fa037d8f630eee12b3a76449063, i32 %_14, i32 %_15, i32 %_16, i32 %_17, i32 %_18, i32 %_19, i32 %_20) #3
  %_22 = load ptr, ptr %head, align 8
  %_23 = ptrtoint ptr %_22 to i64
  %_26 = and i64 %_23, 7
  %_27 = icmp eq i64 %_26, 0
  br i1 %_27, label %bb6, label %panic14

panic13:                                          ; preds = %bb7
; call core::panicking::panic_null_pointer_dereference
  call void @_ZN4core9panicking30panic_null_pointer_dereference17hf718fcc86a223baaE(ptr align 8 @alloc_b0b064e74fdb2038bbe3efe7f1061f8f) #4
  unreachable

bb6:                                              ; preds = %bb20
  %_119 = load ptr, ptr %head, align 8
  %_120 = ptrtoint ptr %_119 to i64
  %_123 = icmp eq i64 %_120, 0
  %_124 = and i1 %_123, true
  %_125 = xor i1 %_124, true
  br i1 %_125, label %bb21, label %panic15

panic14:                                          ; preds = %bb20
; call core::panicking::panic_misaligned_pointer_dereference
  call void @_ZN4core9panicking36panic_misaligned_pointer_dereference17hcc3cbded9382b6e5E(i64 8, i64 %_23, ptr align 8 @alloc_f053862d19316335a7cb4d24970fe23a) #4
  unreachable

bb21:                                             ; preds = %bb6
  %14 = load ptr, ptr %head, align 8
  %15 = getelementptr inbounds i8, ptr %14, i64 32
  %_21 = load ptr, ptr %15, align 8
  store ptr %_21, ptr %head, align 8
  br label %bb1

panic15:                                          ; preds = %bb6
; call core::panicking::panic_null_pointer_dereference
  call void @_ZN4core9panicking30panic_null_pointer_dereference17hf718fcc86a223baaE(ptr align 8 @alloc_f053862d19316335a7cb4d24970fe23a) #4
  unreachable
}

; Function Attrs: nounwind nonlazybind
define i32 @l_length(ptr %root) unnamed_addr #1 {
start:
  %ptr = alloca [8 x i8], align 8
  %count = alloca [4 x i8], align 4
  store i32 0, ptr %count, align 4
  %_14 = ptrtoint ptr %root to i64
  %_17 = and i64 %_14, 7
  %_18 = icmp eq i64 %_17, 0
  br i1 %_18, label %bb6, label %panic

bb6:                                              ; preds = %start
  %_20 = ptrtoint ptr %root to i64
  %_23 = icmp eq i64 %_20, 0
  %_24 = and i1 %_23, true
  %_25 = xor i1 %_24, true
  br i1 %_25, label %bb7, label %panic1

panic:                                            ; preds = %start
; call core::panicking::panic_misaligned_pointer_dereference
  call void @_ZN4core9panicking36panic_misaligned_pointer_dereference17hcc3cbded9382b6e5E(i64 8, i64 %_14, ptr align 8 @alloc_6dd2f1a4e73e63f27caabb0706e08eb0) #4
  unreachable

bb7:                                              ; preds = %bb6
  %0 = load ptr, ptr %root, align 8
  store ptr %0, ptr %ptr, align 8
  br label %bb1

panic1:                                           ; preds = %bb6
; call core::panicking::panic_null_pointer_dereference
  call void @_ZN4core9panicking30panic_null_pointer_dereference17hf718fcc86a223baaE(ptr align 8 @alloc_6dd2f1a4e73e63f27caabb0706e08eb0) #4
  unreachable

bb1:                                              ; preds = %bb8, %bb7
  %_5 = load ptr, ptr %ptr, align 8
; call core::ptr::mut_ptr::<impl *mut T>::is_null
  %_4 = call zeroext i1 @"_ZN4core3ptr7mut_ptr31_$LT$impl$u20$$BP$mut$u20$T$GT$7is_null17h94e9dd4f165e1bb4E"(ptr %_5) #3
  br i1 %_4, label %bb3, label %bb4

bb4:                                              ; preds = %bb1
  %1 = load i32, ptr %count, align 4
  %2 = add i32 %1, 1
  store i32 %2, ptr %count, align 4
  %_7 = load ptr, ptr %ptr, align 8
  %_8 = ptrtoint ptr %_7 to i64
  %_11 = and i64 %_8, 7
  %_12 = icmp eq i64 %_11, 0
  br i1 %_12, label %bb5, label %panic2

bb3:                                              ; preds = %bb1
  %_0 = load i32, ptr %count, align 4
  ret i32 %_0

bb5:                                              ; preds = %bb4
  %_26 = load ptr, ptr %ptr, align 8
  %_27 = ptrtoint ptr %_26 to i64
  %_30 = icmp eq i64 %_27, 0
  %_31 = and i1 %_30, true
  %_32 = xor i1 %_31, true
  br i1 %_32, label %bb8, label %panic3

panic2:                                           ; preds = %bb4
; call core::panicking::panic_misaligned_pointer_dereference
  call void @_ZN4core9panicking36panic_misaligned_pointer_dereference17hcc3cbded9382b6e5E(i64 8, i64 %_8, ptr align 8 @alloc_24c923319f6ccb289057ea78f5f90e17) #4
  unreachable

bb8:                                              ; preds = %bb5
  %3 = load ptr, ptr %ptr, align 8
  %4 = getelementptr inbounds i8, ptr %3, i64 32
  %_6 = load ptr, ptr %4, align 8
  store ptr %_6, ptr %ptr, align 8
  br label %bb1

panic3:                                           ; preds = %bb5
; call core::panicking::panic_null_pointer_dereference
  call void @_ZN4core9panicking30panic_null_pointer_dereference17hf718fcc86a223baaE(ptr align 8 @alloc_24c923319f6ccb289057ea78f5f90e17) #4
  unreachable
}

; Function Attrs: nounwind nonlazybind
define void @update(ptr %root, i32 %id, i32 %ct, i32 %wt, i32 %tat) unnamed_addr #1 {
start:
  %ptr = alloca [8 x i8], align 8
  %_71 = ptrtoint ptr %root to i64
  %_74 = and i64 %_71, 7
  %_75 = icmp eq i64 %_74, 0
  br i1 %_75, label %bb29, label %panic

bb29:                                             ; preds = %start
  %_77 = ptrtoint ptr %root to i64
  %_80 = icmp eq i64 %_77, 0
  %_81 = and i1 %_80, true
  %_82 = xor i1 %_81, true
  br i1 %_82, label %bb30, label %panic1

panic:                                            ; preds = %start
; call core::panicking::panic_misaligned_pointer_dereference
  call void @_ZN4core9panicking36panic_misaligned_pointer_dereference17hcc3cbded9382b6e5E(i64 8, i64 %_71, ptr align 8 @alloc_c003855ffad169c88596f226028a8c02) #4
  unreachable

bb30:                                             ; preds = %bb29
  %0 = load ptr, ptr %root, align 8
  store ptr %0, ptr %ptr, align 8
  %_8 = load ptr, ptr %ptr, align 8
; call core::ptr::mut_ptr::<impl *mut T>::is_null
  %_7 = call zeroext i1 @"_ZN4core3ptr7mut_ptr31_$LT$impl$u20$$BP$mut$u20$T$GT$7is_null17h94e9dd4f165e1bb4E"(ptr %_8) #3
  br i1 %_7, label %bb9, label %bb2

panic1:                                           ; preds = %bb29
; call core::panicking::panic_null_pointer_dereference
  call void @_ZN4core9panicking30panic_null_pointer_dereference17hf718fcc86a223baaE(ptr align 8 @alloc_c003855ffad169c88596f226028a8c02) #4
  unreachable

bb2:                                              ; preds = %bb30
  %_64 = load ptr, ptr %ptr, align 8
  %_65 = ptrtoint ptr %_64 to i64
  %_68 = and i64 %_65, 7
  %_69 = icmp eq i64 %_68, 0
  br i1 %_69, label %bb28, label %panic2

bb9:                                              ; preds = %bb36, %bb31, %bb30
  %_12 = load ptr, ptr %ptr, align 8
; call core::ptr::mut_ptr::<impl *mut T>::is_null
  %_11 = call zeroext i1 @"_ZN4core3ptr7mut_ptr31_$LT$impl$u20$$BP$mut$u20$T$GT$7is_null17h94e9dd4f165e1bb4E"(ptr %_12) #3
  br i1 %_11, label %bb13, label %bb11

bb28:                                             ; preds = %bb2
  %_83 = load ptr, ptr %ptr, align 8
  %_84 = ptrtoint ptr %_83 to i64
  %_87 = icmp eq i64 %_84, 0
  %_88 = and i1 %_87, true
  %_89 = xor i1 %_88, true
  br i1 %_89, label %bb31, label %panic3

panic2:                                           ; preds = %bb2
; call core::panicking::panic_misaligned_pointer_dereference
  call void @_ZN4core9panicking36panic_misaligned_pointer_dereference17hcc3cbded9382b6e5E(i64 8, i64 %_65, ptr align 8 @alloc_db68b7fee3958fee6882ae4b2fca37a8) #4
  unreachable

bb31:                                             ; preds = %bb28
  %1 = load ptr, ptr %ptr, align 8
  %_10 = load i32, ptr %1, align 8
  %_9 = icmp eq i32 %_10, %id
  br i1 %_9, label %bb3, label %bb9

panic3:                                           ; preds = %bb28
; call core::panicking::panic_null_pointer_dereference
  call void @_ZN4core9panicking30panic_null_pointer_dereference17hf718fcc86a223baaE(ptr align 8 @alloc_db68b7fee3958fee6882ae4b2fca37a8) #4
  unreachable

bb3:                                              ; preds = %bb31
  %2 = icmp eq i32 %ct, 0
  br i1 %2, label %bb5, label %bb4

bb5:                                              ; preds = %bb32, %bb3
  %3 = icmp eq i32 %wt, 0
  br i1 %3, label %bb7, label %bb6

bb4:                                              ; preds = %bb3
  %_58 = load ptr, ptr %ptr, align 8
  %_59 = ptrtoint ptr %_58 to i64
  %_62 = and i64 %_59, 7
  %_63 = icmp eq i64 %_62, 0
  br i1 %_63, label %bb27, label %panic4

bb27:                                             ; preds = %bb4
  %_90 = load ptr, ptr %ptr, align 8
  %_91 = ptrtoint ptr %_90 to i64
  %_94 = icmp eq i64 %_91, 0
  %_95 = and i1 %_94, true
  %_96 = xor i1 %_95, true
  br i1 %_96, label %bb32, label %panic5

panic4:                                           ; preds = %bb4
; call core::panicking::panic_misaligned_pointer_dereference
  call void @_ZN4core9panicking36panic_misaligned_pointer_dereference17hcc3cbded9382b6e5E(i64 8, i64 %_59, ptr align 8 @alloc_9860fb69fecd049fe02a8887b8fca456) #4
  unreachable

bb32:                                             ; preds = %bb27
  %4 = load ptr, ptr %ptr, align 8
  %5 = getelementptr inbounds i8, ptr %4, i64 16
  store i32 %ct, ptr %5, align 8
  br label %bb5

panic5:                                           ; preds = %bb27
; call core::panicking::panic_null_pointer_dereference
  call void @_ZN4core9panicking30panic_null_pointer_dereference17hf718fcc86a223baaE(ptr align 8 @alloc_9860fb69fecd049fe02a8887b8fca456) #4
  unreachable

bb7:                                              ; preds = %bb33, %bb5
  %6 = icmp eq i32 %tat, 0
  br i1 %6, label %bb19, label %bb8

bb6:                                              ; preds = %bb5
  %_52 = load ptr, ptr %ptr, align 8
  %_53 = ptrtoint ptr %_52 to i64
  %_56 = and i64 %_53, 7
  %_57 = icmp eq i64 %_56, 0
  br i1 %_57, label %bb26, label %panic6

bb26:                                             ; preds = %bb6
  %_97 = load ptr, ptr %ptr, align 8
  %_98 = ptrtoint ptr %_97 to i64
  %_101 = icmp eq i64 %_98, 0
  %_102 = and i1 %_101, true
  %_103 = xor i1 %_102, true
  br i1 %_103, label %bb33, label %panic7

panic6:                                           ; preds = %bb6
; call core::panicking::panic_misaligned_pointer_dereference
  call void @_ZN4core9panicking36panic_misaligned_pointer_dereference17hcc3cbded9382b6e5E(i64 8, i64 %_53, ptr align 8 @alloc_8f4e2aa55ecfe6726981da220c5122ab) #4
  unreachable

bb33:                                             ; preds = %bb26
  %7 = load ptr, ptr %ptr, align 8
  %8 = getelementptr inbounds i8, ptr %7, i64 20
  store i32 %wt, ptr %8, align 4
  br label %bb7

panic7:                                           ; preds = %bb26
; call core::panicking::panic_null_pointer_dereference
  call void @_ZN4core9panicking30panic_null_pointer_dereference17hf718fcc86a223baaE(ptr align 8 @alloc_8f4e2aa55ecfe6726981da220c5122ab) #4
  unreachable

bb19:                                             ; preds = %bb39, %bb17, %bb34, %bb7
  ret void

bb8:                                              ; preds = %bb7
  %_46 = load ptr, ptr %ptr, align 8
  %_47 = ptrtoint ptr %_46 to i64
  %_50 = and i64 %_47, 7
  %_51 = icmp eq i64 %_50, 0
  br i1 %_51, label %bb25, label %panic8

bb25:                                             ; preds = %bb8
  %_104 = load ptr, ptr %ptr, align 8
  %_105 = ptrtoint ptr %_104 to i64
  %_108 = icmp eq i64 %_105, 0
  %_109 = and i1 %_108, true
  %_110 = xor i1 %_109, true
  br i1 %_110, label %bb34, label %panic9

panic8:                                           ; preds = %bb8
; call core::panicking::panic_misaligned_pointer_dereference
  call void @_ZN4core9panicking36panic_misaligned_pointer_dereference17hcc3cbded9382b6e5E(i64 8, i64 %_47, ptr align 8 @alloc_2b2567ee47e5af2a32cd25b892bc51cd) #4
  unreachable

bb34:                                             ; preds = %bb25
  %9 = load ptr, ptr %ptr, align 8
  %10 = getelementptr inbounds i8, ptr %9, i64 24
  store i32 %tat, ptr %10, align 8
  br label %bb19

panic9:                                           ; preds = %bb25
; call core::panicking::panic_null_pointer_dereference
  call void @_ZN4core9panicking30panic_null_pointer_dereference17hf718fcc86a223baaE(ptr align 8 @alloc_2b2567ee47e5af2a32cd25b892bc51cd) #4
  unreachable

bb11:                                             ; preds = %bb9
  %_40 = load ptr, ptr %ptr, align 8
  %_41 = ptrtoint ptr %_40 to i64
  %_44 = and i64 %_41, 7
  %_45 = icmp eq i64 %_44, 0
  br i1 %_45, label %bb24, label %panic10

bb13:                                             ; preds = %bb35, %bb9
  %11 = icmp eq i32 %ct, 0
  br i1 %11, label %bb15, label %bb14

bb24:                                             ; preds = %bb11
  %_111 = load ptr, ptr %ptr, align 8
  %_112 = ptrtoint ptr %_111 to i64
  %_115 = icmp eq i64 %_112, 0
  %_116 = and i1 %_115, true
  %_117 = xor i1 %_116, true
  br i1 %_117, label %bb35, label %panic11

panic10:                                          ; preds = %bb11
; call core::panicking::panic_misaligned_pointer_dereference
  call void @_ZN4core9panicking36panic_misaligned_pointer_dereference17hcc3cbded9382b6e5E(i64 8, i64 %_41, ptr align 8 @alloc_27e278adcf14db1116ad55ee26a95b50) #4
  unreachable

bb35:                                             ; preds = %bb24
  %12 = load ptr, ptr %ptr, align 8
  %_14 = load i32, ptr %12, align 8
  %_13 = icmp ne i32 %_14, %id
  br i1 %_13, label %bb12, label %bb13

panic11:                                          ; preds = %bb24
; call core::panicking::panic_null_pointer_dereference
  call void @_ZN4core9panicking30panic_null_pointer_dereference17hf718fcc86a223baaE(ptr align 8 @alloc_27e278adcf14db1116ad55ee26a95b50) #4
  unreachable

bb12:                                             ; preds = %bb35
  %_34 = load ptr, ptr %ptr, align 8
  %_35 = ptrtoint ptr %_34 to i64
  %_38 = and i64 %_35, 7
  %_39 = icmp eq i64 %_38, 0
  br i1 %_39, label %bb23, label %panic12

bb23:                                             ; preds = %bb12
  %_118 = load ptr, ptr %ptr, align 8
  %_119 = ptrtoint ptr %_118 to i64
  %_122 = icmp eq i64 %_119, 0
  %_123 = and i1 %_122, true
  %_124 = xor i1 %_123, true
  br i1 %_124, label %bb36, label %panic13

panic12:                                          ; preds = %bb12
; call core::panicking::panic_misaligned_pointer_dereference
  call void @_ZN4core9panicking36panic_misaligned_pointer_dereference17hcc3cbded9382b6e5E(i64 8, i64 %_35, ptr align 8 @alloc_f98ae8efed8d67a31cf67da941a5f791) #4
  unreachable

bb36:                                             ; preds = %bb23
  %13 = load ptr, ptr %ptr, align 8
  %14 = getelementptr inbounds i8, ptr %13, i64 32
  %_15 = load ptr, ptr %14, align 8
  store ptr %_15, ptr %ptr, align 8
  br label %bb9

panic13:                                          ; preds = %bb23
; call core::panicking::panic_null_pointer_dereference
  call void @_ZN4core9panicking30panic_null_pointer_dereference17hf718fcc86a223baaE(ptr align 8 @alloc_f98ae8efed8d67a31cf67da941a5f791) #4
  unreachable

bb15:                                             ; preds = %bb37, %bb13
  %15 = icmp eq i32 %wt, 0
  br i1 %15, label %bb17, label %bb16

bb14:                                             ; preds = %bb13
  %_28 = load ptr, ptr %ptr, align 8
  %_29 = ptrtoint ptr %_28 to i64
  %_32 = and i64 %_29, 7
  %_33 = icmp eq i64 %_32, 0
  br i1 %_33, label %bb22, label %panic14

bb22:                                             ; preds = %bb14
  %_125 = load ptr, ptr %ptr, align 8
  %_126 = ptrtoint ptr %_125 to i64
  %_129 = icmp eq i64 %_126, 0
  %_130 = and i1 %_129, true
  %_131 = xor i1 %_130, true
  br i1 %_131, label %bb37, label %panic15

panic14:                                          ; preds = %bb14
; call core::panicking::panic_misaligned_pointer_dereference
  call void @_ZN4core9panicking36panic_misaligned_pointer_dereference17hcc3cbded9382b6e5E(i64 8, i64 %_29, ptr align 8 @alloc_6b1f3654d4336af3d5c9ccfe5cd6786f) #4
  unreachable

bb37:                                             ; preds = %bb22
  %16 = load ptr, ptr %ptr, align 8
  %17 = getelementptr inbounds i8, ptr %16, i64 16
  store i32 %ct, ptr %17, align 8
  br label %bb15

panic15:                                          ; preds = %bb22
; call core::panicking::panic_null_pointer_dereference
  call void @_ZN4core9panicking30panic_null_pointer_dereference17hf718fcc86a223baaE(ptr align 8 @alloc_6b1f3654d4336af3d5c9ccfe5cd6786f) #4
  unreachable

bb17:                                             ; preds = %bb38, %bb15
  %18 = icmp eq i32 %tat, 0
  br i1 %18, label %bb19, label %bb18

bb16:                                             ; preds = %bb15
  %_22 = load ptr, ptr %ptr, align 8
  %_23 = ptrtoint ptr %_22 to i64
  %_26 = and i64 %_23, 7
  %_27 = icmp eq i64 %_26, 0
  br i1 %_27, label %bb21, label %panic16

bb21:                                             ; preds = %bb16
  %_132 = load ptr, ptr %ptr, align 8
  %_133 = ptrtoint ptr %_132 to i64
  %_136 = icmp eq i64 %_133, 0
  %_137 = and i1 %_136, true
  %_138 = xor i1 %_137, true
  br i1 %_138, label %bb38, label %panic17

panic16:                                          ; preds = %bb16
; call core::panicking::panic_misaligned_pointer_dereference
  call void @_ZN4core9panicking36panic_misaligned_pointer_dereference17hcc3cbded9382b6e5E(i64 8, i64 %_23, ptr align 8 @alloc_e0f55af8ba14d1ad556d8e5f4bc59db9) #4
  unreachable

bb38:                                             ; preds = %bb21
  %19 = load ptr, ptr %ptr, align 8
  %20 = getelementptr inbounds i8, ptr %19, i64 20
  store i32 %wt, ptr %20, align 4
  br label %bb17

panic17:                                          ; preds = %bb21
; call core::panicking::panic_null_pointer_dereference
  call void @_ZN4core9panicking30panic_null_pointer_dereference17hf718fcc86a223baaE(ptr align 8 @alloc_e0f55af8ba14d1ad556d8e5f4bc59db9) #4
  unreachable

bb18:                                             ; preds = %bb17
  %_16 = load ptr, ptr %ptr, align 8
  %_17 = ptrtoint ptr %_16 to i64
  %_20 = and i64 %_17, 7
  %_21 = icmp eq i64 %_20, 0
  br i1 %_21, label %bb20, label %panic18

bb20:                                             ; preds = %bb18
  %_139 = load ptr, ptr %ptr, align 8
  %_140 = ptrtoint ptr %_139 to i64
  %_143 = icmp eq i64 %_140, 0
  %_144 = and i1 %_143, true
  %_145 = xor i1 %_144, true
  br i1 %_145, label %bb39, label %panic19

panic18:                                          ; preds = %bb18
; call core::panicking::panic_misaligned_pointer_dereference
  call void @_ZN4core9panicking36panic_misaligned_pointer_dereference17hcc3cbded9382b6e5E(i64 8, i64 %_17, ptr align 8 @alloc_918a92c90d290e6e2e18d4e54b76dea3) #4
  unreachable

bb39:                                             ; preds = %bb20
  %21 = load ptr, ptr %ptr, align 8
  %22 = getelementptr inbounds i8, ptr %21, i64 24
  store i32 %tat, ptr %22, align 8
  br label %bb19

panic19:                                          ; preds = %bb20
; call core::panicking::panic_null_pointer_dereference
  call void @_ZN4core9panicking30panic_null_pointer_dereference17hf718fcc86a223baaE(ptr align 8 @alloc_918a92c90d290e6e2e18d4e54b76dea3) #4
  unreachable
}

; Function Attrs: nounwind nonlazybind
define zeroext i1 @compare(ptr %a, ptr %b) unnamed_addr #1 {
start:
  %_0 = alloca [1 x i8], align 1
  %_41 = ptrtoint ptr %a to i64
  %_44 = and i64 %_41, 7
  %_45 = icmp eq i64 %_44, 0
  br i1 %_45, label %bb9, label %panic

bb9:                                              ; preds = %start
  %_47 = ptrtoint ptr %a to i64
  %_50 = icmp eq i64 %_47, 0
  %_51 = and i1 %_50, true
  %_52 = xor i1 %_51, true
  br i1 %_52, label %bb10, label %panic1

panic:                                            ; preds = %start
; call core::panicking::panic_misaligned_pointer_dereference
  call void @_ZN4core9panicking36panic_misaligned_pointer_dereference17hcc3cbded9382b6e5E(i64 8, i64 %_41, ptr align 8 @alloc_5c73959e7848ac7eb6f7106dbd226433) #4
  unreachable

bb10:                                             ; preds = %bb9
  %0 = getelementptr inbounds i8, ptr %a, i64 4
  %_4 = load i32, ptr %0, align 4
  %_35 = ptrtoint ptr %b to i64
  %_38 = and i64 %_35, 7
  %_39 = icmp eq i64 %_38, 0
  br i1 %_39, label %bb8, label %panic2

panic1:                                           ; preds = %bb9
; call core::panicking::panic_null_pointer_dereference
  call void @_ZN4core9panicking30panic_null_pointer_dereference17hf718fcc86a223baaE(ptr align 8 @alloc_5c73959e7848ac7eb6f7106dbd226433) #4
  unreachable

bb8:                                              ; preds = %bb10
  %_54 = ptrtoint ptr %b to i64
  %_57 = icmp eq i64 %_54, 0
  %_58 = and i1 %_57, true
  %_59 = xor i1 %_58, true
  br i1 %_59, label %bb11, label %panic3

panic2:                                           ; preds = %bb10
; call core::panicking::panic_misaligned_pointer_dereference
  call void @_ZN4core9panicking36panic_misaligned_pointer_dereference17hcc3cbded9382b6e5E(i64 8, i64 %_35, ptr align 8 @alloc_67917eaad185a878e0f4d72460423370) #4
  unreachable

bb11:                                             ; preds = %bb8
  %1 = getelementptr inbounds i8, ptr %b, i64 4
  %_5 = load i32, ptr %1, align 4
  %_3 = icmp eq i32 %_4, %_5
  br i1 %_3, label %bb1, label %bb2

panic3:                                           ; preds = %bb8
; call core::panicking::panic_null_pointer_dereference
  call void @_ZN4core9panicking30panic_null_pointer_dereference17hf718fcc86a223baaE(ptr align 8 @alloc_67917eaad185a878e0f4d72460423370) #4
  unreachable

bb2:                                              ; preds = %bb11
  %_17 = ptrtoint ptr %a to i64
  %_20 = and i64 %_17, 7
  %_21 = icmp eq i64 %_20, 0
  br i1 %_21, label %bb5, label %panic4

bb1:                                              ; preds = %bb11
  %_29 = ptrtoint ptr %a to i64
  %_32 = and i64 %_29, 7
  %_33 = icmp eq i64 %_32, 0
  br i1 %_33, label %bb7, label %panic8

bb5:                                              ; preds = %bb2
  %_75 = ptrtoint ptr %a to i64
  %_78 = icmp eq i64 %_75, 0
  %_79 = and i1 %_78, true
  %_80 = xor i1 %_79, true
  br i1 %_80, label %bb14, label %panic5

panic4:                                           ; preds = %bb2
; call core::panicking::panic_misaligned_pointer_dereference
  call void @_ZN4core9panicking36panic_misaligned_pointer_dereference17hcc3cbded9382b6e5E(i64 8, i64 %_17, ptr align 8 @alloc_eaec2396f157ff98a5368eca61611152) #4
  unreachable

bb14:                                             ; preds = %bb5
  %2 = getelementptr inbounds i8, ptr %a, i64 4
  %_8 = load i32, ptr %2, align 4
  %_11 = ptrtoint ptr %b to i64
  %_14 = and i64 %_11, 7
  %_15 = icmp eq i64 %_14, 0
  br i1 %_15, label %bb4, label %panic6

panic5:                                           ; preds = %bb5
; call core::panicking::panic_null_pointer_dereference
  call void @_ZN4core9panicking30panic_null_pointer_dereference17hf718fcc86a223baaE(ptr align 8 @alloc_eaec2396f157ff98a5368eca61611152) #4
  unreachable

bb4:                                              ; preds = %bb14
  %_82 = ptrtoint ptr %b to i64
  %_85 = icmp eq i64 %_82, 0
  %_86 = and i1 %_85, true
  %_87 = xor i1 %_86, true
  br i1 %_87, label %bb15, label %panic7

panic6:                                           ; preds = %bb14
; call core::panicking::panic_misaligned_pointer_dereference
  call void @_ZN4core9panicking36panic_misaligned_pointer_dereference17hcc3cbded9382b6e5E(i64 8, i64 %_11, ptr align 8 @alloc_268527d69417a0a855fc749a27d86f88) #4
  unreachable

bb15:                                             ; preds = %bb4
  %3 = getelementptr inbounds i8, ptr %b, i64 4
  %_9 = load i32, ptr %3, align 4
  %4 = icmp slt i32 %_8, %_9
  %5 = zext i1 %4 to i8
  store i8 %5, ptr %_0, align 1
  br label %bb3

panic7:                                           ; preds = %bb4
; call core::panicking::panic_null_pointer_dereference
  call void @_ZN4core9panicking30panic_null_pointer_dereference17hf718fcc86a223baaE(ptr align 8 @alloc_268527d69417a0a855fc749a27d86f88) #4
  unreachable

bb3:                                              ; preds = %bb13, %bb15
  %6 = load i8, ptr %_0, align 1
  %7 = trunc nuw i8 %6 to i1
  ret i1 %7

bb7:                                              ; preds = %bb1
  %_61 = ptrtoint ptr %a to i64
  %_64 = icmp eq i64 %_61, 0
  %_65 = and i1 %_64, true
  %_66 = xor i1 %_65, true
  br i1 %_66, label %bb12, label %panic9

panic8:                                           ; preds = %bb1
; call core::panicking::panic_misaligned_pointer_dereference
  call void @_ZN4core9panicking36panic_misaligned_pointer_dereference17hcc3cbded9382b6e5E(i64 8, i64 %_29, ptr align 8 @alloc_c0ffd8bb6199500482fed097e59cd212) #4
  unreachable

bb12:                                             ; preds = %bb7
  %8 = getelementptr inbounds i8, ptr %a, i64 12
  %_6 = load i32, ptr %8, align 4
  %_23 = ptrtoint ptr %b to i64
  %_26 = and i64 %_23, 7
  %_27 = icmp eq i64 %_26, 0
  br i1 %_27, label %bb6, label %panic10

panic9:                                           ; preds = %bb7
; call core::panicking::panic_null_pointer_dereference
  call void @_ZN4core9panicking30panic_null_pointer_dereference17hf718fcc86a223baaE(ptr align 8 @alloc_c0ffd8bb6199500482fed097e59cd212) #4
  unreachable

bb6:                                              ; preds = %bb12
  %_68 = ptrtoint ptr %b to i64
  %_71 = icmp eq i64 %_68, 0
  %_72 = and i1 %_71, true
  %_73 = xor i1 %_72, true
  br i1 %_73, label %bb13, label %panic11

panic10:                                          ; preds = %bb12
; call core::panicking::panic_misaligned_pointer_dereference
  call void @_ZN4core9panicking36panic_misaligned_pointer_dereference17hcc3cbded9382b6e5E(i64 8, i64 %_23, ptr align 8 @alloc_5dd0eddadd7be5182af776a19337c561) #4
  unreachable

bb13:                                             ; preds = %bb6
  %9 = getelementptr inbounds i8, ptr %b, i64 12
  %_7 = load i32, ptr %9, align 4
  %10 = icmp slt i32 %_6, %_7
  %11 = zext i1 %10 to i8
  store i8 %11, ptr %_0, align 1
  br label %bb3

panic11:                                          ; preds = %bb6
; call core::panicking::panic_null_pointer_dereference
  call void @_ZN4core9panicking30panic_null_pointer_dereference17hf718fcc86a223baaE(ptr align 8 @alloc_5dd0eddadd7be5182af776a19337c561) #4
  unreachable
}

; Function Attrs: nounwind nonlazybind
define float @calculate_ct(ptr %root) unnamed_addr #1 {
start:
  %duproot = alloca [8 x i8], align 8
  %sum = alloca [4 x i8], align 4
  %avg = alloca [4 x i8], align 4
  %time = alloca [4 x i8], align 4
  %i = alloca [4 x i8], align 4
  %ct = alloca [4 x i8], align 4
  %rpt = alloca [8 x i8], align 8
  %ptr = alloca [8 x i8], align 8
  %_210 = ptrtoint ptr %root to i64
  %_213 = and i64 %_210, 7
  %_214 = icmp eq i64 %_213, 0
  br i1 %_214, label %bb55, label %panic

bb55:                                             ; preds = %start
  %_216 = ptrtoint ptr %root to i64
  %_219 = icmp eq i64 %_216, 0
  %_220 = and i1 %_219, true
  %_221 = xor i1 %_220, true
  br i1 %_221, label %bb56, label %panic1

panic:                                            ; preds = %start
; call core::panicking::panic_misaligned_pointer_dereference
  call void @_ZN4core9panicking36panic_misaligned_pointer_dereference17hcc3cbded9382b6e5E(i64 8, i64 %_210, ptr align 8 @alloc_356940536e3d0185c811543066639c96) #4
  unreachable

bb56:                                             ; preds = %bb55
  %0 = load ptr, ptr %root, align 8
  store ptr %0, ptr %ptr, align 8
  store ptr null, ptr %rpt, align 8
  store i32 0, ptr %ct, align 4
  store i32 0, ptr %i, align 4
  store i32 0, ptr %time, align 4
  %n = call i32 @l_length(ptr %root) #3
  store float 0.000000e+00, ptr %avg, align 4
  store float 0.000000e+00, ptr %sum, align 4
  store ptr null, ptr %duproot, align 8
  br label %bb2

panic1:                                           ; preds = %bb55
; call core::panicking::panic_null_pointer_dereference
  call void @_ZN4core9panicking30panic_null_pointer_dereference17hf718fcc86a223baaE(ptr align 8 @alloc_356940536e3d0185c811543066639c96) #4
  unreachable

bb2:                                              ; preds = %bb62, %bb56
  %_13 = load ptr, ptr %ptr, align 8
; call core::ptr::mut_ptr::<impl *mut T>::is_null
  %_12 = call zeroext i1 @"_ZN4core3ptr7mut_ptr31_$LT$impl$u20$$BP$mut$u20$T$GT$7is_null17h94e9dd4f165e1bb4E"(ptr %_13) #3
  br i1 %_12, label %bb4, label %bb5

bb5:                                              ; preds = %bb2
  %_197 = load ptr, ptr %ptr, align 8
  %_198 = ptrtoint ptr %_197 to i64
  %_201 = and i64 %_198, 7
  %_202 = icmp eq i64 %_201, 0
  br i1 %_202, label %bb53, label %panic2

bb4:                                              ; preds = %bb2
  %_22 = load ptr, ptr %duproot, align 8
  store ptr %_22, ptr %ptr, align 8
  %_203 = load ptr, ptr %ptr, align 8
  %_204 = ptrtoint ptr %_203 to i64
  %_207 = and i64 %_204, 7
  %_208 = icmp eq i64 %_207, 0
  br i1 %_208, label %bb54, label %panic12

bb53:                                             ; preds = %bb5
  %_229 = load ptr, ptr %ptr, align 8
  %_230 = ptrtoint ptr %_229 to i64
  %_233 = icmp eq i64 %_230, 0
  %_234 = and i1 %_233, true
  %_235 = xor i1 %_234, true
  br i1 %_235, label %bb58, label %panic3

panic2:                                           ; preds = %bb5
; call core::panicking::panic_misaligned_pointer_dereference
  call void @_ZN4core9panicking36panic_misaligned_pointer_dereference17hcc3cbded9382b6e5E(i64 8, i64 %_198, ptr align 8 @alloc_cc3dfda50311ab0fabdb606a0747dc3a) #4
  unreachable

bb58:                                             ; preds = %bb53
  %1 = load ptr, ptr %ptr, align 8
  %_17 = load i32, ptr %1, align 8
  %_191 = load ptr, ptr %ptr, align 8
  %_192 = ptrtoint ptr %_191 to i64
  %_195 = and i64 %_192, 7
  %_196 = icmp eq i64 %_195, 0
  br i1 %_196, label %bb52, label %panic4

panic3:                                           ; preds = %bb53
; call core::panicking::panic_null_pointer_dereference
  call void @_ZN4core9panicking30panic_null_pointer_dereference17hf718fcc86a223baaE(ptr align 8 @alloc_cc3dfda50311ab0fabdb606a0747dc3a) #4
  unreachable

bb52:                                             ; preds = %bb58
  %_236 = load ptr, ptr %ptr, align 8
  %_237 = ptrtoint ptr %_236 to i64
  %_240 = icmp eq i64 %_237, 0
  %_241 = and i1 %_240, true
  %_242 = xor i1 %_241, true
  br i1 %_242, label %bb59, label %panic5

panic4:                                           ; preds = %bb58
; call core::panicking::panic_misaligned_pointer_dereference
  call void @_ZN4core9panicking36panic_misaligned_pointer_dereference17hcc3cbded9382b6e5E(i64 8, i64 %_192, ptr align 8 @alloc_e7631631a6a3898fa76760b145a8d654) #4
  unreachable

bb59:                                             ; preds = %bb52
  %2 = load ptr, ptr %ptr, align 8
  %3 = getelementptr inbounds i8, ptr %2, i64 4
  %_18 = load i32, ptr %3, align 4
  %_185 = load ptr, ptr %ptr, align 8
  %_186 = ptrtoint ptr %_185 to i64
  %_189 = and i64 %_186, 7
  %_190 = icmp eq i64 %_189, 0
  br i1 %_190, label %bb51, label %panic6

panic5:                                           ; preds = %bb52
; call core::panicking::panic_null_pointer_dereference
  call void @_ZN4core9panicking30panic_null_pointer_dereference17hf718fcc86a223baaE(ptr align 8 @alloc_e7631631a6a3898fa76760b145a8d654) #4
  unreachable

bb51:                                             ; preds = %bb59
  %_243 = load ptr, ptr %ptr, align 8
  %_244 = ptrtoint ptr %_243 to i64
  %_247 = icmp eq i64 %_244, 0
  %_248 = and i1 %_247, true
  %_249 = xor i1 %_248, true
  br i1 %_249, label %bb60, label %panic7

panic6:                                           ; preds = %bb59
; call core::panicking::panic_misaligned_pointer_dereference
  call void @_ZN4core9panicking36panic_misaligned_pointer_dereference17hcc3cbded9382b6e5E(i64 8, i64 %_186, ptr align 8 @alloc_2d72f87524543ed92f18b437b0314b13) #4
  unreachable

bb60:                                             ; preds = %bb51
  %4 = load ptr, ptr %ptr, align 8
  %5 = getelementptr inbounds i8, ptr %4, i64 8
  %_19 = load i32, ptr %5, align 8
  %_179 = load ptr, ptr %ptr, align 8
  %_180 = ptrtoint ptr %_179 to i64
  %_183 = and i64 %_180, 7
  %_184 = icmp eq i64 %_183, 0
  br i1 %_184, label %bb50, label %panic8

panic7:                                           ; preds = %bb51
; call core::panicking::panic_null_pointer_dereference
  call void @_ZN4core9panicking30panic_null_pointer_dereference17hf718fcc86a223baaE(ptr align 8 @alloc_2d72f87524543ed92f18b437b0314b13) #4
  unreachable

bb50:                                             ; preds = %bb60
  %_250 = load ptr, ptr %ptr, align 8
  %_251 = ptrtoint ptr %_250 to i64
  %_254 = icmp eq i64 %_251, 0
  %_255 = and i1 %_254, true
  %_256 = xor i1 %_255, true
  br i1 %_256, label %bb61, label %panic9

panic8:                                           ; preds = %bb60
; call core::panicking::panic_misaligned_pointer_dereference
  call void @_ZN4core9panicking36panic_misaligned_pointer_dereference17hcc3cbded9382b6e5E(i64 8, i64 %_180, ptr align 8 @alloc_7558903eb1e5aa499c498dfc9727e2bc) #4
  unreachable

bb61:                                             ; preds = %bb50
  %6 = load ptr, ptr %ptr, align 8
  %7 = getelementptr inbounds i8, ptr %6, i64 12
  %_20 = load i32, ptr %7, align 4
  call void @insert(ptr %duproot, i32 %_17, i32 %_18, i32 %_19, i32 %_20) #3
  %_173 = load ptr, ptr %ptr, align 8
  %_174 = ptrtoint ptr %_173 to i64
  %_177 = and i64 %_174, 7
  %_178 = icmp eq i64 %_177, 0
  br i1 %_178, label %bb49, label %panic10

panic9:                                           ; preds = %bb50
; call core::panicking::panic_null_pointer_dereference
  call void @_ZN4core9panicking30panic_null_pointer_dereference17hf718fcc86a223baaE(ptr align 8 @alloc_7558903eb1e5aa499c498dfc9727e2bc) #4
  unreachable

bb49:                                             ; preds = %bb61
  %_257 = load ptr, ptr %ptr, align 8
  %_258 = ptrtoint ptr %_257 to i64
  %_261 = icmp eq i64 %_258, 0
  %_262 = and i1 %_261, true
  %_263 = xor i1 %_262, true
  br i1 %_263, label %bb62, label %panic11

panic10:                                          ; preds = %bb61
; call core::panicking::panic_misaligned_pointer_dereference
  call void @_ZN4core9panicking36panic_misaligned_pointer_dereference17hcc3cbded9382b6e5E(i64 8, i64 %_174, ptr align 8 @alloc_ac6d535600a274db2f57be193527219d) #4
  unreachable

bb62:                                             ; preds = %bb49
  %8 = load ptr, ptr %ptr, align 8
  %9 = getelementptr inbounds i8, ptr %8, i64 32
  %_21 = load ptr, ptr %9, align 8
  store ptr %_21, ptr %ptr, align 8
  br label %bb2

panic11:                                          ; preds = %bb49
; call core::panicking::panic_null_pointer_dereference
  call void @_ZN4core9panicking30panic_null_pointer_dereference17hf718fcc86a223baaE(ptr align 8 @alloc_ac6d535600a274db2f57be193527219d) #4
  unreachable

bb54:                                             ; preds = %bb4
  %_222 = load ptr, ptr %ptr, align 8
  %_223 = ptrtoint ptr %_222 to i64
  %_226 = icmp eq i64 %_223, 0
  %_227 = and i1 %_226, true
  %_228 = xor i1 %_227, true
  br i1 %_228, label %bb57, label %panic13

panic12:                                          ; preds = %bb4
; call core::panicking::panic_misaligned_pointer_dereference
  call void @_ZN4core9panicking36panic_misaligned_pointer_dereference17hcc3cbded9382b6e5E(i64 8, i64 %_204, ptr align 8 @alloc_4216cc1e97efdec0f24e32c76cb8cc62) #4
  unreachable

bb57:                                             ; preds = %bb54
  %10 = load ptr, ptr %ptr, align 8
  %11 = getelementptr inbounds i8, ptr %10, i64 32
  %_23 = load ptr, ptr %11, align 8
  store ptr %_23, ptr %rpt, align 8
  br label %bb7

panic13:                                          ; preds = %bb54
; call core::panicking::panic_null_pointer_dereference
  call void @_ZN4core9panicking30panic_null_pointer_dereference17hf718fcc86a223baaE(ptr align 8 @alloc_4216cc1e97efdec0f24e32c76cb8cc62) #4
  unreachable

bb7:                                              ; preds = %bb66, %bb57
  %_25 = load ptr, ptr %rpt, align 8
; call core::ptr::mut_ptr::<impl *mut T>::is_null
  %_24 = call zeroext i1 @"_ZN4core3ptr7mut_ptr31_$LT$impl$u20$$BP$mut$u20$T$GT$7is_null17h94e9dd4f165e1bb4E"(ptr %_25) #3
  br i1 %_24, label %bb9, label %bb10

bb10:                                             ; preds = %bb7
  %_27 = load ptr, ptr %ptr, align 8
  %_28 = load ptr, ptr %rpt, align 8
  %_26 = call zeroext i1 @compare(ptr %_27, ptr %_28) #3
  br i1 %_26, label %bb13, label %bb12

bb9:                                              ; preds = %bb7
  %_167 = load ptr, ptr %ptr, align 8
  %_168 = ptrtoint ptr %_167 to i64
  %_171 = and i64 %_168, 7
  %_172 = icmp eq i64 %_171, 0
  br i1 %_172, label %bb48, label %panic16

bb12:                                             ; preds = %bb10
  %_29 = load ptr, ptr %rpt, align 8
  store ptr %_29, ptr %ptr, align 8
  br label %bb13

bb13:                                             ; preds = %bb12, %bb10
  %_149 = load ptr, ptr %rpt, align 8
  %_150 = ptrtoint ptr %_149 to i64
  %_153 = and i64 %_150, 7
  %_154 = icmp eq i64 %_153, 0
  br i1 %_154, label %bb45, label %panic14

bb45:                                             ; preds = %bb13
  %_285 = load ptr, ptr %rpt, align 8
  %_286 = ptrtoint ptr %_285 to i64
  %_289 = icmp eq i64 %_286, 0
  %_290 = and i1 %_289, true
  %_291 = xor i1 %_290, true
  br i1 %_291, label %bb66, label %panic15

panic14:                                          ; preds = %bb13
; call core::panicking::panic_misaligned_pointer_dereference
  call void @_ZN4core9panicking36panic_misaligned_pointer_dereference17hcc3cbded9382b6e5E(i64 8, i64 %_150, ptr align 8 @alloc_6cc558e82aa7ef1f4c8734ba2ee6cbee) #4
  unreachable

bb66:                                             ; preds = %bb45
  %12 = load ptr, ptr %rpt, align 8
  %13 = getelementptr inbounds i8, ptr %12, i64 32
  %_30 = load ptr, ptr %13, align 8
  store ptr %_30, ptr %rpt, align 8
  br label %bb7

panic15:                                          ; preds = %bb45
; call core::panicking::panic_null_pointer_dereference
  call void @_ZN4core9panicking30panic_null_pointer_dereference17hf718fcc86a223baaE(ptr align 8 @alloc_6cc558e82aa7ef1f4c8734ba2ee6cbee) #4
  unreachable

bb48:                                             ; preds = %bb9
  %_264 = load ptr, ptr %ptr, align 8
  %_265 = ptrtoint ptr %_264 to i64
  %_268 = icmp eq i64 %_265, 0
  %_269 = and i1 %_268, true
  %_270 = xor i1 %_269, true
  br i1 %_270, label %bb63, label %panic17

panic16:                                          ; preds = %bb9
; call core::panicking::panic_misaligned_pointer_dereference
  call void @_ZN4core9panicking36panic_misaligned_pointer_dereference17hcc3cbded9382b6e5E(i64 8, i64 %_168, ptr align 8 @alloc_3d040f47c6e9b36a6ee4f8c1bc347bf9) #4
  unreachable

bb63:                                             ; preds = %bb48
  %14 = load ptr, ptr %ptr, align 8
  %15 = getelementptr inbounds i8, ptr %14, i64 4
  %_31 = load i32, ptr %15, align 4
  %_161 = load ptr, ptr %ptr, align 8
  %_162 = ptrtoint ptr %_161 to i64
  %_165 = and i64 %_162, 7
  %_166 = icmp eq i64 %_165, 0
  br i1 %_166, label %bb47, label %panic18

panic17:                                          ; preds = %bb48
; call core::panicking::panic_null_pointer_dereference
  call void @_ZN4core9panicking30panic_null_pointer_dereference17hf718fcc86a223baaE(ptr align 8 @alloc_3d040f47c6e9b36a6ee4f8c1bc347bf9) #4
  unreachable

bb47:                                             ; preds = %bb63
  %_271 = load ptr, ptr %ptr, align 8
  %_272 = ptrtoint ptr %_271 to i64
  %_275 = icmp eq i64 %_272, 0
  %_276 = and i1 %_275, true
  %_277 = xor i1 %_276, true
  br i1 %_277, label %bb64, label %panic19

panic18:                                          ; preds = %bb63
; call core::panicking::panic_misaligned_pointer_dereference
  call void @_ZN4core9panicking36panic_misaligned_pointer_dereference17hcc3cbded9382b6e5E(i64 8, i64 %_162, ptr align 8 @alloc_72a4d6b8ddc2ef571e2eeccbc2f41cf9) #4
  unreachable

bb64:                                             ; preds = %bb47
  %16 = load ptr, ptr %ptr, align 8
  %17 = getelementptr inbounds i8, ptr %16, i64 8
  %_32 = load i32, ptr %17, align 8
  %18 = add i32 %_31, %_32
  store i32 %18, ptr %ct, align 4
  %_33 = load i32, ptr %ct, align 4
  store i32 %_33, ptr %time, align 4
  %_35 = load i32, ptr %ct, align 4
  %_34 = sitofp i32 %_35 to float
  %19 = load float, ptr %sum, align 4
  %20 = fadd float %19, %_34
  store float %20, ptr %sum, align 4
  %_155 = load ptr, ptr %ptr, align 8
  %_156 = ptrtoint ptr %_155 to i64
  %_159 = and i64 %_156, 7
  %_160 = icmp eq i64 %_159, 0
  br i1 %_160, label %bb46, label %panic20

panic19:                                          ; preds = %bb47
; call core::panicking::panic_null_pointer_dereference
  call void @_ZN4core9panicking30panic_null_pointer_dereference17hf718fcc86a223baaE(ptr align 8 @alloc_72a4d6b8ddc2ef571e2eeccbc2f41cf9) #4
  unreachable

bb46:                                             ; preds = %bb64
  %_278 = load ptr, ptr %ptr, align 8
  %_279 = ptrtoint ptr %_278 to i64
  %_282 = icmp eq i64 %_279, 0
  %_283 = and i1 %_282, true
  %_284 = xor i1 %_283, true
  br i1 %_284, label %bb65, label %panic21

panic20:                                          ; preds = %bb64
; call core::panicking::panic_misaligned_pointer_dereference
  call void @_ZN4core9panicking36panic_misaligned_pointer_dereference17hcc3cbded9382b6e5E(i64 8, i64 %_156, ptr align 8 @alloc_4553b29c5344541642188650974ca440) #4
  unreachable

bb65:                                             ; preds = %bb46
  %21 = load ptr, ptr %ptr, align 8
  %_37 = load i32, ptr %21, align 8
  %_38 = load i32, ptr %ct, align 4
  call void @update(ptr %root, i32 %_37, i32 %_38, i32 0, i32 0) #3
  %_143 = load ptr, ptr %ptr, align 8
  %_144 = ptrtoint ptr %_143 to i64
  %_147 = and i64 %_144, 7
  %_148 = icmp eq i64 %_147, 0
  br i1 %_148, label %bb44, label %panic22

panic21:                                          ; preds = %bb46
; call core::panicking::panic_null_pointer_dereference
  call void @_ZN4core9panicking30panic_null_pointer_dereference17hf718fcc86a223baaE(ptr align 8 @alloc_4553b29c5344541642188650974ca440) #4
  unreachable

bb44:                                             ; preds = %bb65
  %_292 = load ptr, ptr %ptr, align 8
  %_293 = ptrtoint ptr %_292 to i64
  %_296 = icmp eq i64 %_293, 0
  %_297 = and i1 %_296, true
  %_298 = xor i1 %_297, true
  br i1 %_298, label %bb67, label %panic23

panic22:                                          ; preds = %bb65
; call core::panicking::panic_misaligned_pointer_dereference
  call void @_ZN4core9panicking36panic_misaligned_pointer_dereference17hcc3cbded9382b6e5E(i64 8, i64 %_144, ptr align 8 @alloc_40f2349cc59f5ab12c4672246484840b) #4
  unreachable

bb67:                                             ; preds = %bb44
  %22 = load ptr, ptr %ptr, align 8
  %_42 = load i32, ptr %22, align 8
  call void @delete(ptr %duproot, i32 %_42) #3
  store i32 0, ptr %i, align 4
  br label %bb16

panic23:                                          ; preds = %bb44
; call core::panicking::panic_null_pointer_dereference
  call void @_ZN4core9panicking30panic_null_pointer_dereference17hf718fcc86a223baaE(ptr align 8 @alloc_40f2349cc59f5ab12c4672246484840b) #4
  unreachable

bb16:                                             ; preds = %bb78, %bb67
  %_44 = load i32, ptr %i, align 4
  %_45 = sub i32 %n, 1
  %_43 = icmp slt i32 %_44, %_45
  br i1 %_43, label %bb17, label %bb32

bb32:                                             ; preds = %bb16
  %_75 = load float, ptr %sum, align 4
  %_76 = sitofp i32 %n to float
  %23 = fdiv float %_75, %_76
  store float %23, ptr %avg, align 4
  %_0 = load float, ptr %avg, align 4
  ret float %_0

bb17:                                             ; preds = %bb16
  %_46 = load ptr, ptr %duproot, align 8
  store ptr %_46, ptr %ptr, align 8
  br label %bb18

bb18:                                             ; preds = %bb69, %bb17
  %_48 = load ptr, ptr %ptr, align 8
; call core::ptr::mut_ptr::<impl *mut T>::is_null
  %_47 = call zeroext i1 @"_ZN4core3ptr7mut_ptr31_$LT$impl$u20$$BP$mut$u20$T$GT$7is_null17h94e9dd4f165e1bb4E"(ptr %_48) #3
  br i1 %_47, label %bb22, label %bb20

bb20:                                             ; preds = %bb18
  %_137 = load ptr, ptr %ptr, align 8
  %_138 = ptrtoint ptr %_137 to i64
  %_141 = and i64 %_138, 7
  %_142 = icmp eq i64 %_141, 0
  br i1 %_142, label %bb43, label %panic24

bb22:                                             ; preds = %bb68, %bb18
  %_125 = load ptr, ptr %ptr, align 8
  %_126 = ptrtoint ptr %_125 to i64
  %_129 = and i64 %_126, 7
  %_130 = icmp eq i64 %_129, 0
  br i1 %_130, label %bb41, label %panic28

bb43:                                             ; preds = %bb20
  %_299 = load ptr, ptr %ptr, align 8
  %_300 = ptrtoint ptr %_299 to i64
  %_303 = icmp eq i64 %_300, 0
  %_304 = and i1 %_303, true
  %_305 = xor i1 %_304, true
  br i1 %_305, label %bb68, label %panic25

panic24:                                          ; preds = %bb20
; call core::panicking::panic_misaligned_pointer_dereference
  call void @_ZN4core9panicking36panic_misaligned_pointer_dereference17hcc3cbded9382b6e5E(i64 8, i64 %_138, ptr align 8 @alloc_63227595485b7b7365263e236fcf0ef2) #4
  unreachable

bb68:                                             ; preds = %bb43
  %24 = load ptr, ptr %ptr, align 8
  %25 = getelementptr inbounds i8, ptr %24, i64 4
  %_50 = load i32, ptr %25, align 4
  %_51 = load i32, ptr %time, align 4
  %_49 = icmp sgt i32 %_50, %_51
  br i1 %_49, label %bb21, label %bb22

panic25:                                          ; preds = %bb43
; call core::panicking::panic_null_pointer_dereference
  call void @_ZN4core9panicking30panic_null_pointer_dereference17hf718fcc86a223baaE(ptr align 8 @alloc_63227595485b7b7365263e236fcf0ef2) #4
  unreachable

bb21:                                             ; preds = %bb68
  %_131 = load ptr, ptr %ptr, align 8
  %_132 = ptrtoint ptr %_131 to i64
  %_135 = and i64 %_132, 7
  %_136 = icmp eq i64 %_135, 0
  br i1 %_136, label %bb42, label %panic26

bb42:                                             ; preds = %bb21
  %_306 = load ptr, ptr %ptr, align 8
  %_307 = ptrtoint ptr %_306 to i64
  %_310 = icmp eq i64 %_307, 0
  %_311 = and i1 %_310, true
  %_312 = xor i1 %_311, true
  br i1 %_312, label %bb69, label %panic27

panic26:                                          ; preds = %bb21
; call core::panicking::panic_misaligned_pointer_dereference
  call void @_ZN4core9panicking36panic_misaligned_pointer_dereference17hcc3cbded9382b6e5E(i64 8, i64 %_132, ptr align 8 @alloc_2c900438f27bbcda21d667fc1a141ee3) #4
  unreachable

bb69:                                             ; preds = %bb42
  %26 = load ptr, ptr %ptr, align 8
  %27 = getelementptr inbounds i8, ptr %26, i64 32
  %_52 = load ptr, ptr %27, align 8
  store ptr %_52, ptr %ptr, align 8
  br label %bb18

panic27:                                          ; preds = %bb42
; call core::panicking::panic_null_pointer_dereference
  call void @_ZN4core9panicking30panic_null_pointer_dereference17hf718fcc86a223baaE(ptr align 8 @alloc_2c900438f27bbcda21d667fc1a141ee3) #4
  unreachable

bb41:                                             ; preds = %bb22
  %_313 = load ptr, ptr %ptr, align 8
  %_314 = ptrtoint ptr %_313 to i64
  %_317 = icmp eq i64 %_314, 0
  %_318 = and i1 %_317, true
  %_319 = xor i1 %_318, true
  br i1 %_319, label %bb70, label %panic29

panic28:                                          ; preds = %bb22
; call core::panicking::panic_misaligned_pointer_dereference
  call void @_ZN4core9panicking36panic_misaligned_pointer_dereference17hcc3cbded9382b6e5E(i64 8, i64 %_126, ptr align 8 @alloc_131b19c26424b808818f2587a2d6c930) #4
  unreachable

bb70:                                             ; preds = %bb41
  %28 = load ptr, ptr %ptr, align 8
  %29 = getelementptr inbounds i8, ptr %28, i64 32
  %_53 = load ptr, ptr %29, align 8
  store ptr %_53, ptr %rpt, align 8
  br label %bb23

panic29:                                          ; preds = %bb41
; call core::panicking::panic_null_pointer_dereference
  call void @_ZN4core9panicking30panic_null_pointer_dereference17hf718fcc86a223baaE(ptr align 8 @alloc_131b19c26424b808818f2587a2d6c930) #4
  unreachable

bb23:                                             ; preds = %bb77, %bb70
  %_55 = load ptr, ptr %rpt, align 8
; call core::ptr::mut_ptr::<impl *mut T>::is_null
  %_54 = call zeroext i1 @"_ZN4core3ptr7mut_ptr31_$LT$impl$u20$$BP$mut$u20$T$GT$7is_null17h94e9dd4f165e1bb4E"(ptr %_55) #3
  br i1 %_54, label %bb25, label %bb26

bb26:                                             ; preds = %bb23
  %_101 = load ptr, ptr %rpt, align 8
  %_102 = ptrtoint ptr %_101 to i64
  %_105 = and i64 %_102, 7
  %_106 = icmp eq i64 %_105, 0
  br i1 %_106, label %bb37, label %panic30

bb25:                                             ; preds = %bb23
  %_119 = load ptr, ptr %ptr, align 8
  %_120 = ptrtoint ptr %_119 to i64
  %_123 = and i64 %_120, 7
  %_124 = icmp eq i64 %_123, 0
  br i1 %_124, label %bb40, label %panic38

bb37:                                             ; preds = %bb26
  %_341 = load ptr, ptr %rpt, align 8
  %_342 = ptrtoint ptr %_341 to i64
  %_345 = icmp eq i64 %_342, 0
  %_346 = and i1 %_345, true
  %_347 = xor i1 %_346, true
  br i1 %_347, label %bb74, label %panic31

panic30:                                          ; preds = %bb26
; call core::panicking::panic_misaligned_pointer_dereference
  call void @_ZN4core9panicking36panic_misaligned_pointer_dereference17hcc3cbded9382b6e5E(i64 8, i64 %_102, ptr align 8 @alloc_7a227c562d71858087a7a7ebb02cb9f5) #4
  unreachable

bb74:                                             ; preds = %bb37
  %30 = load ptr, ptr %rpt, align 8
  %31 = getelementptr inbounds i8, ptr %30, i64 4
  %_57 = load i32, ptr %31, align 4
  %_58 = load i32, ptr %time, align 4
  %_56 = icmp sle i32 %_57, %_58
  br i1 %_56, label %bb27, label %bb29

panic31:                                          ; preds = %bb37
; call core::panicking::panic_null_pointer_dereference
  call void @_ZN4core9panicking30panic_null_pointer_dereference17hf718fcc86a223baaE(ptr align 8 @alloc_7a227c562d71858087a7a7ebb02cb9f5) #4
  unreachable

bb29:                                             ; preds = %bb28, %bb76, %bb74
  %_83 = load ptr, ptr %rpt, align 8
  %_84 = ptrtoint ptr %_83 to i64
  %_87 = and i64 %_84, 7
  %_88 = icmp eq i64 %_87, 0
  br i1 %_88, label %bb34, label %panic36

bb27:                                             ; preds = %bb74
  %_95 = load ptr, ptr %rpt, align 8
  %_96 = ptrtoint ptr %_95 to i64
  %_99 = and i64 %_96, 7
  %_100 = icmp eq i64 %_99, 0
  br i1 %_100, label %bb36, label %panic32

bb36:                                             ; preds = %bb27
  %_348 = load ptr, ptr %rpt, align 8
  %_349 = ptrtoint ptr %_348 to i64
  %_352 = icmp eq i64 %_349, 0
  %_353 = and i1 %_352, true
  %_354 = xor i1 %_353, true
  br i1 %_354, label %bb75, label %panic33

panic32:                                          ; preds = %bb27
; call core::panicking::panic_misaligned_pointer_dereference
  call void @_ZN4core9panicking36panic_misaligned_pointer_dereference17hcc3cbded9382b6e5E(i64 8, i64 %_96, ptr align 8 @alloc_9244a9e6d2f38a93e3ff21c37f0138b1) #4
  unreachable

bb75:                                             ; preds = %bb36
  %32 = load ptr, ptr %rpt, align 8
  %33 = getelementptr inbounds i8, ptr %32, i64 12
  %_60 = load i32, ptr %33, align 4
  %_89 = load ptr, ptr %ptr, align 8
  %_90 = ptrtoint ptr %_89 to i64
  %_93 = and i64 %_90, 7
  %_94 = icmp eq i64 %_93, 0
  br i1 %_94, label %bb35, label %panic34

panic33:                                          ; preds = %bb36
; call core::panicking::panic_null_pointer_dereference
  call void @_ZN4core9panicking30panic_null_pointer_dereference17hf718fcc86a223baaE(ptr align 8 @alloc_9244a9e6d2f38a93e3ff21c37f0138b1) #4
  unreachable

bb35:                                             ; preds = %bb75
  %_355 = load ptr, ptr %ptr, align 8
  %_356 = ptrtoint ptr %_355 to i64
  %_359 = icmp eq i64 %_356, 0
  %_360 = and i1 %_359, true
  %_361 = xor i1 %_360, true
  br i1 %_361, label %bb76, label %panic35

panic34:                                          ; preds = %bb75
; call core::panicking::panic_misaligned_pointer_dereference
  call void @_ZN4core9panicking36panic_misaligned_pointer_dereference17hcc3cbded9382b6e5E(i64 8, i64 %_90, ptr align 8 @alloc_f05125dc32058f03140442720bcc0fa6) #4
  unreachable

bb76:                                             ; preds = %bb35
  %34 = load ptr, ptr %ptr, align 8
  %35 = getelementptr inbounds i8, ptr %34, i64 12
  %_61 = load i32, ptr %35, align 4
  %_59 = icmp slt i32 %_60, %_61
  br i1 %_59, label %bb28, label %bb29

panic35:                                          ; preds = %bb35
; call core::panicking::panic_null_pointer_dereference
  call void @_ZN4core9panicking30panic_null_pointer_dereference17hf718fcc86a223baaE(ptr align 8 @alloc_f05125dc32058f03140442720bcc0fa6) #4
  unreachable

bb28:                                             ; preds = %bb76
  %_62 = load ptr, ptr %rpt, align 8
  store ptr %_62, ptr %ptr, align 8
  br label %bb29

bb34:                                             ; preds = %bb29
  %_362 = load ptr, ptr %rpt, align 8
  %_363 = ptrtoint ptr %_362 to i64
  %_366 = icmp eq i64 %_363, 0
  %_367 = and i1 %_366, true
  %_368 = xor i1 %_367, true
  br i1 %_368, label %bb77, label %panic37

panic36:                                          ; preds = %bb29
; call core::panicking::panic_misaligned_pointer_dereference
  call void @_ZN4core9panicking36panic_misaligned_pointer_dereference17hcc3cbded9382b6e5E(i64 8, i64 %_84, ptr align 8 @alloc_82da31e18cc1bb13599dae40146bdca2) #4
  unreachable

bb77:                                             ; preds = %bb34
  %36 = load ptr, ptr %rpt, align 8
  %37 = getelementptr inbounds i8, ptr %36, i64 32
  %_63 = load ptr, ptr %37, align 8
  store ptr %_63, ptr %rpt, align 8
  br label %bb23

panic37:                                          ; preds = %bb34
; call core::panicking::panic_null_pointer_dereference
  call void @_ZN4core9panicking30panic_null_pointer_dereference17hf718fcc86a223baaE(ptr align 8 @alloc_82da31e18cc1bb13599dae40146bdca2) #4
  unreachable

bb40:                                             ; preds = %bb25
  %_320 = load ptr, ptr %ptr, align 8
  %_321 = ptrtoint ptr %_320 to i64
  %_324 = icmp eq i64 %_321, 0
  %_325 = and i1 %_324, true
  %_326 = xor i1 %_325, true
  br i1 %_326, label %bb71, label %panic39

panic38:                                          ; preds = %bb25
; call core::panicking::panic_misaligned_pointer_dereference
  call void @_ZN4core9panicking36panic_misaligned_pointer_dereference17hcc3cbded9382b6e5E(i64 8, i64 %_120, ptr align 8 @alloc_28ea22bbe15217d64a7c521e2ae571cf) #4
  unreachable

bb71:                                             ; preds = %bb40
  %38 = load ptr, ptr %ptr, align 8
  %39 = getelementptr inbounds i8, ptr %38, i64 8
  %_64 = load i32, ptr %39, align 8
  %40 = load i32, ptr %ct, align 4
  %41 = add i32 %40, %_64
  store i32 %41, ptr %ct, align 4
  %_113 = load ptr, ptr %ptr, align 8
  %_114 = ptrtoint ptr %_113 to i64
  %_117 = and i64 %_114, 7
  %_118 = icmp eq i64 %_117, 0
  br i1 %_118, label %bb39, label %panic40

panic39:                                          ; preds = %bb40
; call core::panicking::panic_null_pointer_dereference
  call void @_ZN4core9panicking30panic_null_pointer_dereference17hf718fcc86a223baaE(ptr align 8 @alloc_28ea22bbe15217d64a7c521e2ae571cf) #4
  unreachable

bb39:                                             ; preds = %bb71
  %_327 = load ptr, ptr %ptr, align 8
  %_328 = ptrtoint ptr %_327 to i64
  %_331 = icmp eq i64 %_328, 0
  %_332 = and i1 %_331, true
  %_333 = xor i1 %_332, true
  br i1 %_333, label %bb72, label %panic41

panic40:                                          ; preds = %bb71
; call core::panicking::panic_misaligned_pointer_dereference
  call void @_ZN4core9panicking36panic_misaligned_pointer_dereference17hcc3cbded9382b6e5E(i64 8, i64 %_114, ptr align 8 @alloc_f5fb986831bfe4b06f64d057e21bd0ab) #4
  unreachable

bb72:                                             ; preds = %bb39
  %42 = load ptr, ptr %ptr, align 8
  %43 = getelementptr inbounds i8, ptr %42, i64 8
  %_65 = load i32, ptr %43, align 8
  %44 = load i32, ptr %time, align 4
  %45 = add i32 %44, %_65
  store i32 %45, ptr %time, align 4
  %_67 = load i32, ptr %ct, align 4
  %_66 = sitofp i32 %_67 to float
  %46 = load float, ptr %sum, align 4
  %47 = fadd float %46, %_66
  store float %47, ptr %sum, align 4
  %_107 = load ptr, ptr %ptr, align 8
  %_108 = ptrtoint ptr %_107 to i64
  %_111 = and i64 %_108, 7
  %_112 = icmp eq i64 %_111, 0
  br i1 %_112, label %bb38, label %panic42

panic41:                                          ; preds = %bb39
; call core::panicking::panic_null_pointer_dereference
  call void @_ZN4core9panicking30panic_null_pointer_dereference17hf718fcc86a223baaE(ptr align 8 @alloc_f5fb986831bfe4b06f64d057e21bd0ab) #4
  unreachable

bb38:                                             ; preds = %bb72
  %_334 = load ptr, ptr %ptr, align 8
  %_335 = ptrtoint ptr %_334 to i64
  %_338 = icmp eq i64 %_335, 0
  %_339 = and i1 %_338, true
  %_340 = xor i1 %_339, true
  br i1 %_340, label %bb73, label %panic43

panic42:                                          ; preds = %bb72
; call core::panicking::panic_misaligned_pointer_dereference
  call void @_ZN4core9panicking36panic_misaligned_pointer_dereference17hcc3cbded9382b6e5E(i64 8, i64 %_108, ptr align 8 @alloc_eb561d9f0e8d401673c65ca2cbcfe32c) #4
  unreachable

bb73:                                             ; preds = %bb38
  %48 = load ptr, ptr %ptr, align 8
  %_69 = load i32, ptr %48, align 8
  %_70 = load i32, ptr %ct, align 4
  call void @update(ptr %root, i32 %_69, i32 %_70, i32 0, i32 0) #3
  %_77 = load ptr, ptr %ptr, align 8
  %_78 = ptrtoint ptr %_77 to i64
  %_81 = and i64 %_78, 7
  %_82 = icmp eq i64 %_81, 0
  br i1 %_82, label %bb33, label %panic44

panic43:                                          ; preds = %bb38
; call core::panicking::panic_null_pointer_dereference
  call void @_ZN4core9panicking30panic_null_pointer_dereference17hf718fcc86a223baaE(ptr align 8 @alloc_eb561d9f0e8d401673c65ca2cbcfe32c) #4
  unreachable

bb33:                                             ; preds = %bb73
  %_369 = load ptr, ptr %ptr, align 8
  %_370 = ptrtoint ptr %_369 to i64
  %_373 = icmp eq i64 %_370, 0
  %_374 = and i1 %_373, true
  %_375 = xor i1 %_374, true
  br i1 %_375, label %bb78, label %panic45

panic44:                                          ; preds = %bb73
; call core::panicking::panic_misaligned_pointer_dereference
  call void @_ZN4core9panicking36panic_misaligned_pointer_dereference17hcc3cbded9382b6e5E(i64 8, i64 %_78, ptr align 8 @alloc_182c349c68616dc4ac1a7f8720306cd2) #4
  unreachable

bb78:                                             ; preds = %bb33
  %49 = load ptr, ptr %ptr, align 8
  %_74 = load i32, ptr %49, align 8
  call void @delete(ptr %duproot, i32 %_74) #3
  %50 = load i32, ptr %i, align 4
  %51 = add i32 %50, 1
  store i32 %51, ptr %i, align 4
  br label %bb16

panic45:                                          ; preds = %bb33
; call core::panicking::panic_null_pointer_dereference
  call void @_ZN4core9panicking30panic_null_pointer_dereference17hf718fcc86a223baaE(ptr align 8 @alloc_182c349c68616dc4ac1a7f8720306cd2) #4
  unreachable
}

; Function Attrs: nounwind nonlazybind
define float @calculate_tat(ptr %root) unnamed_addr #1 {
start:
  %ptr = alloca [8 x i8], align 8
  %sum = alloca [4 x i8], align 4
  %avg = alloca [4 x i8], align 4
  store float 0.000000e+00, ptr %avg, align 4
  store float 0.000000e+00, ptr %sum, align 4
  %n = call i32 @l_length(ptr %root) #3
  %_54 = ptrtoint ptr %root to i64
  %_57 = and i64 %_54, 7
  %_58 = icmp eq i64 %_57, 0
  br i1 %_58, label %bb13, label %panic

bb13:                                             ; preds = %start
  %_60 = ptrtoint ptr %root to i64
  %_63 = icmp eq i64 %_60, 0
  %_64 = and i1 %_63, true
  %_65 = xor i1 %_64, true
  br i1 %_65, label %bb14, label %panic1

panic:                                            ; preds = %start
; call core::panicking::panic_misaligned_pointer_dereference
  call void @_ZN4core9panicking36panic_misaligned_pointer_dereference17hcc3cbded9382b6e5E(i64 8, i64 %_54, ptr align 8 @alloc_ae887e084105a74647b27dfea00c70de) #4
  unreachable

bb14:                                             ; preds = %bb13
  %0 = load ptr, ptr %root, align 8
  store ptr %0, ptr %ptr, align 8
  %_47 = load ptr, ptr %ptr, align 8
  %_48 = ptrtoint ptr %_47 to i64
  %_51 = and i64 %_48, 7
  %_52 = icmp eq i64 %_51, 0
  br i1 %_52, label %bb12, label %panic2

panic1:                                           ; preds = %bb13
; call core::panicking::panic_null_pointer_dereference
  call void @_ZN4core9panicking30panic_null_pointer_dereference17hf718fcc86a223baaE(ptr align 8 @alloc_ae887e084105a74647b27dfea00c70de) #4
  unreachable

bb12:                                             ; preds = %bb14
  %_66 = load ptr, ptr %ptr, align 8
  %_67 = ptrtoint ptr %_66 to i64
  %_70 = icmp eq i64 %_67, 0
  %_71 = and i1 %_70, true
  %_72 = xor i1 %_71, true
  br i1 %_72, label %bb15, label %panic3

panic2:                                           ; preds = %bb14
; call core::panicking::panic_misaligned_pointer_dereference
  call void @_ZN4core9panicking36panic_misaligned_pointer_dereference17hcc3cbded9382b6e5E(i64 8, i64 %_48, ptr align 8 @alloc_8a37f86cefb6090043fab19432bb8b47) #4
  unreachable

bb15:                                             ; preds = %bb12
  %1 = load ptr, ptr %ptr, align 8
  %2 = getelementptr inbounds i8, ptr %1, i64 16
  %_6 = load i32, ptr %2, align 8
  %3 = icmp eq i32 %_6, 0
  br i1 %3, label %bb2, label %bb3

panic3:                                           ; preds = %bb12
; call core::panicking::panic_null_pointer_dereference
  call void @_ZN4core9panicking30panic_null_pointer_dereference17hf718fcc86a223baaE(ptr align 8 @alloc_8a37f86cefb6090043fab19432bb8b47) #4
  unreachable

bb2:                                              ; preds = %bb15
  %_7 = call float @calculate_ct(ptr %root) #3
  br label %bb3

bb3:                                              ; preds = %bb20, %bb2, %bb15
  %_9 = load ptr, ptr %ptr, align 8
; call core::ptr::mut_ptr::<impl *mut T>::is_null
  %_8 = call zeroext i1 @"_ZN4core3ptr7mut_ptr31_$LT$impl$u20$$BP$mut$u20$T$GT$7is_null17h94e9dd4f165e1bb4E"(ptr %_9) #3
  br i1 %_8, label %bb5, label %bb6

bb6:                                              ; preds = %bb3
  %_41 = load ptr, ptr %ptr, align 8
  %_42 = ptrtoint ptr %_41 to i64
  %_45 = and i64 %_42, 7
  %_46 = icmp eq i64 %_45, 0
  br i1 %_46, label %bb11, label %panic4

bb5:                                              ; preds = %bb3
  %_15 = load float, ptr %sum, align 4
  %_16 = sitofp i32 %n to float
  %4 = fdiv float %_15, %_16
  store float %4, ptr %avg, align 4
  %_0 = load float, ptr %avg, align 4
  ret float %_0

bb11:                                             ; preds = %bb6
  %_73 = load ptr, ptr %ptr, align 8
  %_74 = ptrtoint ptr %_73 to i64
  %_77 = icmp eq i64 %_74, 0
  %_78 = and i1 %_77, true
  %_79 = xor i1 %_78, true
  br i1 %_79, label %bb16, label %panic5

panic4:                                           ; preds = %bb6
; call core::panicking::panic_misaligned_pointer_dereference
  call void @_ZN4core9panicking36panic_misaligned_pointer_dereference17hcc3cbded9382b6e5E(i64 8, i64 %_42, ptr align 8 @alloc_745f8e410582c5609a11085eea1bb0b0) #4
  unreachable

bb16:                                             ; preds = %bb11
  %5 = load ptr, ptr %ptr, align 8
  %6 = getelementptr inbounds i8, ptr %5, i64 16
  %_10 = load i32, ptr %6, align 8
  %_35 = load ptr, ptr %ptr, align 8
  %_36 = ptrtoint ptr %_35 to i64
  %_39 = and i64 %_36, 7
  %_40 = icmp eq i64 %_39, 0
  br i1 %_40, label %bb10, label %panic6

panic5:                                           ; preds = %bb11
; call core::panicking::panic_null_pointer_dereference
  call void @_ZN4core9panicking30panic_null_pointer_dereference17hf718fcc86a223baaE(ptr align 8 @alloc_745f8e410582c5609a11085eea1bb0b0) #4
  unreachable

bb10:                                             ; preds = %bb16
  %_80 = load ptr, ptr %ptr, align 8
  %_81 = ptrtoint ptr %_80 to i64
  %_84 = icmp eq i64 %_81, 0
  %_85 = and i1 %_84, true
  %_86 = xor i1 %_85, true
  br i1 %_86, label %bb17, label %panic7

panic6:                                           ; preds = %bb16
; call core::panicking::panic_misaligned_pointer_dereference
  call void @_ZN4core9panicking36panic_misaligned_pointer_dereference17hcc3cbded9382b6e5E(i64 8, i64 %_36, ptr align 8 @alloc_7aa582e9a73a3604879f973fe89dcdbb) #4
  unreachable

bb17:                                             ; preds = %bb10
  %7 = load ptr, ptr %ptr, align 8
  %8 = getelementptr inbounds i8, ptr %7, i64 4
  %_11 = load i32, ptr %8, align 4
  %_29 = load ptr, ptr %ptr, align 8
  %_30 = ptrtoint ptr %_29 to i64
  %_33 = and i64 %_30, 7
  %_34 = icmp eq i64 %_33, 0
  br i1 %_34, label %bb9, label %panic8

panic7:                                           ; preds = %bb10
; call core::panicking::panic_null_pointer_dereference
  call void @_ZN4core9panicking30panic_null_pointer_dereference17hf718fcc86a223baaE(ptr align 8 @alloc_7aa582e9a73a3604879f973fe89dcdbb) #4
  unreachable

bb9:                                              ; preds = %bb17
  %_87 = load ptr, ptr %ptr, align 8
  %_88 = ptrtoint ptr %_87 to i64
  %_91 = icmp eq i64 %_88, 0
  %_92 = and i1 %_91, true
  %_93 = xor i1 %_92, true
  br i1 %_93, label %bb18, label %panic9

panic8:                                           ; preds = %bb17
; call core::panicking::panic_misaligned_pointer_dereference
  call void @_ZN4core9panicking36panic_misaligned_pointer_dereference17hcc3cbded9382b6e5E(i64 8, i64 %_30, ptr align 8 @alloc_d9d817104817e5e98d0a7a1cc71f15a0) #4
  unreachable

bb18:                                             ; preds = %bb9
  %9 = load ptr, ptr %ptr, align 8
  %10 = getelementptr inbounds i8, ptr %9, i64 24
  %11 = sub i32 %_10, %_11
  store i32 %11, ptr %10, align 8
  %_23 = load ptr, ptr %ptr, align 8
  %_24 = ptrtoint ptr %_23 to i64
  %_27 = and i64 %_24, 7
  %_28 = icmp eq i64 %_27, 0
  br i1 %_28, label %bb8, label %panic10

panic9:                                           ; preds = %bb9
; call core::panicking::panic_null_pointer_dereference
  call void @_ZN4core9panicking30panic_null_pointer_dereference17hf718fcc86a223baaE(ptr align 8 @alloc_d9d817104817e5e98d0a7a1cc71f15a0) #4
  unreachable

bb8:                                              ; preds = %bb18
  %_94 = load ptr, ptr %ptr, align 8
  %_95 = ptrtoint ptr %_94 to i64
  %_98 = icmp eq i64 %_95, 0
  %_99 = and i1 %_98, true
  %_100 = xor i1 %_99, true
  br i1 %_100, label %bb19, label %panic11

panic10:                                          ; preds = %bb18
; call core::panicking::panic_misaligned_pointer_dereference
  call void @_ZN4core9panicking36panic_misaligned_pointer_dereference17hcc3cbded9382b6e5E(i64 8, i64 %_24, ptr align 8 @alloc_97dde4d4bdf2f4d1a3806f0069d67d16) #4
  unreachable

bb19:                                             ; preds = %bb8
  %12 = load ptr, ptr %ptr, align 8
  %13 = getelementptr inbounds i8, ptr %12, i64 24
  %_13 = load i32, ptr %13, align 8
  %_12 = sitofp i32 %_13 to float
  %14 = load float, ptr %sum, align 4
  %15 = fadd float %14, %_12
  store float %15, ptr %sum, align 4
  %_17 = load ptr, ptr %ptr, align 8
  %_18 = ptrtoint ptr %_17 to i64
  %_21 = and i64 %_18, 7
  %_22 = icmp eq i64 %_21, 0
  br i1 %_22, label %bb7, label %panic12

panic11:                                          ; preds = %bb8
; call core::panicking::panic_null_pointer_dereference
  call void @_ZN4core9panicking30panic_null_pointer_dereference17hf718fcc86a223baaE(ptr align 8 @alloc_97dde4d4bdf2f4d1a3806f0069d67d16) #4
  unreachable

bb7:                                              ; preds = %bb19
  %_101 = load ptr, ptr %ptr, align 8
  %_102 = ptrtoint ptr %_101 to i64
  %_105 = icmp eq i64 %_102, 0
  %_106 = and i1 %_105, true
  %_107 = xor i1 %_106, true
  br i1 %_107, label %bb20, label %panic13

panic12:                                          ; preds = %bb19
; call core::panicking::panic_misaligned_pointer_dereference
  call void @_ZN4core9panicking36panic_misaligned_pointer_dereference17hcc3cbded9382b6e5E(i64 8, i64 %_18, ptr align 8 @alloc_75c02754540f0873b3df6e9ccc38fb16) #4
  unreachable

bb20:                                             ; preds = %bb7
  %16 = load ptr, ptr %ptr, align 8
  %17 = getelementptr inbounds i8, ptr %16, i64 32
  %_14 = load ptr, ptr %17, align 8
  store ptr %_14, ptr %ptr, align 8
  br label %bb3

panic13:                                          ; preds = %bb7
; call core::panicking::panic_null_pointer_dereference
  call void @_ZN4core9panicking30panic_null_pointer_dereference17hf718fcc86a223baaE(ptr align 8 @alloc_75c02754540f0873b3df6e9ccc38fb16) #4
  unreachable
}

; Function Attrs: nounwind nonlazybind
define float @calculate_wt(ptr %root) unnamed_addr #1 {
start:
  %ptr = alloca [8 x i8], align 8
  %sum = alloca [4 x i8], align 4
  %avg = alloca [4 x i8], align 4
  store float 0.000000e+00, ptr %avg, align 4
  store float 0.000000e+00, ptr %sum, align 4
  %n = call i32 @l_length(ptr %root) #3
  %_54 = ptrtoint ptr %root to i64
  %_57 = and i64 %_54, 7
  %_58 = icmp eq i64 %_57, 0
  br i1 %_58, label %bb13, label %panic

bb13:                                             ; preds = %start
  %_60 = ptrtoint ptr %root to i64
  %_63 = icmp eq i64 %_60, 0
  %_64 = and i1 %_63, true
  %_65 = xor i1 %_64, true
  br i1 %_65, label %bb14, label %panic1

panic:                                            ; preds = %start
; call core::panicking::panic_misaligned_pointer_dereference
  call void @_ZN4core9panicking36panic_misaligned_pointer_dereference17hcc3cbded9382b6e5E(i64 8, i64 %_54, ptr align 8 @alloc_60f3f4c05d9ca955a55c237155056ae3) #4
  unreachable

bb14:                                             ; preds = %bb13
  %0 = load ptr, ptr %root, align 8
  store ptr %0, ptr %ptr, align 8
  %_47 = load ptr, ptr %ptr, align 8
  %_48 = ptrtoint ptr %_47 to i64
  %_51 = and i64 %_48, 7
  %_52 = icmp eq i64 %_51, 0
  br i1 %_52, label %bb12, label %panic2

panic1:                                           ; preds = %bb13
; call core::panicking::panic_null_pointer_dereference
  call void @_ZN4core9panicking30panic_null_pointer_dereference17hf718fcc86a223baaE(ptr align 8 @alloc_60f3f4c05d9ca955a55c237155056ae3) #4
  unreachable

bb12:                                             ; preds = %bb14
  %_66 = load ptr, ptr %ptr, align 8
  %_67 = ptrtoint ptr %_66 to i64
  %_70 = icmp eq i64 %_67, 0
  %_71 = and i1 %_70, true
  %_72 = xor i1 %_71, true
  br i1 %_72, label %bb15, label %panic3

panic2:                                           ; preds = %bb14
; call core::panicking::panic_misaligned_pointer_dereference
  call void @_ZN4core9panicking36panic_misaligned_pointer_dereference17hcc3cbded9382b6e5E(i64 8, i64 %_48, ptr align 8 @alloc_290413aa0cd80994369e176fc98fc962) #4
  unreachable

bb15:                                             ; preds = %bb12
  %1 = load ptr, ptr %ptr, align 8
  %2 = getelementptr inbounds i8, ptr %1, i64 16
  %_6 = load i32, ptr %2, align 8
  %3 = icmp eq i32 %_6, 0
  br i1 %3, label %bb2, label %bb3

panic3:                                           ; preds = %bb12
; call core::panicking::panic_null_pointer_dereference
  call void @_ZN4core9panicking30panic_null_pointer_dereference17hf718fcc86a223baaE(ptr align 8 @alloc_290413aa0cd80994369e176fc98fc962) #4
  unreachable

bb2:                                              ; preds = %bb15
  %_7 = call float @calculate_ct(ptr %root) #3
  br label %bb3

bb3:                                              ; preds = %bb20, %bb2, %bb15
  %_9 = load ptr, ptr %ptr, align 8
; call core::ptr::mut_ptr::<impl *mut T>::is_null
  %_8 = call zeroext i1 @"_ZN4core3ptr7mut_ptr31_$LT$impl$u20$$BP$mut$u20$T$GT$7is_null17h94e9dd4f165e1bb4E"(ptr %_9) #3
  br i1 %_8, label %bb5, label %bb6

bb6:                                              ; preds = %bb3
  %_41 = load ptr, ptr %ptr, align 8
  %_42 = ptrtoint ptr %_41 to i64
  %_45 = and i64 %_42, 7
  %_46 = icmp eq i64 %_45, 0
  br i1 %_46, label %bb11, label %panic4

bb5:                                              ; preds = %bb3
  %_15 = load float, ptr %sum, align 4
  %_16 = sitofp i32 %n to float
  %4 = fdiv float %_15, %_16
  store float %4, ptr %avg, align 4
  %_0 = load float, ptr %avg, align 4
  ret float %_0

bb11:                                             ; preds = %bb6
  %_73 = load ptr, ptr %ptr, align 8
  %_74 = ptrtoint ptr %_73 to i64
  %_77 = icmp eq i64 %_74, 0
  %_78 = and i1 %_77, true
  %_79 = xor i1 %_78, true
  br i1 %_79, label %bb16, label %panic5

panic4:                                           ; preds = %bb6
; call core::panicking::panic_misaligned_pointer_dereference
  call void @_ZN4core9panicking36panic_misaligned_pointer_dereference17hcc3cbded9382b6e5E(i64 8, i64 %_42, ptr align 8 @alloc_daf72c1f7319aa4aed757330a177962e) #4
  unreachable

bb16:                                             ; preds = %bb11
  %5 = load ptr, ptr %ptr, align 8
  %6 = getelementptr inbounds i8, ptr %5, i64 24
  %_10 = load i32, ptr %6, align 8
  %_35 = load ptr, ptr %ptr, align 8
  %_36 = ptrtoint ptr %_35 to i64
  %_39 = and i64 %_36, 7
  %_40 = icmp eq i64 %_39, 0
  br i1 %_40, label %bb10, label %panic6

panic5:                                           ; preds = %bb11
; call core::panicking::panic_null_pointer_dereference
  call void @_ZN4core9panicking30panic_null_pointer_dereference17hf718fcc86a223baaE(ptr align 8 @alloc_daf72c1f7319aa4aed757330a177962e) #4
  unreachable

bb10:                                             ; preds = %bb16
  %_80 = load ptr, ptr %ptr, align 8
  %_81 = ptrtoint ptr %_80 to i64
  %_84 = icmp eq i64 %_81, 0
  %_85 = and i1 %_84, true
  %_86 = xor i1 %_85, true
  br i1 %_86, label %bb17, label %panic7

panic6:                                           ; preds = %bb16
; call core::panicking::panic_misaligned_pointer_dereference
  call void @_ZN4core9panicking36panic_misaligned_pointer_dereference17hcc3cbded9382b6e5E(i64 8, i64 %_36, ptr align 8 @alloc_be948c1909f858341a9f3fb8e7cff3d6) #4
  unreachable

bb17:                                             ; preds = %bb10
  %7 = load ptr, ptr %ptr, align 8
  %8 = getelementptr inbounds i8, ptr %7, i64 8
  %_11 = load i32, ptr %8, align 8
  %_29 = load ptr, ptr %ptr, align 8
  %_30 = ptrtoint ptr %_29 to i64
  %_33 = and i64 %_30, 7
  %_34 = icmp eq i64 %_33, 0
  br i1 %_34, label %bb9, label %panic8

panic7:                                           ; preds = %bb10
; call core::panicking::panic_null_pointer_dereference
  call void @_ZN4core9panicking30panic_null_pointer_dereference17hf718fcc86a223baaE(ptr align 8 @alloc_be948c1909f858341a9f3fb8e7cff3d6) #4
  unreachable

bb9:                                              ; preds = %bb17
  %_87 = load ptr, ptr %ptr, align 8
  %_88 = ptrtoint ptr %_87 to i64
  %_91 = icmp eq i64 %_88, 0
  %_92 = and i1 %_91, true
  %_93 = xor i1 %_92, true
  br i1 %_93, label %bb18, label %panic9

panic8:                                           ; preds = %bb17
; call core::panicking::panic_misaligned_pointer_dereference
  call void @_ZN4core9panicking36panic_misaligned_pointer_dereference17hcc3cbded9382b6e5E(i64 8, i64 %_30, ptr align 8 @alloc_22c074f8323a347b4b18d77710344a31) #4
  unreachable

bb18:                                             ; preds = %bb9
  %9 = load ptr, ptr %ptr, align 8
  %10 = getelementptr inbounds i8, ptr %9, i64 20
  %11 = sub i32 %_10, %_11
  store i32 %11, ptr %10, align 4
  %_23 = load ptr, ptr %ptr, align 8
  %_24 = ptrtoint ptr %_23 to i64
  %_27 = and i64 %_24, 7
  %_28 = icmp eq i64 %_27, 0
  br i1 %_28, label %bb8, label %panic10

panic9:                                           ; preds = %bb9
; call core::panicking::panic_null_pointer_dereference
  call void @_ZN4core9panicking30panic_null_pointer_dereference17hf718fcc86a223baaE(ptr align 8 @alloc_22c074f8323a347b4b18d77710344a31) #4
  unreachable

bb8:                                              ; preds = %bb18
  %_94 = load ptr, ptr %ptr, align 8
  %_95 = ptrtoint ptr %_94 to i64
  %_98 = icmp eq i64 %_95, 0
  %_99 = and i1 %_98, true
  %_100 = xor i1 %_99, true
  br i1 %_100, label %bb19, label %panic11

panic10:                                          ; preds = %bb18
; call core::panicking::panic_misaligned_pointer_dereference
  call void @_ZN4core9panicking36panic_misaligned_pointer_dereference17hcc3cbded9382b6e5E(i64 8, i64 %_24, ptr align 8 @alloc_e5a2abac0cd4f1d6e74300fbbdf2890d) #4
  unreachable

bb19:                                             ; preds = %bb8
  %12 = load ptr, ptr %ptr, align 8
  %13 = getelementptr inbounds i8, ptr %12, i64 20
  %_13 = load i32, ptr %13, align 4
  %_12 = sitofp i32 %_13 to float
  %14 = load float, ptr %sum, align 4
  %15 = fadd float %14, %_12
  store float %15, ptr %sum, align 4
  %_17 = load ptr, ptr %ptr, align 8
  %_18 = ptrtoint ptr %_17 to i64
  %_21 = and i64 %_18, 7
  %_22 = icmp eq i64 %_21, 0
  br i1 %_22, label %bb7, label %panic12

panic11:                                          ; preds = %bb8
; call core::panicking::panic_null_pointer_dereference
  call void @_ZN4core9panicking30panic_null_pointer_dereference17hf718fcc86a223baaE(ptr align 8 @alloc_e5a2abac0cd4f1d6e74300fbbdf2890d) #4
  unreachable

bb7:                                              ; preds = %bb19
  %_101 = load ptr, ptr %ptr, align 8
  %_102 = ptrtoint ptr %_101 to i64
  %_105 = icmp eq i64 %_102, 0
  %_106 = and i1 %_105, true
  %_107 = xor i1 %_106, true
  br i1 %_107, label %bb20, label %panic13

panic12:                                          ; preds = %bb19
; call core::panicking::panic_misaligned_pointer_dereference
  call void @_ZN4core9panicking36panic_misaligned_pointer_dereference17hcc3cbded9382b6e5E(i64 8, i64 %_18, ptr align 8 @alloc_a6bba0f65f45e305a89e02e7b9e6af9c) #4
  unreachable

bb20:                                             ; preds = %bb7
  %16 = load ptr, ptr %ptr, align 8
  %17 = getelementptr inbounds i8, ptr %16, i64 32
  %_14 = load ptr, ptr %17, align 8
  store ptr %_14, ptr %ptr, align 8
  br label %bb3

panic13:                                          ; preds = %bb7
; call core::panicking::panic_null_pointer_dereference
  call void @_ZN4core9panicking30panic_null_pointer_dereference17hf718fcc86a223baaE(ptr align 8 @alloc_a6bba0f65f45e305a89e02e7b9e6af9c) #4
  unreachable
}

; Function Attrs: nounwind nonlazybind
declare ptr @malloc(i64) unnamed_addr #1

; core::panicking::panic_misaligned_pointer_dereference
; Function Attrs: cold minsize noinline noreturn nounwind nonlazybind optsize
declare void @_ZN4core9panicking36panic_misaligned_pointer_dereference17hcc3cbded9382b6e5E(i64, i64, ptr align 8) unnamed_addr #2

; core::panicking::panic_null_pointer_dereference
; Function Attrs: cold minsize noinline noreturn nounwind nonlazybind optsize
declare void @_ZN4core9panicking30panic_null_pointer_dereference17hf718fcc86a223baaE(ptr align 8) unnamed_addr #2

; Function Attrs: nounwind nonlazybind
declare void @free(ptr) unnamed_addr #1

; Function Attrs: nounwind nonlazybind
declare i32 @printf(ptr, ...) unnamed_addr #1

attributes #0 = { inlinehint nounwind nonlazybind "probe-stack"="inline-asm" "target-cpu"="x86-64" }
attributes #1 = { nounwind nonlazybind "probe-stack"="inline-asm" "target-cpu"="x86-64" }
attributes #2 = { cold minsize noinline noreturn nounwind nonlazybind optsize "probe-stack"="inline-asm" "target-cpu"="x86-64" }
attributes #3 = { nounwind }
attributes #4 = { noreturn nounwind }

!llvm.module.flags = !{!0, !1}
!llvm.ident = !{!2}

!0 = !{i32 8, !"PIC Level", i32 2}
!1 = !{i32 2, !"RtLibUseGOT", i32 1}
!2 = !{!"rustc version 1.88.0-nightly (0b45675cf 2025-03-31)"}
