; ModuleID = '8n5uk3arp6er6w9wion7vdquh'
source_filename = "8n5uk3arp6er6w9wion7vdquh"
target datalayout = "e-m:e-p270:32:32-p271:32:32-p272:64:64-i64:64-i128:128-f80:128-n8:16:32:64-S128"
target triple = "x86_64-unknown-linux-gnu"

@alloc_f5ffd2fd1476bab43ad89fb40c72d0c5 = private unnamed_addr constant [10 x i8] c"src/lib.rs", align 1
@alloc_5a8bde7173c3cbbe7ad30de7033b7ae0 = private unnamed_addr constant <{ ptr, [16 x i8] }> <{ ptr @alloc_f5ffd2fd1476bab43ad89fb40c72d0c5, [16 x i8] c"\0A\00\00\00\00\00\00\001\00\00\00\05\00\00\00" }>, align 8
@alloc_b71d35a8f1467390831bdfa791278786 = private unnamed_addr constant <{ ptr, [16 x i8] }> <{ ptr @alloc_f5ffd2fd1476bab43ad89fb40c72d0c5, [16 x i8] c"\0A\00\00\00\00\00\00\002\00\00\00\12\00\00\00" }>, align 8
@alloc_986f51c15bf0dd85cf78c1f20d429dda = private unnamed_addr constant <{ ptr, [16 x i8] }> <{ ptr @alloc_f5ffd2fd1476bab43ad89fb40c72d0c5, [16 x i8] c"\0A\00\00\00\00\00\00\002\00\00\00\05\00\00\00" }>, align 8
@alloc_24355cc609732052fbdf148e1171734e = private unnamed_addr constant <{ ptr, [16 x i8] }> <{ ptr @alloc_f5ffd2fd1476bab43ad89fb40c72d0c5, [16 x i8] c"\0A\00\00\00\00\00\00\007\00\00\00#\00\00\00" }>, align 8
@alloc_df5fc3cbad4d193cc4be84b72422bceb = private unnamed_addr constant <{ ptr, [16 x i8] }> <{ ptr @alloc_f5ffd2fd1476bab43ad89fb40c72d0c5, [16 x i8] c"\0A\00\00\00\00\00\00\009\00\00\00\08\00\00\00" }>, align 8
@alloc_7de5ccd103593b7c774ad58c5fce56b1 = private unnamed_addr constant <{ ptr, [16 x i8] }> <{ ptr @alloc_f5ffd2fd1476bab43ad89fb40c72d0c5, [16 x i8] c"\0A\00\00\00\00\00\00\009\00\00\00\22\00\00\00" }>, align 8
@alloc_030ec1679a8bbecd22c23fdacb367fd7 = private unnamed_addr constant <{ ptr, [16 x i8] }> <{ ptr @alloc_f5ffd2fd1476bab43ad89fb40c72d0c5, [16 x i8] c"\0A\00\00\00\00\00\00\00<\00\00\00\13\00\00\00" }>, align 8
@alloc_e6c41fffa8a8de897a1b7bbeed5779e3 = private unnamed_addr constant <{ ptr, [16 x i8] }> <{ ptr @alloc_f5ffd2fd1476bab43ad89fb40c72d0c5, [16 x i8] c"\0A\00\00\00\00\00\00\00A\00\00\00\10\00\00\00" }>, align 8
@alloc_7ee74070257268e41eaa2eb93955cf64 = private unnamed_addr constant <{ ptr, [16 x i8] }> <{ ptr @alloc_f5ffd2fd1476bab43ad89fb40c72d0c5, [16 x i8] c"\0A\00\00\00\00\00\00\00?\00\00\00\10\00\00\00" }>, align 8
@alloc_2992717b1fbbb5fccf004109e2b6b4b3 = private unnamed_addr constant <{ ptr, [16 x i8] }> <{ ptr @alloc_f5ffd2fd1476bab43ad89fb40c72d0c5, [16 x i8] c"\0A\00\00\00\00\00\00\00I\00\00\00\0C\00\00\00" }>, align 8
@alloc_66b811dd2337e9595912ea3bb8528467 = private unnamed_addr constant <{ ptr, [16 x i8] }> <{ ptr @alloc_f5ffd2fd1476bab43ad89fb40c72d0c5, [16 x i8] c"\0A\00\00\00\00\00\00\00M\00\00\00\0C\00\00\00" }>, align 8
@alloc_178ad37ef2dbea5303860b66afd2dee8 = private unnamed_addr constant <{ ptr, [16 x i8] }> <{ ptr @alloc_f5ffd2fd1476bab43ad89fb40c72d0c5, [16 x i8] c"\0A\00\00\00\00\00\00\00Q\00\00\00\08\00\00\00" }>, align 8
@alloc_9876f5045a4a582df5fc9f400c06845c = private unnamed_addr constant <{ ptr, [16 x i8] }> <{ ptr @alloc_f5ffd2fd1476bab43ad89fb40c72d0c5, [16 x i8] c"\0A\00\00\00\00\00\00\00Q\00\00\00\22\00\00\00" }>, align 8
@alloc_b789dd1b6ce93cfb1e2065c6c941a3eb = private unnamed_addr constant <{ ptr, [16 x i8] }> <{ ptr @alloc_f5ffd2fd1476bab43ad89fb40c72d0c5, [16 x i8] c"\0A\00\00\00\00\00\00\00[\00\00\00\05\00\00\00" }>, align 8
@alloc_463e4ecbe1c57c4a1b52b00cc832a1c4 = private unnamed_addr constant <{ ptr, [16 x i8] }> <{ ptr @alloc_f5ffd2fd1476bab43ad89fb40c72d0c5, [16 x i8] c"\0A\00\00\00\00\00\00\00\\\00\00\00\05\00\00\00" }>, align 8
@alloc_95de506378dedd44ec2589a712a882c5 = private unnamed_addr constant <{ ptr, [16 x i8] }> <{ ptr @alloc_f5ffd2fd1476bab43ad89fb40c72d0c5, [16 x i8] c"\0A\00\00\00\00\00\00\00]\00\00\00\08\00\00\00" }>, align 8
@alloc_92b40fe40f06833e726244c13951938b = private unnamed_addr constant <{ ptr, [16 x i8] }> <{ ptr @alloc_f5ffd2fd1476bab43ad89fb40c72d0c5, [16 x i8] c"\0A\00\00\00\00\00\00\00a\00\00\00\09\00\00\00" }>, align 8
@alloc_af5a6df1d54b8f0bccfde6f4beaa6593 = private unnamed_addr constant <{ ptr, [16 x i8] }> <{ ptr @alloc_f5ffd2fd1476bab43ad89fb40c72d0c5, [16 x i8] c"\0A\00\00\00\00\00\00\00b\00\00\00\09\00\00\00" }>, align 8
@alloc_93ac8cc25026ce23e4bff3123ecd2b50 = private unnamed_addr constant <{ ptr, [16 x i8] }> <{ ptr @alloc_f5ffd2fd1476bab43ad89fb40c72d0c5, [16 x i8] c"\0A\00\00\00\00\00\00\00^\00\00\00\09\00\00\00" }>, align 8
@alloc_bc5f1064ee8790e610d299d4a7506380 = private unnamed_addr constant <{ ptr, [16 x i8] }> <{ ptr @alloc_f5ffd2fd1476bab43ad89fb40c72d0c5, [16 x i8] c"\0A\00\00\00\00\00\00\00_\00\00\00\16\00\00\00" }>, align 8
@alloc_e6d9feeb3090cf025dddbb08a4db89fe = private unnamed_addr constant <{ ptr, [16 x i8] }> <{ ptr @alloc_f5ffd2fd1476bab43ad89fb40c72d0c5, [16 x i8] c"\0A\00\00\00\00\00\00\00_\00\00\00\09\00\00\00" }>, align 8
@alloc_6548fd5edd167dc358ac7e2d3ae81c19 = private unnamed_addr constant <{ ptr, [16 x i8] }> <{ ptr @alloc_f5ffd2fd1476bab43ad89fb40c72d0c5, [16 x i8] c"\0A\00\00\00\00\00\00\00h\00\00\00\08\00\00\00" }>, align 8
@alloc_3bfac712494ff7a1c57913de446bf117 = private unnamed_addr constant <{ ptr, [16 x i8] }> <{ ptr @alloc_f5ffd2fd1476bab43ad89fb40c72d0c5, [16 x i8] c"\0A\00\00\00\00\00\00\00l\00\00\00\10\00\00\00" }>, align 8
@alloc_c3b97c67509030dbfbe22dcb96c4408f = private unnamed_addr constant <{ ptr, [16 x i8] }> <{ ptr @alloc_f5ffd2fd1476bab43ad89fb40c72d0c5, [16 x i8] c"\0A\00\00\00\00\00\00\00m\00\00\00\16\00\00\00" }>, align 8
@alloc_8aaf0cbe5467e4838b8bc1d98e57daa9 = private unnamed_addr constant <{ ptr, [16 x i8] }> <{ ptr @alloc_f5ffd2fd1476bab43ad89fb40c72d0c5, [16 x i8] c"\0A\00\00\00\00\00\00\00m\00\00\00\09\00\00\00" }>, align 8
@alloc_30c6014e5853a81afbc219b96f2e3024 = private unnamed_addr constant <{ ptr, [16 x i8] }> <{ ptr @alloc_f5ffd2fd1476bab43ad89fb40c72d0c5, [16 x i8] c"\0A\00\00\00\00\00\00\00n\00\00\00\0C\00\00\00" }>, align 8
@alloc_cbf4a1a94898d5322e93dbe900c59b8c = private unnamed_addr constant <{ ptr, [16 x i8] }> <{ ptr @alloc_f5ffd2fd1476bab43ad89fb40c72d0c5, [16 x i8] c"\0A\00\00\00\00\00\00\00o\00\00\00\0D\00\00\00" }>, align 8
@alloc_2553f30f0a174ed6fe63aa6f78bb5f3d = private unnamed_addr constant <{ ptr, [16 x i8] }> <{ ptr @alloc_f5ffd2fd1476bab43ad89fb40c72d0c5, [16 x i8] c"\0A\00\00\00\00\00\00\00q\00\00\00\10\00\00\00" }>, align 8
@alloc_8421308ef077e0b6294cd0d81a904ef7 = private unnamed_addr constant [18 x i8] c"\0AQueue is Empty \0A\00", align 1
@alloc_3381346b6bbcc3166ce99718ec3053f4 = private unnamed_addr constant <{ ptr, [16 x i8] }> <{ ptr @alloc_f5ffd2fd1476bab43ad89fb40c72d0c5, [16 x i8] c"\0A\00\00\00\00\00\00\00v\00\00\00#\00\00\00" }>, align 8
@alloc_c661f4dc7c6504b5a26dfdfa8fa30d49 = private unnamed_addr constant <{ ptr, [16 x i8] }> <{ ptr @alloc_f5ffd2fd1476bab43ad89fb40c72d0c5, [16 x i8] c"\0A\00\00\00\00\00\00\00w\00\00\00\08\00\00\00" }>, align 8
@alloc_ecd20a90c71ccd7b93a409ebb8af5ee5 = private unnamed_addr constant <{ ptr, [16 x i8] }> <{ ptr @alloc_f5ffd2fd1476bab43ad89fb40c72d0c5, [16 x i8] c"\0A\00\00\00\00\00\00\00w\00\00\00\22\00\00\00" }>, align 8
@alloc_3a31753a0b113451bf74f615363720ce = private unnamed_addr constant [3 x i8] c"%d\00", align 1
@alloc_0ec130f5cde43bb0f8ad64b741bcbca5 = private unnamed_addr constant <{ ptr, [16 x i8] }> <{ ptr @alloc_f5ffd2fd1476bab43ad89fb40c72d0c5, [16 x i8] c"\0A\00\00\00\00\00\00\00|\00\00\00=\00\00\00" }>, align 8
@alloc_93228e45d6e47a78352fb9b586e8ebff = private unnamed_addr constant <{ ptr, [16 x i8] }> <{ ptr @alloc_f5ffd2fd1476bab43ad89fb40c72d0c5, [16 x i8] c"\0A\00\00\00\00\00\00\00}\00\00\00\10\00\00\00" }>, align 8
@alloc_edca6fca6f3bd469581a2559907aba10 = private unnamed_addr constant [4 x i8] c"-->\00", align 1
@alloc_54981cf7de5e38aaa858f80975b29707 = private unnamed_addr constant [16 x i8] c"Queue is Empty\0A\00", align 1
@alloc_58e10918fc6f6c1435920b23d42c610c = private unnamed_addr constant <{ ptr, [16 x i8] }> <{ ptr @alloc_f5ffd2fd1476bab43ad89fb40c72d0c5, [16 x i8] c"\0A\00\00\00\00\00\00\00\86\00\00\00\0C\00\00\00" }>, align 8
@alloc_2f3e8e3acbcdda9fee70033b7df481b3 = private unnamed_addr constant <{ ptr, [16 x i8] }> <{ ptr @alloc_f5ffd2fd1476bab43ad89fb40c72d0c5, [16 x i8] c"\0A\00\00\00\00\00\00\00\87\00\00\00\10\00\00\00" }>, align 8
@alloc_4b81c307921488104e6c3f046b5e4fa7 = private unnamed_addr constant [27 x i8] c"Element being deleted: %d\0A\00", align 1
@alloc_2463c7572c0394f6acb85cb6dd5cc5d9 = private unnamed_addr constant <{ ptr, [16 x i8] }> <{ ptr @alloc_f5ffd2fd1476bab43ad89fb40c72d0c5, [16 x i8] c"\0A\00\00\00\00\00\00\00\8A\00\00\00\0D\00\00\00" }>, align 8
@alloc_98c982f9a85a32c028ceae787c89766f = private unnamed_addr constant <{ ptr, [16 x i8] }> <{ ptr @alloc_f5ffd2fd1476bab43ad89fb40c72d0c5, [16 x i8] c"\0A\00\00\00\00\00\00\00\8C\00\00\00\16\00\00\00" }>, align 8
@alloc_51defa837211d00b128e9b5e60ecda6b = private unnamed_addr constant <{ ptr, [16 x i8] }> <{ ptr @alloc_f5ffd2fd1476bab43ad89fb40c72d0c5, [16 x i8] c"\0A\00\00\00\00\00\00\00\8C\00\00\00\09\00\00\00" }>, align 8
@alloc_c2060865273d9b869f07d91e807a15b7 = private unnamed_addr constant <{ ptr, [16 x i8] }> <{ ptr @alloc_f5ffd2fd1476bab43ad89fb40c72d0c5, [16 x i8] c"\0A\00\00\00\00\00\00\00\96\00\00\00\05\00\00\00" }>, align 8
@alloc_4ffbbd574551373046b2bd0490b394e4 = private unnamed_addr constant <{ ptr, [16 x i8] }> <{ ptr @alloc_f5ffd2fd1476bab43ad89fb40c72d0c5, [16 x i8] c"\0A\00\00\00\00\00\00\00\97\00\00\00\05\00\00\00" }>, align 8
@alloc_2db839b4d147b88485591c5637ed0c40 = private unnamed_addr constant <{ ptr, [16 x i8] }> <{ ptr @alloc_f5ffd2fd1476bab43ad89fb40c72d0c5, [16 x i8] c"\0A\00\00\00\00\00\00\00\98\00\00\00\05\00\00\00" }>, align 8
@alloc_935fe35a642b030dd3fd9656d0fb276c = private unnamed_addr constant <{ ptr, [16 x i8] }> <{ ptr @alloc_f5ffd2fd1476bab43ad89fb40c72d0c5, [16 x i8] c"\0A\00\00\00\00\00\00\00\A5\00\00\00\12\00\00\00" }>, align 8
@alloc_00243e048b87a4ef7bff3f8ea13daf39 = private unnamed_addr constant <{ ptr, [16 x i8] }> <{ ptr @alloc_f5ffd2fd1476bab43ad89fb40c72d0c5, [16 x i8] c"\0A\00\00\00\00\00\00\00\A6\00\00\00\13\00\00\00" }>, align 8
@alloc_cab5ceef8ea4a0d6d67f6509d8b384c3 = private unnamed_addr constant <{ ptr, [16 x i8] }> <{ ptr @alloc_f5ffd2fd1476bab43ad89fb40c72d0c5, [16 x i8] c"\0A\00\00\00\00\00\00\00\A8\00\00\00\0D\00\00\00" }>, align 8
@alloc_3c4f8cc213323bb7440740b763c3f9af = private unnamed_addr constant <{ ptr, [16 x i8] }> <{ ptr @alloc_f5ffd2fd1476bab43ad89fb40c72d0c5, [16 x i8] c"\0A\00\00\00\00\00\00\00\A9\00\00\00\18\00\00\00" }>, align 8
@alloc_4080849b7b424868adced146c16ecf54 = private unnamed_addr constant <{ ptr, [16 x i8] }> <{ ptr @alloc_f5ffd2fd1476bab43ad89fb40c72d0c5, [16 x i8] c"\0A\00\00\00\00\00\00\00\AB\00\00\00\0D\00\00\00" }>, align 8
@alloc_d80bc4c7c0b0a4e00990f2ab167f3d85 = private unnamed_addr constant <{ ptr, [16 x i8] }> <{ ptr @alloc_f5ffd2fd1476bab43ad89fb40c72d0c5, [16 x i8] c"\0A\00\00\00\00\00\00\00\AC\00\00\00\18\00\00\00" }>, align 8

; core::ptr::mut_ptr::<impl *mut T>::is_null
; Function Attrs: inlinehint nounwind nonlazybind
define internal zeroext i1 @"_ZN4core3ptr7mut_ptr31_$LT$impl$u20$$BP$mut$u20$T$GT$7is_null17h936e4aa1e709470aE"(ptr %self) unnamed_addr #0 {
start:
  %_3 = ptrtoint ptr %self to i64
  %_0 = icmp eq i64 %_3, 0
  ret i1 %_0
}

; core::ptr::mut_ptr::<impl *mut T>::is_null
; Function Attrs: inlinehint nounwind nonlazybind
define internal zeroext i1 @"_ZN4core3ptr7mut_ptr31_$LT$impl$u20$$BP$mut$u20$T$GT$7is_null17h991a81316afca2bcE"(ptr %self) unnamed_addr #0 {
start:
  %_3 = ptrtoint ptr %self to i64
  %_0 = icmp eq i64 %_3, 0
  ret i1 %_0
}

; core::ptr::mut_ptr::<impl *mut T>::is_null
; Function Attrs: inlinehint nounwind nonlazybind
define internal zeroext i1 @"_ZN4core3ptr7mut_ptr31_$LT$impl$u20$$BP$mut$u20$T$GT$7is_null17hea9cc48e1b6bf162E"(ptr %self) unnamed_addr #0 {
start:
  %_3 = ptrtoint ptr %self to i64
  %_0 = icmp eq i64 %_3, 0
  ret i1 %_0
}

; Function Attrs: nounwind nonlazybind
define ptr @createQueue() unnamed_addr #1 {
start:
  %Q = alloca [8 x i8], align 8
  %_0 = alloca [8 x i8], align 8
  store ptr null, ptr %Q, align 8
  %_2 = call ptr @malloc(i64 16) #3
  store ptr %_2, ptr %Q, align 8
  %_6 = load ptr, ptr %Q, align 8
; call core::ptr::mut_ptr::<impl *mut T>::is_null
  %_5 = call zeroext i1 @"_ZN4core3ptr7mut_ptr31_$LT$impl$u20$$BP$mut$u20$T$GT$7is_null17h936e4aa1e709470aE"(ptr %_6) #3
  br i1 %_5, label %bb4, label %bb5

bb5:                                              ; preds = %start
  %_20 = load ptr, ptr %Q, align 8
  %_21 = ptrtoint ptr %_20 to i64
  %_24 = and i64 %_21, 7
  %_25 = icmp eq i64 %_24, 0
  br i1 %_25, label %bb9, label %panic

bb4:                                              ; preds = %start
  store ptr null, ptr %_0, align 8
  br label %bb6

bb9:                                              ; preds = %bb5
  %_26 = load ptr, ptr %Q, align 8
  %_27 = ptrtoint ptr %_26 to i64
  %_30 = icmp eq i64 %_27, 0
  %_31 = and i1 %_30, true
  %_32 = xor i1 %_31, true
  br i1 %_32, label %bb10, label %panic1

panic:                                            ; preds = %bb5
; call core::panicking::panic_misaligned_pointer_dereference
  call void @_ZN4core9panicking36panic_misaligned_pointer_dereference17hcc3cbded9382b6e5E(i64 8, i64 %_21, ptr align 8 @alloc_5a8bde7173c3cbbe7ad30de7033b7ae0) #4
  unreachable

bb10:                                             ; preds = %bb9
  %0 = load ptr, ptr %Q, align 8
  %1 = getelementptr inbounds i8, ptr %0, i64 8
  store ptr null, ptr %1, align 8
  %_14 = load ptr, ptr %Q, align 8
  %_15 = ptrtoint ptr %_14 to i64
  %_18 = and i64 %_15, 7
  %_19 = icmp eq i64 %_18, 0
  br i1 %_19, label %bb8, label %panic2

panic1:                                           ; preds = %bb9
; call core::panicking::panic_null_pointer_dereference
  call void @_ZN4core9panicking30panic_null_pointer_dereference17hf718fcc86a223baaE(ptr align 8 @alloc_5a8bde7173c3cbbe7ad30de7033b7ae0) #4
  unreachable

bb8:                                              ; preds = %bb10
  %_33 = load ptr, ptr %Q, align 8
  %_34 = ptrtoint ptr %_33 to i64
  %_37 = icmp eq i64 %_34, 0
  %_38 = and i1 %_37, true
  %_39 = xor i1 %_38, true
  br i1 %_39, label %bb11, label %panic3

panic2:                                           ; preds = %bb10
; call core::panicking::panic_misaligned_pointer_dereference
  call void @_ZN4core9panicking36panic_misaligned_pointer_dereference17hcc3cbded9382b6e5E(i64 8, i64 %_15, ptr align 8 @alloc_b71d35a8f1467390831bdfa791278786) #4
  unreachable

bb11:                                             ; preds = %bb8
  %2 = load ptr, ptr %Q, align 8
  %3 = getelementptr inbounds i8, ptr %2, i64 8
  %_7 = load ptr, ptr %3, align 8
  %_8 = load ptr, ptr %Q, align 8
  %_9 = ptrtoint ptr %_8 to i64
  %_12 = and i64 %_9, 7
  %_13 = icmp eq i64 %_12, 0
  br i1 %_13, label %bb7, label %panic4

panic3:                                           ; preds = %bb8
; call core::panicking::panic_null_pointer_dereference
  call void @_ZN4core9panicking30panic_null_pointer_dereference17hf718fcc86a223baaE(ptr align 8 @alloc_b71d35a8f1467390831bdfa791278786) #4
  unreachable

bb7:                                              ; preds = %bb11
  %_40 = load ptr, ptr %Q, align 8
  %_41 = ptrtoint ptr %_40 to i64
  %_44 = icmp eq i64 %_41, 0
  %_45 = and i1 %_44, true
  %_46 = xor i1 %_45, true
  br i1 %_46, label %bb12, label %panic5

panic4:                                           ; preds = %bb11
; call core::panicking::panic_misaligned_pointer_dereference
  call void @_ZN4core9panicking36panic_misaligned_pointer_dereference17hcc3cbded9382b6e5E(i64 8, i64 %_9, ptr align 8 @alloc_986f51c15bf0dd85cf78c1f20d429dda) #4
  unreachable

bb12:                                             ; preds = %bb7
  %4 = load ptr, ptr %Q, align 8
  store ptr %_7, ptr %4, align 8
  %5 = load ptr, ptr %Q, align 8
  store ptr %5, ptr %_0, align 8
  br label %bb6

panic5:                                           ; preds = %bb7
; call core::panicking::panic_null_pointer_dereference
  call void @_ZN4core9panicking30panic_null_pointer_dereference17hf718fcc86a223baaE(ptr align 8 @alloc_986f51c15bf0dd85cf78c1f20d429dda) #4
  unreachable

bb6:                                              ; preds = %bb4, %bb12
  %6 = load ptr, ptr %_0, align 8
  ret ptr %6
}

; Function Attrs: nounwind nonlazybind
define i32 @size(ptr %Q) unnamed_addr #1 {
start:
  %count = alloca [4 x i8], align 4
  %temp = alloca [8 x i8], align 8
  %_0 = alloca [4 x i8], align 4
  %_46 = ptrtoint ptr %Q to i64
  %_49 = and i64 %_46, 7
  %_50 = icmp eq i64 %_49, 0
  br i1 %_50, label %bb16, label %panic

bb16:                                             ; preds = %start
  %_52 = ptrtoint ptr %Q to i64
  %_55 = icmp eq i64 %_52, 0
  %_56 = and i1 %_55, true
  %_57 = xor i1 %_56, true
  br i1 %_57, label %bb17, label %panic1

panic:                                            ; preds = %start
; call core::panicking::panic_misaligned_pointer_dereference
  call void @_ZN4core9panicking36panic_misaligned_pointer_dereference17hcc3cbded9382b6e5E(i64 8, i64 %_46, ptr align 8 @alloc_24355cc609732052fbdf148e1171734e) #4
  unreachable

bb17:                                             ; preds = %bb16
  %0 = load ptr, ptr %Q, align 8
  store ptr %0, ptr %temp, align 8
  store i32 0, ptr %count, align 4
  %_40 = ptrtoint ptr %Q to i64
  %_43 = and i64 %_40, 7
  %_44 = icmp eq i64 %_43, 0
  br i1 %_44, label %bb15, label %panic2

panic1:                                           ; preds = %bb16
; call core::panicking::panic_null_pointer_dereference
  call void @_ZN4core9panicking30panic_null_pointer_dereference17hf718fcc86a223baaE(ptr align 8 @alloc_24355cc609732052fbdf148e1171734e) #4
  unreachable

bb15:                                             ; preds = %bb17
  %_59 = ptrtoint ptr %Q to i64
  %_62 = icmp eq i64 %_59, 0
  %_63 = and i1 %_62, true
  %_64 = xor i1 %_63, true
  br i1 %_64, label %bb18, label %panic3

panic2:                                           ; preds = %bb17
; call core::panicking::panic_misaligned_pointer_dereference
  call void @_ZN4core9panicking36panic_misaligned_pointer_dereference17hcc3cbded9382b6e5E(i64 8, i64 %_40, ptr align 8 @alloc_df5fc3cbad4d193cc4be84b72422bceb) #4
  unreachable

bb18:                                             ; preds = %bb15
  %_5 = load ptr, ptr %Q, align 8
; call core::ptr::mut_ptr::<impl *mut T>::is_null
  %_4 = call zeroext i1 @"_ZN4core3ptr7mut_ptr31_$LT$impl$u20$$BP$mut$u20$T$GT$7is_null17hea9cc48e1b6bf162E"(ptr %_5) #3
  br i1 %_4, label %bb2, label %bb5

panic3:                                           ; preds = %bb15
; call core::panicking::panic_null_pointer_dereference
  call void @_ZN4core9panicking30panic_null_pointer_dereference17hf718fcc86a223baaE(ptr align 8 @alloc_df5fc3cbad4d193cc4be84b72422bceb) #4
  unreachable

bb5:                                              ; preds = %bb21, %bb19, %bb18
  %_9 = load ptr, ptr %temp, align 8
  %_28 = ptrtoint ptr %Q to i64
  %_31 = and i64 %_28, 7
  %_32 = icmp eq i64 %_31, 0
  br i1 %_32, label %bb13, label %panic6

bb2:                                              ; preds = %bb18
  %_34 = ptrtoint ptr %Q to i64
  %_37 = and i64 %_34, 7
  %_38 = icmp eq i64 %_37, 0
  br i1 %_38, label %bb14, label %panic4

bb14:                                             ; preds = %bb2
  %_66 = ptrtoint ptr %Q to i64
  %_69 = icmp eq i64 %_66, 0
  %_70 = and i1 %_69, true
  %_71 = xor i1 %_70, true
  br i1 %_71, label %bb19, label %panic5

panic4:                                           ; preds = %bb2
; call core::panicking::panic_misaligned_pointer_dereference
  call void @_ZN4core9panicking36panic_misaligned_pointer_dereference17hcc3cbded9382b6e5E(i64 8, i64 %_34, ptr align 8 @alloc_7de5ccd103593b7c774ad58c5fce56b1) #4
  unreachable

bb19:                                             ; preds = %bb14
  %1 = getelementptr inbounds i8, ptr %Q, i64 8
  %_7 = load ptr, ptr %1, align 8
; call core::ptr::mut_ptr::<impl *mut T>::is_null
  %_6 = call zeroext i1 @"_ZN4core3ptr7mut_ptr31_$LT$impl$u20$$BP$mut$u20$T$GT$7is_null17hea9cc48e1b6bf162E"(ptr %_7) #3
  br i1 %_6, label %bb4, label %bb5

panic5:                                           ; preds = %bb14
; call core::panicking::panic_null_pointer_dereference
  call void @_ZN4core9panicking30panic_null_pointer_dereference17hf718fcc86a223baaE(ptr align 8 @alloc_7de5ccd103593b7c774ad58c5fce56b1) #4
  unreachable

bb4:                                              ; preds = %bb19
  store i32 0, ptr %_0, align 4
  br label %bb10

bb13:                                             ; preds = %bb5
  %_73 = ptrtoint ptr %Q to i64
  %_76 = icmp eq i64 %_73, 0
  %_77 = and i1 %_76, true
  %_78 = xor i1 %_77, true
  br i1 %_78, label %bb20, label %panic7

panic6:                                           ; preds = %bb5
; call core::panicking::panic_misaligned_pointer_dereference
  call void @_ZN4core9panicking36panic_misaligned_pointer_dereference17hcc3cbded9382b6e5E(i64 8, i64 %_28, ptr align 8 @alloc_030ec1679a8bbecd22c23fdacb367fd7) #4
  unreachable

bb20:                                             ; preds = %bb13
  %2 = getelementptr inbounds i8, ptr %Q, i64 8
  %_10 = load ptr, ptr %2, align 8
  %_8 = icmp ne ptr %_9, %_10
  br i1 %_8, label %bb6, label %bb7

panic7:                                           ; preds = %bb13
; call core::panicking::panic_null_pointer_dereference
  call void @_ZN4core9panicking30panic_null_pointer_dereference17hf718fcc86a223baaE(ptr align 8 @alloc_030ec1679a8bbecd22c23fdacb367fd7) #4
  unreachable

bb7:                                              ; preds = %bb20
  %_13 = load ptr, ptr %temp, align 8
  %_16 = ptrtoint ptr %Q to i64
  %_19 = and i64 %_16, 7
  %_20 = icmp eq i64 %_19, 0
  br i1 %_20, label %bb11, label %panic8

bb6:                                              ; preds = %bb20
  %3 = load i32, ptr %count, align 4
  %4 = add i32 %3, 1
  store i32 %4, ptr %count, align 4
  %_21 = load ptr, ptr %temp, align 8
  %_22 = ptrtoint ptr %_21 to i64
  %_25 = and i64 %_22, 7
  %_26 = icmp eq i64 %_25, 0
  br i1 %_26, label %bb12, label %panic10

bb11:                                             ; preds = %bb7
  %_87 = ptrtoint ptr %Q to i64
  %_90 = icmp eq i64 %_87, 0
  %_91 = and i1 %_90, true
  %_92 = xor i1 %_91, true
  br i1 %_92, label %bb22, label %panic9

panic8:                                           ; preds = %bb7
; call core::panicking::panic_misaligned_pointer_dereference
  call void @_ZN4core9panicking36panic_misaligned_pointer_dereference17hcc3cbded9382b6e5E(i64 8, i64 %_16, ptr align 8 @alloc_e6c41fffa8a8de897a1b7bbeed5779e3) #4
  unreachable

bb22:                                             ; preds = %bb11
  %5 = getelementptr inbounds i8, ptr %Q, i64 8
  %_14 = load ptr, ptr %5, align 8
  %_12 = icmp eq ptr %_13, %_14
  br i1 %_12, label %bb8, label %bb9

panic9:                                           ; preds = %bb11
; call core::panicking::panic_null_pointer_dereference
  call void @_ZN4core9panicking30panic_null_pointer_dereference17hf718fcc86a223baaE(ptr align 8 @alloc_e6c41fffa8a8de897a1b7bbeed5779e3) #4
  unreachable

bb9:                                              ; preds = %bb8, %bb22
  %6 = load i32, ptr %count, align 4
  store i32 %6, ptr %_0, align 4
  br label %bb10

bb8:                                              ; preds = %bb22
  %7 = load i32, ptr %count, align 4
  %8 = add i32 %7, 1
  store i32 %8, ptr %count, align 4
  br label %bb9

bb10:                                             ; preds = %bb4, %bb9
  %9 = load i32, ptr %_0, align 4
  ret i32 %9

bb12:                                             ; preds = %bb6
  %_79 = load ptr, ptr %temp, align 8
  %_80 = ptrtoint ptr %_79 to i64
  %_83 = icmp eq i64 %_80, 0
  %_84 = and i1 %_83, true
  %_85 = xor i1 %_84, true
  br i1 %_85, label %bb21, label %panic11

panic10:                                          ; preds = %bb6
; call core::panicking::panic_misaligned_pointer_dereference
  call void @_ZN4core9panicking36panic_misaligned_pointer_dereference17hcc3cbded9382b6e5E(i64 8, i64 %_22, ptr align 8 @alloc_7ee74070257268e41eaa2eb93955cf64) #4
  unreachable

bb21:                                             ; preds = %bb12
  %10 = load ptr, ptr %temp, align 8
  %11 = getelementptr inbounds i8, ptr %10, i64 8
  %_11 = load ptr, ptr %11, align 8
  store ptr %_11, ptr %temp, align 8
  br label %bb5

panic11:                                          ; preds = %bb12
; call core::panicking::panic_null_pointer_dereference
  call void @_ZN4core9panicking30panic_null_pointer_dereference17hf718fcc86a223baaE(ptr align 8 @alloc_7ee74070257268e41eaa2eb93955cf64) #4
  unreachable
}

; Function Attrs: nounwind nonlazybind
define ptr @frontElement(ptr %Q) unnamed_addr #1 {
start:
  %_2 = load ptr, ptr %Q, align 8
  %_4 = ptrtoint ptr %_2 to i64
  %_7 = and i64 %_4, 7
  %_8 = icmp eq i64 %_7, 0
  br i1 %_8, label %bb1, label %panic

bb1:                                              ; preds = %start
  %_10 = ptrtoint ptr %_2 to i64
  %_13 = icmp eq i64 %_10, 0
  %_14 = and i1 %_13, true
  %_15 = xor i1 %_14, true
  br i1 %_15, label %bb2, label %panic1

panic:                                            ; preds = %start
; call core::panicking::panic_misaligned_pointer_dereference
  call void @_ZN4core9panicking36panic_misaligned_pointer_dereference17hcc3cbded9382b6e5E(i64 8, i64 %_4, ptr align 8 @alloc_2992717b1fbbb5fccf004109e2b6b4b3) #4
  unreachable

bb2:                                              ; preds = %bb1
  %_0 = load ptr, ptr %_2, align 8
  ret ptr %_0

panic1:                                           ; preds = %bb1
; call core::panicking::panic_null_pointer_dereference
  call void @_ZN4core9panicking30panic_null_pointer_dereference17hf718fcc86a223baaE(ptr align 8 @alloc_2992717b1fbbb5fccf004109e2b6b4b3) #4
  unreachable
}

; Function Attrs: nounwind nonlazybind
define ptr @rearElement(ptr %Q) unnamed_addr #1 {
start:
  %0 = getelementptr inbounds i8, ptr %Q, i64 8
  %_2 = load ptr, ptr %0, align 8
  %_4 = ptrtoint ptr %_2 to i64
  %_7 = and i64 %_4, 7
  %_8 = icmp eq i64 %_7, 0
  br i1 %_8, label %bb1, label %panic

bb1:                                              ; preds = %start
  %_10 = ptrtoint ptr %_2 to i64
  %_13 = icmp eq i64 %_10, 0
  %_14 = and i1 %_13, true
  %_15 = xor i1 %_14, true
  br i1 %_15, label %bb2, label %panic1

panic:                                            ; preds = %start
; call core::panicking::panic_misaligned_pointer_dereference
  call void @_ZN4core9panicking36panic_misaligned_pointer_dereference17hcc3cbded9382b6e5E(i64 8, i64 %_4, ptr align 8 @alloc_66b811dd2337e9595912ea3bb8528467) #4
  unreachable

bb2:                                              ; preds = %bb1
  %_0 = load ptr, ptr %_2, align 8
  ret ptr %_0

panic1:                                           ; preds = %bb1
; call core::panicking::panic_null_pointer_dereference
  call void @_ZN4core9panicking30panic_null_pointer_dereference17hf718fcc86a223baaE(ptr align 8 @alloc_66b811dd2337e9595912ea3bb8528467) #4
  unreachable
}

; Function Attrs: nounwind nonlazybind
define i32 @isEmpty(ptr %Q) unnamed_addr #1 {
start:
  %_0 = alloca [4 x i8], align 4
  %_13 = ptrtoint ptr %Q to i64
  %_16 = and i64 %_13, 7
  %_17 = icmp eq i64 %_16, 0
  br i1 %_17, label %bb8, label %panic

bb8:                                              ; preds = %start
  %_19 = ptrtoint ptr %Q to i64
  %_22 = icmp eq i64 %_19, 0
  %_23 = and i1 %_22, true
  %_24 = xor i1 %_23, true
  br i1 %_24, label %bb9, label %panic1

panic:                                            ; preds = %start
; call core::panicking::panic_misaligned_pointer_dereference
  call void @_ZN4core9panicking36panic_misaligned_pointer_dereference17hcc3cbded9382b6e5E(i64 8, i64 %_13, ptr align 8 @alloc_178ad37ef2dbea5303860b66afd2dee8) #4
  unreachable

bb9:                                              ; preds = %bb8
  %_3 = load ptr, ptr %Q, align 8
; call core::ptr::mut_ptr::<impl *mut T>::is_null
  %_2 = call zeroext i1 @"_ZN4core3ptr7mut_ptr31_$LT$impl$u20$$BP$mut$u20$T$GT$7is_null17hea9cc48e1b6bf162E"(ptr %_3) #3
  br i1 %_2, label %bb2, label %bb5

panic1:                                           ; preds = %bb8
; call core::panicking::panic_null_pointer_dereference
  call void @_ZN4core9panicking30panic_null_pointer_dereference17hf718fcc86a223baaE(ptr align 8 @alloc_178ad37ef2dbea5303860b66afd2dee8) #4
  unreachable

bb5:                                              ; preds = %bb10, %bb9
  store i32 0, ptr %_0, align 4
  br label %bb6

bb2:                                              ; preds = %bb9
  %_7 = ptrtoint ptr %Q to i64
  %_10 = and i64 %_7, 7
  %_11 = icmp eq i64 %_10, 0
  br i1 %_11, label %bb7, label %panic2

bb7:                                              ; preds = %bb2
  %_26 = ptrtoint ptr %Q to i64
  %_29 = icmp eq i64 %_26, 0
  %_30 = and i1 %_29, true
  %_31 = xor i1 %_30, true
  br i1 %_31, label %bb10, label %panic3

panic2:                                           ; preds = %bb2
; call core::panicking::panic_misaligned_pointer_dereference
  call void @_ZN4core9panicking36panic_misaligned_pointer_dereference17hcc3cbded9382b6e5E(i64 8, i64 %_7, ptr align 8 @alloc_9876f5045a4a582df5fc9f400c06845c) #4
  unreachable

bb10:                                             ; preds = %bb7
  %0 = getelementptr inbounds i8, ptr %Q, i64 8
  %_5 = load ptr, ptr %0, align 8
; call core::ptr::mut_ptr::<impl *mut T>::is_null
  %_4 = call zeroext i1 @"_ZN4core3ptr7mut_ptr31_$LT$impl$u20$$BP$mut$u20$T$GT$7is_null17hea9cc48e1b6bf162E"(ptr %_5) #3
  br i1 %_4, label %bb4, label %bb5

panic3:                                           ; preds = %bb7
; call core::panicking::panic_null_pointer_dereference
  call void @_ZN4core9panicking30panic_null_pointer_dereference17hf718fcc86a223baaE(ptr align 8 @alloc_9876f5045a4a582df5fc9f400c06845c) #4
  unreachable

bb4:                                              ; preds = %bb10
  store i32 1, ptr %_0, align 4
  br label %bb6

bb6:                                              ; preds = %bb4, %bb5
  %1 = load i32, ptr %_0, align 4
  ret i32 %1
}

; Function Attrs: nounwind nonlazybind
define void @enQueue(ptr %Q, ptr %node) unnamed_addr #1 {
start:
  %temp = alloca [8 x i8], align 8
  store ptr null, ptr %temp, align 8
  %_4 = call ptr @malloc(i64 16) #3
  store ptr %_4, ptr %temp, align 8
  %_56 = load ptr, ptr %temp, align 8
  %_57 = ptrtoint ptr %_56 to i64
  %_60 = and i64 %_57, 7
  %_61 = icmp eq i64 %_60, 0
  br i1 %_61, label %bb14, label %panic

bb14:                                             ; preds = %start
  %_62 = load ptr, ptr %temp, align 8
  %_63 = ptrtoint ptr %_62 to i64
  %_66 = icmp eq i64 %_63, 0
  %_67 = and i1 %_66, true
  %_68 = xor i1 %_67, true
  br i1 %_68, label %bb15, label %panic1

panic:                                            ; preds = %start
; call core::panicking::panic_misaligned_pointer_dereference
  call void @_ZN4core9panicking36panic_misaligned_pointer_dereference17hcc3cbded9382b6e5E(i64 8, i64 %_57, ptr align 8 @alloc_b789dd1b6ce93cfb1e2065c6c941a3eb) #4
  unreachable

bb15:                                             ; preds = %bb14
  %0 = load ptr, ptr %temp, align 8
  store ptr %node, ptr %0, align 8
  %_50 = load ptr, ptr %temp, align 8
  %_51 = ptrtoint ptr %_50 to i64
  %_54 = and i64 %_51, 7
  %_55 = icmp eq i64 %_54, 0
  br i1 %_55, label %bb13, label %panic2

panic1:                                           ; preds = %bb14
; call core::panicking::panic_null_pointer_dereference
  call void @_ZN4core9panicking30panic_null_pointer_dereference17hf718fcc86a223baaE(ptr align 8 @alloc_b789dd1b6ce93cfb1e2065c6c941a3eb) #4
  unreachable

bb13:                                             ; preds = %bb15
  %_69 = load ptr, ptr %temp, align 8
  %_70 = ptrtoint ptr %_69 to i64
  %_73 = icmp eq i64 %_70, 0
  %_74 = and i1 %_73, true
  %_75 = xor i1 %_74, true
  br i1 %_75, label %bb16, label %panic3

panic2:                                           ; preds = %bb15
; call core::panicking::panic_misaligned_pointer_dereference
  call void @_ZN4core9panicking36panic_misaligned_pointer_dereference17hcc3cbded9382b6e5E(i64 8, i64 %_51, ptr align 8 @alloc_463e4ecbe1c57c4a1b52b00cc832a1c4) #4
  unreachable

bb16:                                             ; preds = %bb13
  %1 = load ptr, ptr %temp, align 8
  %2 = getelementptr inbounds i8, ptr %1, i64 8
  store ptr null, ptr %2, align 8
  %_45 = ptrtoint ptr %Q to i64
  %_48 = and i64 %_45, 7
  %_49 = icmp eq i64 %_48, 0
  br i1 %_49, label %bb12, label %panic4

panic3:                                           ; preds = %bb13
; call core::panicking::panic_null_pointer_dereference
  call void @_ZN4core9panicking30panic_null_pointer_dereference17hf718fcc86a223baaE(ptr align 8 @alloc_463e4ecbe1c57c4a1b52b00cc832a1c4) #4
  unreachable

bb12:                                             ; preds = %bb16
  %_77 = ptrtoint ptr %Q to i64
  %_80 = icmp eq i64 %_77, 0
  %_81 = and i1 %_80, true
  %_82 = xor i1 %_81, true
  br i1 %_82, label %bb17, label %panic5

panic4:                                           ; preds = %bb16
; call core::panicking::panic_misaligned_pointer_dereference
  call void @_ZN4core9panicking36panic_misaligned_pointer_dereference17hcc3cbded9382b6e5E(i64 8, i64 %_45, ptr align 8 @alloc_95de506378dedd44ec2589a712a882c5) #4
  unreachable

bb17:                                             ; preds = %bb12
  %3 = getelementptr inbounds i8, ptr %Q, i64 8
  %_8 = load ptr, ptr %3, align 8
; call core::ptr::mut_ptr::<impl *mut T>::is_null
  %_7 = call zeroext i1 @"_ZN4core3ptr7mut_ptr31_$LT$impl$u20$$BP$mut$u20$T$GT$7is_null17hea9cc48e1b6bf162E"(ptr %_8) #3
  br i1 %_7, label %bb4, label %bb5

panic5:                                           ; preds = %bb12
; call core::panicking::panic_null_pointer_dereference
  call void @_ZN4core9panicking30panic_null_pointer_dereference17hf718fcc86a223baaE(ptr align 8 @alloc_95de506378dedd44ec2589a712a882c5) #4
  unreachable

bb5:                                              ; preds = %bb17
  %_11 = load ptr, ptr %temp, align 8
  %4 = getelementptr inbounds i8, ptr %Q, i64 8
  %_13 = load ptr, ptr %4, align 8
  %_21 = ptrtoint ptr %_13 to i64
  %_24 = and i64 %_21, 7
  %_25 = icmp eq i64 %_24, 0
  br i1 %_25, label %bb8, label %panic6

bb4:                                              ; preds = %bb17
  %_9 = load ptr, ptr %temp, align 8
  %_39 = ptrtoint ptr %Q to i64
  %_42 = and i64 %_39, 7
  %_43 = icmp eq i64 %_42, 0
  br i1 %_43, label %bb11, label %panic10

bb8:                                              ; preds = %bb5
  %_105 = ptrtoint ptr %_13 to i64
  %_108 = icmp eq i64 %_105, 0
  %_109 = and i1 %_108, true
  %_110 = xor i1 %_109, true
  br i1 %_110, label %bb21, label %panic7

panic6:                                           ; preds = %bb5
; call core::panicking::panic_misaligned_pointer_dereference
  call void @_ZN4core9panicking36panic_misaligned_pointer_dereference17hcc3cbded9382b6e5E(i64 8, i64 %_21, ptr align 8 @alloc_92b40fe40f06833e726244c13951938b) #4
  unreachable

bb21:                                             ; preds = %bb8
  %5 = getelementptr inbounds i8, ptr %_13, i64 8
  store ptr %_11, ptr %5, align 8
  %_12 = load ptr, ptr %temp, align 8
  %_15 = ptrtoint ptr %Q to i64
  %_18 = and i64 %_15, 7
  %_19 = icmp eq i64 %_18, 0
  br i1 %_19, label %bb7, label %panic8

panic7:                                           ; preds = %bb8
; call core::panicking::panic_null_pointer_dereference
  call void @_ZN4core9panicking30panic_null_pointer_dereference17hf718fcc86a223baaE(ptr align 8 @alloc_92b40fe40f06833e726244c13951938b) #4
  unreachable

bb7:                                              ; preds = %bb21
  %_112 = ptrtoint ptr %Q to i64
  %_115 = icmp eq i64 %_112, 0
  %_116 = and i1 %_115, true
  %_117 = xor i1 %_116, true
  br i1 %_117, label %bb22, label %panic9

panic8:                                           ; preds = %bb21
; call core::panicking::panic_misaligned_pointer_dereference
  call void @_ZN4core9panicking36panic_misaligned_pointer_dereference17hcc3cbded9382b6e5E(i64 8, i64 %_15, ptr align 8 @alloc_af5a6df1d54b8f0bccfde6f4beaa6593) #4
  unreachable

bb22:                                             ; preds = %bb7
  %6 = getelementptr inbounds i8, ptr %Q, i64 8
  store ptr %_12, ptr %6, align 8
  br label %bb6

panic9:                                           ; preds = %bb7
; call core::panicking::panic_null_pointer_dereference
  call void @_ZN4core9panicking30panic_null_pointer_dereference17hf718fcc86a223baaE(ptr align 8 @alloc_af5a6df1d54b8f0bccfde6f4beaa6593) #4
  unreachable

bb6:                                              ; preds = %bb20, %bb22
  ret void

bb11:                                             ; preds = %bb4
  %_84 = ptrtoint ptr %Q to i64
  %_87 = icmp eq i64 %_84, 0
  %_88 = and i1 %_87, true
  %_89 = xor i1 %_88, true
  br i1 %_89, label %bb18, label %panic11

panic10:                                          ; preds = %bb4
; call core::panicking::panic_misaligned_pointer_dereference
  call void @_ZN4core9panicking36panic_misaligned_pointer_dereference17hcc3cbded9382b6e5E(i64 8, i64 %_39, ptr align 8 @alloc_93ac8cc25026ce23e4bff3123ecd2b50) #4
  unreachable

bb18:                                             ; preds = %bb11
  %7 = getelementptr inbounds i8, ptr %Q, i64 8
  store ptr %_9, ptr %7, align 8
  %_33 = ptrtoint ptr %Q to i64
  %_36 = and i64 %_33, 7
  %_37 = icmp eq i64 %_36, 0
  br i1 %_37, label %bb10, label %panic12

panic11:                                          ; preds = %bb11
; call core::panicking::panic_null_pointer_dereference
  call void @_ZN4core9panicking30panic_null_pointer_dereference17hf718fcc86a223baaE(ptr align 8 @alloc_93ac8cc25026ce23e4bff3123ecd2b50) #4
  unreachable

bb10:                                             ; preds = %bb18
  %_91 = ptrtoint ptr %Q to i64
  %_94 = icmp eq i64 %_91, 0
  %_95 = and i1 %_94, true
  %_96 = xor i1 %_95, true
  br i1 %_96, label %bb19, label %panic13

panic12:                                          ; preds = %bb18
; call core::panicking::panic_misaligned_pointer_dereference
  call void @_ZN4core9panicking36panic_misaligned_pointer_dereference17hcc3cbded9382b6e5E(i64 8, i64 %_33, ptr align 8 @alloc_bc5f1064ee8790e610d299d4a7506380) #4
  unreachable

bb19:                                             ; preds = %bb10
  %8 = getelementptr inbounds i8, ptr %Q, i64 8
  %_10 = load ptr, ptr %8, align 8
  %_27 = ptrtoint ptr %Q to i64
  %_30 = and i64 %_27, 7
  %_31 = icmp eq i64 %_30, 0
  br i1 %_31, label %bb9, label %panic14

panic13:                                          ; preds = %bb10
; call core::panicking::panic_null_pointer_dereference
  call void @_ZN4core9panicking30panic_null_pointer_dereference17hf718fcc86a223baaE(ptr align 8 @alloc_bc5f1064ee8790e610d299d4a7506380) #4
  unreachable

bb9:                                              ; preds = %bb19
  %_98 = ptrtoint ptr %Q to i64
  %_101 = icmp eq i64 %_98, 0
  %_102 = and i1 %_101, true
  %_103 = xor i1 %_102, true
  br i1 %_103, label %bb20, label %panic15

panic14:                                          ; preds = %bb19
; call core::panicking::panic_misaligned_pointer_dereference
  call void @_ZN4core9panicking36panic_misaligned_pointer_dereference17hcc3cbded9382b6e5E(i64 8, i64 %_27, ptr align 8 @alloc_e6d9feeb3090cf025dddbb08a4db89fe) #4
  unreachable

bb20:                                             ; preds = %bb9
  store ptr %_10, ptr %Q, align 8
  br label %bb6

panic15:                                          ; preds = %bb9
; call core::panicking::panic_null_pointer_dereference
  call void @_ZN4core9panicking30panic_null_pointer_dereference17hf718fcc86a223baaE(ptr align 8 @alloc_e6d9feeb3090cf025dddbb08a4db89fe) #4
  unreachable
}

; Function Attrs: nounwind nonlazybind
define ptr @deQueue(ptr %Q) unnamed_addr #1 {
start:
  %temp = alloca [8 x i8], align 8
  %_0 = alloca [8 x i8], align 8
  store ptr null, ptr %temp, align 8
  %_52 = ptrtoint ptr %Q to i64
  %_55 = and i64 %_52, 7
  %_56 = icmp eq i64 %_55, 0
  br i1 %_56, label %bb15, label %panic

bb15:                                             ; preds = %start
  %_58 = ptrtoint ptr %Q to i64
  %_61 = icmp eq i64 %_58, 0
  %_62 = and i1 %_61, true
  %_63 = xor i1 %_62, true
  br i1 %_63, label %bb16, label %panic1

panic:                                            ; preds = %start
; call core::panicking::panic_misaligned_pointer_dereference
  call void @_ZN4core9panicking36panic_misaligned_pointer_dereference17hcc3cbded9382b6e5E(i64 8, i64 %_52, ptr align 8 @alloc_6548fd5edd167dc358ac7e2d3ae81c19) #4
  unreachable

bb16:                                             ; preds = %bb15
  %_4 = load ptr, ptr %Q, align 8
; call core::ptr::mut_ptr::<impl *mut T>::is_null
  %_3 = call zeroext i1 @"_ZN4core3ptr7mut_ptr31_$LT$impl$u20$$BP$mut$u20$T$GT$7is_null17hea9cc48e1b6bf162E"(ptr %_4) #3
  br i1 %_3, label %bb2, label %bb4

panic1:                                           ; preds = %bb15
; call core::panicking::panic_null_pointer_dereference
  call void @_ZN4core9panicking30panic_null_pointer_dereference17hf718fcc86a223baaE(ptr align 8 @alloc_6548fd5edd167dc358ac7e2d3ae81c19) #4
  unreachable

bb4:                                              ; preds = %bb16
  %_46 = ptrtoint ptr %Q to i64
  %_49 = and i64 %_46, 7
  %_50 = icmp eq i64 %_49, 0
  br i1 %_50, label %bb14, label %panic2

bb2:                                              ; preds = %bb16
  %_5 = call i32 (ptr, ...) @printf(ptr @alloc_8421308ef077e0b6294cd0d81a904ef7) #3
  store ptr null, ptr %_0, align 8
  br label %bb8

bb14:                                             ; preds = %bb4
  %_65 = ptrtoint ptr %Q to i64
  %_68 = icmp eq i64 %_65, 0
  %_69 = and i1 %_68, true
  %_70 = xor i1 %_69, true
  br i1 %_70, label %bb17, label %panic3

panic2:                                           ; preds = %bb4
; call core::panicking::panic_misaligned_pointer_dereference
  call void @_ZN4core9panicking36panic_misaligned_pointer_dereference17hcc3cbded9382b6e5E(i64 8, i64 %_46, ptr align 8 @alloc_3bfac712494ff7a1c57913de446bf117) #4
  unreachable

bb17:                                             ; preds = %bb14
  %_10 = load ptr, ptr %Q, align 8
  store ptr %_10, ptr %temp, align 8
  %_14 = load ptr, ptr %Q, align 8
  %_40 = ptrtoint ptr %_14 to i64
  %_43 = and i64 %_40, 7
  %_44 = icmp eq i64 %_43, 0
  br i1 %_44, label %bb13, label %panic4

panic3:                                           ; preds = %bb14
; call core::panicking::panic_null_pointer_dereference
  call void @_ZN4core9panicking30panic_null_pointer_dereference17hf718fcc86a223baaE(ptr align 8 @alloc_3bfac712494ff7a1c57913de446bf117) #4
  unreachable

bb13:                                             ; preds = %bb17
  %_72 = ptrtoint ptr %_14 to i64
  %_75 = icmp eq i64 %_72, 0
  %_76 = and i1 %_75, true
  %_77 = xor i1 %_76, true
  br i1 %_77, label %bb18, label %panic5

panic4:                                           ; preds = %bb17
; call core::panicking::panic_misaligned_pointer_dereference
  call void @_ZN4core9panicking36panic_misaligned_pointer_dereference17hcc3cbded9382b6e5E(i64 8, i64 %_40, ptr align 8 @alloc_c3b97c67509030dbfbe22dcb96c4408f) #4
  unreachable

bb18:                                             ; preds = %bb13
  %0 = getelementptr inbounds i8, ptr %_14, i64 8
  %_11 = load ptr, ptr %0, align 8
  %_34 = ptrtoint ptr %Q to i64
  %_37 = and i64 %_34, 7
  %_38 = icmp eq i64 %_37, 0
  br i1 %_38, label %bb12, label %panic6

panic5:                                           ; preds = %bb13
; call core::panicking::panic_null_pointer_dereference
  call void @_ZN4core9panicking30panic_null_pointer_dereference17hf718fcc86a223baaE(ptr align 8 @alloc_c3b97c67509030dbfbe22dcb96c4408f) #4
  unreachable

bb12:                                             ; preds = %bb18
  %_79 = ptrtoint ptr %Q to i64
  %_82 = icmp eq i64 %_79, 0
  %_83 = and i1 %_82, true
  %_84 = xor i1 %_83, true
  br i1 %_84, label %bb19, label %panic7

panic6:                                           ; preds = %bb18
; call core::panicking::panic_misaligned_pointer_dereference
  call void @_ZN4core9panicking36panic_misaligned_pointer_dereference17hcc3cbded9382b6e5E(i64 8, i64 %_34, ptr align 8 @alloc_8aaf0cbe5467e4838b8bc1d98e57daa9) #4
  unreachable

bb19:                                             ; preds = %bb12
  store ptr %_11, ptr %Q, align 8
  %_28 = ptrtoint ptr %Q to i64
  %_31 = and i64 %_28, 7
  %_32 = icmp eq i64 %_31, 0
  br i1 %_32, label %bb11, label %panic8

panic7:                                           ; preds = %bb12
; call core::panicking::panic_null_pointer_dereference
  call void @_ZN4core9panicking30panic_null_pointer_dereference17hf718fcc86a223baaE(ptr align 8 @alloc_8aaf0cbe5467e4838b8bc1d98e57daa9) #4
  unreachable

bb11:                                             ; preds = %bb19
  %_86 = ptrtoint ptr %Q to i64
  %_89 = icmp eq i64 %_86, 0
  %_90 = and i1 %_89, true
  %_91 = xor i1 %_90, true
  br i1 %_91, label %bb20, label %panic9

panic8:                                           ; preds = %bb19
; call core::panicking::panic_misaligned_pointer_dereference
  call void @_ZN4core9panicking36panic_misaligned_pointer_dereference17hcc3cbded9382b6e5E(i64 8, i64 %_28, ptr align 8 @alloc_30c6014e5853a81afbc219b96f2e3024) #4
  unreachable

bb20:                                             ; preds = %bb11
  %_13 = load ptr, ptr %Q, align 8
; call core::ptr::mut_ptr::<impl *mut T>::is_null
  %_12 = call zeroext i1 @"_ZN4core3ptr7mut_ptr31_$LT$impl$u20$$BP$mut$u20$T$GT$7is_null17hea9cc48e1b6bf162E"(ptr %_13) #3
  br i1 %_12, label %bb6, label %bb7

panic9:                                           ; preds = %bb11
; call core::panicking::panic_null_pointer_dereference
  call void @_ZN4core9panicking30panic_null_pointer_dereference17hf718fcc86a223baaE(ptr align 8 @alloc_30c6014e5853a81afbc219b96f2e3024) #4
  unreachable

bb7:                                              ; preds = %bb21, %bb20
  %_15 = load ptr, ptr %temp, align 8
  %_16 = ptrtoint ptr %_15 to i64
  %_19 = and i64 %_16, 7
  %_20 = icmp eq i64 %_19, 0
  br i1 %_20, label %bb9, label %panic12

bb6:                                              ; preds = %bb20
  %_22 = ptrtoint ptr %Q to i64
  %_25 = and i64 %_22, 7
  %_26 = icmp eq i64 %_25, 0
  br i1 %_26, label %bb10, label %panic10

bb10:                                             ; preds = %bb6
  %_93 = ptrtoint ptr %Q to i64
  %_96 = icmp eq i64 %_93, 0
  %_97 = and i1 %_96, true
  %_98 = xor i1 %_97, true
  br i1 %_98, label %bb21, label %panic11

panic10:                                          ; preds = %bb6
; call core::panicking::panic_misaligned_pointer_dereference
  call void @_ZN4core9panicking36panic_misaligned_pointer_dereference17hcc3cbded9382b6e5E(i64 8, i64 %_22, ptr align 8 @alloc_cbf4a1a94898d5322e93dbe900c59b8c) #4
  unreachable

bb21:                                             ; preds = %bb10
  %1 = getelementptr inbounds i8, ptr %Q, i64 8
  store ptr null, ptr %1, align 8
  br label %bb7

panic11:                                          ; preds = %bb10
; call core::panicking::panic_null_pointer_dereference
  call void @_ZN4core9panicking30panic_null_pointer_dereference17hf718fcc86a223baaE(ptr align 8 @alloc_cbf4a1a94898d5322e93dbe900c59b8c) #4
  unreachable

bb9:                                              ; preds = %bb7
  %_99 = load ptr, ptr %temp, align 8
  %_100 = ptrtoint ptr %_99 to i64
  %_103 = icmp eq i64 %_100, 0
  %_104 = and i1 %_103, true
  %_105 = xor i1 %_104, true
  br i1 %_105, label %bb22, label %panic13

panic12:                                          ; preds = %bb7
; call core::panicking::panic_misaligned_pointer_dereference
  call void @_ZN4core9panicking36panic_misaligned_pointer_dereference17hcc3cbded9382b6e5E(i64 8, i64 %_16, ptr align 8 @alloc_2553f30f0a174ed6fe63aa6f78bb5f3d) #4
  unreachable

bb22:                                             ; preds = %bb9
  %2 = load ptr, ptr %temp, align 8
  %3 = load ptr, ptr %2, align 8
  store ptr %3, ptr %_0, align 8
  br label %bb8

panic13:                                          ; preds = %bb9
; call core::panicking::panic_null_pointer_dereference
  call void @_ZN4core9panicking30panic_null_pointer_dereference17hf718fcc86a223baaE(ptr align 8 @alloc_2553f30f0a174ed6fe63aa6f78bb5f3d) #4
  unreachable

bb8:                                              ; preds = %bb2, %bb22
  %4 = load ptr, ptr %_0, align 8
  ret ptr %4
}

; Function Attrs: nounwind nonlazybind
define void @printQueue(ptr %Q) unnamed_addr #1 {
start:
  %temp = alloca [8 x i8], align 8
  %_54 = ptrtoint ptr %Q to i64
  %_57 = and i64 %_54, 7
  %_58 = icmp eq i64 %_57, 0
  br i1 %_58, label %bb16, label %panic

bb16:                                             ; preds = %start
  %_60 = ptrtoint ptr %Q to i64
  %_63 = icmp eq i64 %_60, 0
  %_64 = and i1 %_63, true
  %_65 = xor i1 %_64, true
  br i1 %_65, label %bb17, label %panic1

panic:                                            ; preds = %start
; call core::panicking::panic_misaligned_pointer_dereference
  call void @_ZN4core9panicking36panic_misaligned_pointer_dereference17hcc3cbded9382b6e5E(i64 8, i64 %_54, ptr align 8 @alloc_3381346b6bbcc3166ce99718ec3053f4) #4
  unreachable

bb17:                                             ; preds = %bb16
  %0 = load ptr, ptr %Q, align 8
  store ptr %0, ptr %temp, align 8
  %_48 = ptrtoint ptr %Q to i64
  %_51 = and i64 %_48, 7
  %_52 = icmp eq i64 %_51, 0
  br i1 %_52, label %bb15, label %panic2

panic1:                                           ; preds = %bb16
; call core::panicking::panic_null_pointer_dereference
  call void @_ZN4core9panicking30panic_null_pointer_dereference17hf718fcc86a223baaE(ptr align 8 @alloc_3381346b6bbcc3166ce99718ec3053f4) #4
  unreachable

bb15:                                             ; preds = %bb17
  %_67 = ptrtoint ptr %Q to i64
  %_70 = icmp eq i64 %_67, 0
  %_71 = and i1 %_70, true
  %_72 = xor i1 %_71, true
  br i1 %_72, label %bb18, label %panic3

panic2:                                           ; preds = %bb17
; call core::panicking::panic_misaligned_pointer_dereference
  call void @_ZN4core9panicking36panic_misaligned_pointer_dereference17hcc3cbded9382b6e5E(i64 8, i64 %_48, ptr align 8 @alloc_c661f4dc7c6504b5a26dfdfa8fa30d49) #4
  unreachable

bb18:                                             ; preds = %bb15
  %_4 = load ptr, ptr %Q, align 8
; call core::ptr::mut_ptr::<impl *mut T>::is_null
  %_3 = call zeroext i1 @"_ZN4core3ptr7mut_ptr31_$LT$impl$u20$$BP$mut$u20$T$GT$7is_null17hea9cc48e1b6bf162E"(ptr %_4) #3
  br i1 %_3, label %bb2, label %bb5

panic3:                                           ; preds = %bb15
; call core::panicking::panic_null_pointer_dereference
  call void @_ZN4core9panicking30panic_null_pointer_dereference17hf718fcc86a223baaE(ptr align 8 @alloc_c661f4dc7c6504b5a26dfdfa8fa30d49) #4
  unreachable

bb5:                                              ; preds = %bb10, %bb21, %bb19, %bb18
  %_13 = load ptr, ptr %temp, align 8
; call core::ptr::mut_ptr::<impl *mut T>::is_null
  %_12 = call zeroext i1 @"_ZN4core3ptr7mut_ptr31_$LT$impl$u20$$BP$mut$u20$T$GT$7is_null17hea9cc48e1b6bf162E"(ptr %_13) #3
  br i1 %_12, label %bb11, label %bb7

bb2:                                              ; preds = %bb18
  %_42 = ptrtoint ptr %Q to i64
  %_45 = and i64 %_42, 7
  %_46 = icmp eq i64 %_45, 0
  br i1 %_46, label %bb14, label %panic4

bb14:                                             ; preds = %bb2
  %_74 = ptrtoint ptr %Q to i64
  %_77 = icmp eq i64 %_74, 0
  %_78 = and i1 %_77, true
  %_79 = xor i1 %_78, true
  br i1 %_79, label %bb19, label %panic5

panic4:                                           ; preds = %bb2
; call core::panicking::panic_misaligned_pointer_dereference
  call void @_ZN4core9panicking36panic_misaligned_pointer_dereference17hcc3cbded9382b6e5E(i64 8, i64 %_42, ptr align 8 @alloc_ecd20a90c71ccd7b93a409ebb8af5ee5) #4
  unreachable

bb19:                                             ; preds = %bb14
  %1 = getelementptr inbounds i8, ptr %Q, i64 8
  %_6 = load ptr, ptr %1, align 8
; call core::ptr::mut_ptr::<impl *mut T>::is_null
  %_5 = call zeroext i1 @"_ZN4core3ptr7mut_ptr31_$LT$impl$u20$$BP$mut$u20$T$GT$7is_null17hea9cc48e1b6bf162E"(ptr %_6) #3
  br i1 %_5, label %bb4, label %bb5

panic5:                                           ; preds = %bb14
; call core::panicking::panic_null_pointer_dereference
  call void @_ZN4core9panicking30panic_null_pointer_dereference17hf718fcc86a223baaE(ptr align 8 @alloc_ecd20a90c71ccd7b93a409ebb8af5ee5) #4
  unreachable

bb4:                                              ; preds = %bb19
  %_7 = call i32 (ptr, ...) @printf(ptr @alloc_54981cf7de5e38aaa858f80975b29707) #3
  br label %bb11

bb7:                                              ; preds = %bb5
  %2 = load ptr, ptr %temp, align 8
  %_28 = load ptr, ptr %2, align 8
  %_36 = ptrtoint ptr %_28 to i64
  %_39 = and i64 %_36, 7
  %_40 = icmp eq i64 %_39, 0
  br i1 %_40, label %bb13, label %panic6

bb11:                                             ; preds = %bb4, %bb5
  ret void

bb13:                                             ; preds = %bb7
  %_81 = ptrtoint ptr %_28 to i64
  %_84 = icmp eq i64 %_81, 0
  %_85 = and i1 %_84, true
  %_86 = xor i1 %_85, true
  br i1 %_86, label %bb20, label %panic7

panic6:                                           ; preds = %bb7
; call core::panicking::panic_misaligned_pointer_dereference
  call void @_ZN4core9panicking36panic_misaligned_pointer_dereference17hcc3cbded9382b6e5E(i64 8, i64 %_36, ptr align 8 @alloc_0ec130f5cde43bb0f8ad64b741bcbca5) #4
  unreachable

bb20:                                             ; preds = %bb13
  %_19 = load i32, ptr %_28, align 8
  %_14 = call i32 (ptr, ...) @printf(ptr @alloc_3a31753a0b113451bf74f615363720ce, i32 %_19) #3
  %_29 = load ptr, ptr %temp, align 8
  %_30 = ptrtoint ptr %_29 to i64
  %_33 = and i64 %_30, 7
  %_34 = icmp eq i64 %_33, 0
  br i1 %_34, label %bb12, label %panic8

panic7:                                           ; preds = %bb13
; call core::panicking::panic_null_pointer_dereference
  call void @_ZN4core9panicking30panic_null_pointer_dereference17hf718fcc86a223baaE(ptr align 8 @alloc_0ec130f5cde43bb0f8ad64b741bcbca5) #4
  unreachable

bb12:                                             ; preds = %bb20
  %_87 = load ptr, ptr %temp, align 8
  %_88 = ptrtoint ptr %_87 to i64
  %_91 = icmp eq i64 %_88, 0
  %_92 = and i1 %_91, true
  %_93 = xor i1 %_92, true
  br i1 %_93, label %bb21, label %panic9

panic8:                                           ; preds = %bb20
; call core::panicking::panic_misaligned_pointer_dereference
  call void @_ZN4core9panicking36panic_misaligned_pointer_dereference17hcc3cbded9382b6e5E(i64 8, i64 %_30, ptr align 8 @alloc_93228e45d6e47a78352fb9b586e8ebff) #4
  unreachable

bb21:                                             ; preds = %bb12
  %3 = load ptr, ptr %temp, align 8
  %4 = getelementptr inbounds i8, ptr %3, i64 8
  %_20 = load ptr, ptr %4, align 8
  store ptr %_20, ptr %temp, align 8
  %_22 = load ptr, ptr %temp, align 8
; call core::ptr::mut_ptr::<impl *mut T>::is_null
  %_21 = call zeroext i1 @"_ZN4core3ptr7mut_ptr31_$LT$impl$u20$$BP$mut$u20$T$GT$7is_null17hea9cc48e1b6bf162E"(ptr %_22) #3
  br i1 %_21, label %bb5, label %bb10

panic9:                                           ; preds = %bb12
; call core::panicking::panic_null_pointer_dereference
  call void @_ZN4core9panicking30panic_null_pointer_dereference17hf718fcc86a223baaE(ptr align 8 @alloc_93228e45d6e47a78352fb9b586e8ebff) #4
  unreachable

bb10:                                             ; preds = %bb21
  %_23 = call i32 (ptr, ...) @printf(ptr @alloc_edca6fca6f3bd469581a2559907aba10) #3
  br label %bb5
}

; Function Attrs: nounwind nonlazybind
define void @deleteQueue(ptr %Q) unnamed_addr #1 {
start:
  %temp = alloca [8 x i8], align 8
  store ptr null, ptr %temp, align 8
  br label %bb1

bb1:                                              ; preds = %bb16, %start
  %_45 = ptrtoint ptr %Q to i64
  %_48 = and i64 %_45, 7
  %_49 = icmp eq i64 %_48, 0
  br i1 %_49, label %bb11, label %panic

bb11:                                             ; preds = %bb1
  %_51 = ptrtoint ptr %Q to i64
  %_54 = icmp eq i64 %_51, 0
  %_55 = and i1 %_54, true
  %_56 = xor i1 %_55, true
  br i1 %_56, label %bb12, label %panic1

panic:                                            ; preds = %bb1
; call core::panicking::panic_misaligned_pointer_dereference
  call void @_ZN4core9panicking36panic_misaligned_pointer_dereference17hcc3cbded9382b6e5E(i64 8, i64 %_45, ptr align 8 @alloc_58e10918fc6f6c1435920b23d42c610c) #4
  unreachable

bb12:                                             ; preds = %bb11
  %_4 = load ptr, ptr %Q, align 8
; call core::ptr::mut_ptr::<impl *mut T>::is_null
  %_3 = call zeroext i1 @"_ZN4core3ptr7mut_ptr31_$LT$impl$u20$$BP$mut$u20$T$GT$7is_null17hea9cc48e1b6bf162E"(ptr %_4) #3
  br i1 %_3, label %bb3, label %bb4

panic1:                                           ; preds = %bb11
; call core::panicking::panic_null_pointer_dereference
  call void @_ZN4core9panicking30panic_null_pointer_dereference17hf718fcc86a223baaE(ptr align 8 @alloc_58e10918fc6f6c1435920b23d42c610c) #4
  unreachable

bb4:                                              ; preds = %bb12
  %_39 = ptrtoint ptr %Q to i64
  %_42 = and i64 %_39, 7
  %_43 = icmp eq i64 %_42, 0
  br i1 %_43, label %bb10, label %panic2

bb3:                                              ; preds = %bb12
  call void @free(ptr %Q) #3
  ret void

bb10:                                             ; preds = %bb4
  %_58 = ptrtoint ptr %Q to i64
  %_61 = icmp eq i64 %_58, 0
  %_62 = and i1 %_61, true
  %_63 = xor i1 %_62, true
  br i1 %_63, label %bb13, label %panic3

panic2:                                           ; preds = %bb4
; call core::panicking::panic_misaligned_pointer_dereference
  call void @_ZN4core9panicking36panic_misaligned_pointer_dereference17hcc3cbded9382b6e5E(i64 8, i64 %_39, ptr align 8 @alloc_2f3e8e3acbcdda9fee70033b7df481b3) #4
  unreachable

bb13:                                             ; preds = %bb10
  %_5 = load ptr, ptr %Q, align 8
  store ptr %_5, ptr %temp, align 8
  %0 = load ptr, ptr %temp, align 8
  %_18 = load ptr, ptr %0, align 8
  %_33 = ptrtoint ptr %_18 to i64
  %_36 = and i64 %_33, 7
  %_37 = icmp eq i64 %_36, 0
  br i1 %_37, label %bb9, label %panic4

panic3:                                           ; preds = %bb10
; call core::panicking::panic_null_pointer_dereference
  call void @_ZN4core9panicking30panic_null_pointer_dereference17hf718fcc86a223baaE(ptr align 8 @alloc_2f3e8e3acbcdda9fee70033b7df481b3) #4
  unreachable

bb9:                                              ; preds = %bb13
  %_65 = ptrtoint ptr %_18 to i64
  %_68 = icmp eq i64 %_65, 0
  %_69 = and i1 %_68, true
  %_70 = xor i1 %_69, true
  br i1 %_70, label %bb14, label %panic5

panic4:                                           ; preds = %bb13
; call core::panicking::panic_misaligned_pointer_dereference
  call void @_ZN4core9panicking36panic_misaligned_pointer_dereference17hcc3cbded9382b6e5E(i64 8, i64 %_33, ptr align 8 @alloc_2463c7572c0394f6acb85cb6dd5cc5d9) #4
  unreachable

bb14:                                             ; preds = %bb9
  %_11 = load i32, ptr %_18, align 8
  %_6 = call i32 (ptr, ...) @printf(ptr @alloc_4b81c307921488104e6c3f046b5e4fa7, i32 %_11) #3
  %_19 = load ptr, ptr %Q, align 8
  %_27 = ptrtoint ptr %_19 to i64
  %_30 = and i64 %_27, 7
  %_31 = icmp eq i64 %_30, 0
  br i1 %_31, label %bb8, label %panic6

panic5:                                           ; preds = %bb9
; call core::panicking::panic_null_pointer_dereference
  call void @_ZN4core9panicking30panic_null_pointer_dereference17hf718fcc86a223baaE(ptr align 8 @alloc_2463c7572c0394f6acb85cb6dd5cc5d9) #4
  unreachable

bb8:                                              ; preds = %bb14
  %_72 = ptrtoint ptr %_19 to i64
  %_75 = icmp eq i64 %_72, 0
  %_76 = and i1 %_75, true
  %_77 = xor i1 %_76, true
  br i1 %_77, label %bb15, label %panic7

panic6:                                           ; preds = %bb14
; call core::panicking::panic_misaligned_pointer_dereference
  call void @_ZN4core9panicking36panic_misaligned_pointer_dereference17hcc3cbded9382b6e5E(i64 8, i64 %_27, ptr align 8 @alloc_98c982f9a85a32c028ceae787c89766f) #4
  unreachable

bb15:                                             ; preds = %bb8
  %1 = getelementptr inbounds i8, ptr %_19, i64 8
  %_12 = load ptr, ptr %1, align 8
  %_21 = ptrtoint ptr %Q to i64
  %_24 = and i64 %_21, 7
  %_25 = icmp eq i64 %_24, 0
  br i1 %_25, label %bb7, label %panic8

panic7:                                           ; preds = %bb8
; call core::panicking::panic_null_pointer_dereference
  call void @_ZN4core9panicking30panic_null_pointer_dereference17hf718fcc86a223baaE(ptr align 8 @alloc_98c982f9a85a32c028ceae787c89766f) #4
  unreachable

bb7:                                              ; preds = %bb15
  %_79 = ptrtoint ptr %Q to i64
  %_82 = icmp eq i64 %_79, 0
  %_83 = and i1 %_82, true
  %_84 = xor i1 %_83, true
  br i1 %_84, label %bb16, label %panic9

panic8:                                           ; preds = %bb15
; call core::panicking::panic_misaligned_pointer_dereference
  call void @_ZN4core9panicking36panic_misaligned_pointer_dereference17hcc3cbded9382b6e5E(i64 8, i64 %_21, ptr align 8 @alloc_51defa837211d00b128e9b5e60ecda6b) #4
  unreachable

bb16:                                             ; preds = %bb7
  store ptr %_12, ptr %Q, align 8
  %_15 = load ptr, ptr %temp, align 8
  call void @free(ptr %_15) #3
  br label %bb1

panic9:                                           ; preds = %bb7
; call core::panicking::panic_null_pointer_dereference
  call void @_ZN4core9panicking30panic_null_pointer_dereference17hf718fcc86a223baaE(ptr align 8 @alloc_51defa837211d00b128e9b5e60ecda6b) #4
  unreachable
}

; Function Attrs: nounwind nonlazybind
define ptr @createNewNode(i32 %data) unnamed_addr #1 {
start:
  %_2 = call ptr @malloc(i64 24) #3
  %_18 = ptrtoint ptr %_2 to i64
  %_21 = and i64 %_18, 7
  %_22 = icmp eq i64 %_21, 0
  br i1 %_22, label %bb5, label %panic

bb5:                                              ; preds = %start
  %_24 = ptrtoint ptr %_2 to i64
  %_27 = icmp eq i64 %_24, 0
  %_28 = and i1 %_27, true
  %_29 = xor i1 %_28, true
  br i1 %_29, label %bb6, label %panic1

panic:                                            ; preds = %start
; call core::panicking::panic_misaligned_pointer_dereference
  call void @_ZN4core9panicking36panic_misaligned_pointer_dereference17hcc3cbded9382b6e5E(i64 8, i64 %_18, ptr align 8 @alloc_c2060865273d9b869f07d91e807a15b7) #4
  unreachable

bb6:                                              ; preds = %bb5
  store i32 %data, ptr %_2, align 8
  %_12 = ptrtoint ptr %_2 to i64
  %_15 = and i64 %_12, 7
  %_16 = icmp eq i64 %_15, 0
  br i1 %_16, label %bb4, label %panic2

panic1:                                           ; preds = %bb5
; call core::panicking::panic_null_pointer_dereference
  call void @_ZN4core9panicking30panic_null_pointer_dereference17hf718fcc86a223baaE(ptr align 8 @alloc_c2060865273d9b869f07d91e807a15b7) #4
  unreachable

bb4:                                              ; preds = %bb6
  %_31 = ptrtoint ptr %_2 to i64
  %_34 = icmp eq i64 %_31, 0
  %_35 = and i1 %_34, true
  %_36 = xor i1 %_35, true
  br i1 %_36, label %bb7, label %panic3

panic2:                                           ; preds = %bb6
; call core::panicking::panic_misaligned_pointer_dereference
  call void @_ZN4core9panicking36panic_misaligned_pointer_dereference17hcc3cbded9382b6e5E(i64 8, i64 %_12, ptr align 8 @alloc_4ffbbd574551373046b2bd0490b394e4) #4
  unreachable

bb7:                                              ; preds = %bb4
  %0 = getelementptr inbounds i8, ptr %_2, i64 8
  store ptr null, ptr %0, align 8
  %_6 = ptrtoint ptr %_2 to i64
  %_9 = and i64 %_6, 7
  %_10 = icmp eq i64 %_9, 0
  br i1 %_10, label %bb3, label %panic4

panic3:                                           ; preds = %bb4
; call core::panicking::panic_null_pointer_dereference
  call void @_ZN4core9panicking30panic_null_pointer_dereference17hf718fcc86a223baaE(ptr align 8 @alloc_4ffbbd574551373046b2bd0490b394e4) #4
  unreachable

bb3:                                              ; preds = %bb7
  %_38 = ptrtoint ptr %_2 to i64
  %_41 = icmp eq i64 %_38, 0
  %_42 = and i1 %_41, true
  %_43 = xor i1 %_42, true
  br i1 %_43, label %bb8, label %panic5

panic4:                                           ; preds = %bb7
; call core::panicking::panic_misaligned_pointer_dereference
  call void @_ZN4core9panicking36panic_misaligned_pointer_dereference17hcc3cbded9382b6e5E(i64 8, i64 %_6, ptr align 8 @alloc_2db839b4d147b88485591c5637ed0c40) #4
  unreachable

bb8:                                              ; preds = %bb3
  %1 = getelementptr inbounds i8, ptr %_2, i64 16
  store ptr null, ptr %1, align 8
  ret ptr %_2

panic5:                                           ; preds = %bb3
; call core::panicking::panic_null_pointer_dereference
  call void @_ZN4core9panicking30panic_null_pointer_dereference17hf718fcc86a223baaE(ptr align 8 @alloc_2db839b4d147b88485591c5637ed0c40) #4
  unreachable
}

; Function Attrs: nounwind nonlazybind
define i32 @findMaxUsingLevelOrder(ptr %root) unnamed_addr #1 {
start:
  %max = alloca [4 x i8], align 4
  %temp = alloca [8 x i8], align 8
  store ptr null, ptr %temp, align 8
  store i32 -2147483648, ptr %max, align 4
  %Q = call ptr @createQueue() #3
  call void @enQueue(ptr %Q, ptr %root) #3
  br label %bb2

bb2:                                              ; preds = %bb26, %bb25, %start
  %_7 = call i32 @isEmpty(ptr %Q) #3
  %0 = icmp eq i32 %_7, 0
  br i1 %0, label %bb4, label %bb13

bb4:                                              ; preds = %bb2
  %_8 = call ptr @deQueue(ptr %Q) #3
  store ptr %_8, ptr %temp, align 8
  %_10 = load i32, ptr %max, align 4
  %_52 = load ptr, ptr %temp, align 8
  %_53 = ptrtoint ptr %_52 to i64
  %_56 = and i64 %_53, 7
  %_57 = icmp eq i64 %_56, 0
  br i1 %_57, label %bb20, label %panic

bb13:                                             ; preds = %bb2
  call void @deleteQueue(ptr %Q) #3
  %_0 = load i32, ptr %max, align 4
  ret i32 %_0

bb20:                                             ; preds = %bb4
  %_58 = load ptr, ptr %temp, align 8
  %_59 = ptrtoint ptr %_58 to i64
  %_62 = icmp eq i64 %_59, 0
  %_63 = and i1 %_62, true
  %_64 = xor i1 %_63, true
  br i1 %_64, label %bb21, label %panic1

panic:                                            ; preds = %bb4
; call core::panicking::panic_misaligned_pointer_dereference
  call void @_ZN4core9panicking36panic_misaligned_pointer_dereference17hcc3cbded9382b6e5E(i64 8, i64 %_53, ptr align 8 @alloc_935fe35a642b030dd3fd9656d0fb276c) #4
  unreachable

bb21:                                             ; preds = %bb20
  %1 = load ptr, ptr %temp, align 8
  %_11 = load i32, ptr %1, align 8
  %_9 = icmp slt i32 %_10, %_11
  br i1 %_9, label %bb6, label %bb7

panic1:                                           ; preds = %bb20
; call core::panicking::panic_null_pointer_dereference
  call void @_ZN4core9panicking30panic_null_pointer_dereference17hf718fcc86a223baaE(ptr align 8 @alloc_935fe35a642b030dd3fd9656d0fb276c) #4
  unreachable

bb7:                                              ; preds = %bb22, %bb21
  %_40 = load ptr, ptr %temp, align 8
  %_41 = ptrtoint ptr %_40 to i64
  %_44 = and i64 %_41, 7
  %_45 = icmp eq i64 %_44, 0
  br i1 %_45, label %bb18, label %panic4

bb6:                                              ; preds = %bb21
  %_46 = load ptr, ptr %temp, align 8
  %_47 = ptrtoint ptr %_46 to i64
  %_50 = and i64 %_47, 7
  %_51 = icmp eq i64 %_50, 0
  br i1 %_51, label %bb19, label %panic2

bb19:                                             ; preds = %bb6
  %_65 = load ptr, ptr %temp, align 8
  %_66 = ptrtoint ptr %_65 to i64
  %_69 = icmp eq i64 %_66, 0
  %_70 = and i1 %_69, true
  %_71 = xor i1 %_70, true
  br i1 %_71, label %bb22, label %panic3

panic2:                                           ; preds = %bb6
; call core::panicking::panic_misaligned_pointer_dereference
  call void @_ZN4core9panicking36panic_misaligned_pointer_dereference17hcc3cbded9382b6e5E(i64 8, i64 %_47, ptr align 8 @alloc_00243e048b87a4ef7bff3f8ea13daf39) #4
  unreachable

bb22:                                             ; preds = %bb19
  %2 = load ptr, ptr %temp, align 8
  %_12 = load i32, ptr %2, align 8
  store i32 %_12, ptr %max, align 4
  br label %bb7

panic3:                                           ; preds = %bb19
; call core::panicking::panic_null_pointer_dereference
  call void @_ZN4core9panicking30panic_null_pointer_dereference17hf718fcc86a223baaE(ptr align 8 @alloc_00243e048b87a4ef7bff3f8ea13daf39) #4
  unreachable

bb18:                                             ; preds = %bb7
  %_72 = load ptr, ptr %temp, align 8
  %_73 = ptrtoint ptr %_72 to i64
  %_76 = icmp eq i64 %_73, 0
  %_77 = and i1 %_76, true
  %_78 = xor i1 %_77, true
  br i1 %_78, label %bb23, label %panic5

panic4:                                           ; preds = %bb7
; call core::panicking::panic_misaligned_pointer_dereference
  call void @_ZN4core9panicking36panic_misaligned_pointer_dereference17hcc3cbded9382b6e5E(i64 8, i64 %_41, ptr align 8 @alloc_cab5ceef8ea4a0d6d67f6509d8b384c3) #4
  unreachable

bb23:                                             ; preds = %bb18
  %3 = load ptr, ptr %temp, align 8
  %4 = getelementptr inbounds i8, ptr %3, i64 8
  %_14 = load ptr, ptr %4, align 8
; call core::ptr::mut_ptr::<impl *mut T>::is_null
  %_13 = call zeroext i1 @"_ZN4core3ptr7mut_ptr31_$LT$impl$u20$$BP$mut$u20$T$GT$7is_null17h991a81316afca2bcE"(ptr %_14) #3
  br i1 %_13, label %bb10, label %bb9

panic5:                                           ; preds = %bb18
; call core::panicking::panic_null_pointer_dereference
  call void @_ZN4core9panicking30panic_null_pointer_dereference17hf718fcc86a223baaE(ptr align 8 @alloc_cab5ceef8ea4a0d6d67f6509d8b384c3) #4
  unreachable

bb9:                                              ; preds = %bb23
  %_34 = load ptr, ptr %temp, align 8
  %_35 = ptrtoint ptr %_34 to i64
  %_38 = and i64 %_35, 7
  %_39 = icmp eq i64 %_38, 0
  br i1 %_39, label %bb17, label %panic6

bb10:                                             ; preds = %bb24, %bb23
  %_28 = load ptr, ptr %temp, align 8
  %_29 = ptrtoint ptr %_28 to i64
  %_32 = and i64 %_29, 7
  %_33 = icmp eq i64 %_32, 0
  br i1 %_33, label %bb16, label %panic8

bb17:                                             ; preds = %bb9
  %_79 = load ptr, ptr %temp, align 8
  %_80 = ptrtoint ptr %_79 to i64
  %_83 = icmp eq i64 %_80, 0
  %_84 = and i1 %_83, true
  %_85 = xor i1 %_84, true
  br i1 %_85, label %bb24, label %panic7

panic6:                                           ; preds = %bb9
; call core::panicking::panic_misaligned_pointer_dereference
  call void @_ZN4core9panicking36panic_misaligned_pointer_dereference17hcc3cbded9382b6e5E(i64 8, i64 %_35, ptr align 8 @alloc_3c4f8cc213323bb7440740b763c3f9af) #4
  unreachable

bb24:                                             ; preds = %bb17
  %5 = load ptr, ptr %temp, align 8
  %6 = getelementptr inbounds i8, ptr %5, i64 8
  %_16 = load ptr, ptr %6, align 8
  call void @enQueue(ptr %Q, ptr %_16) #3
  br label %bb10

panic7:                                           ; preds = %bb17
; call core::panicking::panic_null_pointer_dereference
  call void @_ZN4core9panicking30panic_null_pointer_dereference17hf718fcc86a223baaE(ptr align 8 @alloc_3c4f8cc213323bb7440740b763c3f9af) #4
  unreachable

bb16:                                             ; preds = %bb10
  %_86 = load ptr, ptr %temp, align 8
  %_87 = ptrtoint ptr %_86 to i64
  %_90 = icmp eq i64 %_87, 0
  %_91 = and i1 %_90, true
  %_92 = xor i1 %_91, true
  br i1 %_92, label %bb25, label %panic9

panic8:                                           ; preds = %bb10
; call core::panicking::panic_misaligned_pointer_dereference
  call void @_ZN4core9panicking36panic_misaligned_pointer_dereference17hcc3cbded9382b6e5E(i64 8, i64 %_29, ptr align 8 @alloc_4080849b7b424868adced146c16ecf54) #4
  unreachable

bb25:                                             ; preds = %bb16
  %7 = load ptr, ptr %temp, align 8
  %8 = getelementptr inbounds i8, ptr %7, i64 16
  %_18 = load ptr, ptr %8, align 8
; call core::ptr::mut_ptr::<impl *mut T>::is_null
  %_17 = call zeroext i1 @"_ZN4core3ptr7mut_ptr31_$LT$impl$u20$$BP$mut$u20$T$GT$7is_null17h991a81316afca2bcE"(ptr %_18) #3
  br i1 %_17, label %bb2, label %bb12

panic9:                                           ; preds = %bb16
; call core::panicking::panic_null_pointer_dereference
  call void @_ZN4core9panicking30panic_null_pointer_dereference17hf718fcc86a223baaE(ptr align 8 @alloc_4080849b7b424868adced146c16ecf54) #4
  unreachable

bb12:                                             ; preds = %bb25
  %_22 = load ptr, ptr %temp, align 8
  %_23 = ptrtoint ptr %_22 to i64
  %_26 = and i64 %_23, 7
  %_27 = icmp eq i64 %_26, 0
  br i1 %_27, label %bb15, label %panic10

bb15:                                             ; preds = %bb12
  %_93 = load ptr, ptr %temp, align 8
  %_94 = ptrtoint ptr %_93 to i64
  %_97 = icmp eq i64 %_94, 0
  %_98 = and i1 %_97, true
  %_99 = xor i1 %_98, true
  br i1 %_99, label %bb26, label %panic11

panic10:                                          ; preds = %bb12
; call core::panicking::panic_misaligned_pointer_dereference
  call void @_ZN4core9panicking36panic_misaligned_pointer_dereference17hcc3cbded9382b6e5E(i64 8, i64 %_23, ptr align 8 @alloc_d80bc4c7c0b0a4e00990f2ab167f3d85) #4
  unreachable

bb26:                                             ; preds = %bb15
  %9 = load ptr, ptr %temp, align 8
  %10 = getelementptr inbounds i8, ptr %9, i64 16
  %_20 = load ptr, ptr %10, align 8
  call void @enQueue(ptr %Q, ptr %_20) #3
  br label %bb2

panic11:                                          ; preds = %bb15
; call core::panicking::panic_null_pointer_dereference
  call void @_ZN4core9panicking30panic_null_pointer_dereference17hf718fcc86a223baaE(ptr align 8 @alloc_d80bc4c7c0b0a4e00990f2ab167f3d85) #4
  unreachable
}

; Function Attrs: nounwind nonlazybind
declare ptr @malloc(i64) unnamed_addr #1

; core::panicking::panic_misaligned_pointer_dereference
; Function Attrs: cold minsize noinline noreturn nounwind nonlazybind optsize
declare void @_ZN4core9panicking36panic_misaligned_pointer_dereference17hcc3cbded9382b6e5E(i64, i64, ptr align 8) unnamed_addr #2

; core::panicking::panic_null_pointer_dereference
; Function Attrs: cold minsize noinline noreturn nounwind nonlazybind optsize
declare void @_ZN4core9panicking30panic_null_pointer_dereference17hf718fcc86a223baaE(ptr align 8) unnamed_addr #2

; Function Attrs: nounwind nonlazybind
declare i32 @printf(ptr, ...) unnamed_addr #1

; Function Attrs: nounwind nonlazybind
declare void @free(ptr) unnamed_addr #1

attributes #0 = { inlinehint nounwind nonlazybind "probe-stack"="inline-asm" "target-cpu"="x86-64" }
attributes #1 = { nounwind nonlazybind "probe-stack"="inline-asm" "target-cpu"="x86-64" }
attributes #2 = { cold minsize noinline noreturn nounwind nonlazybind optsize "probe-stack"="inline-asm" "target-cpu"="x86-64" }
attributes #3 = { nounwind }
attributes #4 = { noreturn nounwind }

!llvm.module.flags = !{!0, !1}
!llvm.ident = !{!2}

!0 = !{i32 8, !"PIC Level", i32 2}
!1 = !{i32 2, !"RtLibUseGOT", i32 1}
!2 = !{!"rustc version 1.88.0-nightly (0b45675cf 2025-03-31)"}
