; ModuleID = '3fwihvd0jtsgy7z68z8518c1y'
source_filename = "3fwihvd0jtsgy7z68z8518c1y"
target datalayout = "e-m:e-p270:32:32-p271:32:32-p272:64:64-i64:64-i128:128-f80:128-n8:16:32:64-S128"
target triple = "x86_64-unknown-linux-gnu"

@root = global [8 x i8] zeroinitializer, align 8
@alloc_f5ffd2fd1476bab43ad89fb40c72d0c5 = private unnamed_addr constant [10 x i8] c"src/lib.rs", align 1
@alloc_97b6e9eeafae4e34c39f5731f03026e0 = private unnamed_addr constant <{ ptr, [16 x i8] }> <{ ptr @alloc_f5ffd2fd1476bab43ad89fb40c72d0c5, [16 x i8] c"\0A\00\00\00\00\00\00\00?\00\00\00\05\00\00\00" }>, align 8
@alloc_a9bed11e068a4fa8759066f97915337d = private unnamed_addr constant <{ ptr, [16 x i8] }> <{ ptr @alloc_f5ffd2fd1476bab43ad89fb40c72d0c5, [16 x i8] c"\0A\00\00\00\00\00\00\00@\00\00\00\05\00\00\00" }>, align 8
@alloc_73ed8ca87f1521c96876d2cdbb656763 = private unnamed_addr constant <{ ptr, [16 x i8] }> <{ ptr @alloc_f5ffd2fd1476bab43ad89fb40c72d0c5, [16 x i8] c"\0A\00\00\00\00\00\00\00A\00\00\00\05\00\00\00" }>, align 8
@alloc_6c5ab4d2d6962b77629c9486ebe04bf1 = private unnamed_addr constant <{ ptr, [16 x i8] }> <{ ptr @alloc_f5ffd2fd1476bab43ad89fb40c72d0c5, [16 x i8] c"\0A\00\00\00\00\00\00\00B\00\00\00\08\00\00\00" }>, align 8
@alloc_620736c10c680a47826600779f2fe8b0 = private unnamed_addr constant <{ ptr, [16 x i8] }> <{ ptr @alloc_f5ffd2fd1476bab43ad89fb40c72d0c5, [16 x i8] c"\0A\00\00\00\00\00\00\00E\00\00\00\17\00\00\00" }>, align 8
@alloc_ad74bd5b33217e45e703a11f83c34749 = private unnamed_addr constant <{ ptr, [16 x i8] }> <{ ptr @alloc_f5ffd2fd1476bab43ad89fb40c72d0c5, [16 x i8] c"\0A\00\00\00\00\00\00\00I\00\00\00\19\00\00\00" }>, align 8
@alloc_8e9183a4a1b8431fdf71e29fdbde0039 = private unnamed_addr constant <{ ptr, [16 x i8] }> <{ ptr @alloc_f5ffd2fd1476bab43ad89fb40c72d0c5, [16 x i8] c"\0A\00\00\00\00\00\00\00P\00\00\00\1F\00\00\00" }>, align 8
@alloc_f64a2291cce514e3d6d1fd15f00c3ead = private unnamed_addr constant <{ ptr, [16 x i8] }> <{ ptr @alloc_f5ffd2fd1476bab43ad89fb40c72d0c5, [16 x i8] c"\0A\00\00\00\00\00\00\00R\00\00\00\15\00\00\00" }>, align 8
@alloc_31a643bbce93c5d99265fb607032dd98 = private unnamed_addr constant <{ ptr, [16 x i8] }> <{ ptr @alloc_f5ffd2fd1476bab43ad89fb40c72d0c5, [16 x i8] c"\0A\00\00\00\00\00\00\00J\00\00\00\1F\00\00\00" }>, align 8
@alloc_eb885f6b7e347aab37a70aef822fdaea = private unnamed_addr constant <{ ptr, [16 x i8] }> <{ ptr @alloc_f5ffd2fd1476bab43ad89fb40c72d0c5, [16 x i8] c"\0A\00\00\00\00\00\00\00L\00\00\00\15\00\00\00" }>, align 8
@alloc_244e6eb3bd83764d82a7032323e809dc = private unnamed_addr constant <{ ptr, [16 x i8] }> <{ ptr @alloc_f5ffd2fd1476bab43ad89fb40c72d0c5, [16 x i8] c"\0A\00\00\00\00\00\00\00C\00\00\00\09\00\00\00" }>, align 8
@alloc_291136924b94b436c53443f489c6bc92 = private unnamed_addr constant <{ ptr, [16 x i8] }> <{ ptr @alloc_f5ffd2fd1476bab43ad89fb40c72d0c5, [16 x i8] c"\0A\00\00\00\00\00\00\00[\00\00\00&\00\00\00" }>, align 8
@alloc_1bf647b9c6b9ec3e63ad31086e00de1b = private unnamed_addr constant <{ ptr, [16 x i8] }> <{ ptr @alloc_f5ffd2fd1476bab43ad89fb40c72d0c5, [16 x i8] c"\0A\00\00\00\00\00\00\00^\00\00\00\15\00\00\00" }>, align 8
@alloc_db04fdc1f8e539ffc89d37ae93679fab = private unnamed_addr constant <{ ptr, [16 x i8] }> <{ ptr @alloc_f5ffd2fd1476bab43ad89fb40c72d0c5, [16 x i8] c"\0A\00\00\00\00\00\00\00b\00\00\00\19\00\00\00" }>, align 8
@alloc_56f473db5169fdb47e5416104487414e = private unnamed_addr constant <{ ptr, [16 x i8] }> <{ ptr @alloc_f5ffd2fd1476bab43ad89fb40c72d0c5, [16 x i8] c"\0A\00\00\00\00\00\00\00e\00\00\00\1F\00\00\00" }>, align 8
@alloc_b09a74ff20f8e75c258c245408647631 = private unnamed_addr constant <{ ptr, [16 x i8] }> <{ ptr @alloc_f5ffd2fd1476bab43ad89fb40c72d0c5, [16 x i8] c"\0A\00\00\00\00\00\00\00c\00\00\00\1F\00\00\00" }>, align 8
@alloc_0400c898028c3a26ae10451c8efe0f35 = private unnamed_addr constant [24 x i8] c"\0A%d is found on Tree.\0A\0A\00", align 1
@alloc_cbf4a1a94898d5322e93dbe900c59b8c = private unnamed_addr constant <{ ptr, [16 x i8] }> <{ ptr @alloc_f5ffd2fd1476bab43ad89fb40c72d0c5, [16 x i8] c"\0A\00\00\00\00\00\00\00o\00\00\00\0D\00\00\00" }>, align 8
@alloc_46606b72c647c3d32e5cc0806ec3eed6 = private unnamed_addr constant [28 x i8] c"\0A%d is not found on Tree.\0A\0A\00", align 1
@alloc_b929c71616281bfd1be2bd4038d3ddf1 = private unnamed_addr constant [4 x i8] c"%d \00", align 1
@alloc_dbe022c5ebee70bd31a11bdf5591dbd0 = private unnamed_addr constant <{ ptr, [16 x i8] }> <{ ptr @alloc_f5ffd2fd1476bab43ad89fb40c72d0c5, [16 x i8] c"\0A\00\00\00\00\00\00\00}\00\00\00:\00\00\00" }>, align 8
@alloc_8dba01ab3a4177eff80e54a6df09cafa = private unnamed_addr constant <{ ptr, [16 x i8] }> <{ ptr @alloc_f5ffd2fd1476bab43ad89fb40c72d0c5, [16 x i8] c"\0A\00\00\00\00\00\00\00~\00\00\00\13\00\00\00" }>, align 8
@alloc_8a2a223e2a26f5657096abd51e7d609a = private unnamed_addr constant <{ ptr, [16 x i8] }> <{ ptr @alloc_f5ffd2fd1476bab43ad89fb40c72d0c5, [16 x i8] c"\0A\00\00\00\00\00\00\00\7F\00\00\00\13\00\00\00" }>, align 8
@alloc_52a90837bef686107f39f6a36072e990 = private unnamed_addr constant <{ ptr, [16 x i8] }> <{ ptr @alloc_f5ffd2fd1476bab43ad89fb40c72d0c5, [16 x i8] c"\0A\00\00\00\00\00\00\00\86\00\00\00\12\00\00\00" }>, align 8
@alloc_8b7c07c48f921ab626bb5bb7917dc9dd = private unnamed_addr constant <{ ptr, [16 x i8] }> <{ ptr @alloc_f5ffd2fd1476bab43ad89fb40c72d0c5, [16 x i8] c"\0A\00\00\00\00\00\00\00\87\00\00\00:\00\00\00" }>, align 8
@alloc_1f20a66aca6ef5cf841e84f975dbb9a0 = private unnamed_addr constant <{ ptr, [16 x i8] }> <{ ptr @alloc_f5ffd2fd1476bab43ad89fb40c72d0c5, [16 x i8] c"\0A\00\00\00\00\00\00\00\88\00\00\00\12\00\00\00" }>, align 8
@alloc_bd98e7dca96a1ace8503d34a0b19e0c9 = private unnamed_addr constant <{ ptr, [16 x i8] }> <{ ptr @alloc_f5ffd2fd1476bab43ad89fb40c72d0c5, [16 x i8] c"\0A\00\00\00\00\00\00\00\8F\00\00\00\14\00\00\00" }>, align 8
@alloc_b373a8b837617a5fe01f3ee969adfcbf = private unnamed_addr constant <{ ptr, [16 x i8] }> <{ ptr @alloc_f5ffd2fd1476bab43ad89fb40c72d0c5, [16 x i8] c"\0A\00\00\00\00\00\00\00\90\00\00\00\14\00\00\00" }>, align 8
@alloc_1fb68b37f35a71b4fee601a0c25656d5 = private unnamed_addr constant <{ ptr, [16 x i8] }> <{ ptr @alloc_f5ffd2fd1476bab43ad89fb40c72d0c5, [16 x i8] c"\0A\00\00\00\00\00\00\00\91\00\00\00:\00\00\00" }>, align 8

; core::ptr::mut_ptr::<impl *mut T>::is_null
; Function Attrs: inlinehint nounwind nonlazybind
define internal zeroext i1 @"_ZN4core3ptr7mut_ptr31_$LT$impl$u20$$BP$mut$u20$T$GT$7is_null17h41f7af86d823aefbE"(ptr %self) unnamed_addr #0 {
start:
  %_3 = ptrtoint ptr %self to i64
  %_0 = icmp eq i64 %_3, 0
  ret i1 %_0
}

; Function Attrs: nounwind nonlazybind
define void @insertNode(i32 %value) unnamed_addr #1 {
start:
  %parentNode = alloca [8 x i8], align 8
  %currentNode = alloca [8 x i8], align 8
  %tempNode = alloca [8 x i8], align 8
  store ptr null, ptr %tempNode, align 8
  store ptr null, ptr %currentNode, align 8
  store ptr null, ptr %parentNode, align 8
  %_5 = call ptr @malloc(i64 24) #3
  store ptr %_5, ptr %tempNode, align 8
  %_86 = load ptr, ptr %tempNode, align 8
  %_87 = ptrtoint ptr %_86 to i64
  %_90 = and i64 %_87, 7
  %_91 = icmp eq i64 %_90, 0
  br i1 %_91, label %bb24, label %panic

bb24:                                             ; preds = %start
  %_92 = load ptr, ptr %tempNode, align 8
  %_93 = ptrtoint ptr %_92 to i64
  %_96 = icmp eq i64 %_93, 0
  %_97 = and i1 %_96, true
  %_98 = xor i1 %_97, true
  br i1 %_98, label %bb25, label %panic1

panic:                                            ; preds = %start
; call core::panicking::panic_misaligned_pointer_dereference
  call void @_ZN4core9panicking36panic_misaligned_pointer_dereference17hcc3cbded9382b6e5E(i64 8, i64 %_87, ptr align 8 @alloc_97b6e9eeafae4e34c39f5731f03026e0) #4
  unreachable

bb25:                                             ; preds = %bb24
  %0 = load ptr, ptr %tempNode, align 8
  store i32 %value, ptr %0, align 8
  %_80 = load ptr, ptr %tempNode, align 8
  %_81 = ptrtoint ptr %_80 to i64
  %_84 = and i64 %_81, 7
  %_85 = icmp eq i64 %_84, 0
  br i1 %_85, label %bb23, label %panic2

panic1:                                           ; preds = %bb24
; call core::panicking::panic_null_pointer_dereference
  call void @_ZN4core9panicking30panic_null_pointer_dereference17hf718fcc86a223baaE(ptr align 8 @alloc_97b6e9eeafae4e34c39f5731f03026e0) #4
  unreachable

bb23:                                             ; preds = %bb25
  %_99 = load ptr, ptr %tempNode, align 8
  %_100 = ptrtoint ptr %_99 to i64
  %_103 = icmp eq i64 %_100, 0
  %_104 = and i1 %_103, true
  %_105 = xor i1 %_104, true
  br i1 %_105, label %bb26, label %panic3

panic2:                                           ; preds = %bb25
; call core::panicking::panic_misaligned_pointer_dereference
  call void @_ZN4core9panicking36panic_misaligned_pointer_dereference17hcc3cbded9382b6e5E(i64 8, i64 %_81, ptr align 8 @alloc_a9bed11e068a4fa8759066f97915337d) #4
  unreachable

bb26:                                             ; preds = %bb23
  %1 = load ptr, ptr %tempNode, align 8
  %2 = getelementptr inbounds i8, ptr %1, i64 8
  store ptr null, ptr %2, align 8
  %_74 = load ptr, ptr %tempNode, align 8
  %_75 = ptrtoint ptr %_74 to i64
  %_78 = and i64 %_75, 7
  %_79 = icmp eq i64 %_78, 0
  br i1 %_79, label %bb22, label %panic4

panic3:                                           ; preds = %bb23
; call core::panicking::panic_null_pointer_dereference
  call void @_ZN4core9panicking30panic_null_pointer_dereference17hf718fcc86a223baaE(ptr align 8 @alloc_a9bed11e068a4fa8759066f97915337d) #4
  unreachable

bb22:                                             ; preds = %bb26
  %_106 = load ptr, ptr %tempNode, align 8
  %_107 = ptrtoint ptr %_106 to i64
  %_110 = icmp eq i64 %_107, 0
  %_111 = and i1 %_110, true
  %_112 = xor i1 %_111, true
  br i1 %_112, label %bb27, label %panic5

panic4:                                           ; preds = %bb26
; call core::panicking::panic_misaligned_pointer_dereference
  call void @_ZN4core9panicking36panic_misaligned_pointer_dereference17hcc3cbded9382b6e5E(i64 8, i64 %_75, ptr align 8 @alloc_73ed8ca87f1521c96876d2cdbb656763) #4
  unreachable

bb27:                                             ; preds = %bb22
  %3 = load ptr, ptr %tempNode, align 8
  %4 = getelementptr inbounds i8, ptr %3, i64 16
  store ptr null, ptr %4, align 8
  %_117 = icmp eq i64 ptrtoint (ptr @root to i64), 0
  %_118 = and i1 %_117, true
  %_119 = xor i1 %_118, true
  br i1 %_119, label %bb28, label %panic6

panic5:                                           ; preds = %bb22
; call core::panicking::panic_null_pointer_dereference
  call void @_ZN4core9panicking30panic_null_pointer_dereference17hf718fcc86a223baaE(ptr align 8 @alloc_73ed8ca87f1521c96876d2cdbb656763) #4
  unreachable

bb28:                                             ; preds = %bb27
  %_9 = load ptr, ptr @root, align 8
; call core::ptr::mut_ptr::<impl *mut T>::is_null
  %_8 = call zeroext i1 @"_ZN4core3ptr7mut_ptr31_$LT$impl$u20$$BP$mut$u20$T$GT$7is_null17h41f7af86d823aefbE"(ptr %_9) #3
  br i1 %_8, label %bb4, label %bb5

panic6:                                           ; preds = %bb27
; call core::panicking::panic_null_pointer_dereference
  call void @_ZN4core9panicking30panic_null_pointer_dereference17hf718fcc86a223baaE(ptr align 8 @alloc_6c5ab4d2d6962b77629c9486ebe04bf1) #4
  unreachable

bb5:                                              ; preds = %bb28
  %_131 = icmp eq i64 ptrtoint (ptr @root to i64), 0
  %_132 = and i1 %_131, true
  %_133 = xor i1 %_132, true
  br i1 %_133, label %bb30, label %panic7

bb4:                                              ; preds = %bb28
  %_11 = load ptr, ptr %tempNode, align 8
  %_124 = icmp eq i64 ptrtoint (ptr @root to i64), 0
  %_125 = and i1 %_124, true
  %_126 = xor i1 %_125, true
  br i1 %_126, label %bb29, label %panic18

bb30:                                             ; preds = %bb5
  %_13 = load ptr, ptr @root, align 8
  store ptr %_13, ptr %currentNode, align 8
  store ptr null, ptr %parentNode, align 8
  br label %bb6

panic7:                                           ; preds = %bb5
; call core::panicking::panic_null_pointer_dereference
  call void @_ZN4core9panicking30panic_null_pointer_dereference17hf718fcc86a223baaE(ptr align 8 @alloc_620736c10c680a47826600779f2fe8b0) #4
  unreachable

bb6:                                              ; preds = %bb32, %bb34, %bb30
  %_15 = load ptr, ptr %currentNode, align 8
  store ptr %_15, ptr %parentNode, align 8
  %_50 = load ptr, ptr %parentNode, align 8
  %_51 = ptrtoint ptr %_50 to i64
  %_54 = and i64 %_51, 7
  %_55 = icmp eq i64 %_54, 0
  br i1 %_55, label %bb18, label %panic8

bb18:                                             ; preds = %bb6
  %_134 = load ptr, ptr %parentNode, align 8
  %_135 = ptrtoint ptr %_134 to i64
  %_138 = icmp eq i64 %_135, 0
  %_139 = and i1 %_138, true
  %_140 = xor i1 %_139, true
  br i1 %_140, label %bb31, label %panic9

panic8:                                           ; preds = %bb6
; call core::panicking::panic_misaligned_pointer_dereference
  call void @_ZN4core9panicking36panic_misaligned_pointer_dereference17hcc3cbded9382b6e5E(i64 8, i64 %_51, ptr align 8 @alloc_ad74bd5b33217e45e703a11f83c34749) #4
  unreachable

bb31:                                             ; preds = %bb18
  %5 = load ptr, ptr %parentNode, align 8
  %_17 = load i32, ptr %5, align 8
  %_16 = icmp sle i32 %value, %_17
  br i1 %_16, label %bb7, label %bb10

panic9:                                           ; preds = %bb18
; call core::panicking::panic_null_pointer_dereference
  call void @_ZN4core9panicking30panic_null_pointer_dereference17hf718fcc86a223baaE(ptr align 8 @alloc_ad74bd5b33217e45e703a11f83c34749) #4
  unreachable

bb10:                                             ; preds = %bb31
  %_32 = load ptr, ptr %currentNode, align 8
  %_33 = ptrtoint ptr %_32 to i64
  %_36 = and i64 %_33, 7
  %_37 = icmp eq i64 %_36, 0
  br i1 %_37, label %bb15, label %panic10

bb7:                                              ; preds = %bb31
  %_44 = load ptr, ptr %currentNode, align 8
  %_45 = ptrtoint ptr %_44 to i64
  %_48 = and i64 %_45, 7
  %_49 = icmp eq i64 %_48, 0
  br i1 %_49, label %bb17, label %panic14

bb15:                                             ; preds = %bb10
  %_155 = load ptr, ptr %currentNode, align 8
  %_156 = ptrtoint ptr %_155 to i64
  %_159 = icmp eq i64 %_156, 0
  %_160 = and i1 %_159, true
  %_161 = xor i1 %_160, true
  br i1 %_161, label %bb34, label %panic11

panic10:                                          ; preds = %bb10
; call core::panicking::panic_misaligned_pointer_dereference
  call void @_ZN4core9panicking36panic_misaligned_pointer_dereference17hcc3cbded9382b6e5E(i64 8, i64 %_33, ptr align 8 @alloc_8e9183a4a1b8431fdf71e29fdbde0039) #4
  unreachable

bb34:                                             ; preds = %bb15
  %6 = load ptr, ptr %currentNode, align 8
  %7 = getelementptr inbounds i8, ptr %6, i64 16
  %_22 = load ptr, ptr %7, align 8
  store ptr %_22, ptr %currentNode, align 8
  %_24 = load ptr, ptr %currentNode, align 8
; call core::ptr::mut_ptr::<impl *mut T>::is_null
  %_23 = call zeroext i1 @"_ZN4core3ptr7mut_ptr31_$LT$impl$u20$$BP$mut$u20$T$GT$7is_null17h41f7af86d823aefbE"(ptr %_24) #3
  br i1 %_23, label %bb12, label %bb6

panic11:                                          ; preds = %bb15
; call core::panicking::panic_null_pointer_dereference
  call void @_ZN4core9panicking30panic_null_pointer_dereference17hf718fcc86a223baaE(ptr align 8 @alloc_8e9183a4a1b8431fdf71e29fdbde0039) #4
  unreachable

bb12:                                             ; preds = %bb34
  %_25 = load ptr, ptr %tempNode, align 8
  %_26 = load ptr, ptr %parentNode, align 8
  %_27 = ptrtoint ptr %_26 to i64
  %_30 = and i64 %_27, 7
  %_31 = icmp eq i64 %_30, 0
  br i1 %_31, label %bb14, label %panic12

bb14:                                             ; preds = %bb12
  %_162 = load ptr, ptr %parentNode, align 8
  %_163 = ptrtoint ptr %_162 to i64
  %_166 = icmp eq i64 %_163, 0
  %_167 = and i1 %_166, true
  %_168 = xor i1 %_167, true
  br i1 %_168, label %bb35, label %panic13

panic12:                                          ; preds = %bb12
; call core::panicking::panic_misaligned_pointer_dereference
  call void @_ZN4core9panicking36panic_misaligned_pointer_dereference17hcc3cbded9382b6e5E(i64 8, i64 %_27, ptr align 8 @alloc_f64a2291cce514e3d6d1fd15f00c3ead) #4
  unreachable

bb35:                                             ; preds = %bb14
  %8 = load ptr, ptr %parentNode, align 8
  %9 = getelementptr inbounds i8, ptr %8, i64 16
  store ptr %_25, ptr %9, align 8
  br label %bb13

panic13:                                          ; preds = %bb14
; call core::panicking::panic_null_pointer_dereference
  call void @_ZN4core9panicking30panic_null_pointer_dereference17hf718fcc86a223baaE(ptr align 8 @alloc_f64a2291cce514e3d6d1fd15f00c3ead) #4
  unreachable

bb13:                                             ; preds = %bb29, %bb33, %bb35
  ret void

bb17:                                             ; preds = %bb7
  %_141 = load ptr, ptr %currentNode, align 8
  %_142 = ptrtoint ptr %_141 to i64
  %_145 = icmp eq i64 %_142, 0
  %_146 = and i1 %_145, true
  %_147 = xor i1 %_146, true
  br i1 %_147, label %bb32, label %panic15

panic14:                                          ; preds = %bb7
; call core::panicking::panic_misaligned_pointer_dereference
  call void @_ZN4core9panicking36panic_misaligned_pointer_dereference17hcc3cbded9382b6e5E(i64 8, i64 %_45, ptr align 8 @alloc_31a643bbce93c5d99265fb607032dd98) #4
  unreachable

bb32:                                             ; preds = %bb17
  %10 = load ptr, ptr %currentNode, align 8
  %11 = getelementptr inbounds i8, ptr %10, i64 8
  %_18 = load ptr, ptr %11, align 8
  store ptr %_18, ptr %currentNode, align 8
  %_20 = load ptr, ptr %currentNode, align 8
; call core::ptr::mut_ptr::<impl *mut T>::is_null
  %_19 = call zeroext i1 @"_ZN4core3ptr7mut_ptr31_$LT$impl$u20$$BP$mut$u20$T$GT$7is_null17h41f7af86d823aefbE"(ptr %_20) #3
  br i1 %_19, label %bb9, label %bb6

panic15:                                          ; preds = %bb17
; call core::panicking::panic_null_pointer_dereference
  call void @_ZN4core9panicking30panic_null_pointer_dereference17hf718fcc86a223baaE(ptr align 8 @alloc_31a643bbce93c5d99265fb607032dd98) #4
  unreachable

bb9:                                              ; preds = %bb32
  %_21 = load ptr, ptr %tempNode, align 8
  %_38 = load ptr, ptr %parentNode, align 8
  %_39 = ptrtoint ptr %_38 to i64
  %_42 = and i64 %_39, 7
  %_43 = icmp eq i64 %_42, 0
  br i1 %_43, label %bb16, label %panic16

bb16:                                             ; preds = %bb9
  %_148 = load ptr, ptr %parentNode, align 8
  %_149 = ptrtoint ptr %_148 to i64
  %_152 = icmp eq i64 %_149, 0
  %_153 = and i1 %_152, true
  %_154 = xor i1 %_153, true
  br i1 %_154, label %bb33, label %panic17

panic16:                                          ; preds = %bb9
; call core::panicking::panic_misaligned_pointer_dereference
  call void @_ZN4core9panicking36panic_misaligned_pointer_dereference17hcc3cbded9382b6e5E(i64 8, i64 %_39, ptr align 8 @alloc_eb885f6b7e347aab37a70aef822fdaea) #4
  unreachable

bb33:                                             ; preds = %bb16
  %12 = load ptr, ptr %parentNode, align 8
  %13 = getelementptr inbounds i8, ptr %12, i64 8
  store ptr %_21, ptr %13, align 8
  br label %bb13

panic17:                                          ; preds = %bb16
; call core::panicking::panic_null_pointer_dereference
  call void @_ZN4core9panicking30panic_null_pointer_dereference17hf718fcc86a223baaE(ptr align 8 @alloc_eb885f6b7e347aab37a70aef822fdaea) #4
  unreachable

bb29:                                             ; preds = %bb4
  store ptr %_11, ptr @root, align 8
  br label %bb13

panic18:                                          ; preds = %bb4
; call core::panicking::panic_null_pointer_dereference
  call void @_ZN4core9panicking30panic_null_pointer_dereference17hf718fcc86a223baaE(ptr align 8 @alloc_244e6eb3bd83764d82a7032323e809dc) #4
  unreachable
}

; Function Attrs: nounwind nonlazybind
define void @searchOnTree(i32 %value) unnamed_addr #1 {
start:
  %flag = alloca [4 x i8], align 4
  %currentNode = alloca [8 x i8], align 8
  %_65 = icmp eq i64 ptrtoint (ptr @root to i64), 0
  %_66 = and i1 %_65, true
  %_67 = xor i1 %_66, true
  br i1 %_67, label %bb18, label %panic

bb18:                                             ; preds = %start
  %0 = load ptr, ptr @root, align 8
  store ptr %0, ptr %currentNode, align 8
  store i32 0, ptr %flag, align 4
  br label %bb1

panic:                                            ; preds = %start
; call core::panicking::panic_null_pointer_dereference
  call void @_ZN4core9panicking30panic_null_pointer_dereference17hf718fcc86a223baaE(ptr align 8 @alloc_291136924b94b436c53443f489c6bc92) #4
  unreachable

bb1:                                              ; preds = %bb6, %bb18
  %_49 = load ptr, ptr %currentNode, align 8
  %_50 = ptrtoint ptr %_49 to i64
  %_53 = and i64 %_50, 7
  %_54 = icmp eq i64 %_53, 0
  br i1 %_54, label %bb16, label %panic1

bb16:                                             ; preds = %bb1
  %_68 = load ptr, ptr %currentNode, align 8
  %_69 = ptrtoint ptr %_68 to i64
  %_72 = icmp eq i64 %_69, 0
  %_73 = and i1 %_72, true
  %_74 = xor i1 %_73, true
  br i1 %_74, label %bb19, label %panic2

panic1:                                           ; preds = %bb1
; call core::panicking::panic_misaligned_pointer_dereference
  call void @_ZN4core9panicking36panic_misaligned_pointer_dereference17hcc3cbded9382b6e5E(i64 8, i64 %_50, ptr align 8 @alloc_1bf647b9c6b9ec3e63ad31086e00de1b) #4
  unreachable

bb19:                                             ; preds = %bb16
  %1 = load ptr, ptr %currentNode, align 8
  %_6 = load i32, ptr %1, align 8
  %_5 = icmp eq i32 %value, %_6
  br i1 %_5, label %bb2, label %bb3

panic2:                                           ; preds = %bb16
; call core::panicking::panic_null_pointer_dereference
  call void @_ZN4core9panicking30panic_null_pointer_dereference17hf718fcc86a223baaE(ptr align 8 @alloc_1bf647b9c6b9ec3e63ad31086e00de1b) #4
  unreachable

bb3:                                              ; preds = %bb19
  %_43 = load ptr, ptr %currentNode, align 8
  %_44 = ptrtoint ptr %_43 to i64
  %_47 = and i64 %_44, 7
  %_48 = icmp eq i64 %_47, 0
  br i1 %_48, label %bb15, label %panic3

bb2:                                              ; preds = %bb19
  store i32 1, ptr %flag, align 4
  br label %bb8

bb15:                                             ; preds = %bb3
  %_75 = load ptr, ptr %currentNode, align 8
  %_76 = ptrtoint ptr %_75 to i64
  %_79 = icmp eq i64 %_76, 0
  %_80 = and i1 %_79, true
  %_81 = xor i1 %_80, true
  br i1 %_81, label %bb20, label %panic4

panic3:                                           ; preds = %bb3
; call core::panicking::panic_misaligned_pointer_dereference
  call void @_ZN4core9panicking36panic_misaligned_pointer_dereference17hcc3cbded9382b6e5E(i64 8, i64 %_44, ptr align 8 @alloc_db04fdc1f8e539ffc89d37ae93679fab) #4
  unreachable

bb20:                                             ; preds = %bb15
  %2 = load ptr, ptr %currentNode, align 8
  %_8 = load i32, ptr %2, align 8
  %_7 = icmp sle i32 %value, %_8
  br i1 %_7, label %bb4, label %bb5

panic4:                                           ; preds = %bb15
; call core::panicking::panic_null_pointer_dereference
  call void @_ZN4core9panicking30panic_null_pointer_dereference17hf718fcc86a223baaE(ptr align 8 @alloc_db04fdc1f8e539ffc89d37ae93679fab) #4
  unreachable

bb5:                                              ; preds = %bb20
  %_31 = load ptr, ptr %currentNode, align 8
  %_32 = ptrtoint ptr %_31 to i64
  %_35 = and i64 %_32, 7
  %_36 = icmp eq i64 %_35, 0
  br i1 %_36, label %bb13, label %panic5

bb4:                                              ; preds = %bb20
  %_37 = load ptr, ptr %currentNode, align 8
  %_38 = ptrtoint ptr %_37 to i64
  %_41 = and i64 %_38, 7
  %_42 = icmp eq i64 %_41, 0
  br i1 %_42, label %bb14, label %panic7

bb13:                                             ; preds = %bb5
  %_89 = load ptr, ptr %currentNode, align 8
  %_90 = ptrtoint ptr %_89 to i64
  %_93 = icmp eq i64 %_90, 0
  %_94 = and i1 %_93, true
  %_95 = xor i1 %_94, true
  br i1 %_95, label %bb22, label %panic6

panic5:                                           ; preds = %bb5
; call core::panicking::panic_misaligned_pointer_dereference
  call void @_ZN4core9panicking36panic_misaligned_pointer_dereference17hcc3cbded9382b6e5E(i64 8, i64 %_32, ptr align 8 @alloc_56f473db5169fdb47e5416104487414e) #4
  unreachable

bb22:                                             ; preds = %bb13
  %3 = load ptr, ptr %currentNode, align 8
  %4 = getelementptr inbounds i8, ptr %3, i64 16
  %_10 = load ptr, ptr %4, align 8
  store ptr %_10, ptr %currentNode, align 8
  br label %bb6

panic6:                                           ; preds = %bb13
; call core::panicking::panic_null_pointer_dereference
  call void @_ZN4core9panicking30panic_null_pointer_dereference17hf718fcc86a223baaE(ptr align 8 @alloc_56f473db5169fdb47e5416104487414e) #4
  unreachable

bb6:                                              ; preds = %bb21, %bb22
  %_12 = load ptr, ptr %currentNode, align 8
; call core::ptr::mut_ptr::<impl *mut T>::is_null
  %_11 = call zeroext i1 @"_ZN4core3ptr7mut_ptr31_$LT$impl$u20$$BP$mut$u20$T$GT$7is_null17h41f7af86d823aefbE"(ptr %_12) #3
  br i1 %_11, label %bb8, label %bb1

bb14:                                             ; preds = %bb4
  %_82 = load ptr, ptr %currentNode, align 8
  %_83 = ptrtoint ptr %_82 to i64
  %_86 = icmp eq i64 %_83, 0
  %_87 = and i1 %_86, true
  %_88 = xor i1 %_87, true
  br i1 %_88, label %bb21, label %panic8

panic7:                                           ; preds = %bb4
; call core::panicking::panic_misaligned_pointer_dereference
  call void @_ZN4core9panicking36panic_misaligned_pointer_dereference17hcc3cbded9382b6e5E(i64 8, i64 %_38, ptr align 8 @alloc_b09a74ff20f8e75c258c245408647631) #4
  unreachable

bb21:                                             ; preds = %bb14
  %5 = load ptr, ptr %currentNode, align 8
  %6 = getelementptr inbounds i8, ptr %5, i64 8
  %_9 = load ptr, ptr %6, align 8
  store ptr %_9, ptr %currentNode, align 8
  br label %bb6

panic8:                                           ; preds = %bb14
; call core::panicking::panic_null_pointer_dereference
  call void @_ZN4core9panicking30panic_null_pointer_dereference17hf718fcc86a223baaE(ptr align 8 @alloc_b09a74ff20f8e75c258c245408647631) #4
  unreachable

bb8:                                              ; preds = %bb2, %bb6
  %_13 = load i32, ptr %flag, align 4
  %7 = icmp eq i32 %_13, 1
  br i1 %7, label %bb9, label %bb10

bb9:                                              ; preds = %bb8
  %_25 = load ptr, ptr %currentNode, align 8
  %_26 = ptrtoint ptr %_25 to i64
  %_29 = and i64 %_26, 7
  %_30 = icmp eq i64 %_29, 0
  br i1 %_30, label %bb12, label %panic9

bb10:                                             ; preds = %bb8
  %_20 = call i32 (ptr, ...) @printf(ptr @alloc_46606b72c647c3d32e5cc0806ec3eed6, i32 %value) #3
  br label %bb11

bb12:                                             ; preds = %bb9
  %_96 = load ptr, ptr %currentNode, align 8
  %_97 = ptrtoint ptr %_96 to i64
  %_100 = icmp eq i64 %_97, 0
  %_101 = and i1 %_100, true
  %_102 = xor i1 %_101, true
  br i1 %_102, label %bb23, label %panic10

panic9:                                           ; preds = %bb9
; call core::panicking::panic_misaligned_pointer_dereference
  call void @_ZN4core9panicking36panic_misaligned_pointer_dereference17hcc3cbded9382b6e5E(i64 8, i64 %_26, ptr align 8 @alloc_cbf4a1a94898d5322e93dbe900c59b8c) #4
  unreachable

bb23:                                             ; preds = %bb12
  %8 = load ptr, ptr %currentNode, align 8
  %_19 = load i32, ptr %8, align 8
  %_14 = call i32 (ptr, ...) @printf(ptr @alloc_0400c898028c3a26ae10451c8efe0f35, i32 %_19) #3
  br label %bb11

panic10:                                          ; preds = %bb12
; call core::panicking::panic_null_pointer_dereference
  call void @_ZN4core9panicking30panic_null_pointer_dereference17hf718fcc86a223baaE(ptr align 8 @alloc_cbf4a1a94898d5322e93dbe900c59b8c) #4
  unreachable

bb11:                                             ; preds = %bb10, %bb23
  ret void
}

; Function Attrs: nounwind nonlazybind
define void @preOrderPrint(ptr %rootNode) unnamed_addr #1 {
start:
; call core::ptr::mut_ptr::<impl *mut T>::is_null
  %_2 = call zeroext i1 @"_ZN4core3ptr7mut_ptr31_$LT$impl$u20$$BP$mut$u20$T$GT$7is_null17h41f7af86d823aefbE"(ptr %rootNode) #3
  br i1 %_2, label %bb5, label %bb2

bb2:                                              ; preds = %start
  %_26 = ptrtoint ptr %rootNode to i64
  %_29 = and i64 %_26, 7
  %_30 = icmp eq i64 %_29, 0
  br i1 %_30, label %bb8, label %panic

bb5:                                              ; preds = %bb11, %start
  ret void

bb8:                                              ; preds = %bb2
  %_32 = ptrtoint ptr %rootNode to i64
  %_35 = icmp eq i64 %_32, 0
  %_36 = and i1 %_35, true
  %_37 = xor i1 %_36, true
  br i1 %_37, label %bb9, label %panic1

panic:                                            ; preds = %bb2
; call core::panicking::panic_misaligned_pointer_dereference
  call void @_ZN4core9panicking36panic_misaligned_pointer_dereference17hcc3cbded9382b6e5E(i64 8, i64 %_26, ptr align 8 @alloc_dbe022c5ebee70bd31a11bdf5591dbd0) #4
  unreachable

bb9:                                              ; preds = %bb8
  %_8 = load i32, ptr %rootNode, align 8
  %_3 = call i32 (ptr, ...) @printf(ptr @alloc_b929c71616281bfd1be2bd4038d3ddf1, i32 %_8) #3
  %_20 = ptrtoint ptr %rootNode to i64
  %_23 = and i64 %_20, 7
  %_24 = icmp eq i64 %_23, 0
  br i1 %_24, label %bb7, label %panic2

panic1:                                           ; preds = %bb8
; call core::panicking::panic_null_pointer_dereference
  call void @_ZN4core9panicking30panic_null_pointer_dereference17hf718fcc86a223baaE(ptr align 8 @alloc_dbe022c5ebee70bd31a11bdf5591dbd0) #4
  unreachable

bb7:                                              ; preds = %bb9
  %_39 = ptrtoint ptr %rootNode to i64
  %_42 = icmp eq i64 %_39, 0
  %_43 = and i1 %_42, true
  %_44 = xor i1 %_43, true
  br i1 %_44, label %bb10, label %panic3

panic2:                                           ; preds = %bb9
; call core::panicking::panic_misaligned_pointer_dereference
  call void @_ZN4core9panicking36panic_misaligned_pointer_dereference17hcc3cbded9382b6e5E(i64 8, i64 %_20, ptr align 8 @alloc_8dba01ab3a4177eff80e54a6df09cafa) #4
  unreachable

bb10:                                             ; preds = %bb7
  %0 = getelementptr inbounds i8, ptr %rootNode, i64 8
  %_10 = load ptr, ptr %0, align 8
  call void @preOrderPrint(ptr %_10) #3
  %_14 = ptrtoint ptr %rootNode to i64
  %_17 = and i64 %_14, 7
  %_18 = icmp eq i64 %_17, 0
  br i1 %_18, label %bb6, label %panic4

panic3:                                           ; preds = %bb7
; call core::panicking::panic_null_pointer_dereference
  call void @_ZN4core9panicking30panic_null_pointer_dereference17hf718fcc86a223baaE(ptr align 8 @alloc_8dba01ab3a4177eff80e54a6df09cafa) #4
  unreachable

bb6:                                              ; preds = %bb10
  %_46 = ptrtoint ptr %rootNode to i64
  %_49 = icmp eq i64 %_46, 0
  %_50 = and i1 %_49, true
  %_51 = xor i1 %_50, true
  br i1 %_51, label %bb11, label %panic5

panic4:                                           ; preds = %bb10
; call core::panicking::panic_misaligned_pointer_dereference
  call void @_ZN4core9panicking36panic_misaligned_pointer_dereference17hcc3cbded9382b6e5E(i64 8, i64 %_14, ptr align 8 @alloc_8a2a223e2a26f5657096abd51e7d609a) #4
  unreachable

bb11:                                             ; preds = %bb6
  %1 = getelementptr inbounds i8, ptr %rootNode, i64 16
  %_12 = load ptr, ptr %1, align 8
  call void @preOrderPrint(ptr %_12) #3
  br label %bb5

panic5:                                           ; preds = %bb6
; call core::panicking::panic_null_pointer_dereference
  call void @_ZN4core9panicking30panic_null_pointer_dereference17hf718fcc86a223baaE(ptr align 8 @alloc_8a2a223e2a26f5657096abd51e7d609a) #4
  unreachable
}

; Function Attrs: nounwind nonlazybind
define void @inOrderPrint(ptr %rootNode) unnamed_addr #1 {
start:
; call core::ptr::mut_ptr::<impl *mut T>::is_null
  %_2 = call zeroext i1 @"_ZN4core3ptr7mut_ptr31_$LT$impl$u20$$BP$mut$u20$T$GT$7is_null17h41f7af86d823aefbE"(ptr %rootNode) #3
  br i1 %_2, label %bb5, label %bb2

bb2:                                              ; preds = %start
  %_26 = ptrtoint ptr %rootNode to i64
  %_29 = and i64 %_26, 7
  %_30 = icmp eq i64 %_29, 0
  br i1 %_30, label %bb8, label %panic

bb5:                                              ; preds = %bb11, %start
  ret void

bb8:                                              ; preds = %bb2
  %_32 = ptrtoint ptr %rootNode to i64
  %_35 = icmp eq i64 %_32, 0
  %_36 = and i1 %_35, true
  %_37 = xor i1 %_36, true
  br i1 %_37, label %bb9, label %panic1

panic:                                            ; preds = %bb2
; call core::panicking::panic_misaligned_pointer_dereference
  call void @_ZN4core9panicking36panic_misaligned_pointer_dereference17hcc3cbded9382b6e5E(i64 8, i64 %_26, ptr align 8 @alloc_52a90837bef686107f39f6a36072e990) #4
  unreachable

bb9:                                              ; preds = %bb8
  %0 = getelementptr inbounds i8, ptr %rootNode, i64 8
  %_4 = load ptr, ptr %0, align 8
  call void @inOrderPrint(ptr %_4) #3
  %_20 = ptrtoint ptr %rootNode to i64
  %_23 = and i64 %_20, 7
  %_24 = icmp eq i64 %_23, 0
  br i1 %_24, label %bb7, label %panic2

panic1:                                           ; preds = %bb8
; call core::panicking::panic_null_pointer_dereference
  call void @_ZN4core9panicking30panic_null_pointer_dereference17hf718fcc86a223baaE(ptr align 8 @alloc_52a90837bef686107f39f6a36072e990) #4
  unreachable

bb7:                                              ; preds = %bb9
  %_39 = ptrtoint ptr %rootNode to i64
  %_42 = icmp eq i64 %_39, 0
  %_43 = and i1 %_42, true
  %_44 = xor i1 %_43, true
  br i1 %_44, label %bb10, label %panic3

panic2:                                           ; preds = %bb9
; call core::panicking::panic_misaligned_pointer_dereference
  call void @_ZN4core9panicking36panic_misaligned_pointer_dereference17hcc3cbded9382b6e5E(i64 8, i64 %_20, ptr align 8 @alloc_8b7c07c48f921ab626bb5bb7917dc9dd) #4
  unreachable

bb10:                                             ; preds = %bb7
  %_10 = load i32, ptr %rootNode, align 8
  %_5 = call i32 (ptr, ...) @printf(ptr @alloc_b929c71616281bfd1be2bd4038d3ddf1, i32 %_10) #3
  %_14 = ptrtoint ptr %rootNode to i64
  %_17 = and i64 %_14, 7
  %_18 = icmp eq i64 %_17, 0
  br i1 %_18, label %bb6, label %panic4

panic3:                                           ; preds = %bb7
; call core::panicking::panic_null_pointer_dereference
  call void @_ZN4core9panicking30panic_null_pointer_dereference17hf718fcc86a223baaE(ptr align 8 @alloc_8b7c07c48f921ab626bb5bb7917dc9dd) #4
  unreachable

bb6:                                              ; preds = %bb10
  %_46 = ptrtoint ptr %rootNode to i64
  %_49 = icmp eq i64 %_46, 0
  %_50 = and i1 %_49, true
  %_51 = xor i1 %_50, true
  br i1 %_51, label %bb11, label %panic5

panic4:                                           ; preds = %bb10
; call core::panicking::panic_misaligned_pointer_dereference
  call void @_ZN4core9panicking36panic_misaligned_pointer_dereference17hcc3cbded9382b6e5E(i64 8, i64 %_14, ptr align 8 @alloc_1f20a66aca6ef5cf841e84f975dbb9a0) #4
  unreachable

bb11:                                             ; preds = %bb6
  %1 = getelementptr inbounds i8, ptr %rootNode, i64 16
  %_12 = load ptr, ptr %1, align 8
  call void @inOrderPrint(ptr %_12) #3
  br label %bb5

panic5:                                           ; preds = %bb6
; call core::panicking::panic_null_pointer_dereference
  call void @_ZN4core9panicking30panic_null_pointer_dereference17hf718fcc86a223baaE(ptr align 8 @alloc_1f20a66aca6ef5cf841e84f975dbb9a0) #4
  unreachable
}

; Function Attrs: nounwind nonlazybind
define void @postOrderPrint(ptr %rootNode) unnamed_addr #1 {
start:
; call core::ptr::mut_ptr::<impl *mut T>::is_null
  %_2 = call zeroext i1 @"_ZN4core3ptr7mut_ptr31_$LT$impl$u20$$BP$mut$u20$T$GT$7is_null17h41f7af86d823aefbE"(ptr %rootNode) #3
  br i1 %_2, label %bb5, label %bb2

bb2:                                              ; preds = %start
  %_26 = ptrtoint ptr %rootNode to i64
  %_29 = and i64 %_26, 7
  %_30 = icmp eq i64 %_29, 0
  br i1 %_30, label %bb8, label %panic

bb5:                                              ; preds = %bb11, %start
  ret void

bb8:                                              ; preds = %bb2
  %_32 = ptrtoint ptr %rootNode to i64
  %_35 = icmp eq i64 %_32, 0
  %_36 = and i1 %_35, true
  %_37 = xor i1 %_36, true
  br i1 %_37, label %bb9, label %panic1

panic:                                            ; preds = %bb2
; call core::panicking::panic_misaligned_pointer_dereference
  call void @_ZN4core9panicking36panic_misaligned_pointer_dereference17hcc3cbded9382b6e5E(i64 8, i64 %_26, ptr align 8 @alloc_bd98e7dca96a1ace8503d34a0b19e0c9) #4
  unreachable

bb9:                                              ; preds = %bb8
  %0 = getelementptr inbounds i8, ptr %rootNode, i64 8
  %_4 = load ptr, ptr %0, align 8
  call void @postOrderPrint(ptr %_4) #3
  %_20 = ptrtoint ptr %rootNode to i64
  %_23 = and i64 %_20, 7
  %_24 = icmp eq i64 %_23, 0
  br i1 %_24, label %bb7, label %panic2

panic1:                                           ; preds = %bb8
; call core::panicking::panic_null_pointer_dereference
  call void @_ZN4core9panicking30panic_null_pointer_dereference17hf718fcc86a223baaE(ptr align 8 @alloc_bd98e7dca96a1ace8503d34a0b19e0c9) #4
  unreachable

bb7:                                              ; preds = %bb9
  %_39 = ptrtoint ptr %rootNode to i64
  %_42 = icmp eq i64 %_39, 0
  %_43 = and i1 %_42, true
  %_44 = xor i1 %_43, true
  br i1 %_44, label %bb10, label %panic3

panic2:                                           ; preds = %bb9
; call core::panicking::panic_misaligned_pointer_dereference
  call void @_ZN4core9panicking36panic_misaligned_pointer_dereference17hcc3cbded9382b6e5E(i64 8, i64 %_20, ptr align 8 @alloc_b373a8b837617a5fe01f3ee969adfcbf) #4
  unreachable

bb10:                                             ; preds = %bb7
  %1 = getelementptr inbounds i8, ptr %rootNode, i64 16
  %_6 = load ptr, ptr %1, align 8
  call void @postOrderPrint(ptr %_6) #3
  %_14 = ptrtoint ptr %rootNode to i64
  %_17 = and i64 %_14, 7
  %_18 = icmp eq i64 %_17, 0
  br i1 %_18, label %bb6, label %panic4

panic3:                                           ; preds = %bb7
; call core::panicking::panic_null_pointer_dereference
  call void @_ZN4core9panicking30panic_null_pointer_dereference17hf718fcc86a223baaE(ptr align 8 @alloc_b373a8b837617a5fe01f3ee969adfcbf) #4
  unreachable

bb6:                                              ; preds = %bb10
  %_46 = ptrtoint ptr %rootNode to i64
  %_49 = icmp eq i64 %_46, 0
  %_50 = and i1 %_49, true
  %_51 = xor i1 %_50, true
  br i1 %_51, label %bb11, label %panic5

panic4:                                           ; preds = %bb10
; call core::panicking::panic_misaligned_pointer_dereference
  call void @_ZN4core9panicking36panic_misaligned_pointer_dereference17hcc3cbded9382b6e5E(i64 8, i64 %_14, ptr align 8 @alloc_1fb68b37f35a71b4fee601a0c25656d5) #4
  unreachable

bb11:                                             ; preds = %bb6
  %_12 = load i32, ptr %rootNode, align 8
  %_7 = call i32 (ptr, ...) @printf(ptr @alloc_b929c71616281bfd1be2bd4038d3ddf1, i32 %_12) #3
  br label %bb5

panic5:                                           ; preds = %bb6
; call core::panicking::panic_null_pointer_dereference
  call void @_ZN4core9panicking30panic_null_pointer_dereference17hf718fcc86a223baaE(ptr align 8 @alloc_1fb68b37f35a71b4fee601a0c25656d5) #4
  unreachable
}

; Function Attrs: nounwind nonlazybind
declare ptr @malloc(i64) unnamed_addr #1

; core::panicking::panic_misaligned_pointer_dereference
; Function Attrs: cold minsize noinline noreturn nounwind nonlazybind optsize
declare void @_ZN4core9panicking36panic_misaligned_pointer_dereference17hcc3cbded9382b6e5E(i64, i64, ptr align 8) unnamed_addr #2

; core::panicking::panic_null_pointer_dereference
; Function Attrs: cold minsize noinline noreturn nounwind nonlazybind optsize
declare void @_ZN4core9panicking30panic_null_pointer_dereference17hf718fcc86a223baaE(ptr align 8) unnamed_addr #2

; Function Attrs: nounwind nonlazybind
declare i32 @printf(ptr, ...) unnamed_addr #1

attributes #0 = { inlinehint nounwind nonlazybind "probe-stack"="inline-asm" "target-cpu"="x86-64" }
attributes #1 = { nounwind nonlazybind "probe-stack"="inline-asm" "target-cpu"="x86-64" }
attributes #2 = { cold minsize noinline noreturn nounwind nonlazybind optsize "probe-stack"="inline-asm" "target-cpu"="x86-64" }
attributes #3 = { nounwind }
attributes #4 = { noreturn nounwind }

!llvm.module.flags = !{!0, !1}
!llvm.ident = !{!2}

!0 = !{i32 8, !"PIC Level", i32 2}
!1 = !{i32 2, !"RtLibUseGOT", i32 1}
!2 = !{!"rustc version 1.88.0-nightly (0b45675cf 2025-03-31)"}
