; ModuleID = '55pm1w1ioz55khmevguhhv34o'
source_filename = "55pm1w1ioz55khmevguhhv34o"
target datalayout = "e-m:e-p270:32:32-p271:32:32-p272:64:64-i64:64-i128:128-f80:128-n8:16:32:64-S128"
target triple = "x86_64-unknown-linux-gnu"

@alloc_0ed0763d8bf93ac79247e07858374e35 = private unnamed_addr constant [210 x i8] c"unsafe precondition(s) violated: ptr::offset requires the address calculation to not overflow\0A\0AThis indicates a bug in the program. This Undefined Behavior check is optional, and cannot be relied on for safety.", align 1
@alloc_f5ffd2fd1476bab43ad89fb40c72d0c5 = private unnamed_addr constant [10 x i8] c"src/lib.rs", align 1
@alloc_3756f2a6fdac19865b2b1f9f39cd660b = private unnamed_addr constant <{ ptr, [16 x i8] }> <{ ptr @alloc_f5ffd2fd1476bab43ad89fb40c72d0c5, [16 x i8] c"\0A\00\00\00\00\00\00\00.\00\00\00\0D\00\00\00" }>, align 8
@alloc_32bd34e292aa7dbc5cb1ce79da125951 = private unnamed_addr constant <{ ptr, [16 x i8] }> <{ ptr @alloc_f5ffd2fd1476bab43ad89fb40c72d0c5, [16 x i8] c"\0A\00\00\00\00\00\00\006\00\00\00 \00\00\00" }>, align 8
@alloc_f12284404a6874dab4195223856d172b = private unnamed_addr constant <{ ptr, [16 x i8] }> <{ ptr @alloc_f5ffd2fd1476bab43ad89fb40c72d0c5, [16 x i8] c"\0A\00\00\00\00\00\00\006\00\00\00\1F\00\00\00" }>, align 8
@alloc_f830a028667cfd5d54df133ff27533c8 = private unnamed_addr constant <{ ptr, [16 x i8] }> <{ ptr @alloc_f5ffd2fd1476bab43ad89fb40c72d0c5, [16 x i8] c"\0A\00\00\00\00\00\00\007\00\00\00\1B\00\00\00" }>, align 8
@alloc_63188e69ffb2521d05f02437e1ad7f52 = private unnamed_addr constant <{ ptr, [16 x i8] }> <{ ptr @alloc_f5ffd2fd1476bab43ad89fb40c72d0c5, [16 x i8] c"\0A\00\00\00\00\00\00\007\00\00\00\09\00\00\00" }>, align 8
@alloc_42942aa8c0966d2e84e270bf357286d8 = private unnamed_addr constant <{ ptr, [16 x i8] }> <{ ptr @alloc_f5ffd2fd1476bab43ad89fb40c72d0c5, [16 x i8] c"\0A\00\00\00\00\00\00\008\00\00\00\10\00\00\00" }>, align 8
@alloc_2585e7a34909323d5bbace81f38ea89f = private unnamed_addr constant <{ ptr, [16 x i8] }> <{ ptr @alloc_f5ffd2fd1476bab43ad89fb40c72d0c5, [16 x i8] c"\0A\00\00\00\00\00\00\008\00\00\00\0F\00\00\00" }>, align 8
@alloc_23cf98fd9ce131a1e731d1c3ebcf322b = private unnamed_addr constant <{ ptr, [16 x i8] }> <{ ptr @alloc_f5ffd2fd1476bab43ad89fb40c72d0c5, [16 x i8] c"\0A\00\00\00\00\00\00\009\00\00\00\1B\00\00\00" }>, align 8
@alloc_54661a6bf4c4c14d833e867732f015c6 = private unnamed_addr constant <{ ptr, [16 x i8] }> <{ ptr @alloc_f5ffd2fd1476bab43ad89fb40c72d0c5, [16 x i8] c"\0A\00\00\00\00\00\00\009\00\00\00\09\00\00\00" }>, align 8
@alloc_e6c41fffa8a8de897a1b7bbeed5779e3 = private unnamed_addr constant <{ ptr, [16 x i8] }> <{ ptr @alloc_f5ffd2fd1476bab43ad89fb40c72d0c5, [16 x i8] c"\0A\00\00\00\00\00\00\00A\00\00\00\10\00\00\00" }>, align 8
@alloc_1d228fcff3e4d7370127d1bd2fc0d23c = private unnamed_addr constant <{ ptr, [16 x i8] }> <{ ptr @alloc_f5ffd2fd1476bab43ad89fb40c72d0c5, [16 x i8] c"\0A\00\00\00\00\00\00\00B\00\00\00\0F\00\00\00" }>, align 8
@alloc_52ec6808e7478eb5c21ceaaf176e7ea8 = private unnamed_addr constant <{ ptr, [16 x i8] }> <{ ptr @alloc_f5ffd2fd1476bab43ad89fb40c72d0c5, [16 x i8] c"\0A\00\00\00\00\00\00\00B\00\00\00\0C\00\00\00" }>, align 8
@alloc_e233e8e565fc3d1ff2224857227b5adc = private unnamed_addr constant <{ ptr, [16 x i8] }> <{ ptr @alloc_f5ffd2fd1476bab43ad89fb40c72d0c5, [16 x i8] c"\0A\00\00\00\00\00\00\00C\00\00\00\12\00\00\00" }>, align 8
@alloc_a3ec9be7e117f4309e0a429974ad2022 = private unnamed_addr constant <{ ptr, [16 x i8] }> <{ ptr @alloc_f5ffd2fd1476bab43ad89fb40c72d0c5, [16 x i8] c"\0A\00\00\00\00\00\00\00C\00\00\00\0F\00\00\00" }>, align 8
@alloc_2f8634760784bdab8d450ddc5940e55b = private unnamed_addr constant <{ ptr, [16 x i8] }> <{ ptr @alloc_f5ffd2fd1476bab43ad89fb40c72d0c5, [16 x i8] c"\0A\00\00\00\00\00\00\00G\00\00\00\0F\00\00\00" }>, align 8
@alloc_b11d739c13bd99152630cd066eb15a20 = private unnamed_addr constant <{ ptr, [16 x i8] }> <{ ptr @alloc_f5ffd2fd1476bab43ad89fb40c72d0c5, [16 x i8] c"\0A\00\00\00\00\00\00\00H\00\00\00\0F\00\00\00" }>, align 8
@alloc_ec40ccda9e1f90f1fc6e04d7d1f47049 = private unnamed_addr constant <{ ptr, [16 x i8] }> <{ ptr @alloc_f5ffd2fd1476bab43ad89fb40c72d0c5, [16 x i8] c"\0A\00\00\00\00\00\00\00H\00\00\00\0C\00\00\00" }>, align 8
@alloc_fa5e2d843a4096e6344baead149e0da5 = private unnamed_addr constant <{ ptr, [16 x i8] }> <{ ptr @alloc_f5ffd2fd1476bab43ad89fb40c72d0c5, [16 x i8] c"\0A\00\00\00\00\00\00\00I\00\00\00\12\00\00\00" }>, align 8
@alloc_251668794411f0c3b483d850a250e701 = private unnamed_addr constant <{ ptr, [16 x i8] }> <{ ptr @alloc_f5ffd2fd1476bab43ad89fb40c72d0c5, [16 x i8] c"\0A\00\00\00\00\00\00\00I\00\00\00\0F\00\00\00" }>, align 8
@alloc_7ebff165463d26610c59f877914f7a2f = private unnamed_addr constant <{ ptr, [16 x i8] }> <{ ptr @alloc_f5ffd2fd1476bab43ad89fb40c72d0c5, [16 x i8] c"\0A\00\00\00\00\00\00\00V\00\00\00\05\00\00\00" }>, align 8
@alloc_4dc9d9ad7a45d2b5b4b18d2f05142242 = private unnamed_addr constant <{ ptr, [16 x i8] }> <{ ptr @alloc_f5ffd2fd1476bab43ad89fb40c72d0c5, [16 x i8] c"\0A\00\00\00\00\00\00\00W\00\00\00\05\00\00\00" }>, align 8
@alloc_ed86ca8c7ba1a0e8f18c4a31a2dbcd0c = private unnamed_addr constant <{ ptr, [16 x i8] }> <{ ptr @alloc_f5ffd2fd1476bab43ad89fb40c72d0c5, [16 x i8] c"\0A\00\00\00\00\00\00\00[\00\00\00\1B\00\00\00" }>, align 8
@alloc_158cd7a8450781746e6b2baa76967723 = private unnamed_addr constant <{ ptr, [16 x i8] }> <{ ptr @alloc_f5ffd2fd1476bab43ad89fb40c72d0c5, [16 x i8] c"\0A\00\00\00\00\00\00\00X\00\00\00\05\00\00\00" }>, align 8
@alloc_621195beb10a85c126b308305e1571d8 = private unnamed_addr constant <{ ptr, [16 x i8] }> <{ ptr @alloc_f5ffd2fd1476bab43ad89fb40c72d0c5, [16 x i8] c"\0A\00\00\00\00\00\00\00a\00\00\00'\00\00\00" }>, align 8
@alloc_52d4008dfc34a8928d7ca0d75832fac2 = private unnamed_addr constant <{ ptr, [16 x i8] }> <{ ptr @alloc_f5ffd2fd1476bab43ad89fb40c72d0c5, [16 x i8] c"\0A\00\00\00\00\00\00\00c\00\00\00\12\00\00\00" }>, align 8
@alloc_243e1283b6f9cab81a03fda05c13a614 = private unnamed_addr constant <{ ptr, [16 x i8] }> <{ ptr @alloc_f5ffd2fd1476bab43ad89fb40c72d0c5, [16 x i8] c"\0A\00\00\00\00\00\00\00d\00\00\00\14\00\00\00" }>, align 8
@alloc_a7719f03fef2466a9c2c85bc9a7335b9 = private unnamed_addr constant <{ ptr, [16 x i8] }> <{ ptr @alloc_f5ffd2fd1476bab43ad89fb40c72d0c5, [16 x i8] c"\0A\00\00\00\00\00\00\00d\00\00\00\05\00\00\00" }>, align 8
@alloc_6a45d8a6b25b25955b1ee1434ae8a861 = private unnamed_addr constant <{ ptr, [16 x i8] }> <{ ptr @alloc_f5ffd2fd1476bab43ad89fb40c72d0c5, [16 x i8] c"\0A\00\00\00\00\00\00\00e\00\00\00\1B\00\00\00" }>, align 8
@alloc_a9ddb910048728d8cde68c8a68ffcb43 = private unnamed_addr constant <{ ptr, [16 x i8] }> <{ ptr @alloc_f5ffd2fd1476bab43ad89fb40c72d0c5, [16 x i8] c"\0A\00\00\00\00\00\00\00e\00\00\00\09\00\00\00" }>, align 8
@alloc_c780f4010b0084b32cb7c367f8422337 = private unnamed_addr constant <{ ptr, [16 x i8] }> <{ ptr @alloc_f5ffd2fd1476bab43ad89fb40c72d0c5, [16 x i8] c"\0A\00\00\00\00\00\00\00h\00\00\00\12\00\00\00" }>, align 8
@alloc_0a034e83c515461875582c93531b2988 = private unnamed_addr constant <{ ptr, [16 x i8] }> <{ ptr @alloc_f5ffd2fd1476bab43ad89fb40c72d0c5, [16 x i8] c"\0A\00\00\00\00\00\00\00l\00\00\00\0F\00\00\00" }>, align 8
@alloc_a6a8a15d99d2f9a899c456107d3ab757 = private unnamed_addr constant <{ ptr, [16 x i8] }> <{ ptr @alloc_f5ffd2fd1476bab43ad89fb40c72d0c5, [16 x i8] c"\0A\00\00\00\00\00\00\00l\00\00\00\0C\00\00\00" }>, align 8
@alloc_136308b10d1a0f294a4f13bb4c597d90 = private unnamed_addr constant <{ ptr, [16 x i8] }> <{ ptr @alloc_f5ffd2fd1476bab43ad89fb40c72d0c5, [16 x i8] c"\0A\00\00\00\00\00\00\00m\00\00\00\13\00\00\00" }>, align 8
@alloc_87b8d8b3be8abdafaa24cb25803ca0b4 = private unnamed_addr constant <{ ptr, [16 x i8] }> <{ ptr @alloc_f5ffd2fd1476bab43ad89fb40c72d0c5, [16 x i8] c"\0A\00\00\00\00\00\00\00m\00\00\00\10\00\00\00" }>, align 8
@alloc_38a362a5b0eed95c172aa1de68410258 = private unnamed_addr constant <{ ptr, [16 x i8] }> <{ ptr @alloc_f5ffd2fd1476bab43ad89fb40c72d0c5, [16 x i8] c"\0A\00\00\00\00\00\00\00y\00\00\00#\00\00\00" }>, align 8
@alloc_3e64dcbb7a1b22329d27b5ca1284d154 = private unnamed_addr constant <{ ptr, [16 x i8] }> <{ ptr @alloc_f5ffd2fd1476bab43ad89fb40c72d0c5, [16 x i8] c"\0A\00\00\00\00\00\00\00y\00\00\00\22\00\00\00" }>, align 8
@alloc_263cacb11107734af3d9010f066589b3 = private unnamed_addr constant <{ ptr, [16 x i8] }> <{ ptr @alloc_f5ffd2fd1476bab43ad89fb40c72d0c5, [16 x i8] c"\0A\00\00\00\00\00\00\00z\00\00\00\05\00\00\00" }>, align 8
@alloc_8f53a4b4465fa261cfe702cabc17e6a8 = private unnamed_addr constant <{ ptr, [16 x i8] }> <{ ptr @alloc_f5ffd2fd1476bab43ad89fb40c72d0c5, [16 x i8] c"\0A\00\00\00\00\00\00\00{\00\00\00\1B\00\00\00" }>, align 8
@alloc_faa77273d412a3370397282c48abd832 = private unnamed_addr constant <{ ptr, [16 x i8] }> <{ ptr @alloc_f5ffd2fd1476bab43ad89fb40c72d0c5, [16 x i8] c"\0A\00\00\00\00\00\00\00{\00\00\00\09\00\00\00" }>, align 8
@alloc_994c4ce95b3a1be0e0e386673611178e = private unnamed_addr constant <{ ptr, [16 x i8] }> <{ ptr @alloc_f5ffd2fd1476bab43ad89fb40c72d0c5, [16 x i8] c"\0A\00\00\00\00\00\00\00|\00\00\00\10\00\00\00" }>, align 8
@alloc_f6e377d5608467000e68825d4812aa87 = private unnamed_addr constant <{ ptr, [16 x i8] }> <{ ptr @alloc_f5ffd2fd1476bab43ad89fb40c72d0c5, [16 x i8] c"\0A\00\00\00\00\00\00\00|\00\00\00&\00\00\00" }>, align 8
@alloc_a9b4ae4f936036ecc70c5719b2ebbe49 = private unnamed_addr constant <{ ptr, [16 x i8] }> <{ ptr @alloc_f5ffd2fd1476bab43ad89fb40c72d0c5, [16 x i8] c"\0A\00\00\00\00\00\00\00|\00\00\00\0F\00\00\00" }>, align 8
@alloc_26944008f1e137d32271d7b90783c00e = private unnamed_addr constant <{ ptr, [16 x i8] }> <{ ptr @alloc_f5ffd2fd1476bab43ad89fb40c72d0c5, [16 x i8] c"\0A\00\00\00\00\00\00\00\87\00\00\00\11\00\00\00" }>, align 8
@alloc_5282e0bbc687acbc97782d7ad336ce6a = private unnamed_addr constant <{ ptr, [16 x i8] }> <{ ptr @alloc_f5ffd2fd1476bab43ad89fb40c72d0c5, [16 x i8] c"\0A\00\00\00\00\00\00\00\89\00\00\00(\00\00\00" }>, align 8
@alloc_eed85b3c9138b9d70d5c4cd454cc4a2d = private unnamed_addr constant <{ ptr, [16 x i8] }> <{ ptr @alloc_f5ffd2fd1476bab43ad89fb40c72d0c5, [16 x i8] c"\0A\00\00\00\00\00\00\00\89\00\00\00H\00\00\00" }>, align 8
@alloc_bc8db9c9f5fd25f39355aafc84d5c24d = private unnamed_addr constant <{ ptr, [16 x i8] }> <{ ptr @alloc_f5ffd2fd1476bab43ad89fb40c72d0c5, [16 x i8] c"\0A\00\00\00\00\00\00\00\8F\00\00\00\0D\00\00\00" }>, align 8
@alloc_dd190c650183484579959ba623cbadb9 = private unnamed_addr constant <{ ptr, [16 x i8] }> <{ ptr @alloc_f5ffd2fd1476bab43ad89fb40c72d0c5, [16 x i8] c"\0A\00\00\00\00\00\00\00\8A\00\00\00\11\00\00\00" }>, align 8
@alloc_d9e7c9bbb04eb6655a31b26ed4e0a6c4 = private unnamed_addr constant <{ ptr, [16 x i8] }> <{ ptr @alloc_f5ffd2fd1476bab43ad89fb40c72d0c5, [16 x i8] c"\0A\00\00\00\00\00\00\00\8B\00\00\00\17\00\00\00" }>, align 8
@alloc_fbea4ae7185fd6011700671443c453fb = private unnamed_addr constant <{ ptr, [16 x i8] }> <{ ptr @alloc_f5ffd2fd1476bab43ad89fb40c72d0c5, [16 x i8] c"\0A\00\00\00\00\00\00\00\9C\00\00\00\1E\00\00\00" }>, align 8
@alloc_fc7874fb1a27689c0b99ab6550ca627c = private unnamed_addr constant <{ ptr, [16 x i8] }> <{ ptr @alloc_f5ffd2fd1476bab43ad89fb40c72d0c5, [16 x i8] c"\0A\00\00\00\00\00\00\00\9F\00\00\00\05\00\00\00" }>, align 8
@alloc_3ddbde183efeca7f5704da528e4d1d73 = private unnamed_addr constant <{ ptr, [16 x i8] }> <{ ptr @alloc_f5ffd2fd1476bab43ad89fb40c72d0c5, [16 x i8] c"\0A\00\00\00\00\00\00\00\A0\00\00\00\05\00\00\00" }>, align 8
@alloc_c20cdd296a1b5bb485ed442bab07d262 = private unnamed_addr constant <{ ptr, [16 x i8] }> <{ ptr @alloc_f5ffd2fd1476bab43ad89fb40c72d0c5, [16 x i8] c"\0A\00\00\00\00\00\00\00\A1\00\00\00\05\00\00\00" }>, align 8
@alloc_57c9c44943e49a141b1e0b0d15ffe7fa = private unnamed_addr constant <{ ptr, [16 x i8] }> <{ ptr @alloc_f5ffd2fd1476bab43ad89fb40c72d0c5, [16 x i8] c"\0A\00\00\00\00\00\00\00\A2\00\00\00\09\00\00\00" }>, align 8
@alloc_e7fc04a8bb8bbc097682d19862f7385b = private unnamed_addr constant <{ ptr, [16 x i8] }> <{ ptr @alloc_f5ffd2fd1476bab43ad89fb40c72d0c5, [16 x i8] c"\0A\00\00\00\00\00\00\00\AA\00\00\00\1E\00\00\00" }>, align 8
@alloc_955faea93410ddf8779305fbd23ac2fb = private unnamed_addr constant <{ ptr, [16 x i8] }> <{ ptr @alloc_f5ffd2fd1476bab43ad89fb40c72d0c5, [16 x i8] c"\0A\00\00\00\00\00\00\00\AD\00\00\00\0C\00\00\00" }>, align 8
@alloc_84941e17482acd7daa040c35d4dead61 = private unnamed_addr constant <{ ptr, [16 x i8] }> <{ ptr @alloc_f5ffd2fd1476bab43ad89fb40c72d0c5, [16 x i8] c"\0A\00\00\00\00\00\00\00\AE\00\00\00\11\00\00\00" }>, align 8
@alloc_f839de8b0e90d77b771df84a0f5bc87b = private unnamed_addr constant <{ ptr, [16 x i8] }> <{ ptr @alloc_f5ffd2fd1476bab43ad89fb40c72d0c5, [16 x i8] c"\0A\00\00\00\00\00\00\00\B0\00\00\00\0F\00\00\00" }>, align 8
@alloc_31605d20bc04fb6dbe2465356bcb610b = private unnamed_addr constant [9 x i8] c"cost=%d\0A\00", align 1
@alloc_8e2510360b4ed189baec5f7c6e314a30 = private unnamed_addr constant <{ ptr, [16 x i8] }> <{ ptr @alloc_f5ffd2fd1476bab43ad89fb40c72d0c5, [16 x i8] c"\0A\00\00\00\00\00\00\00\B9\00\00\00@\00\00\00" }>, align 8
@alloc_566712ab1ff47edc7a11b901346dc9b6 = private unnamed_addr constant [6 x i8] c"%d <-\00", align 1
@alloc_bdc45573337e2b884328a7ecef25a475 = private unnamed_addr constant <{ ptr, [16 x i8] }> <{ ptr @alloc_f5ffd2fd1476bab43ad89fb40c72d0c5, [16 x i8] c"\0A\00\00\00\00\00\00\00\BB\00\00\00@\00\00\00" }>, align 8
@alloc_c8b931d56459ed6d8cd7d9c374c2f295 = private unnamed_addr constant <{ ptr, [16 x i8] }> <{ ptr @alloc_f5ffd2fd1476bab43ad89fb40c72d0c5, [16 x i8] c"\0A\00\00\00\00\00\00\00\BC\00\00\00\10\00\00\00" }>, align 8
@alloc_f3588b28b94f0809fcc8d717033d3e48 = private unnamed_addr constant [2 x i8] c"\0A\00", align 1
@alloc_4a8993bb0356e27b002537d11665718a = private unnamed_addr constant <{ ptr, [16 x i8] }> <{ ptr @alloc_f5ffd2fd1476bab43ad89fb40c72d0c5, [16 x i8] c"\0A\00\00\00\00\00\00\00\C6\00\00\00\05\00\00\00" }>, align 8
@alloc_6c08595244a958eed82e30ef1b14ef63 = private unnamed_addr constant <{ ptr, [16 x i8] }> <{ ptr @alloc_f5ffd2fd1476bab43ad89fb40c72d0c5, [16 x i8] c"\0A\00\00\00\00\00\00\00\C7\00\00\00\05\00\00\00" }>, align 8
@alloc_275030156dd3f0ed4a995f42ffc25649 = private unnamed_addr constant <{ ptr, [16 x i8] }> <{ ptr @alloc_f5ffd2fd1476bab43ad89fb40c72d0c5, [16 x i8] c"\0A\00\00\00\00\00\00\00\C8\00\00\00\05\00\00\00" }>, align 8
@alloc_27b4cb062837e06e05a9502a5aaa0f85 = private unnamed_addr constant <{ ptr, [16 x i8] }> <{ ptr @alloc_f5ffd2fd1476bab43ad89fb40c72d0c5, [16 x i8] c"\0A\00\00\00\00\00\00\00\C9\00\00\00\05\00\00\00" }>, align 8
@alloc_d033a54681b8919fd7b0752e5dc7d5be = private unnamed_addr constant <{ ptr, [16 x i8] }> <{ ptr @alloc_f5ffd2fd1476bab43ad89fb40c72d0c5, [16 x i8] c"\0A\00\00\00\00\00\00\00\D7\00\00\00\0C\00\00\00" }>, align 8
@alloc_addda128a0e3dcb83ae95ed41b5d84c1 = private unnamed_addr constant <{ ptr, [16 x i8] }> <{ ptr @alloc_f5ffd2fd1476bab43ad89fb40c72d0c5, [16 x i8] c"\0A\00\00\00\00\00\00\00\DB\00\00\00\22\00\00\00" }>, align 8
@alloc_3aee71fa53c298d0a445eba59260342a = private unnamed_addr constant <{ ptr, [16 x i8] }> <{ ptr @alloc_f5ffd2fd1476bab43ad89fb40c72d0c5, [16 x i8] c"\0A\00\00\00\00\00\00\00\DB\00\00\00\16\00\00\00" }>, align 8
@alloc_891bdf050a6ede61d557c3ee5ebeda29 = private unnamed_addr constant <{ ptr, [16 x i8] }> <{ ptr @alloc_f5ffd2fd1476bab43ad89fb40c72d0c5, [16 x i8] c"\0A\00\00\00\00\00\00\00\DF\00\00\00\1E\00\00\00" }>, align 8
@alloc_c9bdbeb54b95c3375b8f6238b2b7e5f9 = private unnamed_addr constant <{ ptr, [16 x i8] }> <{ ptr @alloc_f5ffd2fd1476bab43ad89fb40c72d0c5, [16 x i8] c"\0A\00\00\00\00\00\00\00\DF\00\00\00\11\00\00\00" }>, align 8
@alloc_945c86e5e78f35778fc16e4e1c092e9f = private unnamed_addr constant <{ ptr, [16 x i8] }> <{ ptr @alloc_f5ffd2fd1476bab43ad89fb40c72d0c5, [16 x i8] c"\0A\00\00\00\00\00\00\00\E0\00\00\00\1D\00\00\00" }>, align 8
@alloc_117aa43f0f1bed791a4be81741373e14 = private unnamed_addr constant <{ ptr, [16 x i8] }> <{ ptr @alloc_f5ffd2fd1476bab43ad89fb40c72d0c5, [16 x i8] c"\0A\00\00\00\00\00\00\00\E0\00\00\000\00\00\00" }>, align 8
@alloc_fa5d5e9a09ee90d32021da800cd401a8 = private unnamed_addr constant <{ ptr, [16 x i8] }> <{ ptr @alloc_f5ffd2fd1476bab43ad89fb40c72d0c5, [16 x i8] c"\0A\00\00\00\00\00\00\00\E0\00\00\00\11\00\00\00" }>, align 8
@alloc_80d637b4e0062570da5b57cfa7356d1b = private unnamed_addr constant <{ ptr, [16 x i8] }> <{ ptr @alloc_f5ffd2fd1476bab43ad89fb40c72d0c5, [16 x i8] c"\0A\00\00\00\00\00\00\00\E1\00\00\00\1D\00\00\00" }>, align 8
@alloc_01afd247897fc7de1938d34efbde6743 = private unnamed_addr constant <{ ptr, [16 x i8] }> <{ ptr @alloc_f5ffd2fd1476bab43ad89fb40c72d0c5, [16 x i8] c"\0A\00\00\00\00\00\00\00\E1\00\00\000\00\00\00" }>, align 8
@alloc_caa692e954736fd6fb32a0ee34a4f342 = private unnamed_addr constant <{ ptr, [16 x i8] }> <{ ptr @alloc_f5ffd2fd1476bab43ad89fb40c72d0c5, [16 x i8] c"\0A\00\00\00\00\00\00\00\E1\00\00\00)\00\00\00" }>, align 8
@alloc_7704355faf1b1f9a24b11efa641da2ba = private unnamed_addr constant <{ ptr, [16 x i8] }> <{ ptr @alloc_f5ffd2fd1476bab43ad89fb40c72d0c5, [16 x i8] c"\0A\00\00\00\00\00\00\00\E1\00\00\00\11\00\00\00" }>, align 8
@alloc_7d4e55f816908618c39eec706710025f = private unnamed_addr constant <{ ptr, [16 x i8] }> <{ ptr @alloc_f5ffd2fd1476bab43ad89fb40c72d0c5, [16 x i8] c"\0A\00\00\00\00\00\00\00\E2\00\00\00\11\00\00\00" }>, align 8
@alloc_7cba2cebd1759d8bf6e3b1bb791ab0b2 = private unnamed_addr constant <{ ptr, [16 x i8] }> <{ ptr @alloc_f5ffd2fd1476bab43ad89fb40c72d0c5, [16 x i8] c"\0A\00\00\00\00\00\00\00\E4\00\00\00\1A\00\00\00" }>, align 8
@alloc_53361c05b3903c0ef07c444cbff94b04 = private unnamed_addr constant <{ ptr, [16 x i8] }> <{ ptr @alloc_f5ffd2fd1476bab43ad89fb40c72d0c5, [16 x i8] c"\0A\00\00\00\00\00\00\00\D1\00\00\00\09\00\00\00" }>, align 8

; core::intrinsics::cold_path
; Function Attrs: cold nounwind nonlazybind
define internal void @_ZN4core10intrinsics9cold_path17h43fbe9ff8e1566ceE() unnamed_addr #0 {
start:
  ret void
}

; core::ptr::mut_ptr::<impl *mut T>::offset::precondition_check
; Function Attrs: inlinehint nounwind nonlazybind
define internal void @"_ZN4core3ptr7mut_ptr31_$LT$impl$u20$$BP$mut$u20$T$GT$6offset18precondition_check17h0a6a86d039e3dddeE"(ptr %this, i64 %count, i64 %size) unnamed_addr #1 {
start:
  %0 = call { i64, i1 } @llvm.smul.with.overflow.i64(i64 %count, i64 %size)
  %_10.0 = extractvalue { i64, i1 } %0, 0
  %_10.1 = extractvalue { i64, i1 } %0, 1
  br i1 %_10.1, label %bb3, label %bb5

bb5:                                              ; preds = %start
  %self = ptrtoint ptr %this to i64
  %1 = call { i64, i1 } @llvm.uadd.with.overflow.i64(i64 %self, i64 %_10.0)
  %_19.0 = extractvalue { i64, i1 } %1, 0
  %_19.1 = extractvalue { i64, i1 } %1, 1
  %_17 = icmp slt i64 %_10.0, 0
  %overflow = xor i1 %_19.1, %_17
  %_4 = xor i1 %overflow, true
  br i1 %_4, label %bb1, label %bb2

bb3:                                              ; preds = %start
  br label %bb2

bb2:                                              ; preds = %bb3, %bb5
; call core::panicking::panic_nounwind
  call void @_ZN4core9panicking14panic_nounwind17h211d9ce8d63f12e7E(ptr align 1 @alloc_0ed0763d8bf93ac79247e07858374e35, i64 210) #7
  unreachable

bb1:                                              ; preds = %bb5
  ret void
}

; core::ptr::mut_ptr::<impl *mut T>::is_null
; Function Attrs: inlinehint nounwind nonlazybind
define internal zeroext i1 @"_ZN4core3ptr7mut_ptr31_$LT$impl$u20$$BP$mut$u20$T$GT$7is_null17h00993625381c68b3E"(ptr %self) unnamed_addr #1 {
start:
  %_3 = ptrtoint ptr %self to i64
  %_0 = icmp eq i64 %_3, 0
  ret i1 %_0
}

; core::ptr::mut_ptr::<impl *mut T>::is_null
; Function Attrs: inlinehint nounwind nonlazybind
define internal zeroext i1 @"_ZN4core3ptr7mut_ptr31_$LT$impl$u20$$BP$mut$u20$T$GT$7is_null17h6de96eba1faaf459E"(ptr %self) unnamed_addr #1 {
start:
  %_3 = ptrtoint ptr %self to i64
  %_0 = icmp eq i64 %_3, 0
  ret i1 %_0
}

; Function Attrs: nounwind nonlazybind
define i32 @heap_empty(ptr %heap) unnamed_addr #2 {
start:
  %_5 = ptrtoint ptr %heap to i64
  %_8 = and i64 %_5, 7
  %_9 = icmp eq i64 %_8, 0
  br i1 %_9, label %bb1, label %panic

bb1:                                              ; preds = %start
  %_11 = ptrtoint ptr %heap to i64
  %_14 = icmp eq i64 %_11, 0
  %_15 = and i1 %_14, true
  %_16 = xor i1 %_15, true
  br i1 %_16, label %bb2, label %panic1

panic:                                            ; preds = %start
; call core::panicking::panic_misaligned_pointer_dereference
  call void @_ZN4core9panicking36panic_misaligned_pointer_dereference17hcc3cbded9382b6e5E(i64 8, i64 %_5, ptr align 8 @alloc_3756f2a6fdac19865b2b1f9f39cd660b) #7
  unreachable

bb2:                                              ; preds = %bb1
  %_3 = load i32, ptr %heap, align 8
  %_2 = icmp eq i32 %_3, 0
  %_0 = zext i1 %_2 to i32
  ret i32 %_0

panic1:                                           ; preds = %bb1
; call core::panicking::panic_null_pointer_dereference
  call void @_ZN4core9panicking30panic_null_pointer_dereference17hf718fcc86a223baaE(ptr align 8 @alloc_3756f2a6fdac19865b2b1f9f39cd660b) #7
  unreachable
}

; Function Attrs: nounwind nonlazybind
define void @heap_swap(ptr %heap, i32 %pos1, i32 %pos2) unnamed_addr #2 {
start:
  %_51 = ptrtoint ptr %heap to i64
  %_54 = and i64 %_51, 7
  %_55 = icmp eq i64 %_54, 0
  br i1 %_55, label %bb10, label %panic

bb10:                                             ; preds = %start
  %_57 = ptrtoint ptr %heap to i64
  %_60 = icmp eq i64 %_57, 0
  %_61 = and i1 %_60, true
  %_62 = xor i1 %_61, true
  br i1 %_62, label %bb11, label %panic1

panic:                                            ; preds = %start
; call core::panicking::panic_misaligned_pointer_dereference
  call void @_ZN4core9panicking36panic_misaligned_pointer_dereference17hcc3cbded9382b6e5E(i64 8, i64 %_51, ptr align 8 @alloc_32bd34e292aa7dbc5cb1ce79da125951) #7
  unreachable

bb11:                                             ; preds = %bb10
  %0 = getelementptr inbounds i8, ptr %heap, i64 8
  %_6 = load ptr, ptr %0, align 8
  %_7 = sext i32 %pos1 to i64
; call core::ptr::mut_ptr::<impl *mut T>::offset::precondition_check
  call void @"_ZN4core3ptr7mut_ptr31_$LT$impl$u20$$BP$mut$u20$T$GT$6offset18precondition_check17h0a6a86d039e3dddeE"(ptr %_6, i64 %_7, i64 8) #8
  %_0.i16 = getelementptr inbounds ptr, ptr %_6, i64 %_7
  %_45 = ptrtoint ptr %_0.i16 to i64
  %_48 = and i64 %_45, 7
  %_49 = icmp eq i64 %_48, 0
  br i1 %_49, label %bb9, label %panic2

panic1:                                           ; preds = %bb10
; call core::panicking::panic_null_pointer_dereference
  call void @_ZN4core9panicking30panic_null_pointer_dereference17hf718fcc86a223baaE(ptr align 8 @alloc_32bd34e292aa7dbc5cb1ce79da125951) #7
  unreachable

bb9:                                              ; preds = %bb11
  %_64 = ptrtoint ptr %_0.i16 to i64
  %_67 = icmp eq i64 %_64, 0
  %_68 = and i1 %_67, true
  %_69 = xor i1 %_68, true
  br i1 %_69, label %bb12, label %panic3

panic2:                                           ; preds = %bb11
; call core::panicking::panic_misaligned_pointer_dereference
  call void @_ZN4core9panicking36panic_misaligned_pointer_dereference17hcc3cbded9382b6e5E(i64 8, i64 %_45, ptr align 8 @alloc_f12284404a6874dab4195223856d172b) #7
  unreachable

bb12:                                             ; preds = %bb9
  %tmp = load ptr, ptr %_0.i16, align 8
  %_39 = ptrtoint ptr %heap to i64
  %_42 = and i64 %_39, 7
  %_43 = icmp eq i64 %_42, 0
  br i1 %_43, label %bb8, label %panic4

panic3:                                           ; preds = %bb9
; call core::panicking::panic_null_pointer_dereference
  call void @_ZN4core9panicking30panic_null_pointer_dereference17hf718fcc86a223baaE(ptr align 8 @alloc_f12284404a6874dab4195223856d172b) #7
  unreachable

bb8:                                              ; preds = %bb12
  %_71 = ptrtoint ptr %heap to i64
  %_74 = icmp eq i64 %_71, 0
  %_75 = and i1 %_74, true
  %_76 = xor i1 %_75, true
  br i1 %_76, label %bb13, label %panic5

panic4:                                           ; preds = %bb12
; call core::panicking::panic_misaligned_pointer_dereference
  call void @_ZN4core9panicking36panic_misaligned_pointer_dereference17hcc3cbded9382b6e5E(i64 8, i64 %_39, ptr align 8 @alloc_f830a028667cfd5d54df133ff27533c8) #7
  unreachable

bb13:                                             ; preds = %bb8
  %1 = getelementptr inbounds i8, ptr %heap, i64 8
  %_10 = load ptr, ptr %1, align 8
  %_11 = sext i32 %pos1 to i64
; call core::ptr::mut_ptr::<impl *mut T>::offset::precondition_check
  call void @"_ZN4core3ptr7mut_ptr31_$LT$impl$u20$$BP$mut$u20$T$GT$6offset18precondition_check17h0a6a86d039e3dddeE"(ptr %_10, i64 %_11, i64 8) #8
  %_0.i15 = getelementptr inbounds ptr, ptr %_10, i64 %_11
  %_104 = ptrtoint ptr %_0.i15 to i64
  %_105 = icmp eq i64 %_104, 0
  %_106 = and i1 %_105, true
  %_107 = xor i1 %_106, true
  br i1 %_107, label %bb18, label %panic6

panic5:                                           ; preds = %bb8
; call core::panicking::panic_null_pointer_dereference
  call void @_ZN4core9panicking30panic_null_pointer_dereference17hf718fcc86a223baaE(ptr align 8 @alloc_f830a028667cfd5d54df133ff27533c8) #7
  unreachable

bb18:                                             ; preds = %bb13
  %_33 = ptrtoint ptr %heap to i64
  %_36 = and i64 %_33, 7
  %_37 = icmp eq i64 %_36, 0
  br i1 %_37, label %bb7, label %panic7

panic6:                                           ; preds = %bb13
; call core::panicking::panic_null_pointer_dereference
  call void @_ZN4core9panicking30panic_null_pointer_dereference17hf718fcc86a223baaE(ptr align 8 @alloc_63188e69ffb2521d05f02437e1ad7f52) #7
  unreachable

bb7:                                              ; preds = %bb18
  %_78 = ptrtoint ptr %heap to i64
  %_81 = icmp eq i64 %_78, 0
  %_82 = and i1 %_81, true
  %_83 = xor i1 %_82, true
  br i1 %_83, label %bb14, label %panic8

panic7:                                           ; preds = %bb18
; call core::panicking::panic_misaligned_pointer_dereference
  call void @_ZN4core9panicking36panic_misaligned_pointer_dereference17hcc3cbded9382b6e5E(i64 8, i64 %_33, ptr align 8 @alloc_42942aa8c0966d2e84e270bf357286d8) #7
  unreachable

bb14:                                             ; preds = %bb7
  %2 = getelementptr inbounds i8, ptr %heap, i64 8
  %_14 = load ptr, ptr %2, align 8
  %_15 = sext i32 %pos2 to i64
; call core::ptr::mut_ptr::<impl *mut T>::offset::precondition_check
  call void @"_ZN4core3ptr7mut_ptr31_$LT$impl$u20$$BP$mut$u20$T$GT$6offset18precondition_check17h0a6a86d039e3dddeE"(ptr %_14, i64 %_15, i64 8) #8
  %_0.i14 = getelementptr inbounds ptr, ptr %_14, i64 %_15
  %_27 = ptrtoint ptr %_0.i14 to i64
  %_30 = and i64 %_27, 7
  %_31 = icmp eq i64 %_30, 0
  br i1 %_31, label %bb6, label %panic9

panic8:                                           ; preds = %bb7
; call core::panicking::panic_null_pointer_dereference
  call void @_ZN4core9panicking30panic_null_pointer_dereference17hf718fcc86a223baaE(ptr align 8 @alloc_42942aa8c0966d2e84e270bf357286d8) #7
  unreachable

bb6:                                              ; preds = %bb14
  %_85 = ptrtoint ptr %_0.i14 to i64
  %_88 = icmp eq i64 %_85, 0
  %_89 = and i1 %_88, true
  %_90 = xor i1 %_89, true
  br i1 %_90, label %bb15, label %panic10

panic9:                                           ; preds = %bb14
; call core::panicking::panic_misaligned_pointer_dereference
  call void @_ZN4core9panicking36panic_misaligned_pointer_dereference17hcc3cbded9382b6e5E(i64 8, i64 %_27, ptr align 8 @alloc_2585e7a34909323d5bbace81f38ea89f) #7
  unreachable

bb15:                                             ; preds = %bb6
  %_12 = load ptr, ptr %_0.i14, align 8
  store ptr %_12, ptr %_0.i15, align 8
  %_21 = ptrtoint ptr %heap to i64
  %_24 = and i64 %_21, 7
  %_25 = icmp eq i64 %_24, 0
  br i1 %_25, label %bb5, label %panic11

panic10:                                          ; preds = %bb6
; call core::panicking::panic_null_pointer_dereference
  call void @_ZN4core9panicking30panic_null_pointer_dereference17hf718fcc86a223baaE(ptr align 8 @alloc_2585e7a34909323d5bbace81f38ea89f) #7
  unreachable

bb5:                                              ; preds = %bb15
  %_92 = ptrtoint ptr %heap to i64
  %_95 = icmp eq i64 %_92, 0
  %_96 = and i1 %_95, true
  %_97 = xor i1 %_96, true
  br i1 %_97, label %bb16, label %panic12

panic11:                                          ; preds = %bb15
; call core::panicking::panic_misaligned_pointer_dereference
  call void @_ZN4core9panicking36panic_misaligned_pointer_dereference17hcc3cbded9382b6e5E(i64 8, i64 %_21, ptr align 8 @alloc_23cf98fd9ce131a1e731d1c3ebcf322b) #7
  unreachable

bb16:                                             ; preds = %bb5
  %3 = getelementptr inbounds i8, ptr %heap, i64 8
  %_18 = load ptr, ptr %3, align 8
  %_19 = sext i32 %pos2 to i64
; call core::ptr::mut_ptr::<impl *mut T>::offset::precondition_check
  call void @"_ZN4core3ptr7mut_ptr31_$LT$impl$u20$$BP$mut$u20$T$GT$6offset18precondition_check17h0a6a86d039e3dddeE"(ptr %_18, i64 %_19, i64 8) #8
  %_0.i = getelementptr inbounds ptr, ptr %_18, i64 %_19
  %_99 = ptrtoint ptr %_0.i to i64
  %_100 = icmp eq i64 %_99, 0
  %_101 = and i1 %_100, true
  %_102 = xor i1 %_101, true
  br i1 %_102, label %bb17, label %panic13

panic12:                                          ; preds = %bb5
; call core::panicking::panic_null_pointer_dereference
  call void @_ZN4core9panicking30panic_null_pointer_dereference17hf718fcc86a223baaE(ptr align 8 @alloc_23cf98fd9ce131a1e731d1c3ebcf322b) #7
  unreachable

bb17:                                             ; preds = %bb16
  store ptr %tmp, ptr %_0.i, align 8
  ret void

panic13:                                          ; preds = %bb16
; call core::panicking::panic_null_pointer_dereference
  call void @_ZN4core9panicking30panic_null_pointer_dereference17hf718fcc86a223baaE(ptr align 8 @alloc_54661a6bf4c4c14d833e867732f015c6) #7
  unreachable
}

; Function Attrs: nounwind nonlazybind
define void @heap_hold(ptr %heap, i32 %pos) unnamed_addr #2 {
start:
  %minpos = alloca [4 x i8], align 4
  %_4 = mul i32 2, %pos
  %left = add i32 %_4, 1
  %_6 = mul i32 2, %pos
  %right = add i32 %_6, 2
  store i32 %pos, ptr %minpos, align 4
  %_97 = ptrtoint ptr %heap to i64
  %_100 = and i64 %_97, 7
  %_101 = icmp eq i64 %_100, 0
  br i1 %_101, label %bb23, label %panic

bb23:                                             ; preds = %start
  %_103 = ptrtoint ptr %heap to i64
  %_106 = icmp eq i64 %_103, 0
  %_107 = and i1 %_106, true
  %_108 = xor i1 %_107, true
  br i1 %_108, label %bb24, label %panic1

panic:                                            ; preds = %start
; call core::panicking::panic_misaligned_pointer_dereference
  call void @_ZN4core9panicking36panic_misaligned_pointer_dereference17hcc3cbded9382b6e5E(i64 8, i64 %_97, ptr align 8 @alloc_e6c41fffa8a8de897a1b7bbeed5779e3) #7
  unreachable

bb24:                                             ; preds = %bb23
  %_9 = load i32, ptr %heap, align 8
  %_8 = icmp slt i32 %right, %_9
  br i1 %_8, label %bb1, label %bb5

panic1:                                           ; preds = %bb23
; call core::panicking::panic_null_pointer_dereference
  call void @_ZN4core9panicking30panic_null_pointer_dereference17hf718fcc86a223baaE(ptr align 8 @alloc_e6c41fffa8a8de897a1b7bbeed5779e3) #7
  unreachable

bb5:                                              ; preds = %bb4, %bb28, %bb24
  %_67 = ptrtoint ptr %heap to i64
  %_70 = and i64 %_67, 7
  %_71 = icmp eq i64 %_70, 0
  br i1 %_71, label %bb18, label %panic10

bb1:                                              ; preds = %bb24
  %_91 = ptrtoint ptr %heap to i64
  %_94 = and i64 %_91, 7
  %_95 = icmp eq i64 %_94, 0
  br i1 %_95, label %bb22, label %panic2

bb22:                                             ; preds = %bb1
  %_110 = ptrtoint ptr %heap to i64
  %_113 = icmp eq i64 %_110, 0
  %_114 = and i1 %_113, true
  %_115 = xor i1 %_114, true
  br i1 %_115, label %bb25, label %panic3

panic2:                                           ; preds = %bb1
; call core::panicking::panic_misaligned_pointer_dereference
  call void @_ZN4core9panicking36panic_misaligned_pointer_dereference17hcc3cbded9382b6e5E(i64 8, i64 %_91, ptr align 8 @alloc_1d228fcff3e4d7370127d1bd2fc0d23c) #7
  unreachable

bb25:                                             ; preds = %bb22
  %0 = getelementptr inbounds i8, ptr %heap, i64 8
  %_13 = load ptr, ptr %0, align 8
  %_14 = sext i32 %right to i64
; call core::ptr::mut_ptr::<impl *mut T>::offset::precondition_check
  call void @"_ZN4core3ptr7mut_ptr31_$LT$impl$u20$$BP$mut$u20$T$GT$6offset18precondition_check17h0a6a86d039e3dddeE"(ptr %_13, i64 %_14, i64 8) #8
  %_0.i22 = getelementptr inbounds ptr, ptr %_13, i64 %_14
  %_38 = load ptr, ptr %_0.i22, align 8
  %_85 = ptrtoint ptr %_38 to i64
  %_88 = and i64 %_85, 7
  %_89 = icmp eq i64 %_88, 0
  br i1 %_89, label %bb21, label %panic4

panic3:                                           ; preds = %bb22
; call core::panicking::panic_null_pointer_dereference
  call void @_ZN4core9panicking30panic_null_pointer_dereference17hf718fcc86a223baaE(ptr align 8 @alloc_1d228fcff3e4d7370127d1bd2fc0d23c) #7
  unreachable

bb21:                                             ; preds = %bb25
  %_117 = ptrtoint ptr %_38 to i64
  %_120 = icmp eq i64 %_117, 0
  %_121 = and i1 %_120, true
  %_122 = xor i1 %_121, true
  br i1 %_122, label %bb26, label %panic5

panic4:                                           ; preds = %bb25
; call core::panicking::panic_misaligned_pointer_dereference
  call void @_ZN4core9panicking36panic_misaligned_pointer_dereference17hcc3cbded9382b6e5E(i64 8, i64 %_85, ptr align 8 @alloc_52ec6808e7478eb5c21ceaaf176e7ea8) #7
  unreachable

bb26:                                             ; preds = %bb21
  %1 = getelementptr inbounds i8, ptr %_38, i64 4
  %_11 = load i32, ptr %1, align 4
  %_79 = ptrtoint ptr %heap to i64
  %_82 = and i64 %_79, 7
  %_83 = icmp eq i64 %_82, 0
  br i1 %_83, label %bb20, label %panic6

panic5:                                           ; preds = %bb21
; call core::panicking::panic_null_pointer_dereference
  call void @_ZN4core9panicking30panic_null_pointer_dereference17hf718fcc86a223baaE(ptr align 8 @alloc_52ec6808e7478eb5c21ceaaf176e7ea8) #7
  unreachable

bb20:                                             ; preds = %bb26
  %_124 = ptrtoint ptr %heap to i64
  %_127 = icmp eq i64 %_124, 0
  %_128 = and i1 %_127, true
  %_129 = xor i1 %_128, true
  br i1 %_129, label %bb27, label %panic7

panic6:                                           ; preds = %bb26
; call core::panicking::panic_misaligned_pointer_dereference
  call void @_ZN4core9panicking36panic_misaligned_pointer_dereference17hcc3cbded9382b6e5E(i64 8, i64 %_79, ptr align 8 @alloc_e233e8e565fc3d1ff2224857227b5adc) #7
  unreachable

bb27:                                             ; preds = %bb20
  %2 = getelementptr inbounds i8, ptr %heap, i64 8
  %_17 = load ptr, ptr %2, align 8
  %_19 = load i32, ptr %minpos, align 4
  %_18 = sext i32 %_19 to i64
; call core::ptr::mut_ptr::<impl *mut T>::offset::precondition_check
  call void @"_ZN4core3ptr7mut_ptr31_$LT$impl$u20$$BP$mut$u20$T$GT$6offset18precondition_check17h0a6a86d039e3dddeE"(ptr %_17, i64 %_18, i64 8) #8
  %_0.i21 = getelementptr inbounds ptr, ptr %_17, i64 %_18
  %_39 = load ptr, ptr %_0.i21, align 8
  %_73 = ptrtoint ptr %_39 to i64
  %_76 = and i64 %_73, 7
  %_77 = icmp eq i64 %_76, 0
  br i1 %_77, label %bb19, label %panic8

panic7:                                           ; preds = %bb20
; call core::panicking::panic_null_pointer_dereference
  call void @_ZN4core9panicking30panic_null_pointer_dereference17hf718fcc86a223baaE(ptr align 8 @alloc_e233e8e565fc3d1ff2224857227b5adc) #7
  unreachable

bb19:                                             ; preds = %bb27
  %_131 = ptrtoint ptr %_39 to i64
  %_134 = icmp eq i64 %_131, 0
  %_135 = and i1 %_134, true
  %_136 = xor i1 %_135, true
  br i1 %_136, label %bb28, label %panic9

panic8:                                           ; preds = %bb27
; call core::panicking::panic_misaligned_pointer_dereference
  call void @_ZN4core9panicking36panic_misaligned_pointer_dereference17hcc3cbded9382b6e5E(i64 8, i64 %_73, ptr align 8 @alloc_a3ec9be7e117f4309e0a429974ad2022) #7
  unreachable

bb28:                                             ; preds = %bb19
  %3 = getelementptr inbounds i8, ptr %_39, i64 4
  %_15 = load i32, ptr %3, align 4
  %_10 = icmp slt i32 %_11, %_15
  br i1 %_10, label %bb4, label %bb5

panic9:                                           ; preds = %bb19
; call core::panicking::panic_null_pointer_dereference
  call void @_ZN4core9panicking30panic_null_pointer_dereference17hf718fcc86a223baaE(ptr align 8 @alloc_a3ec9be7e117f4309e0a429974ad2022) #7
  unreachable

bb4:                                              ; preds = %bb28
  store i32 %right, ptr %minpos, align 4
  br label %bb5

bb18:                                             ; preds = %bb5
  %_138 = ptrtoint ptr %heap to i64
  %_141 = icmp eq i64 %_138, 0
  %_142 = and i1 %_141, true
  %_143 = xor i1 %_142, true
  br i1 %_143, label %bb29, label %panic11

panic10:                                          ; preds = %bb5
; call core::panicking::panic_misaligned_pointer_dereference
  call void @_ZN4core9panicking36panic_misaligned_pointer_dereference17hcc3cbded9382b6e5E(i64 8, i64 %_67, ptr align 8 @alloc_2f8634760784bdab8d450ddc5940e55b) #7
  unreachable

bb29:                                             ; preds = %bb18
  %_21 = load i32, ptr %heap, align 8
  %_20 = icmp slt i32 %left, %_21
  br i1 %_20, label %bb6, label %bb10

panic11:                                          ; preds = %bb18
; call core::panicking::panic_null_pointer_dereference
  call void @_ZN4core9panicking30panic_null_pointer_dereference17hf718fcc86a223baaE(ptr align 8 @alloc_2f8634760784bdab8d450ddc5940e55b) #7
  unreachable

bb10:                                             ; preds = %bb9, %bb33, %bb29
  %_33 = load i32, ptr %minpos, align 4
  %_32 = icmp ne i32 %_33, %pos
  br i1 %_32, label %bb11, label %bb13

bb6:                                              ; preds = %bb29
  %_61 = ptrtoint ptr %heap to i64
  %_64 = and i64 %_61, 7
  %_65 = icmp eq i64 %_64, 0
  br i1 %_65, label %bb17, label %panic12

bb17:                                             ; preds = %bb6
  %_145 = ptrtoint ptr %heap to i64
  %_148 = icmp eq i64 %_145, 0
  %_149 = and i1 %_148, true
  %_150 = xor i1 %_149, true
  br i1 %_150, label %bb30, label %panic13

panic12:                                          ; preds = %bb6
; call core::panicking::panic_misaligned_pointer_dereference
  call void @_ZN4core9panicking36panic_misaligned_pointer_dereference17hcc3cbded9382b6e5E(i64 8, i64 %_61, ptr align 8 @alloc_b11d739c13bd99152630cd066eb15a20) #7
  unreachable

bb30:                                             ; preds = %bb17
  %4 = getelementptr inbounds i8, ptr %heap, i64 8
  %_25 = load ptr, ptr %4, align 8
  %_26 = sext i32 %left to i64
; call core::ptr::mut_ptr::<impl *mut T>::offset::precondition_check
  call void @"_ZN4core3ptr7mut_ptr31_$LT$impl$u20$$BP$mut$u20$T$GT$6offset18precondition_check17h0a6a86d039e3dddeE"(ptr %_25, i64 %_26, i64 8) #8
  %_0.i20 = getelementptr inbounds ptr, ptr %_25, i64 %_26
  %_40 = load ptr, ptr %_0.i20, align 8
  %_55 = ptrtoint ptr %_40 to i64
  %_58 = and i64 %_55, 7
  %_59 = icmp eq i64 %_58, 0
  br i1 %_59, label %bb16, label %panic14

panic13:                                          ; preds = %bb17
; call core::panicking::panic_null_pointer_dereference
  call void @_ZN4core9panicking30panic_null_pointer_dereference17hf718fcc86a223baaE(ptr align 8 @alloc_b11d739c13bd99152630cd066eb15a20) #7
  unreachable

bb16:                                             ; preds = %bb30
  %_152 = ptrtoint ptr %_40 to i64
  %_155 = icmp eq i64 %_152, 0
  %_156 = and i1 %_155, true
  %_157 = xor i1 %_156, true
  br i1 %_157, label %bb31, label %panic15

panic14:                                          ; preds = %bb30
; call core::panicking::panic_misaligned_pointer_dereference
  call void @_ZN4core9panicking36panic_misaligned_pointer_dereference17hcc3cbded9382b6e5E(i64 8, i64 %_55, ptr align 8 @alloc_ec40ccda9e1f90f1fc6e04d7d1f47049) #7
  unreachable

bb31:                                             ; preds = %bb16
  %5 = getelementptr inbounds i8, ptr %_40, i64 4
  %_23 = load i32, ptr %5, align 4
  %_49 = ptrtoint ptr %heap to i64
  %_52 = and i64 %_49, 7
  %_53 = icmp eq i64 %_52, 0
  br i1 %_53, label %bb15, label %panic16

panic15:                                          ; preds = %bb16
; call core::panicking::panic_null_pointer_dereference
  call void @_ZN4core9panicking30panic_null_pointer_dereference17hf718fcc86a223baaE(ptr align 8 @alloc_ec40ccda9e1f90f1fc6e04d7d1f47049) #7
  unreachable

bb15:                                             ; preds = %bb31
  %_159 = ptrtoint ptr %heap to i64
  %_162 = icmp eq i64 %_159, 0
  %_163 = and i1 %_162, true
  %_164 = xor i1 %_163, true
  br i1 %_164, label %bb32, label %panic17

panic16:                                          ; preds = %bb31
; call core::panicking::panic_misaligned_pointer_dereference
  call void @_ZN4core9panicking36panic_misaligned_pointer_dereference17hcc3cbded9382b6e5E(i64 8, i64 %_49, ptr align 8 @alloc_fa5e2d843a4096e6344baead149e0da5) #7
  unreachable

bb32:                                             ; preds = %bb15
  %6 = getelementptr inbounds i8, ptr %heap, i64 8
  %_29 = load ptr, ptr %6, align 8
  %_31 = load i32, ptr %minpos, align 4
  %_30 = sext i32 %_31 to i64
; call core::ptr::mut_ptr::<impl *mut T>::offset::precondition_check
  call void @"_ZN4core3ptr7mut_ptr31_$LT$impl$u20$$BP$mut$u20$T$GT$6offset18precondition_check17h0a6a86d039e3dddeE"(ptr %_29, i64 %_30, i64 8) #8
  %_0.i = getelementptr inbounds ptr, ptr %_29, i64 %_30
  %_41 = load ptr, ptr %_0.i, align 8
  %_43 = ptrtoint ptr %_41 to i64
  %_46 = and i64 %_43, 7
  %_47 = icmp eq i64 %_46, 0
  br i1 %_47, label %bb14, label %panic18

panic17:                                          ; preds = %bb15
; call core::panicking::panic_null_pointer_dereference
  call void @_ZN4core9panicking30panic_null_pointer_dereference17hf718fcc86a223baaE(ptr align 8 @alloc_fa5e2d843a4096e6344baead149e0da5) #7
  unreachable

bb14:                                             ; preds = %bb32
  %_166 = ptrtoint ptr %_41 to i64
  %_169 = icmp eq i64 %_166, 0
  %_170 = and i1 %_169, true
  %_171 = xor i1 %_170, true
  br i1 %_171, label %bb33, label %panic19

panic18:                                          ; preds = %bb32
; call core::panicking::panic_misaligned_pointer_dereference
  call void @_ZN4core9panicking36panic_misaligned_pointer_dereference17hcc3cbded9382b6e5E(i64 8, i64 %_43, ptr align 8 @alloc_251668794411f0c3b483d850a250e701) #7
  unreachable

bb33:                                             ; preds = %bb14
  %7 = getelementptr inbounds i8, ptr %_41, i64 4
  %_27 = load i32, ptr %7, align 4
  %_22 = icmp slt i32 %_23, %_27
  br i1 %_22, label %bb9, label %bb10

panic19:                                          ; preds = %bb14
; call core::panicking::panic_null_pointer_dereference
  call void @_ZN4core9panicking30panic_null_pointer_dereference17hf718fcc86a223baaE(ptr align 8 @alloc_251668794411f0c3b483d850a250e701) #7
  unreachable

bb9:                                              ; preds = %bb33
  store i32 %left, ptr %minpos, align 4
  br label %bb10

bb13:                                             ; preds = %bb11, %bb10
  ret void

bb11:                                             ; preds = %bb10
  %_35 = load i32, ptr %minpos, align 4
  call void @heap_swap(ptr %heap, i32 %_35, i32 %pos) #8
  %_37 = load i32, ptr %minpos, align 4
  call void @heap_hold(ptr %heap, i32 %_37) #8
  br label %bb13
}

; Function Attrs: nounwind nonlazybind
define ptr @init_heap() unnamed_addr #2 {
start:
  %_1 = call ptr @malloc(i64 16) #8
  %_29 = ptrtoint ptr %_1 to i64
  %_32 = and i64 %_29, 7
  %_33 = icmp eq i64 %_32, 0
  br i1 %_33, label %bb9, label %panic

bb9:                                              ; preds = %start
  %_35 = ptrtoint ptr %_1 to i64
  %_38 = icmp eq i64 %_35, 0
  %_39 = and i1 %_38, true
  %_40 = xor i1 %_39, true
  br i1 %_40, label %bb10, label %panic1

panic:                                            ; preds = %start
; call core::panicking::panic_misaligned_pointer_dereference
  call void @_ZN4core9panicking36panic_misaligned_pointer_dereference17hcc3cbded9382b6e5E(i64 8, i64 %_29, ptr align 8 @alloc_7ebff165463d26610c59f877914f7a2f) #7
  unreachable

bb10:                                             ; preds = %bb9
  store i32 0, ptr %_1, align 8
  %_23 = ptrtoint ptr %_1 to i64
  %_26 = and i64 %_23, 7
  %_27 = icmp eq i64 %_26, 0
  br i1 %_27, label %bb8, label %panic2

panic1:                                           ; preds = %bb9
; call core::panicking::panic_null_pointer_dereference
  call void @_ZN4core9panicking30panic_null_pointer_dereference17hf718fcc86a223baaE(ptr align 8 @alloc_7ebff165463d26610c59f877914f7a2f) #7
  unreachable

bb8:                                              ; preds = %bb10
  %_42 = ptrtoint ptr %_1 to i64
  %_45 = icmp eq i64 %_42, 0
  %_46 = and i1 %_45, true
  %_47 = xor i1 %_46, true
  br i1 %_47, label %bb11, label %panic3

panic2:                                           ; preds = %bb10
; call core::panicking::panic_misaligned_pointer_dereference
  call void @_ZN4core9panicking36panic_misaligned_pointer_dereference17hcc3cbded9382b6e5E(i64 8, i64 %_23, ptr align 8 @alloc_4dc9d9ad7a45d2b5b4b18d2f05142242) #7
  unreachable

bb11:                                             ; preds = %bb8
  %0 = getelementptr inbounds i8, ptr %_1, i64 4
  store i32 100, ptr %0, align 4
  %_17 = ptrtoint ptr %_1 to i64
  %_20 = and i64 %_17, 7
  %_21 = icmp eq i64 %_20, 0
  br i1 %_21, label %bb7, label %panic4

panic3:                                           ; preds = %bb8
; call core::panicking::panic_null_pointer_dereference
  call void @_ZN4core9panicking30panic_null_pointer_dereference17hf718fcc86a223baaE(ptr align 8 @alloc_4dc9d9ad7a45d2b5b4b18d2f05142242) #7
  unreachable

bb7:                                              ; preds = %bb11
  %_49 = ptrtoint ptr %_1 to i64
  %_52 = icmp eq i64 %_49, 0
  %_53 = and i1 %_52, true
  %_54 = xor i1 %_53, true
  br i1 %_54, label %bb12, label %panic5

panic4:                                           ; preds = %bb11
; call core::panicking::panic_misaligned_pointer_dereference
  call void @_ZN4core9panicking36panic_misaligned_pointer_dereference17hcc3cbded9382b6e5E(i64 8, i64 %_17, ptr align 8 @alloc_ed86ca8c7ba1a0e8f18c4a31a2dbcd0c) #7
  unreachable

bb12:                                             ; preds = %bb7
  %1 = getelementptr inbounds i8, ptr %_1, i64 4
  %_9 = load i32, ptr %1, align 4
  %_8 = sext i32 %_9 to i64
  %_0.i = mul i64 8, %_8
  %_4 = call ptr @malloc(i64 %_0.i) #8
  %_11 = ptrtoint ptr %_1 to i64
  %_14 = and i64 %_11, 7
  %_15 = icmp eq i64 %_14, 0
  br i1 %_15, label %bb6, label %panic6

panic5:                                           ; preds = %bb7
; call core::panicking::panic_null_pointer_dereference
  call void @_ZN4core9panicking30panic_null_pointer_dereference17hf718fcc86a223baaE(ptr align 8 @alloc_ed86ca8c7ba1a0e8f18c4a31a2dbcd0c) #7
  unreachable

bb6:                                              ; preds = %bb12
  %_56 = ptrtoint ptr %_1 to i64
  %_59 = icmp eq i64 %_56, 0
  %_60 = and i1 %_59, true
  %_61 = xor i1 %_60, true
  br i1 %_61, label %bb13, label %panic7

panic6:                                           ; preds = %bb12
; call core::panicking::panic_misaligned_pointer_dereference
  call void @_ZN4core9panicking36panic_misaligned_pointer_dereference17hcc3cbded9382b6e5E(i64 8, i64 %_11, ptr align 8 @alloc_158cd7a8450781746e6b2baa76967723) #7
  unreachable

bb13:                                             ; preds = %bb6
  %2 = getelementptr inbounds i8, ptr %_1, i64 8
  store ptr %_4, ptr %2, align 8
  ret ptr %_1

panic7:                                           ; preds = %bb6
; call core::panicking::panic_null_pointer_dereference
  call void @_ZN4core9panicking30panic_null_pointer_dereference17hf718fcc86a223baaE(ptr align 8 @alloc_158cd7a8450781746e6b2baa76967723) #7
  unreachable
}

; Function Attrs: nounwind nonlazybind
define void @insert_heap(ptr %heap, ptr %new) unnamed_addr #2 {
start:
  %parent = alloca [4 x i8], align 4
  %_82 = ptrtoint ptr %heap to i64
  %_85 = and i64 %_82, 7
  %_86 = icmp eq i64 %_85, 0
  br i1 %_86, label %bb18, label %panic

bb18:                                             ; preds = %start
  %_88 = ptrtoint ptr %heap to i64
  %_91 = icmp eq i64 %_88, 0
  %_92 = and i1 %_91, true
  %_93 = xor i1 %_92, true
  br i1 %_93, label %bb19, label %panic1

panic:                                            ; preds = %start
; call core::panicking::panic_misaligned_pointer_dereference
  call void @_ZN4core9panicking36panic_misaligned_pointer_dereference17hcc3cbded9382b6e5E(i64 8, i64 %_82, ptr align 8 @alloc_621195beb10a85c126b308305e1571d8) #7
  unreachable

bb19:                                             ; preds = %bb18
  %currentpos = load i32, ptr %heap, align 8
  store i32 0, ptr %parent, align 4
  %_76 = ptrtoint ptr %heap to i64
  %_79 = and i64 %_76, 7
  %_80 = icmp eq i64 %_79, 0
  br i1 %_80, label %bb17, label %panic2

panic1:                                           ; preds = %bb18
; call core::panicking::panic_null_pointer_dereference
  call void @_ZN4core9panicking30panic_null_pointer_dereference17hf718fcc86a223baaE(ptr align 8 @alloc_621195beb10a85c126b308305e1571d8) #7
  unreachable

bb17:                                             ; preds = %bb19
  %_95 = ptrtoint ptr %heap to i64
  %_98 = icmp eq i64 %_95, 0
  %_99 = and i1 %_98, true
  %_100 = xor i1 %_99, true
  br i1 %_100, label %bb20, label %panic3

panic2:                                           ; preds = %bb19
; call core::panicking::panic_misaligned_pointer_dereference
  call void @_ZN4core9panicking36panic_misaligned_pointer_dereference17hcc3cbded9382b6e5E(i64 8, i64 %_76, ptr align 8 @alloc_52d4008dfc34a8928d7ca0d75832fac2) #7
  unreachable

bb20:                                             ; preds = %bb17
  %fresh2 = load i32, ptr %heap, align 8
  %_70 = ptrtoint ptr %heap to i64
  %_73 = and i64 %_70, 7
  %_74 = icmp eq i64 %_73, 0
  br i1 %_74, label %bb16, label %panic4

panic3:                                           ; preds = %bb17
; call core::panicking::panic_null_pointer_dereference
  call void @_ZN4core9panicking30panic_null_pointer_dereference17hf718fcc86a223baaE(ptr align 8 @alloc_52d4008dfc34a8928d7ca0d75832fac2) #7
  unreachable

bb16:                                             ; preds = %bb20
  %_102 = ptrtoint ptr %heap to i64
  %_105 = icmp eq i64 %_102, 0
  %_106 = and i1 %_105, true
  %_107 = xor i1 %_106, true
  br i1 %_107, label %bb21, label %panic5

panic4:                                           ; preds = %bb20
; call core::panicking::panic_misaligned_pointer_dereference
  call void @_ZN4core9panicking36panic_misaligned_pointer_dereference17hcc3cbded9382b6e5E(i64 8, i64 %_70, ptr align 8 @alloc_243e1283b6f9cab81a03fda05c13a614) #7
  unreachable

bb21:                                             ; preds = %bb16
  %_6 = load i32, ptr %heap, align 8
  %_64 = ptrtoint ptr %heap to i64
  %_67 = and i64 %_64, 7
  %_68 = icmp eq i64 %_67, 0
  br i1 %_68, label %bb15, label %panic6

panic5:                                           ; preds = %bb16
; call core::panicking::panic_null_pointer_dereference
  call void @_ZN4core9panicking30panic_null_pointer_dereference17hf718fcc86a223baaE(ptr align 8 @alloc_243e1283b6f9cab81a03fda05c13a614) #7
  unreachable

bb15:                                             ; preds = %bb21
  %_109 = ptrtoint ptr %heap to i64
  %_112 = icmp eq i64 %_109, 0
  %_113 = and i1 %_112, true
  %_114 = xor i1 %_113, true
  br i1 %_114, label %bb22, label %panic7

panic6:                                           ; preds = %bb21
; call core::panicking::panic_misaligned_pointer_dereference
  call void @_ZN4core9panicking36panic_misaligned_pointer_dereference17hcc3cbded9382b6e5E(i64 8, i64 %_64, ptr align 8 @alloc_a7719f03fef2466a9c2c85bc9a7335b9) #7
  unreachable

bb22:                                             ; preds = %bb15
  %0 = add i32 %_6, 1
  store i32 %0, ptr %heap, align 8
  %_58 = ptrtoint ptr %heap to i64
  %_61 = and i64 %_58, 7
  %_62 = icmp eq i64 %_61, 0
  br i1 %_62, label %bb14, label %panic8

panic7:                                           ; preds = %bb15
; call core::panicking::panic_null_pointer_dereference
  call void @_ZN4core9panicking30panic_null_pointer_dereference17hf718fcc86a223baaE(ptr align 8 @alloc_a7719f03fef2466a9c2c85bc9a7335b9) #7
  unreachable

bb14:                                             ; preds = %bb22
  %_116 = ptrtoint ptr %heap to i64
  %_119 = icmp eq i64 %_116, 0
  %_120 = and i1 %_119, true
  %_121 = xor i1 %_120, true
  br i1 %_121, label %bb23, label %panic9

panic8:                                           ; preds = %bb22
; call core::panicking::panic_misaligned_pointer_dereference
  call void @_ZN4core9panicking36panic_misaligned_pointer_dereference17hcc3cbded9382b6e5E(i64 8, i64 %_58, ptr align 8 @alloc_6a45d8a6b25b25955b1ee1434ae8a861) #7
  unreachable

bb23:                                             ; preds = %bb14
  %1 = getelementptr inbounds i8, ptr %heap, i64 8
  %_9 = load ptr, ptr %1, align 8
  %_10 = sext i32 %fresh2 to i64
; call core::ptr::mut_ptr::<impl *mut T>::offset::precondition_check
  call void @"_ZN4core3ptr7mut_ptr31_$LT$impl$u20$$BP$mut$u20$T$GT$6offset18precondition_check17h0a6a86d039e3dddeE"(ptr %_9, i64 %_10, i64 8) #8
  %_0.i21 = getelementptr inbounds ptr, ptr %_9, i64 %_10
  %_151 = ptrtoint ptr %_0.i21 to i64
  %_152 = icmp eq i64 %_151, 0
  %_153 = and i1 %_152, true
  %_154 = xor i1 %_153, true
  br i1 %_154, label %bb28, label %panic10

panic9:                                           ; preds = %bb14
; call core::panicking::panic_null_pointer_dereference
  call void @_ZN4core9panicking30panic_null_pointer_dereference17hf718fcc86a223baaE(ptr align 8 @alloc_6a45d8a6b25b25955b1ee1434ae8a861) #7
  unreachable

bb28:                                             ; preds = %bb23
  store ptr %new, ptr %_0.i21, align 8
  br label %bb2

panic10:                                          ; preds = %bb23
; call core::panicking::panic_null_pointer_dereference
  call void @_ZN4core9panicking30panic_null_pointer_dereference17hf718fcc86a223baaE(ptr align 8 @alloc_a9ddb910048728d8cde68c8a68ffcb43) #7
  unreachable

bb2:                                              ; preds = %bb8, %bb28
  %_11 = sub i32 %currentpos, 1
  %_15 = icmp eq i32 %_11, -2147483648
  %_16 = and i1 false, %_15
  br i1 %_16, label %panic11, label %bb4

bb4:                                              ; preds = %bb2
  %2 = sdiv i32 %_11, 2
  store i32 %2, ptr %parent, align 4
  %_18 = load i32, ptr %parent, align 4
  %_17 = icmp sge i32 %_18, 0
  br i1 %_17, label %bb5, label %bb9

panic11:                                          ; preds = %bb2
; call core::panicking::panic_const::panic_const_div_overflow
  call void @_ZN4core9panicking11panic_const24panic_const_div_overflow17h1ac73c9e33e18298E(ptr align 8 @alloc_c780f4010b0084b32cb7c367f8422337) #7
  unreachable

bb9:                                              ; preds = %bb27, %bb4
  ret void

bb5:                                              ; preds = %bb4
  %_52 = ptrtoint ptr %heap to i64
  %_55 = and i64 %_52, 7
  %_56 = icmp eq i64 %_55, 0
  br i1 %_56, label %bb13, label %panic12

bb13:                                             ; preds = %bb5
  %_123 = ptrtoint ptr %heap to i64
  %_126 = icmp eq i64 %_123, 0
  %_127 = and i1 %_126, true
  %_128 = xor i1 %_127, true
  br i1 %_128, label %bb24, label %panic13

panic12:                                          ; preds = %bb5
; call core::panicking::panic_misaligned_pointer_dereference
  call void @_ZN4core9panicking36panic_misaligned_pointer_dereference17hcc3cbded9382b6e5E(i64 8, i64 %_52, ptr align 8 @alloc_0a034e83c515461875582c93531b2988) #7
  unreachable

bb24:                                             ; preds = %bb13
  %3 = getelementptr inbounds i8, ptr %heap, i64 8
  %_22 = load ptr, ptr %3, align 8
  %_23 = sext i32 %currentpos to i64
; call core::ptr::mut_ptr::<impl *mut T>::offset::precondition_check
  call void @"_ZN4core3ptr7mut_ptr31_$LT$impl$u20$$BP$mut$u20$T$GT$6offset18precondition_check17h0a6a86d039e3dddeE"(ptr %_22, i64 %_23, i64 8) #8
  %_0.i20 = getelementptr inbounds ptr, ptr %_22, i64 %_23
  %_31 = load ptr, ptr %_0.i20, align 8
  %_46 = ptrtoint ptr %_31 to i64
  %_49 = and i64 %_46, 7
  %_50 = icmp eq i64 %_49, 0
  br i1 %_50, label %bb12, label %panic14

panic13:                                          ; preds = %bb13
; call core::panicking::panic_null_pointer_dereference
  call void @_ZN4core9panicking30panic_null_pointer_dereference17hf718fcc86a223baaE(ptr align 8 @alloc_0a034e83c515461875582c93531b2988) #7
  unreachable

bb12:                                             ; preds = %bb24
  %_130 = ptrtoint ptr %_31 to i64
  %_133 = icmp eq i64 %_130, 0
  %_134 = and i1 %_133, true
  %_135 = xor i1 %_134, true
  br i1 %_135, label %bb25, label %panic15

panic14:                                          ; preds = %bb24
; call core::panicking::panic_misaligned_pointer_dereference
  call void @_ZN4core9panicking36panic_misaligned_pointer_dereference17hcc3cbded9382b6e5E(i64 8, i64 %_46, ptr align 8 @alloc_a6a8a15d99d2f9a899c456107d3ab757) #7
  unreachable

bb25:                                             ; preds = %bb12
  %4 = getelementptr inbounds i8, ptr %_31, i64 4
  %_20 = load i32, ptr %4, align 4
  %_40 = ptrtoint ptr %heap to i64
  %_43 = and i64 %_40, 7
  %_44 = icmp eq i64 %_43, 0
  br i1 %_44, label %bb11, label %panic16

panic15:                                          ; preds = %bb12
; call core::panicking::panic_null_pointer_dereference
  call void @_ZN4core9panicking30panic_null_pointer_dereference17hf718fcc86a223baaE(ptr align 8 @alloc_a6a8a15d99d2f9a899c456107d3ab757) #7
  unreachable

bb11:                                             ; preds = %bb25
  %_137 = ptrtoint ptr %heap to i64
  %_140 = icmp eq i64 %_137, 0
  %_141 = and i1 %_140, true
  %_142 = xor i1 %_141, true
  br i1 %_142, label %bb26, label %panic17

panic16:                                          ; preds = %bb25
; call core::panicking::panic_misaligned_pointer_dereference
  call void @_ZN4core9panicking36panic_misaligned_pointer_dereference17hcc3cbded9382b6e5E(i64 8, i64 %_40, ptr align 8 @alloc_136308b10d1a0f294a4f13bb4c597d90) #7
  unreachable

bb26:                                             ; preds = %bb11
  %5 = getelementptr inbounds i8, ptr %heap, i64 8
  %_26 = load ptr, ptr %5, align 8
  %_28 = load i32, ptr %parent, align 4
  %_27 = sext i32 %_28 to i64
; call core::ptr::mut_ptr::<impl *mut T>::offset::precondition_check
  call void @"_ZN4core3ptr7mut_ptr31_$LT$impl$u20$$BP$mut$u20$T$GT$6offset18precondition_check17h0a6a86d039e3dddeE"(ptr %_26, i64 %_27, i64 8) #8
  %_0.i = getelementptr inbounds ptr, ptr %_26, i64 %_27
  %_32 = load ptr, ptr %_0.i, align 8
  %_34 = ptrtoint ptr %_32 to i64
  %_37 = and i64 %_34, 7
  %_38 = icmp eq i64 %_37, 0
  br i1 %_38, label %bb10, label %panic18

panic17:                                          ; preds = %bb11
; call core::panicking::panic_null_pointer_dereference
  call void @_ZN4core9panicking30panic_null_pointer_dereference17hf718fcc86a223baaE(ptr align 8 @alloc_136308b10d1a0f294a4f13bb4c597d90) #7
  unreachable

bb10:                                             ; preds = %bb26
  %_144 = ptrtoint ptr %_32 to i64
  %_147 = icmp eq i64 %_144, 0
  %_148 = and i1 %_147, true
  %_149 = xor i1 %_148, true
  br i1 %_149, label %bb27, label %panic19

panic18:                                          ; preds = %bb26
; call core::panicking::panic_misaligned_pointer_dereference
  call void @_ZN4core9panicking36panic_misaligned_pointer_dereference17hcc3cbded9382b6e5E(i64 8, i64 %_34, ptr align 8 @alloc_87b8d8b3be8abdafaa24cb25803ca0b4) #7
  unreachable

bb27:                                             ; preds = %bb10
  %6 = getelementptr inbounds i8, ptr %_32, i64 4
  %_24 = load i32, ptr %6, align 4
  %_19 = icmp sge i32 %_20, %_24
  br i1 %_19, label %bb9, label %bb8

panic19:                                          ; preds = %bb10
; call core::panicking::panic_null_pointer_dereference
  call void @_ZN4core9panicking30panic_null_pointer_dereference17hf718fcc86a223baaE(ptr align 8 @alloc_87b8d8b3be8abdafaa24cb25803ca0b4) #7
  unreachable

bb8:                                              ; preds = %bb27
  %_30 = load i32, ptr %parent, align 4
  call void @heap_swap(ptr %heap, i32 %currentpos, i32 %_30) #8
  br label %bb2
}

; Function Attrs: nounwind nonlazybind
define ptr @delete_min(ptr %heap) unnamed_addr #2 {
start:
  %_0 = alloca [8 x i8], align 8
  %_2 = call i32 @heap_empty(ptr %heap) #8
  %0 = icmp eq i32 %_2, 0
  br i1 %0, label %bb3, label %bb2

bb3:                                              ; preds = %start
  %_60 = ptrtoint ptr %heap to i64
  %_63 = and i64 %_60, 7
  %_64 = icmp eq i64 %_63, 0
  br i1 %_64, label %bb16, label %panic

bb2:                                              ; preds = %start
  store ptr null, ptr %_0, align 8
  br label %bb8

bb16:                                             ; preds = %bb3
  %_66 = ptrtoint ptr %heap to i64
  %_69 = icmp eq i64 %_66, 0
  %_70 = and i1 %_69, true
  %_71 = xor i1 %_70, true
  br i1 %_71, label %bb17, label %panic1

panic:                                            ; preds = %bb3
; call core::panicking::panic_misaligned_pointer_dereference
  call void @_ZN4core9panicking36panic_misaligned_pointer_dereference17hcc3cbded9382b6e5E(i64 8, i64 %_60, ptr align 8 @alloc_38a362a5b0eed95c172aa1de68410258) #7
  unreachable

bb17:                                             ; preds = %bb16
  %1 = getelementptr inbounds i8, ptr %heap, i64 8
  %_5 = load ptr, ptr %1, align 8
; call core::ptr::mut_ptr::<impl *mut T>::offset::precondition_check
  call void @"_ZN4core3ptr7mut_ptr31_$LT$impl$u20$$BP$mut$u20$T$GT$6offset18precondition_check17h0a6a86d039e3dddeE"(ptr %_5, i64 0, i64 8) #8
  %_54 = ptrtoint ptr %_5 to i64
  %_57 = and i64 %_54, 7
  %_58 = icmp eq i64 %_57, 0
  br i1 %_58, label %bb15, label %panic2

panic1:                                           ; preds = %bb16
; call core::panicking::panic_null_pointer_dereference
  call void @_ZN4core9panicking30panic_null_pointer_dereference17hf718fcc86a223baaE(ptr align 8 @alloc_38a362a5b0eed95c172aa1de68410258) #7
  unreachable

bb15:                                             ; preds = %bb17
  %_73 = ptrtoint ptr %_5 to i64
  %_76 = icmp eq i64 %_73, 0
  %_77 = and i1 %_76, true
  %_78 = xor i1 %_77, true
  br i1 %_78, label %bb18, label %panic3

panic2:                                           ; preds = %bb17
; call core::panicking::panic_misaligned_pointer_dereference
  call void @_ZN4core9panicking36panic_misaligned_pointer_dereference17hcc3cbded9382b6e5E(i64 8, i64 %_54, ptr align 8 @alloc_3e64dcbb7a1b22329d27b5ca1284d154) #7
  unreachable

bb18:                                             ; preds = %bb15
  %retval = load ptr, ptr %_5, align 8
  %_48 = ptrtoint ptr %heap to i64
  %_51 = and i64 %_48, 7
  %_52 = icmp eq i64 %_51, 0
  br i1 %_52, label %bb14, label %panic4

panic3:                                           ; preds = %bb15
; call core::panicking::panic_null_pointer_dereference
  call void @_ZN4core9panicking30panic_null_pointer_dereference17hf718fcc86a223baaE(ptr align 8 @alloc_3e64dcbb7a1b22329d27b5ca1284d154) #7
  unreachable

bb14:                                             ; preds = %bb18
  %_42 = ptrtoint ptr %heap to i64
  %_45 = and i64 %_42, 7
  %_46 = icmp eq i64 %_45, 0
  br i1 %_46, label %bb13, label %panic5

panic4:                                           ; preds = %bb18
; call core::panicking::panic_misaligned_pointer_dereference
  call void @_ZN4core9panicking36panic_misaligned_pointer_dereference17hcc3cbded9382b6e5E(i64 8, i64 %_48, ptr align 8 @alloc_263cacb11107734af3d9010f066589b3) #7
  unreachable

bb13:                                             ; preds = %bb14
  %_87 = ptrtoint ptr %heap to i64
  %_90 = icmp eq i64 %_87, 0
  %_91 = and i1 %_90, true
  %_92 = xor i1 %_91, true
  br i1 %_92, label %bb20, label %panic6

panic5:                                           ; preds = %bb14
; call core::panicking::panic_misaligned_pointer_dereference
  call void @_ZN4core9panicking36panic_misaligned_pointer_dereference17hcc3cbded9382b6e5E(i64 8, i64 %_42, ptr align 8 @alloc_263cacb11107734af3d9010f066589b3) #7
  unreachable

bb20:                                             ; preds = %bb13
  %_80 = ptrtoint ptr %heap to i64
  %_83 = icmp eq i64 %_80, 0
  %_84 = and i1 %_83, true
  %_85 = xor i1 %_84, true
  br i1 %_85, label %bb19, label %panic7

panic6:                                           ; preds = %bb13
; call core::panicking::panic_null_pointer_dereference
  call void @_ZN4core9panicking30panic_null_pointer_dereference17hf718fcc86a223baaE(ptr align 8 @alloc_263cacb11107734af3d9010f066589b3) #7
  unreachable

bb19:                                             ; preds = %bb20
  %2 = load i32, ptr %heap, align 8
  %3 = sub i32 %2, 1
  store i32 %3, ptr %heap, align 8
  %_36 = ptrtoint ptr %heap to i64
  %_39 = and i64 %_36, 7
  %_40 = icmp eq i64 %_39, 0
  br i1 %_40, label %bb12, label %panic8

panic7:                                           ; preds = %bb20
; call core::panicking::panic_null_pointer_dereference
  call void @_ZN4core9panicking30panic_null_pointer_dereference17hf718fcc86a223baaE(ptr align 8 @alloc_263cacb11107734af3d9010f066589b3) #7
  unreachable

bb12:                                             ; preds = %bb19
  %_94 = ptrtoint ptr %heap to i64
  %_97 = icmp eq i64 %_94, 0
  %_98 = and i1 %_97, true
  %_99 = xor i1 %_98, true
  br i1 %_99, label %bb21, label %panic9

panic8:                                           ; preds = %bb19
; call core::panicking::panic_misaligned_pointer_dereference
  call void @_ZN4core9panicking36panic_misaligned_pointer_dereference17hcc3cbded9382b6e5E(i64 8, i64 %_36, ptr align 8 @alloc_8f53a4b4465fa261cfe702cabc17e6a8) #7
  unreachable

bb21:                                             ; preds = %bb12
  %4 = getelementptr inbounds i8, ptr %heap, i64 8
  %_9 = load ptr, ptr %4, align 8
; call core::ptr::mut_ptr::<impl *mut T>::offset::precondition_check
  call void @"_ZN4core3ptr7mut_ptr31_$LT$impl$u20$$BP$mut$u20$T$GT$6offset18precondition_check17h0a6a86d039e3dddeE"(ptr %_9, i64 0, i64 8) #8
  %_122 = ptrtoint ptr %_9 to i64
  %_123 = icmp eq i64 %_122, 0
  %_124 = and i1 %_123, true
  %_125 = xor i1 %_124, true
  br i1 %_125, label %bb25, label %panic10

panic9:                                           ; preds = %bb12
; call core::panicking::panic_null_pointer_dereference
  call void @_ZN4core9panicking30panic_null_pointer_dereference17hf718fcc86a223baaE(ptr align 8 @alloc_8f53a4b4465fa261cfe702cabc17e6a8) #7
  unreachable

bb25:                                             ; preds = %bb21
  %_30 = ptrtoint ptr %heap to i64
  %_33 = and i64 %_30, 7
  %_34 = icmp eq i64 %_33, 0
  br i1 %_34, label %bb11, label %panic11

panic10:                                          ; preds = %bb21
; call core::panicking::panic_null_pointer_dereference
  call void @_ZN4core9panicking30panic_null_pointer_dereference17hf718fcc86a223baaE(ptr align 8 @alloc_faa77273d412a3370397282c48abd832) #7
  unreachable

bb11:                                             ; preds = %bb25
  %_101 = ptrtoint ptr %heap to i64
  %_104 = icmp eq i64 %_101, 0
  %_105 = and i1 %_104, true
  %_106 = xor i1 %_105, true
  br i1 %_106, label %bb22, label %panic12

panic11:                                          ; preds = %bb25
; call core::panicking::panic_misaligned_pointer_dereference
  call void @_ZN4core9panicking36panic_misaligned_pointer_dereference17hcc3cbded9382b6e5E(i64 8, i64 %_30, ptr align 8 @alloc_994c4ce95b3a1be0e0e386673611178e) #7
  unreachable

bb22:                                             ; preds = %bb11
  %5 = getelementptr inbounds i8, ptr %heap, i64 8
  %_13 = load ptr, ptr %5, align 8
  %_24 = ptrtoint ptr %heap to i64
  %_27 = and i64 %_24, 7
  %_28 = icmp eq i64 %_27, 0
  br i1 %_28, label %bb10, label %panic13

panic12:                                          ; preds = %bb11
; call core::panicking::panic_null_pointer_dereference
  call void @_ZN4core9panicking30panic_null_pointer_dereference17hf718fcc86a223baaE(ptr align 8 @alloc_994c4ce95b3a1be0e0e386673611178e) #7
  unreachable

bb10:                                             ; preds = %bb22
  %_108 = ptrtoint ptr %heap to i64
  %_111 = icmp eq i64 %_108, 0
  %_112 = and i1 %_111, true
  %_113 = xor i1 %_112, true
  br i1 %_113, label %bb23, label %panic14

panic13:                                          ; preds = %bb22
; call core::panicking::panic_misaligned_pointer_dereference
  call void @_ZN4core9panicking36panic_misaligned_pointer_dereference17hcc3cbded9382b6e5E(i64 8, i64 %_24, ptr align 8 @alloc_f6e377d5608467000e68825d4812aa87) #7
  unreachable

bb23:                                             ; preds = %bb10
  %_15 = load i32, ptr %heap, align 8
  %_14 = sext i32 %_15 to i64
; call core::ptr::mut_ptr::<impl *mut T>::offset::precondition_check
  call void @"_ZN4core3ptr7mut_ptr31_$LT$impl$u20$$BP$mut$u20$T$GT$6offset18precondition_check17h0a6a86d039e3dddeE"(ptr %_13, i64 %_14, i64 8) #8
  %_0.i = getelementptr inbounds ptr, ptr %_13, i64 %_14
  %_18 = ptrtoint ptr %_0.i to i64
  %_21 = and i64 %_18, 7
  %_22 = icmp eq i64 %_21, 0
  br i1 %_22, label %bb9, label %panic15

panic14:                                          ; preds = %bb10
; call core::panicking::panic_null_pointer_dereference
  call void @_ZN4core9panicking30panic_null_pointer_dereference17hf718fcc86a223baaE(ptr align 8 @alloc_f6e377d5608467000e68825d4812aa87) #7
  unreachable

bb9:                                              ; preds = %bb23
  %_115 = ptrtoint ptr %_0.i to i64
  %_118 = icmp eq i64 %_115, 0
  %_119 = and i1 %_118, true
  %_120 = xor i1 %_119, true
  br i1 %_120, label %bb24, label %panic16

panic15:                                          ; preds = %bb23
; call core::panicking::panic_misaligned_pointer_dereference
  call void @_ZN4core9panicking36panic_misaligned_pointer_dereference17hcc3cbded9382b6e5E(i64 8, i64 %_18, ptr align 8 @alloc_a9b4ae4f936036ecc70c5719b2ebbe49) #7
  unreachable

bb24:                                             ; preds = %bb9
  %_11 = load ptr, ptr %_0.i, align 8
  store ptr %_11, ptr %_9, align 8
  call void @heap_hold(ptr %heap, i32 0) #8
  store ptr %retval, ptr %_0, align 8
  br label %bb8

panic16:                                          ; preds = %bb9
; call core::panicking::panic_null_pointer_dereference
  call void @_ZN4core9panicking30panic_null_pointer_dereference17hf718fcc86a223baaE(ptr align 8 @alloc_a9b4ae4f936036ecc70c5719b2ebbe49) #7
  unreachable

bb8:                                              ; preds = %bb2, %bb24
  %6 = load ptr, ptr %_0, align 8
  ret ptr %6
}

; Function Attrs: nounwind nonlazybind
define void @insertsort(ptr %data, i32 %size) unnamed_addr #2 {
start:
  %j = alloca [4 x i8], align 4
  %i = alloca [4 x i8], align 4
  %pivot = alloca [8 x i8], align 8
  store ptr null, ptr %pivot, align 8
  store i32 0, ptr %i, align 4
  store i32 0, ptr %j, align 4
  store i32 1, ptr %i, align 4
  br label %bb1

bb1:                                              ; preds = %bb21, %start
  %_7 = load i32, ptr %i, align 4
  %_6 = icmp slt i32 %_7, %size
  br i1 %_6, label %bb2, label %bb12

bb12:                                             ; preds = %bb1
  ret void

bb2:                                              ; preds = %bb1
  %_11 = load i32, ptr %i, align 4
  %_10 = sext i32 %_11 to i64
; call core::ptr::mut_ptr::<impl *mut T>::offset::precondition_check
  call void @"_ZN4core3ptr7mut_ptr31_$LT$impl$u20$$BP$mut$u20$T$GT$6offset18precondition_check17h0a6a86d039e3dddeE"(ptr %data, i64 %_10, i64 8) #8
  %_0.i13 = getelementptr inbounds ptr, ptr %data, i64 %_10
  %_56 = ptrtoint ptr %_0.i13 to i64
  %_59 = and i64 %_56, 7
  %_60 = icmp eq i64 %_59, 0
  br i1 %_60, label %bb16, label %panic

bb16:                                             ; preds = %bb2
  %_62 = ptrtoint ptr %_0.i13 to i64
  %_65 = icmp eq i64 %_62, 0
  %_66 = and i1 %_65, true
  %_67 = xor i1 %_66, true
  br i1 %_67, label %bb17, label %panic1

panic:                                            ; preds = %bb2
; call core::panicking::panic_misaligned_pointer_dereference
  call void @_ZN4core9panicking36panic_misaligned_pointer_dereference17hcc3cbded9382b6e5E(i64 8, i64 %_56, ptr align 8 @alloc_26944008f1e137d32271d7b90783c00e) #7
  unreachable

bb17:                                             ; preds = %bb16
  %_8 = load ptr, ptr %_0.i13, align 8
  store ptr %_8, ptr %pivot, align 8
  %_12 = load i32, ptr %i, align 4
  %0 = sub i32 %_12, 1
  store i32 %0, ptr %j, align 4
  br label %bb4

panic1:                                           ; preds = %bb16
; call core::panicking::panic_null_pointer_dereference
  call void @_ZN4core9panicking30panic_null_pointer_dereference17hf718fcc86a223baaE(ptr align 8 @alloc_26944008f1e137d32271d7b90783c00e) #7
  unreachable

bb4:                                              ; preds = %bb20, %bb17
  %_14 = load i32, ptr %j, align 4
  %_13 = icmp sge i32 %_14, 0
  br i1 %_13, label %bb5, label %bb10

bb10:                                             ; preds = %bb19, %bb4
  %_34 = load i32, ptr %j, align 4
  %_33 = add i32 %_34, 1
  %_32 = sext i32 %_33 to i64
; call core::ptr::mut_ptr::<impl *mut T>::offset::precondition_check
  call void @"_ZN4core3ptr7mut_ptr31_$LT$impl$u20$$BP$mut$u20$T$GT$6offset18precondition_check17h0a6a86d039e3dddeE"(ptr %data, i64 %_32, i64 8) #8
  %_0.i11 = getelementptr inbounds ptr, ptr %data, i64 %_32
  %_90 = ptrtoint ptr %_0.i11 to i64
  %_91 = icmp eq i64 %_90, 0
  %_92 = and i1 %_91, true
  %_93 = xor i1 %_92, true
  br i1 %_93, label %bb21, label %panic6

bb5:                                              ; preds = %bb4
  %_19 = load i32, ptr %j, align 4
  %_18 = sext i32 %_19 to i64
; call core::ptr::mut_ptr::<impl *mut T>::offset::precondition_check
  call void @"_ZN4core3ptr7mut_ptr31_$LT$impl$u20$$BP$mut$u20$T$GT$6offset18precondition_check17h0a6a86d039e3dddeE"(ptr %data, i64 %_18, i64 8) #8
  %_0.i12 = getelementptr inbounds ptr, ptr %data, i64 %_18
  %_36 = load ptr, ptr %_0.i12, align 8
  %_50 = ptrtoint ptr %_36 to i64
  %_53 = and i64 %_50, 7
  %_54 = icmp eq i64 %_53, 0
  br i1 %_54, label %bb15, label %panic2

bb15:                                             ; preds = %bb5
  %_69 = ptrtoint ptr %_36 to i64
  %_72 = icmp eq i64 %_69, 0
  %_73 = and i1 %_72, true
  %_74 = xor i1 %_73, true
  br i1 %_74, label %bb18, label %panic3

panic2:                                           ; preds = %bb5
; call core::panicking::panic_misaligned_pointer_dereference
  call void @_ZN4core9panicking36panic_misaligned_pointer_dereference17hcc3cbded9382b6e5E(i64 8, i64 %_50, ptr align 8 @alloc_5282e0bbc687acbc97782d7ad336ce6a) #7
  unreachable

bb18:                                             ; preds = %bb15
  %1 = getelementptr inbounds i8, ptr %_36, i64 4
  %_16 = load i32, ptr %1, align 4
  %_43 = load ptr, ptr %pivot, align 8
  %_44 = ptrtoint ptr %_43 to i64
  %_47 = and i64 %_44, 7
  %_48 = icmp eq i64 %_47, 0
  br i1 %_48, label %bb14, label %panic4

panic3:                                           ; preds = %bb15
; call core::panicking::panic_null_pointer_dereference
  call void @_ZN4core9panicking30panic_null_pointer_dereference17hf718fcc86a223baaE(ptr align 8 @alloc_5282e0bbc687acbc97782d7ad336ce6a) #7
  unreachable

bb14:                                             ; preds = %bb18
  %_75 = load ptr, ptr %pivot, align 8
  %_76 = ptrtoint ptr %_75 to i64
  %_79 = icmp eq i64 %_76, 0
  %_80 = and i1 %_79, true
  %_81 = xor i1 %_80, true
  br i1 %_81, label %bb19, label %panic5

panic4:                                           ; preds = %bb18
; call core::panicking::panic_misaligned_pointer_dereference
  call void @_ZN4core9panicking36panic_misaligned_pointer_dereference17hcc3cbded9382b6e5E(i64 8, i64 %_44, ptr align 8 @alloc_eed85b3c9138b9d70d5c4cd454cc4a2d) #7
  unreachable

bb19:                                             ; preds = %bb14
  %2 = load ptr, ptr %pivot, align 8
  %3 = getelementptr inbounds i8, ptr %2, i64 4
  %_20 = load i32, ptr %3, align 4
  %_15 = icmp sgt i32 %_16, %_20
  br i1 %_15, label %bb7, label %bb10

panic5:                                           ; preds = %bb14
; call core::panicking::panic_null_pointer_dereference
  call void @_ZN4core9panicking30panic_null_pointer_dereference17hf718fcc86a223baaE(ptr align 8 @alloc_eed85b3c9138b9d70d5c4cd454cc4a2d) #7
  unreachable

bb7:                                              ; preds = %bb19
  %_25 = load i32, ptr %j, align 4
  %_24 = add i32 %_25, 1
  %_23 = sext i32 %_24 to i64
; call core::ptr::mut_ptr::<impl *mut T>::offset::precondition_check
  call void @"_ZN4core3ptr7mut_ptr31_$LT$impl$u20$$BP$mut$u20$T$GT$6offset18precondition_check17h0a6a86d039e3dddeE"(ptr %data, i64 %_23, i64 8) #8
  %_0.i10 = getelementptr inbounds ptr, ptr %data, i64 %_23
  %_95 = ptrtoint ptr %_0.i10 to i64
  %_96 = icmp eq i64 %_95, 0
  %_97 = and i1 %_96, true
  %_98 = xor i1 %_97, true
  br i1 %_98, label %bb22, label %panic7

bb21:                                             ; preds = %bb10
  %_35 = load ptr, ptr %pivot, align 8
  store ptr %_35, ptr %_0.i11, align 8
  %4 = load i32, ptr %i, align 4
  %5 = add i32 %4, 1
  store i32 %5, ptr %i, align 4
  br label %bb1

panic6:                                           ; preds = %bb10
; call core::panicking::panic_null_pointer_dereference
  call void @_ZN4core9panicking30panic_null_pointer_dereference17hf718fcc86a223baaE(ptr align 8 @alloc_bc8db9c9f5fd25f39355aafc84d5c24d) #7
  unreachable

bb22:                                             ; preds = %bb7
  %_29 = load i32, ptr %j, align 4
  %_28 = sext i32 %_29 to i64
; call core::ptr::mut_ptr::<impl *mut T>::offset::precondition_check
  call void @"_ZN4core3ptr7mut_ptr31_$LT$impl$u20$$BP$mut$u20$T$GT$6offset18precondition_check17h0a6a86d039e3dddeE"(ptr %data, i64 %_28, i64 8) #8
  %_0.i = getelementptr inbounds ptr, ptr %data, i64 %_28
  %_38 = ptrtoint ptr %_0.i to i64
  %_41 = and i64 %_38, 7
  %_42 = icmp eq i64 %_41, 0
  br i1 %_42, label %bb13, label %panic8

panic7:                                           ; preds = %bb7
; call core::panicking::panic_null_pointer_dereference
  call void @_ZN4core9panicking30panic_null_pointer_dereference17hf718fcc86a223baaE(ptr align 8 @alloc_dd190c650183484579959ba623cbadb9) #7
  unreachable

bb13:                                             ; preds = %bb22
  %_83 = ptrtoint ptr %_0.i to i64
  %_86 = icmp eq i64 %_83, 0
  %_87 = and i1 %_86, true
  %_88 = xor i1 %_87, true
  br i1 %_88, label %bb20, label %panic9

panic8:                                           ; preds = %bb22
; call core::panicking::panic_misaligned_pointer_dereference
  call void @_ZN4core9panicking36panic_misaligned_pointer_dereference17hcc3cbded9382b6e5E(i64 8, i64 %_38, ptr align 8 @alloc_d9e7c9bbb04eb6655a31b26ed4e0a6c4) #7
  unreachable

bb20:                                             ; preds = %bb13
  %_26 = load ptr, ptr %_0.i, align 8
  store ptr %_26, ptr %_0.i10, align 8
  %6 = load i32, ptr %j, align 4
  %7 = sub i32 %6, 1
  store i32 %7, ptr %j, align 4
  br label %bb4

panic9:                                           ; preds = %bb13
; call core::panicking::panic_null_pointer_dereference
  call void @_ZN4core9panicking30panic_null_pointer_dereference17hf718fcc86a223baaE(ptr align 8 @alloc_d9e7c9bbb04eb6655a31b26ed4e0a6c4) #7
  unreachable
}

; Function Attrs: nounwind nonlazybind
define void @insertedge(ptr %map, i32 %node1, i32 %node2, i32 %vertex) unnamed_addr #2 {
start:
  %_7 = sext i32 %node1 to i64
; call core::ptr::mut_ptr::<impl *mut T>::offset::precondition_check
  call void @"_ZN4core3ptr7mut_ptr31_$LT$impl$u20$$BP$mut$u20$T$GT$6offset18precondition_check17h0a6a86d039e3dddeE"(ptr %map, i64 %_7, i64 8) #8
  %_0.i9 = getelementptr inbounds ptr, ptr %map, i64 %_7
  %_34 = ptrtoint ptr %_0.i9 to i64
  %_37 = and i64 %_34, 7
  %_38 = icmp eq i64 %_37, 0
  br i1 %_38, label %bb8, label %panic

bb8:                                              ; preds = %start
  %_40 = ptrtoint ptr %_0.i9 to i64
  %_43 = icmp eq i64 %_40, 0
  %_44 = and i1 %_43, true
  %_45 = xor i1 %_44, true
  br i1 %_45, label %bb9, label %panic1

panic:                                            ; preds = %start
; call core::panicking::panic_misaligned_pointer_dereference
  call void @_ZN4core9panicking36panic_misaligned_pointer_dereference17hcc3cbded9382b6e5E(i64 8, i64 %_34, ptr align 8 @alloc_fbea4ae7185fd6011700671443c453fb) #7
  unreachable

bb9:                                              ; preds = %bb8
  %cur = load ptr, ptr %_0.i9, align 8
  %_9 = call ptr @malloc(i64 16) #8
  %_28 = ptrtoint ptr %_9 to i64
  %_31 = and i64 %_28, 7
  %_32 = icmp eq i64 %_31, 0
  br i1 %_32, label %bb7, label %panic2

panic1:                                           ; preds = %bb8
; call core::panicking::panic_null_pointer_dereference
  call void @_ZN4core9panicking30panic_null_pointer_dereference17hf718fcc86a223baaE(ptr align 8 @alloc_fbea4ae7185fd6011700671443c453fb) #7
  unreachable

bb7:                                              ; preds = %bb9
  %_47 = ptrtoint ptr %_9 to i64
  %_50 = icmp eq i64 %_47, 0
  %_51 = and i1 %_50, true
  %_52 = xor i1 %_51, true
  br i1 %_52, label %bb10, label %panic3

panic2:                                           ; preds = %bb9
; call core::panicking::panic_misaligned_pointer_dereference
  call void @_ZN4core9panicking36panic_misaligned_pointer_dereference17hcc3cbded9382b6e5E(i64 8, i64 %_28, ptr align 8 @alloc_fc7874fb1a27689c0b99ab6550ca627c) #7
  unreachable

bb10:                                             ; preds = %bb7
  store i32 %node2, ptr %_9, align 8
  %_22 = ptrtoint ptr %_9 to i64
  %_25 = and i64 %_22, 7
  %_26 = icmp eq i64 %_25, 0
  br i1 %_26, label %bb6, label %panic4

panic3:                                           ; preds = %bb7
; call core::panicking::panic_null_pointer_dereference
  call void @_ZN4core9panicking30panic_null_pointer_dereference17hf718fcc86a223baaE(ptr align 8 @alloc_fc7874fb1a27689c0b99ab6550ca627c) #7
  unreachable

bb6:                                              ; preds = %bb10
  %_54 = ptrtoint ptr %_9 to i64
  %_57 = icmp eq i64 %_54, 0
  %_58 = and i1 %_57, true
  %_59 = xor i1 %_58, true
  br i1 %_59, label %bb11, label %panic5

panic4:                                           ; preds = %bb10
; call core::panicking::panic_misaligned_pointer_dereference
  call void @_ZN4core9panicking36panic_misaligned_pointer_dereference17hcc3cbded9382b6e5E(i64 8, i64 %_22, ptr align 8 @alloc_3ddbde183efeca7f5704da528e4d1d73) #7
  unreachable

bb11:                                             ; preds = %bb6
  %0 = getelementptr inbounds i8, ptr %_9, i64 4
  store i32 %vertex, ptr %0, align 4
  %_16 = ptrtoint ptr %_9 to i64
  %_19 = and i64 %_16, 7
  %_20 = icmp eq i64 %_19, 0
  br i1 %_20, label %bb5, label %panic6

panic5:                                           ; preds = %bb6
; call core::panicking::panic_null_pointer_dereference
  call void @_ZN4core9panicking30panic_null_pointer_dereference17hf718fcc86a223baaE(ptr align 8 @alloc_3ddbde183efeca7f5704da528e4d1d73) #7
  unreachable

bb5:                                              ; preds = %bb11
  %_61 = ptrtoint ptr %_9 to i64
  %_64 = icmp eq i64 %_61, 0
  %_65 = and i1 %_64, true
  %_66 = xor i1 %_65, true
  br i1 %_66, label %bb12, label %panic7

panic6:                                           ; preds = %bb11
; call core::panicking::panic_misaligned_pointer_dereference
  call void @_ZN4core9panicking36panic_misaligned_pointer_dereference17hcc3cbded9382b6e5E(i64 8, i64 %_16, ptr align 8 @alloc_c20cdd296a1b5bb485ed442bab07d262) #7
  unreachable

bb12:                                             ; preds = %bb5
  %1 = getelementptr inbounds i8, ptr %_9, i64 8
  store ptr %cur, ptr %1, align 8
  %_14 = sext i32 %node1 to i64
; call core::ptr::mut_ptr::<impl *mut T>::offset::precondition_check
  call void @"_ZN4core3ptr7mut_ptr31_$LT$impl$u20$$BP$mut$u20$T$GT$6offset18precondition_check17h0a6a86d039e3dddeE"(ptr %map, i64 %_14, i64 8) #8
  %_0.i = getelementptr inbounds ptr, ptr %map, i64 %_14
  %_68 = ptrtoint ptr %_0.i to i64
  %_69 = icmp eq i64 %_68, 0
  %_70 = and i1 %_69, true
  %_71 = xor i1 %_70, true
  br i1 %_71, label %bb13, label %panic8

panic7:                                           ; preds = %bb5
; call core::panicking::panic_null_pointer_dereference
  call void @_ZN4core9panicking30panic_null_pointer_dereference17hf718fcc86a223baaE(ptr align 8 @alloc_c20cdd296a1b5bb485ed442bab07d262) #7
  unreachable

bb13:                                             ; preds = %bb12
  store ptr %_9, ptr %_0.i, align 8
  ret void

panic8:                                           ; preds = %bb12
; call core::panicking::panic_null_pointer_dereference
  call void @_ZN4core9panicking30panic_null_pointer_dereference17hf718fcc86a223baaE(ptr align 8 @alloc_57c9c44943e49a141b1e0b0d15ffe7fa) #7
  unreachable
}

; Function Attrs: nounwind nonlazybind
define i32 @find_min_h(ptr %map, i32 %nodeid) unnamed_addr #2 {
start:
  %h = alloca [4 x i8], align 4
  %cur = alloca [8 x i8], align 8
  %_5 = sext i32 %nodeid to i64
; call core::ptr::mut_ptr::<impl *mut T>::offset::precondition_check
  call void @"_ZN4core3ptr7mut_ptr31_$LT$impl$u20$$BP$mut$u20$T$GT$6offset18precondition_check17h0a6a86d039e3dddeE"(ptr %map, i64 %_5, i64 8) #8
  %_0.i = getelementptr inbounds ptr, ptr %map, i64 %_5
  %_34 = ptrtoint ptr %_0.i to i64
  %_37 = and i64 %_34, 7
  %_38 = icmp eq i64 %_37, 0
  br i1 %_38, label %bb13, label %panic

bb13:                                             ; preds = %start
  %_40 = ptrtoint ptr %_0.i to i64
  %_43 = icmp eq i64 %_40, 0
  %_44 = and i1 %_43, true
  %_45 = xor i1 %_44, true
  br i1 %_45, label %bb14, label %panic1

panic:                                            ; preds = %start
; call core::panicking::panic_misaligned_pointer_dereference
  call void @_ZN4core9panicking36panic_misaligned_pointer_dereference17hcc3cbded9382b6e5E(i64 8, i64 %_34, ptr align 8 @alloc_e7fc04a8bb8bbc097682d19862f7385b) #7
  unreachable

bb14:                                             ; preds = %bb13
  %0 = load ptr, ptr %_0.i, align 8
  store ptr %0, ptr %cur, align 8
  store i32 2147483647, ptr %h, align 4
  br label %bb2

panic1:                                           ; preds = %bb13
; call core::panicking::panic_null_pointer_dereference
  call void @_ZN4core9panicking30panic_null_pointer_dereference17hf718fcc86a223baaE(ptr align 8 @alloc_e7fc04a8bb8bbc097682d19862f7385b) #7
  unreachable

bb2:                                              ; preds = %bb17, %bb14
  %_8 = load ptr, ptr %cur, align 8
; call core::ptr::mut_ptr::<impl *mut T>::is_null
  %_7 = call zeroext i1 @"_ZN4core3ptr7mut_ptr31_$LT$impl$u20$$BP$mut$u20$T$GT$7is_null17h6de96eba1faaf459E"(ptr %_8) #8
  br i1 %_7, label %bb4, label %bb5

bb5:                                              ; preds = %bb2
  %_27 = load ptr, ptr %cur, align 8
  %_28 = ptrtoint ptr %_27 to i64
  %_31 = and i64 %_28, 7
  %_32 = icmp eq i64 %_31, 0
  br i1 %_32, label %bb12, label %panic2

bb4:                                              ; preds = %bb2
  %_14 = load i32, ptr %h, align 4
  %1 = icmp eq i32 %_14, 2147483647
  br i1 %1, label %bb8, label %bb9

bb12:                                             ; preds = %bb5
  %_46 = load ptr, ptr %cur, align 8
  %_47 = ptrtoint ptr %_46 to i64
  %_50 = icmp eq i64 %_47, 0
  %_51 = and i1 %_50, true
  %_52 = xor i1 %_51, true
  br i1 %_52, label %bb15, label %panic3

panic2:                                           ; preds = %bb5
; call core::panicking::panic_misaligned_pointer_dereference
  call void @_ZN4core9panicking36panic_misaligned_pointer_dereference17hcc3cbded9382b6e5E(i64 8, i64 %_28, ptr align 8 @alloc_955faea93410ddf8779305fbd23ac2fb) #7
  unreachable

bb15:                                             ; preds = %bb12
  %2 = load ptr, ptr %cur, align 8
  %3 = getelementptr inbounds i8, ptr %2, i64 4
  %_10 = load i32, ptr %3, align 4
  %_11 = load i32, ptr %h, align 4
  %_9 = icmp slt i32 %_10, %_11
  br i1 %_9, label %bb6, label %bb7

panic3:                                           ; preds = %bb12
; call core::panicking::panic_null_pointer_dereference
  call void @_ZN4core9panicking30panic_null_pointer_dereference17hf718fcc86a223baaE(ptr align 8 @alloc_955faea93410ddf8779305fbd23ac2fb) #7
  unreachable

bb7:                                              ; preds = %bb16, %bb15
  %_15 = load ptr, ptr %cur, align 8
  %_16 = ptrtoint ptr %_15 to i64
  %_19 = and i64 %_16, 7
  %_20 = icmp eq i64 %_19, 0
  br i1 %_20, label %bb10, label %panic6

bb6:                                              ; preds = %bb15
  %_21 = load ptr, ptr %cur, align 8
  %_22 = ptrtoint ptr %_21 to i64
  %_25 = and i64 %_22, 7
  %_26 = icmp eq i64 %_25, 0
  br i1 %_26, label %bb11, label %panic4

bb11:                                             ; preds = %bb6
  %_53 = load ptr, ptr %cur, align 8
  %_54 = ptrtoint ptr %_53 to i64
  %_57 = icmp eq i64 %_54, 0
  %_58 = and i1 %_57, true
  %_59 = xor i1 %_58, true
  br i1 %_59, label %bb16, label %panic5

panic4:                                           ; preds = %bb6
; call core::panicking::panic_misaligned_pointer_dereference
  call void @_ZN4core9panicking36panic_misaligned_pointer_dereference17hcc3cbded9382b6e5E(i64 8, i64 %_22, ptr align 8 @alloc_84941e17482acd7daa040c35d4dead61) #7
  unreachable

bb16:                                             ; preds = %bb11
  %4 = load ptr, ptr %cur, align 8
  %5 = getelementptr inbounds i8, ptr %4, i64 4
  %_12 = load i32, ptr %5, align 4
  store i32 %_12, ptr %h, align 4
  br label %bb7

panic5:                                           ; preds = %bb11
; call core::panicking::panic_null_pointer_dereference
  call void @_ZN4core9panicking30panic_null_pointer_dereference17hf718fcc86a223baaE(ptr align 8 @alloc_84941e17482acd7daa040c35d4dead61) #7
  unreachable

bb10:                                             ; preds = %bb7
  %_60 = load ptr, ptr %cur, align 8
  %_61 = ptrtoint ptr %_60 to i64
  %_64 = icmp eq i64 %_61, 0
  %_65 = and i1 %_64, true
  %_66 = xor i1 %_65, true
  br i1 %_66, label %bb17, label %panic7

panic6:                                           ; preds = %bb7
; call core::panicking::panic_misaligned_pointer_dereference
  call void @_ZN4core9panicking36panic_misaligned_pointer_dereference17hcc3cbded9382b6e5E(i64 8, i64 %_16, ptr align 8 @alloc_f839de8b0e90d77b771df84a0f5bc87b) #7
  unreachable

bb17:                                             ; preds = %bb10
  %6 = load ptr, ptr %cur, align 8
  %7 = getelementptr inbounds i8, ptr %6, i64 8
  %_13 = load ptr, ptr %7, align 8
  store ptr %_13, ptr %cur, align 8
  br label %bb2

panic7:                                           ; preds = %bb10
; call core::panicking::panic_null_pointer_dereference
  call void @_ZN4core9panicking30panic_null_pointer_dereference17hf718fcc86a223baaE(ptr align 8 @alloc_f839de8b0e90d77b771df84a0f5bc87b) #7
  unreachable

bb8:                                              ; preds = %bb4
  store i32 0, ptr %h, align 4
  br label %bb9

bb9:                                              ; preds = %bb8, %bb4
  %_0 = load i32, ptr %h, align 4
  ret i32 %_0
}

; Function Attrs: nounwind nonlazybind
define void @displayoutcome(ptr %0) unnamed_addr #2 {
start:
  %node = alloca [8 x i8], align 8
  store ptr %0, ptr %node, align 8
  %_34 = load ptr, ptr %node, align 8
  %_35 = ptrtoint ptr %_34 to i64
  %_38 = and i64 %_35, 7
  %_39 = icmp eq i64 %_38, 0
  br i1 %_39, label %bb9, label %panic

bb9:                                              ; preds = %start
  %_40 = load ptr, ptr %node, align 8
  %_41 = ptrtoint ptr %_40 to i64
  %_44 = icmp eq i64 %_41, 0
  %_45 = and i1 %_44, true
  %_46 = xor i1 %_45, true
  br i1 %_46, label %bb10, label %panic1

panic:                                            ; preds = %start
; call core::panicking::panic_misaligned_pointer_dereference
  call void @_ZN4core9panicking36panic_misaligned_pointer_dereference17hcc3cbded9382b6e5E(i64 8, i64 %_35, ptr align 8 @alloc_8e2510360b4ed189baec5f7c6e314a30) #7
  unreachable

bb10:                                             ; preds = %bb9
  %1 = load ptr, ptr %node, align 8
  %_7 = load i32, ptr %1, align 8
  %_2 = call i32 (ptr, ...) @printf(ptr @alloc_31605d20bc04fb6dbe2465356bcb610b, i32 %_7) #8
  br label %bb1

panic1:                                           ; preds = %bb9
; call core::panicking::panic_null_pointer_dereference
  call void @_ZN4core9panicking30panic_null_pointer_dereference17hf718fcc86a223baaE(ptr align 8 @alloc_8e2510360b4ed189baec5f7c6e314a30) #7
  unreachable

bb1:                                              ; preds = %bb12, %bb10
  %_9 = load ptr, ptr %node, align 8
; call core::ptr::mut_ptr::<impl *mut T>::is_null
  %_8 = call zeroext i1 @"_ZN4core3ptr7mut_ptr31_$LT$impl$u20$$BP$mut$u20$T$GT$7is_null17h00993625381c68b3E"(ptr %_9) #8
  br i1 %_8, label %bb3, label %bb4

bb4:                                              ; preds = %bb1
  %_28 = load ptr, ptr %node, align 8
  %_29 = ptrtoint ptr %_28 to i64
  %_32 = and i64 %_29, 7
  %_33 = icmp eq i64 %_32, 0
  br i1 %_33, label %bb8, label %panic2

bb3:                                              ; preds = %bb1
  %_17 = call i32 (ptr, ...) @printf(ptr @alloc_f3588b28b94f0809fcc8d717033d3e48) #8
  ret void

bb8:                                              ; preds = %bb4
  %_47 = load ptr, ptr %node, align 8
  %_48 = ptrtoint ptr %_47 to i64
  %_51 = icmp eq i64 %_48, 0
  %_52 = and i1 %_51, true
  %_53 = xor i1 %_52, true
  br i1 %_53, label %bb11, label %panic3

panic2:                                           ; preds = %bb4
; call core::panicking::panic_misaligned_pointer_dereference
  call void @_ZN4core9panicking36panic_misaligned_pointer_dereference17hcc3cbded9382b6e5E(i64 8, i64 %_29, ptr align 8 @alloc_bdc45573337e2b884328a7ecef25a475) #7
  unreachable

bb11:                                             ; preds = %bb8
  %2 = load ptr, ptr %node, align 8
  %3 = getelementptr inbounds i8, ptr %2, i64 8
  %_15 = load i32, ptr %3, align 8
  %_10 = call i32 (ptr, ...) @printf(ptr @alloc_566712ab1ff47edc7a11b901346dc9b6, i32 %_15) #8
  %_22 = load ptr, ptr %node, align 8
  %_23 = ptrtoint ptr %_22 to i64
  %_26 = and i64 %_23, 7
  %_27 = icmp eq i64 %_26, 0
  br i1 %_27, label %bb7, label %panic4

panic3:                                           ; preds = %bb8
; call core::panicking::panic_null_pointer_dereference
  call void @_ZN4core9panicking30panic_null_pointer_dereference17hf718fcc86a223baaE(ptr align 8 @alloc_bdc45573337e2b884328a7ecef25a475) #7
  unreachable

bb7:                                              ; preds = %bb11
  %_54 = load ptr, ptr %node, align 8
  %_55 = ptrtoint ptr %_54 to i64
  %_58 = icmp eq i64 %_55, 0
  %_59 = and i1 %_58, true
  %_60 = xor i1 %_59, true
  br i1 %_60, label %bb12, label %panic5

panic4:                                           ; preds = %bb11
; call core::panicking::panic_misaligned_pointer_dereference
  call void @_ZN4core9panicking36panic_misaligned_pointer_dereference17hcc3cbded9382b6e5E(i64 8, i64 %_23, ptr align 8 @alloc_c8b931d56459ed6d8cd7d9c374c2f295) #7
  unreachable

bb12:                                             ; preds = %bb7
  %4 = load ptr, ptr %node, align 8
  %5 = getelementptr inbounds i8, ptr %4, i64 16
  %_16 = load ptr, ptr %5, align 8
  store ptr %_16, ptr %node, align 8
  br label %bb1

panic5:                                           ; preds = %bb7
; call core::panicking::panic_null_pointer_dereference
  call void @_ZN4core9panicking30panic_null_pointer_dereference17hf718fcc86a223baaE(ptr align 8 @alloc_c8b931d56459ed6d8cd7d9c374c2f295) #7
  unreachable
}

; Function Attrs: nounwind nonlazybind
define void @astar(ptr %map) unnamed_addr #2 {
start:
  %node = alloca [8 x i8], align 8
  %htable = alloca [52 x i8], align 4
  %i = alloca [4 x i8], align 4
  %neibor = alloca [8 x i8], align 8
  %currentnode = alloca [8 x i8], align 8
  %heap = call ptr @init_heap() #8
  %_4 = call ptr @malloc(i64 24) #8
  store ptr %_4, ptr %currentnode, align 8
  %_142 = load ptr, ptr %currentnode, align 8
  %_143 = ptrtoint ptr %_142 to i64
  %_146 = and i64 %_143, 7
  %_147 = icmp eq i64 %_146, 0
  br i1 %_147, label %bb40, label %panic

bb40:                                             ; preds = %start
  %_148 = load ptr, ptr %currentnode, align 8
  %_149 = ptrtoint ptr %_148 to i64
  %_152 = icmp eq i64 %_149, 0
  %_153 = and i1 %_152, true
  %_154 = xor i1 %_153, true
  br i1 %_154, label %bb41, label %panic1

panic:                                            ; preds = %start
; call core::panicking::panic_misaligned_pointer_dereference
  call void @_ZN4core9panicking36panic_misaligned_pointer_dereference17hcc3cbded9382b6e5E(i64 8, i64 %_143, ptr align 8 @alloc_4a8993bb0356e27b002537d11665718a) #7
  unreachable

bb41:                                             ; preds = %bb40
  %0 = load ptr, ptr %currentnode, align 8
  %1 = getelementptr inbounds i8, ptr %0, i64 8
  store i32 0, ptr %1, align 8
  %_136 = load ptr, ptr %currentnode, align 8
  %_137 = ptrtoint ptr %_136 to i64
  %_140 = and i64 %_137, 7
  %_141 = icmp eq i64 %_140, 0
  br i1 %_141, label %bb39, label %panic2

panic1:                                           ; preds = %bb40
; call core::panicking::panic_null_pointer_dereference
  call void @_ZN4core9panicking30panic_null_pointer_dereference17hf718fcc86a223baaE(ptr align 8 @alloc_4a8993bb0356e27b002537d11665718a) #7
  unreachable

bb39:                                             ; preds = %bb41
  %_155 = load ptr, ptr %currentnode, align 8
  %_156 = ptrtoint ptr %_155 to i64
  %_159 = icmp eq i64 %_156, 0
  %_160 = and i1 %_159, true
  %_161 = xor i1 %_160, true
  br i1 %_161, label %bb42, label %panic3

panic2:                                           ; preds = %bb41
; call core::panicking::panic_misaligned_pointer_dereference
  call void @_ZN4core9panicking36panic_misaligned_pointer_dereference17hcc3cbded9382b6e5E(i64 8, i64 %_137, ptr align 8 @alloc_6c08595244a958eed82e30ef1b14ef63) #7
  unreachable

bb42:                                             ; preds = %bb39
  %2 = load ptr, ptr %currentnode, align 8
  store i32 0, ptr %2, align 8
  %_130 = load ptr, ptr %currentnode, align 8
  %_131 = ptrtoint ptr %_130 to i64
  %_134 = and i64 %_131, 7
  %_135 = icmp eq i64 %_134, 0
  br i1 %_135, label %bb38, label %panic4

panic3:                                           ; preds = %bb39
; call core::panicking::panic_null_pointer_dereference
  call void @_ZN4core9panicking30panic_null_pointer_dereference17hf718fcc86a223baaE(ptr align 8 @alloc_6c08595244a958eed82e30ef1b14ef63) #7
  unreachable

bb38:                                             ; preds = %bb42
  %_162 = load ptr, ptr %currentnode, align 8
  %_163 = ptrtoint ptr %_162 to i64
  %_166 = icmp eq i64 %_163, 0
  %_167 = and i1 %_166, true
  %_168 = xor i1 %_167, true
  br i1 %_168, label %bb43, label %panic5

panic4:                                           ; preds = %bb42
; call core::panicking::panic_misaligned_pointer_dereference
  call void @_ZN4core9panicking36panic_misaligned_pointer_dereference17hcc3cbded9382b6e5E(i64 8, i64 %_131, ptr align 8 @alloc_275030156dd3f0ed4a995f42ffc25649) #7
  unreachable

bb43:                                             ; preds = %bb38
  %3 = load ptr, ptr %currentnode, align 8
  %4 = getelementptr inbounds i8, ptr %3, i64 16
  store ptr null, ptr %4, align 8
  %_124 = load ptr, ptr %currentnode, align 8
  %_125 = ptrtoint ptr %_124 to i64
  %_128 = and i64 %_125, 7
  %_129 = icmp eq i64 %_128, 0
  br i1 %_129, label %bb37, label %panic6

panic5:                                           ; preds = %bb38
; call core::panicking::panic_null_pointer_dereference
  call void @_ZN4core9panicking30panic_null_pointer_dereference17hf718fcc86a223baaE(ptr align 8 @alloc_275030156dd3f0ed4a995f42ffc25649) #7
  unreachable

bb37:                                             ; preds = %bb43
  %_169 = load ptr, ptr %currentnode, align 8
  %_170 = ptrtoint ptr %_169 to i64
  %_173 = icmp eq i64 %_170, 0
  %_174 = and i1 %_173, true
  %_175 = xor i1 %_174, true
  br i1 %_175, label %bb44, label %panic7

panic6:                                           ; preds = %bb43
; call core::panicking::panic_misaligned_pointer_dereference
  call void @_ZN4core9panicking36panic_misaligned_pointer_dereference17hcc3cbded9382b6e5E(i64 8, i64 %_125, ptr align 8 @alloc_27b4cb062837e06e05a9502a5aaa0f85) #7
  unreachable

bb44:                                             ; preds = %bb37
  %5 = load ptr, ptr %currentnode, align 8
  %6 = getelementptr inbounds i8, ptr %5, i64 4
  store i32 0, ptr %6, align 4
  %_8 = load ptr, ptr %currentnode, align 8
  call void @insert_heap(ptr %heap, ptr %_8) #8
  store ptr null, ptr %neibor, align 8
  store i32 0, ptr %i, align 4
  call void @llvm.memset.p0.i64(ptr align 4 %htable, i8 0, i64 52, i1 false)
  store ptr null, ptr %node, align 8
  store i32 0, ptr %i, align 4
  br label %bb5

panic7:                                           ; preds = %bb37
; call core::panicking::panic_null_pointer_dereference
  call void @_ZN4core9panicking30panic_null_pointer_dereference17hf718fcc86a223baaE(ptr align 8 @alloc_27b4cb062837e06e05a9502a5aaa0f85) #7
  unreachable

bb5:                                              ; preds = %bb8, %bb44
  %_14 = load i32, ptr %i, align 4
  %_13 = icmp slt i32 %_14, 13
  br i1 %_13, label %bb6, label %bb9

bb9:                                              ; preds = %bb16, %bb5
  %_20 = call i32 @heap_empty(ptr %heap) #8
  %7 = icmp eq i32 %_20, 0
  br i1 %7, label %bb11, label %bb23

bb6:                                              ; preds = %bb5
  %_16 = load i32, ptr %i, align 4
  %_15 = call i32 @find_min_h(ptr %map, i32 %_16) #8
  %_18 = load i32, ptr %i, align 4
  %_17 = sext i32 %_18 to i64
  %_19 = icmp ult i64 %_17, 13
  br i1 %_19, label %bb8, label %panic35

bb11:                                             ; preds = %bb9
  %_21 = call ptr @delete_min(ptr %heap) #8
  store ptr %_21, ptr %currentnode, align 8
  %_118 = load ptr, ptr %currentnode, align 8
  %_119 = ptrtoint ptr %_118 to i64
  %_122 = and i64 %_119, 7
  %_123 = icmp eq i64 %_122, 0
  br i1 %_123, label %bb36, label %panic8

bb23:                                             ; preds = %bb13, %bb9
  ret void

bb36:                                             ; preds = %bb11
  %_176 = load ptr, ptr %currentnode, align 8
  %_177 = ptrtoint ptr %_176 to i64
  %_180 = icmp eq i64 %_177, 0
  %_181 = and i1 %_180, true
  %_182 = xor i1 %_181, true
  br i1 %_182, label %bb45, label %panic9

panic8:                                           ; preds = %bb11
; call core::panicking::panic_misaligned_pointer_dereference
  call void @_ZN4core9panicking36panic_misaligned_pointer_dereference17hcc3cbded9382b6e5E(i64 8, i64 %_119, ptr align 8 @alloc_d033a54681b8919fd7b0752e5dc7d5be) #7
  unreachable

bb45:                                             ; preds = %bb36
  %8 = load ptr, ptr %currentnode, align 8
  %9 = getelementptr inbounds i8, ptr %8, i64 8
  %_22 = load i32, ptr %9, align 8
  %10 = icmp eq i32 %_22, 12
  br i1 %10, label %bb13, label %bb14

panic9:                                           ; preds = %bb36
; call core::panicking::panic_null_pointer_dereference
  call void @_ZN4core9panicking30panic_null_pointer_dereference17hf718fcc86a223baaE(ptr align 8 @alloc_d033a54681b8919fd7b0752e5dc7d5be) #7
  unreachable

bb13:                                             ; preds = %bb45
  %_24 = load ptr, ptr %currentnode, align 8
  call void @displayoutcome(ptr %_24) #8
  br label %bb23

bb14:                                             ; preds = %bb45
  %_112 = load ptr, ptr %currentnode, align 8
  %_113 = ptrtoint ptr %_112 to i64
  %_116 = and i64 %_113, 7
  %_117 = icmp eq i64 %_116, 0
  br i1 %_117, label %bb35, label %panic10

bb35:                                             ; preds = %bb14
  %_183 = load ptr, ptr %currentnode, align 8
  %_184 = ptrtoint ptr %_183 to i64
  %_187 = icmp eq i64 %_184, 0
  %_188 = and i1 %_187, true
  %_189 = xor i1 %_188, true
  br i1 %_189, label %bb46, label %panic11

panic10:                                          ; preds = %bb14
; call core::panicking::panic_misaligned_pointer_dereference
  call void @_ZN4core9panicking36panic_misaligned_pointer_dereference17hcc3cbded9382b6e5E(i64 8, i64 %_113, ptr align 8 @alloc_addda128a0e3dcb83ae95ed41b5d84c1) #7
  unreachable

bb46:                                             ; preds = %bb35
  %11 = load ptr, ptr %currentnode, align 8
  %12 = getelementptr inbounds i8, ptr %11, i64 8
  %_28 = load i32, ptr %12, align 8
  %_27 = sext i32 %_28 to i64
; call core::ptr::mut_ptr::<impl *mut T>::offset::precondition_check
  call void @"_ZN4core3ptr7mut_ptr31_$LT$impl$u20$$BP$mut$u20$T$GT$6offset18precondition_check17h0a6a86d039e3dddeE"(ptr %map, i64 %_27, i64 8) #8
  %_0.i = getelementptr inbounds ptr, ptr %map, i64 %_27
  %_107 = ptrtoint ptr %_0.i to i64
  %_110 = and i64 %_107, 7
  %_111 = icmp eq i64 %_110, 0
  br i1 %_111, label %bb34, label %panic12

panic11:                                          ; preds = %bb35
; call core::panicking::panic_null_pointer_dereference
  call void @_ZN4core9panicking30panic_null_pointer_dereference17hf718fcc86a223baaE(ptr align 8 @alloc_addda128a0e3dcb83ae95ed41b5d84c1) #7
  unreachable

bb34:                                             ; preds = %bb46
  %_191 = ptrtoint ptr %_0.i to i64
  %_194 = icmp eq i64 %_191, 0
  %_195 = and i1 %_194, true
  %_196 = xor i1 %_195, true
  br i1 %_196, label %bb47, label %panic13

panic12:                                          ; preds = %bb46
; call core::panicking::panic_misaligned_pointer_dereference
  call void @_ZN4core9panicking36panic_misaligned_pointer_dereference17hcc3cbded9382b6e5E(i64 8, i64 %_107, ptr align 8 @alloc_3aee71fa53c298d0a445eba59260342a) #7
  unreachable

bb47:                                             ; preds = %bb34
  %_25 = load ptr, ptr %_0.i, align 8
  store ptr %_25, ptr %neibor, align 8
  br label %bb16

panic13:                                          ; preds = %bb34
; call core::panicking::panic_null_pointer_dereference
  call void @_ZN4core9panicking30panic_null_pointer_dereference17hf718fcc86a223baaE(ptr align 8 @alloc_3aee71fa53c298d0a445eba59260342a) #7
  unreachable

bb16:                                             ; preds = %bb57, %bb47
  %_30 = load ptr, ptr %neibor, align 8
; call core::ptr::mut_ptr::<impl *mut T>::is_null
  %_29 = call zeroext i1 @"_ZN4core3ptr7mut_ptr31_$LT$impl$u20$$BP$mut$u20$T$GT$7is_null17h6de96eba1faaf459E"(ptr %_30) #8
  br i1 %_29, label %bb9, label %bb18

bb18:                                             ; preds = %bb16
  %_31 = call ptr @malloc(i64 24) #8
  store ptr %_31, ptr %node, align 8
  %_100 = load ptr, ptr %neibor, align 8
  %_101 = ptrtoint ptr %_100 to i64
  %_104 = and i64 %_101, 7
  %_105 = icmp eq i64 %_104, 0
  br i1 %_105, label %bb33, label %panic14

bb33:                                             ; preds = %bb18
  %_197 = load ptr, ptr %neibor, align 8
  %_198 = ptrtoint ptr %_197 to i64
  %_201 = icmp eq i64 %_198, 0
  %_202 = and i1 %_201, true
  %_203 = xor i1 %_202, true
  br i1 %_203, label %bb48, label %panic15

panic14:                                          ; preds = %bb18
; call core::panicking::panic_misaligned_pointer_dereference
  call void @_ZN4core9panicking36panic_misaligned_pointer_dereference17hcc3cbded9382b6e5E(i64 8, i64 %_101, ptr align 8 @alloc_891bdf050a6ede61d557c3ee5ebeda29) #7
  unreachable

bb48:                                             ; preds = %bb33
  %13 = load ptr, ptr %neibor, align 8
  %_34 = load i32, ptr %13, align 8
  %_94 = load ptr, ptr %node, align 8
  %_95 = ptrtoint ptr %_94 to i64
  %_98 = and i64 %_95, 7
  %_99 = icmp eq i64 %_98, 0
  br i1 %_99, label %bb32, label %panic16

panic15:                                          ; preds = %bb33
; call core::panicking::panic_null_pointer_dereference
  call void @_ZN4core9panicking30panic_null_pointer_dereference17hf718fcc86a223baaE(ptr align 8 @alloc_891bdf050a6ede61d557c3ee5ebeda29) #7
  unreachable

bb32:                                             ; preds = %bb48
  %_204 = load ptr, ptr %node, align 8
  %_205 = ptrtoint ptr %_204 to i64
  %_208 = icmp eq i64 %_205, 0
  %_209 = and i1 %_208, true
  %_210 = xor i1 %_209, true
  br i1 %_210, label %bb49, label %panic17

panic16:                                          ; preds = %bb48
; call core::panicking::panic_misaligned_pointer_dereference
  call void @_ZN4core9panicking36panic_misaligned_pointer_dereference17hcc3cbded9382b6e5E(i64 8, i64 %_95, ptr align 8 @alloc_c9bdbeb54b95c3375b8f6238b2b7e5f9) #7
  unreachable

bb49:                                             ; preds = %bb32
  %14 = load ptr, ptr %node, align 8
  %15 = getelementptr inbounds i8, ptr %14, i64 8
  store i32 %_34, ptr %15, align 8
  %_88 = load ptr, ptr %currentnode, align 8
  %_89 = ptrtoint ptr %_88 to i64
  %_92 = and i64 %_89, 7
  %_93 = icmp eq i64 %_92, 0
  br i1 %_93, label %bb31, label %panic18

panic17:                                          ; preds = %bb32
; call core::panicking::panic_null_pointer_dereference
  call void @_ZN4core9panicking30panic_null_pointer_dereference17hf718fcc86a223baaE(ptr align 8 @alloc_c9bdbeb54b95c3375b8f6238b2b7e5f9) #7
  unreachable

bb31:                                             ; preds = %bb49
  %_211 = load ptr, ptr %currentnode, align 8
  %_212 = ptrtoint ptr %_211 to i64
  %_215 = icmp eq i64 %_212, 0
  %_216 = and i1 %_215, true
  %_217 = xor i1 %_216, true
  br i1 %_217, label %bb50, label %panic19

panic18:                                          ; preds = %bb49
; call core::panicking::panic_misaligned_pointer_dereference
  call void @_ZN4core9panicking36panic_misaligned_pointer_dereference17hcc3cbded9382b6e5E(i64 8, i64 %_89, ptr align 8 @alloc_945c86e5e78f35778fc16e4e1c092e9f) #7
  unreachable

bb50:                                             ; preds = %bb31
  %16 = load ptr, ptr %currentnode, align 8
  %_35 = load i32, ptr %16, align 8
  %_82 = load ptr, ptr %neibor, align 8
  %_83 = ptrtoint ptr %_82 to i64
  %_86 = and i64 %_83, 7
  %_87 = icmp eq i64 %_86, 0
  br i1 %_87, label %bb30, label %panic20

panic19:                                          ; preds = %bb31
; call core::panicking::panic_null_pointer_dereference
  call void @_ZN4core9panicking30panic_null_pointer_dereference17hf718fcc86a223baaE(ptr align 8 @alloc_945c86e5e78f35778fc16e4e1c092e9f) #7
  unreachable

bb30:                                             ; preds = %bb50
  %_218 = load ptr, ptr %neibor, align 8
  %_219 = ptrtoint ptr %_218 to i64
  %_222 = icmp eq i64 %_219, 0
  %_223 = and i1 %_222, true
  %_224 = xor i1 %_223, true
  br i1 %_224, label %bb51, label %panic21

panic20:                                          ; preds = %bb50
; call core::panicking::panic_misaligned_pointer_dereference
  call void @_ZN4core9panicking36panic_misaligned_pointer_dereference17hcc3cbded9382b6e5E(i64 8, i64 %_83, ptr align 8 @alloc_117aa43f0f1bed791a4be81741373e14) #7
  unreachable

bb51:                                             ; preds = %bb30
  %17 = load ptr, ptr %neibor, align 8
  %18 = getelementptr inbounds i8, ptr %17, i64 4
  %_36 = load i32, ptr %18, align 4
  %_76 = load ptr, ptr %node, align 8
  %_77 = ptrtoint ptr %_76 to i64
  %_80 = and i64 %_77, 7
  %_81 = icmp eq i64 %_80, 0
  br i1 %_81, label %bb29, label %panic22

panic21:                                          ; preds = %bb30
; call core::panicking::panic_null_pointer_dereference
  call void @_ZN4core9panicking30panic_null_pointer_dereference17hf718fcc86a223baaE(ptr align 8 @alloc_117aa43f0f1bed791a4be81741373e14) #7
  unreachable

bb29:                                             ; preds = %bb51
  %_225 = load ptr, ptr %node, align 8
  %_226 = ptrtoint ptr %_225 to i64
  %_229 = icmp eq i64 %_226, 0
  %_230 = and i1 %_229, true
  %_231 = xor i1 %_230, true
  br i1 %_231, label %bb52, label %panic23

panic22:                                          ; preds = %bb51
; call core::panicking::panic_misaligned_pointer_dereference
  call void @_ZN4core9panicking36panic_misaligned_pointer_dereference17hcc3cbded9382b6e5E(i64 8, i64 %_77, ptr align 8 @alloc_fa5d5e9a09ee90d32021da800cd401a8) #7
  unreachable

bb52:                                             ; preds = %bb29
  %19 = load ptr, ptr %node, align 8
  %20 = add i32 %_35, %_36
  store i32 %20, ptr %19, align 8
  %_70 = load ptr, ptr %node, align 8
  %_71 = ptrtoint ptr %_70 to i64
  %_74 = and i64 %_71, 7
  %_75 = icmp eq i64 %_74, 0
  br i1 %_75, label %bb28, label %panic24

panic23:                                          ; preds = %bb29
; call core::panicking::panic_null_pointer_dereference
  call void @_ZN4core9panicking30panic_null_pointer_dereference17hf718fcc86a223baaE(ptr align 8 @alloc_fa5d5e9a09ee90d32021da800cd401a8) #7
  unreachable

bb28:                                             ; preds = %bb52
  %_232 = load ptr, ptr %node, align 8
  %_233 = ptrtoint ptr %_232 to i64
  %_236 = icmp eq i64 %_233, 0
  %_237 = and i1 %_236, true
  %_238 = xor i1 %_237, true
  br i1 %_238, label %bb53, label %panic25

panic24:                                          ; preds = %bb52
; call core::panicking::panic_misaligned_pointer_dereference
  call void @_ZN4core9panicking36panic_misaligned_pointer_dereference17hcc3cbded9382b6e5E(i64 8, i64 %_71, ptr align 8 @alloc_80d637b4e0062570da5b57cfa7356d1b) #7
  unreachable

bb53:                                             ; preds = %bb28
  %21 = load ptr, ptr %node, align 8
  %_37 = load i32, ptr %21, align 8
  %_64 = load ptr, ptr %node, align 8
  %_65 = ptrtoint ptr %_64 to i64
  %_68 = and i64 %_65, 7
  %_69 = icmp eq i64 %_68, 0
  br i1 %_69, label %bb27, label %panic26

panic25:                                          ; preds = %bb28
; call core::panicking::panic_null_pointer_dereference
  call void @_ZN4core9panicking30panic_null_pointer_dereference17hf718fcc86a223baaE(ptr align 8 @alloc_80d637b4e0062570da5b57cfa7356d1b) #7
  unreachable

bb27:                                             ; preds = %bb53
  %_239 = load ptr, ptr %node, align 8
  %_240 = ptrtoint ptr %_239 to i64
  %_243 = icmp eq i64 %_240, 0
  %_244 = and i1 %_243, true
  %_245 = xor i1 %_244, true
  br i1 %_245, label %bb54, label %panic27

panic26:                                          ; preds = %bb53
; call core::panicking::panic_misaligned_pointer_dereference
  call void @_ZN4core9panicking36panic_misaligned_pointer_dereference17hcc3cbded9382b6e5E(i64 8, i64 %_65, ptr align 8 @alloc_01afd247897fc7de1938d34efbde6743) #7
  unreachable

bb54:                                             ; preds = %bb27
  %22 = load ptr, ptr %node, align 8
  %23 = getelementptr inbounds i8, ptr %22, i64 8
  %_40 = load i32, ptr %23, align 8
  %_39 = sext i32 %_40 to i64
  %_41 = icmp ult i64 %_39, 13
  br i1 %_41, label %bb21, label %panic28

panic27:                                          ; preds = %bb27
; call core::panicking::panic_null_pointer_dereference
  call void @_ZN4core9panicking30panic_null_pointer_dereference17hf718fcc86a223baaE(ptr align 8 @alloc_01afd247897fc7de1938d34efbde6743) #7
  unreachable

bb21:                                             ; preds = %bb54
  %24 = getelementptr inbounds nuw i32, ptr %htable, i64 %_39
  %_38 = load i32, ptr %24, align 4
  %_58 = load ptr, ptr %node, align 8
  %_59 = ptrtoint ptr %_58 to i64
  %_62 = and i64 %_59, 7
  %_63 = icmp eq i64 %_62, 0
  br i1 %_63, label %bb26, label %panic29

panic28:                                          ; preds = %bb54
; call core::panicking::panic_bounds_check
  call void @_ZN4core9panicking18panic_bounds_check17h27d1e4f0cb1112dfE(i64 %_39, i64 13, ptr align 8 @alloc_caa692e954736fd6fb32a0ee34a4f342) #7
  unreachable

bb26:                                             ; preds = %bb21
  %_246 = load ptr, ptr %node, align 8
  %_247 = ptrtoint ptr %_246 to i64
  %_250 = icmp eq i64 %_247, 0
  %_251 = and i1 %_250, true
  %_252 = xor i1 %_251, true
  br i1 %_252, label %bb55, label %panic30

panic29:                                          ; preds = %bb21
; call core::panicking::panic_misaligned_pointer_dereference
  call void @_ZN4core9panicking36panic_misaligned_pointer_dereference17hcc3cbded9382b6e5E(i64 8, i64 %_59, ptr align 8 @alloc_7704355faf1b1f9a24b11efa641da2ba) #7
  unreachable

bb55:                                             ; preds = %bb26
  %25 = load ptr, ptr %node, align 8
  %26 = getelementptr inbounds i8, ptr %25, i64 4
  %27 = add i32 %_37, %_38
  store i32 %27, ptr %26, align 4
  %_42 = load ptr, ptr %currentnode, align 8
  %_52 = load ptr, ptr %node, align 8
  %_53 = ptrtoint ptr %_52 to i64
  %_56 = and i64 %_53, 7
  %_57 = icmp eq i64 %_56, 0
  br i1 %_57, label %bb25, label %panic31

panic30:                                          ; preds = %bb26
; call core::panicking::panic_null_pointer_dereference
  call void @_ZN4core9panicking30panic_null_pointer_dereference17hf718fcc86a223baaE(ptr align 8 @alloc_7704355faf1b1f9a24b11efa641da2ba) #7
  unreachable

bb25:                                             ; preds = %bb55
  %_253 = load ptr, ptr %node, align 8
  %_254 = ptrtoint ptr %_253 to i64
  %_257 = icmp eq i64 %_254, 0
  %_258 = and i1 %_257, true
  %_259 = xor i1 %_258, true
  br i1 %_259, label %bb56, label %panic32

panic31:                                          ; preds = %bb55
; call core::panicking::panic_misaligned_pointer_dereference
  call void @_ZN4core9panicking36panic_misaligned_pointer_dereference17hcc3cbded9382b6e5E(i64 8, i64 %_53, ptr align 8 @alloc_7d4e55f816908618c39eec706710025f) #7
  unreachable

bb56:                                             ; preds = %bb25
  %28 = load ptr, ptr %node, align 8
  %29 = getelementptr inbounds i8, ptr %28, i64 16
  store ptr %_42, ptr %29, align 8
  %_44 = load ptr, ptr %node, align 8
  call void @insert_heap(ptr %heap, ptr %_44) #8
  %_46 = load ptr, ptr %neibor, align 8
  %_47 = ptrtoint ptr %_46 to i64
  %_50 = and i64 %_47, 7
  %_51 = icmp eq i64 %_50, 0
  br i1 %_51, label %bb24, label %panic33

panic32:                                          ; preds = %bb25
; call core::panicking::panic_null_pointer_dereference
  call void @_ZN4core9panicking30panic_null_pointer_dereference17hf718fcc86a223baaE(ptr align 8 @alloc_7d4e55f816908618c39eec706710025f) #7
  unreachable

bb24:                                             ; preds = %bb56
  %_260 = load ptr, ptr %neibor, align 8
  %_261 = ptrtoint ptr %_260 to i64
  %_264 = icmp eq i64 %_261, 0
  %_265 = and i1 %_264, true
  %_266 = xor i1 %_265, true
  br i1 %_266, label %bb57, label %panic34

panic33:                                          ; preds = %bb56
; call core::panicking::panic_misaligned_pointer_dereference
  call void @_ZN4core9panicking36panic_misaligned_pointer_dereference17hcc3cbded9382b6e5E(i64 8, i64 %_47, ptr align 8 @alloc_7cba2cebd1759d8bf6e3b1bb791ab0b2) #7
  unreachable

bb57:                                             ; preds = %bb24
  %30 = load ptr, ptr %neibor, align 8
  %31 = getelementptr inbounds i8, ptr %30, i64 8
  %_45 = load ptr, ptr %31, align 8
  store ptr %_45, ptr %neibor, align 8
  br label %bb16

panic34:                                          ; preds = %bb24
; call core::panicking::panic_null_pointer_dereference
  call void @_ZN4core9panicking30panic_null_pointer_dereference17hf718fcc86a223baaE(ptr align 8 @alloc_7cba2cebd1759d8bf6e3b1bb791ab0b2) #7
  unreachable

bb8:                                              ; preds = %bb6
  %32 = getelementptr inbounds nuw i32, ptr %htable, i64 %_17
  store i32 %_15, ptr %32, align 4
  %33 = load i32, ptr %i, align 4
  %34 = add i32 %33, 1
  store i32 %34, ptr %i, align 4
  br label %bb5

panic35:                                          ; preds = %bb6
; call core::panicking::panic_bounds_check
  call void @_ZN4core9panicking18panic_bounds_check17h27d1e4f0cb1112dfE(i64 %_17, i64 13, ptr align 8 @alloc_53361c05b3903c0ef07c444cbff94b04) #7
  unreachable
}

; Function Attrs: nocallback nofree nosync nounwind speculatable willreturn memory(none)
declare { i64, i1 } @llvm.smul.with.overflow.i64(i64, i64) #3

; Function Attrs: nocallback nofree nosync nounwind speculatable willreturn memory(none)
declare { i64, i1 } @llvm.uadd.with.overflow.i64(i64, i64) #3

; core::panicking::panic_nounwind
; Function Attrs: cold noinline noreturn nounwind nonlazybind
declare void @_ZN4core9panicking14panic_nounwind17h211d9ce8d63f12e7E(ptr align 1, i64) unnamed_addr #4

; core::panicking::panic_misaligned_pointer_dereference
; Function Attrs: cold minsize noinline noreturn nounwind nonlazybind optsize
declare void @_ZN4core9panicking36panic_misaligned_pointer_dereference17hcc3cbded9382b6e5E(i64, i64, ptr align 8) unnamed_addr #5

; core::panicking::panic_null_pointer_dereference
; Function Attrs: cold minsize noinline noreturn nounwind nonlazybind optsize
declare void @_ZN4core9panicking30panic_null_pointer_dereference17hf718fcc86a223baaE(ptr align 8) unnamed_addr #5

; Function Attrs: nounwind nonlazybind
declare ptr @malloc(i64) unnamed_addr #2

; core::panicking::panic_const::panic_const_div_overflow
; Function Attrs: cold noinline noreturn nounwind nonlazybind
declare void @_ZN4core9panicking11panic_const24panic_const_div_overflow17h1ac73c9e33e18298E(ptr align 8) unnamed_addr #4

; Function Attrs: nounwind nonlazybind
declare i32 @printf(ptr, ...) unnamed_addr #2

; Function Attrs: nocallback nofree nounwind willreturn memory(argmem: write)
declare void @llvm.memset.p0.i64(ptr nocapture writeonly, i8, i64, i1 immarg) #6

; core::panicking::panic_bounds_check
; Function Attrs: cold minsize noinline noreturn nounwind nonlazybind optsize
declare void @_ZN4core9panicking18panic_bounds_check17h27d1e4f0cb1112dfE(i64, i64, ptr align 8) unnamed_addr #5

attributes #0 = { cold nounwind nonlazybind "probe-stack"="inline-asm" "target-cpu"="x86-64" }
attributes #1 = { inlinehint nounwind nonlazybind "probe-stack"="inline-asm" "target-cpu"="x86-64" }
attributes #2 = { nounwind nonlazybind "probe-stack"="inline-asm" "target-cpu"="x86-64" }
attributes #3 = { nocallback nofree nosync nounwind speculatable willreturn memory(none) }
attributes #4 = { cold noinline noreturn nounwind nonlazybind "probe-stack"="inline-asm" "target-cpu"="x86-64" }
attributes #5 = { cold minsize noinline noreturn nounwind nonlazybind optsize "probe-stack"="inline-asm" "target-cpu"="x86-64" }
attributes #6 = { nocallback nofree nounwind willreturn memory(argmem: write) }
attributes #7 = { noreturn nounwind }
attributes #8 = { nounwind }

!llvm.module.flags = !{!0, !1}
!llvm.ident = !{!2}

!0 = !{i32 8, !"PIC Level", i32 2}
!1 = !{i32 2, !"RtLibUseGOT", i32 1}
!2 = !{!"rustc version 1.88.0-nightly (0b45675cf 2025-03-31)"}
