; ModuleID = 'cx7pd1jwrncf21nj9f0itbe8w'
source_filename = "cx7pd1jwrncf21nj9f0itbe8w"
target datalayout = "e-m:e-p270:32:32-p271:32:32-p272:64:64-i64:64-i128:128-f80:128-n8:16:32:64-S128"
target triple = "x86_64-unknown-linux-gnu"

@alloc_3a31753a0b113451bf74f615363720ce = private unnamed_addr constant [3 x i8] c"%d\00", align 1
@alloc_f5ffd2fd1476bab43ad89fb40c72d0c5 = private unnamed_addr constant [10 x i8] c"src/lib.rs", align 1
@alloc_d276e58b0b165cf6e7ab175535023059 = private unnamed_addr constant <{ ptr, [16 x i8] }> <{ ptr @alloc_f5ffd2fd1476bab43ad89fb40c72d0c5, [16 x i8] c"\0A\00\00\00\00\00\00\00N\00\00\00\05\00\00\00" }>, align 8
@alloc_6fbbe498723ac7f1a024e3e35d079c2e = private unnamed_addr constant <{ ptr, [16 x i8] }> <{ ptr @alloc_f5ffd2fd1476bab43ad89fb40c72d0c5, [16 x i8] c"\0A\00\00\00\00\00\00\00O\00\00\00\05\00\00\00" }>, align 8
@alloc_7e41215b31d5f39601b8b04d2633013c = private unnamed_addr constant <{ ptr, [16 x i8] }> <{ ptr @alloc_f5ffd2fd1476bab43ad89fb40c72d0c5, [16 x i8] c"\0A\00\00\00\00\00\00\00P\00\00\00\11\00\00\00" }>, align 8
@alloc_b6e19de1f5151b51b8788bfc8ca6e5c9 = private unnamed_addr constant <{ ptr, [16 x i8] }> <{ ptr @alloc_f5ffd2fd1476bab43ad89fb40c72d0c5, [16 x i8] c"\0A\00\00\00\00\00\00\00P\00\00\00\05\00\00\00" }>, align 8
@alloc_21bab6856a00df07d869582a6654a89d = private unnamed_addr constant <{ ptr, [16 x i8] }> <{ ptr @alloc_f5ffd2fd1476bab43ad89fb40c72d0c5, [16 x i8] c"\0A\00\00\00\00\00\00\00Q\00\00\00\05\00\00\00" }>, align 8
@alloc_8c036db4b7290d13ff4933452c3f75e2 = private unnamed_addr constant <{ ptr, [16 x i8] }> <{ ptr @alloc_f5ffd2fd1476bab43ad89fb40c72d0c5, [16 x i8] c"\0A\00\00\00\00\00\00\00X\00\00\00\13\00\00\00" }>, align 8
@alloc_0277dfc44218e56a37cae940318a1547 = private unnamed_addr constant <{ ptr, [16 x i8] }> <{ ptr @alloc_f5ffd2fd1476bab43ad89fb40c72d0c5, [16 x i8] c"\0A\00\00\00\00\00\00\00[\00\00\00\1C\00\00\00" }>, align 8
@alloc_0d0d9b0f8f193e148c17108009ef7152 = private unnamed_addr constant <{ ptr, [16 x i8] }> <{ ptr @alloc_f5ffd2fd1476bab43ad89fb40c72d0c5, [16 x i8] c"\0A\00\00\00\00\00\00\00[\00\00\00\09\00\00\00" }>, align 8
@alloc_647e17dbe8b8ab78def08e00595cb89c = private unnamed_addr constant <{ ptr, [16 x i8] }> <{ ptr @alloc_f5ffd2fd1476bab43ad89fb40c72d0c5, [16 x i8] c"\0A\00\00\00\00\00\00\00Y\00\00\00\1D\00\00\00" }>, align 8
@alloc_178a6fa9e79826942eeefeb2dd3da34d = private unnamed_addr constant <{ ptr, [16 x i8] }> <{ ptr @alloc_f5ffd2fd1476bab43ad89fb40c72d0c5, [16 x i8] c"\0A\00\00\00\00\00\00\00Y\00\00\00\09\00\00\00" }>, align 8
@alloc_6d40c3789ff6e5698457c687d297f6ef = private unnamed_addr constant <{ ptr, [16 x i8] }> <{ ptr @alloc_f5ffd2fd1476bab43ad89fb40c72d0c5, [16 x i8] c"\0A\00\00\00\00\00\00\00a\00\00\00\08\00\00\00" }>, align 8
@alloc_db66bf07ea91131da7cca3744dcaa0ce = private unnamed_addr constant <{ ptr, [16 x i8] }> <{ ptr @alloc_f5ffd2fd1476bab43ad89fb40c72d0c5, [16 x i8] c"\0A\00\00\00\00\00\00\00i\00\00\00\14\00\00\00" }>, align 8
@alloc_fdc5f6fe634689cdbcb2296e8963e5df = private unnamed_addr constant <{ ptr, [16 x i8] }> <{ ptr @alloc_f5ffd2fd1476bab43ad89fb40c72d0c5, [16 x i8] c"\0A\00\00\00\00\00\00\00j\00\00\00\09\00\00\00" }>, align 8
@alloc_fb4059e11dd603ce511a5b2ac2aa5140 = private unnamed_addr constant <{ ptr, [16 x i8] }> <{ ptr @alloc_f5ffd2fd1476bab43ad89fb40c72d0c5, [16 x i8] c"\0A\00\00\00\00\00\00\00b\00\00\00\10\00\00\00" }>, align 8
@alloc_958355f2f8c79af0ce59e609dc7116c7 = private unnamed_addr constant <{ ptr, [16 x i8] }> <{ ptr @alloc_f5ffd2fd1476bab43ad89fb40c72d0c5, [16 x i8] c"\0A\00\00\00\00\00\00\00d\00\00\00\17\00\00\00" }>, align 8
@alloc_0b01c888ecd4578cb8ee0e5528f75848 = private unnamed_addr constant <{ ptr, [16 x i8] }> <{ ptr @alloc_f5ffd2fd1476bab43ad89fb40c72d0c5, [16 x i8] c"\0A\00\00\00\00\00\00\00e\00\00\00\1A\00\00\00" }>, align 8
@alloc_17b42275793d3e1201b732d801cf708d = private unnamed_addr constant <{ ptr, [16 x i8] }> <{ ptr @alloc_f5ffd2fd1476bab43ad89fb40c72d0c5, [16 x i8] c"\0A\00\00\00\00\00\00\00c\00\00\00\1A\00\00\00" }>, align 8
@alloc_22f02c6fb1dfd5a255a7136a77bc207b = private unnamed_addr constant <{ ptr, [16 x i8] }> <{ ptr @alloc_f5ffd2fd1476bab43ad89fb40c72d0c5, [16 x i8] c"\0A\00\00\00\00\00\00\00u\00\00\00\08\00\00\00" }>, align 8
@alloc_a988a53895c5e8cd3f2b29e497141d75 = private unnamed_addr constant <{ ptr, [16 x i8] }> <{ ptr @alloc_f5ffd2fd1476bab43ad89fb40c72d0c5, [16 x i8] c"\0A\00\00\00\00\00\00\00x\00\00\00\09\00\00\00" }>, align 8
@alloc_6e8a19f73b06021a33cf11f3b2d48238 = private unnamed_addr constant <{ ptr, [16 x i8] }> <{ ptr @alloc_f5ffd2fd1476bab43ad89fb40c72d0c5, [16 x i8] c"\0A\00\00\00\00\00\00\00\89\00\00\00\09\00\00\00" }>, align 8
@alloc_033d48c10368d51367c1205bc240e55c = private unnamed_addr constant <{ ptr, [16 x i8] }> <{ ptr @alloc_f5ffd2fd1476bab43ad89fb40c72d0c5, [16 x i8] c"\0A\00\00\00\00\00\00\00\8A\00\00\00\10\00\00\00" }>, align 8
@alloc_51defa837211d00b128e9b5e60ecda6b = private unnamed_addr constant <{ ptr, [16 x i8] }> <{ ptr @alloc_f5ffd2fd1476bab43ad89fb40c72d0c5, [16 x i8] c"\0A\00\00\00\00\00\00\00\8C\00\00\00\09\00\00\00" }>, align 8
@alloc_a7f670ad66872aece48658a1612d4698 = private unnamed_addr constant <{ ptr, [16 x i8] }> <{ ptr @alloc_f5ffd2fd1476bab43ad89fb40c72d0c5, [16 x i8] c"\0A\00\00\00\00\00\00\00\8D\00\00\00\10\00\00\00" }>, align 8
@alloc_fef22c008e94e74eb08b32376ab6ec59 = private unnamed_addr constant <{ ptr, [16 x i8] }> <{ ptr @alloc_f5ffd2fd1476bab43ad89fb40c72d0c5, [16 x i8] c"\0A\00\00\00\00\00\00\00\8F\00\00\00\05\00\00\00" }>, align 8
@alloc_e0f55af8ba14d1ad556d8e5f4bc59db9 = private unnamed_addr constant <{ ptr, [16 x i8] }> <{ ptr @alloc_f5ffd2fd1476bab43ad89fb40c72d0c5, [16 x i8] c"\0A\00\00\00\00\00\00\00\93\00\00\00\09\00\00\00" }>, align 8
@alloc_7bb8bdb5007bc5d618b99a2857603600 = private unnamed_addr constant <{ ptr, [16 x i8] }> <{ ptr @alloc_f5ffd2fd1476bab43ad89fb40c72d0c5, [16 x i8] c"\0A\00\00\00\00\00\00\00\94\00\00\00\12\00\00\00" }>, align 8
@alloc_918a92c90d290e6e2e18d4e54b76dea3 = private unnamed_addr constant <{ ptr, [16 x i8] }> <{ ptr @alloc_f5ffd2fd1476bab43ad89fb40c72d0c5, [16 x i8] c"\0A\00\00\00\00\00\00\00\96\00\00\00\09\00\00\00" }>, align 8
@alloc_cf352b42dc381e6c757143e5619b4a40 = private unnamed_addr constant <{ ptr, [16 x i8] }> <{ ptr @alloc_f5ffd2fd1476bab43ad89fb40c72d0c5, [16 x i8] c"\0A\00\00\00\00\00\00\00\97\00\00\00\12\00\00\00" }>, align 8

; core::ptr::mut_ptr::<impl *mut T>::is_null
; Function Attrs: inlinehint nounwind nonlazybind
define internal zeroext i1 @"_ZN4core3ptr7mut_ptr31_$LT$impl$u20$$BP$mut$u20$T$GT$7is_null17hd0788f443ab8c6f0E"(ptr %self) unnamed_addr #0 {
start:
  %_3 = ptrtoint ptr %self to i64
  %_0 = icmp eq i64 %_3, 0
  ret i1 %_0
}

; Function Attrs: nounwind nonlazybind
define ptr @MakeTree(i32 %N) unnamed_addr #1 {
start:
  %V = alloca [4 x i8], align 4
  %i = alloca [4 x i8], align 4
  %T = alloca [8 x i8], align 8
  store ptr null, ptr %T, align 8
  store i32 0, ptr %i, align 4
  store i32 0, ptr %V, align 4
  %_5 = call i32 (ptr, ...) @scanf(ptr @alloc_3a31753a0b113451bf74f615363720ce, ptr %V) #3
  %_13 = load i32, ptr %V, align 4
  %_12 = call ptr @NewNode(i32 %_13) #3
  store ptr %_12, ptr %T, align 8
  store i32 1, ptr %i, align 4
  br label %bb3

bb3:                                              ; preds = %bb4, %start
  %_15 = load i32, ptr %i, align 4
  %_14 = icmp slt i32 %_15, %N
  br i1 %_14, label %bb4, label %bb7

bb7:                                              ; preds = %bb3
  %_0 = load ptr, ptr %T, align 8
  ret ptr %_0

bb4:                                              ; preds = %bb3
  %_16 = call i32 (ptr, ...) @scanf(ptr @alloc_3a31753a0b113451bf74f615363720ce, ptr %V) #3
  %_24 = load ptr, ptr %T, align 8
  %_25 = load i32, ptr %V, align 4
  %_23 = call ptr @Insert(ptr %_24, i32 %_25) #3
  store ptr %_23, ptr %T, align 8
  %0 = load i32, ptr %i, align 4
  %1 = add i32 %0, 1
  store i32 %1, ptr %i, align 4
  br label %bb3
}

; Function Attrs: nounwind nonlazybind
define ptr @NewNode(i32 %V) unnamed_addr #1 {
start:
  %_2 = call ptr @malloc(i64 32) #3
  %_31 = ptrtoint ptr %_2 to i64
  %_34 = and i64 %_31, 7
  %_35 = icmp eq i64 %_34, 0
  br i1 %_35, label %bb7, label %panic

bb7:                                              ; preds = %start
  %_37 = ptrtoint ptr %_2 to i64
  %_40 = icmp eq i64 %_37, 0
  %_41 = and i1 %_40, true
  %_42 = xor i1 %_41, true
  br i1 %_42, label %bb8, label %panic1

panic:                                            ; preds = %start
; call core::panicking::panic_misaligned_pointer_dereference
  call void @_ZN4core9panicking36panic_misaligned_pointer_dereference17hcc3cbded9382b6e5E(i64 8, i64 %_31, ptr align 8 @alloc_d276e58b0b165cf6e7ab175535023059) #4
  unreachable

bb8:                                              ; preds = %bb7
  store i32 %V, ptr %_2, align 8
  %_25 = ptrtoint ptr %_2 to i64
  %_28 = and i64 %_25, 7
  %_29 = icmp eq i64 %_28, 0
  br i1 %_29, label %bb6, label %panic2

panic1:                                           ; preds = %bb7
; call core::panicking::panic_null_pointer_dereference
  call void @_ZN4core9panicking30panic_null_pointer_dereference17hf718fcc86a223baaE(ptr align 8 @alloc_d276e58b0b165cf6e7ab175535023059) #4
  unreachable

bb6:                                              ; preds = %bb8
  %_44 = ptrtoint ptr %_2 to i64
  %_47 = icmp eq i64 %_44, 0
  %_48 = and i1 %_47, true
  %_49 = xor i1 %_48, true
  br i1 %_49, label %bb9, label %panic3

panic2:                                           ; preds = %bb8
; call core::panicking::panic_misaligned_pointer_dereference
  call void @_ZN4core9panicking36panic_misaligned_pointer_dereference17hcc3cbded9382b6e5E(i64 8, i64 %_25, ptr align 8 @alloc_6fbbe498723ac7f1a024e3e35d079c2e) #4
  unreachable

bb9:                                              ; preds = %bb6
  %0 = getelementptr inbounds i8, ptr %_2, i64 16
  store ptr null, ptr %0, align 8
  %_19 = ptrtoint ptr %_2 to i64
  %_22 = and i64 %_19, 7
  %_23 = icmp eq i64 %_22, 0
  br i1 %_23, label %bb5, label %panic4

panic3:                                           ; preds = %bb6
; call core::panicking::panic_null_pointer_dereference
  call void @_ZN4core9panicking30panic_null_pointer_dereference17hf718fcc86a223baaE(ptr align 8 @alloc_6fbbe498723ac7f1a024e3e35d079c2e) #4
  unreachable

bb5:                                              ; preds = %bb9
  %_51 = ptrtoint ptr %_2 to i64
  %_54 = icmp eq i64 %_51, 0
  %_55 = and i1 %_54, true
  %_56 = xor i1 %_55, true
  br i1 %_56, label %bb10, label %panic5

panic4:                                           ; preds = %bb9
; call core::panicking::panic_misaligned_pointer_dereference
  call void @_ZN4core9panicking36panic_misaligned_pointer_dereference17hcc3cbded9382b6e5E(i64 8, i64 %_19, ptr align 8 @alloc_7e41215b31d5f39601b8b04d2633013c) #4
  unreachable

bb10:                                             ; preds = %bb5
  %1 = getelementptr inbounds i8, ptr %_2, i64 16
  %_5 = load ptr, ptr %1, align 8
  %_13 = ptrtoint ptr %_2 to i64
  %_16 = and i64 %_13, 7
  %_17 = icmp eq i64 %_16, 0
  br i1 %_17, label %bb4, label %panic6

panic5:                                           ; preds = %bb5
; call core::panicking::panic_null_pointer_dereference
  call void @_ZN4core9panicking30panic_null_pointer_dereference17hf718fcc86a223baaE(ptr align 8 @alloc_7e41215b31d5f39601b8b04d2633013c) #4
  unreachable

bb4:                                              ; preds = %bb10
  %_58 = ptrtoint ptr %_2 to i64
  %_61 = icmp eq i64 %_58, 0
  %_62 = and i1 %_61, true
  %_63 = xor i1 %_62, true
  br i1 %_63, label %bb11, label %panic7

panic6:                                           ; preds = %bb10
; call core::panicking::panic_misaligned_pointer_dereference
  call void @_ZN4core9panicking36panic_misaligned_pointer_dereference17hcc3cbded9382b6e5E(i64 8, i64 %_13, ptr align 8 @alloc_b6e19de1f5151b51b8788bfc8ca6e5c9) #4
  unreachable

bb11:                                             ; preds = %bb4
  %2 = getelementptr inbounds i8, ptr %_2, i64 8
  store ptr %_5, ptr %2, align 8
  %_7 = ptrtoint ptr %_2 to i64
  %_10 = and i64 %_7, 7
  %_11 = icmp eq i64 %_10, 0
  br i1 %_11, label %bb3, label %panic8

panic7:                                           ; preds = %bb4
; call core::panicking::panic_null_pointer_dereference
  call void @_ZN4core9panicking30panic_null_pointer_dereference17hf718fcc86a223baaE(ptr align 8 @alloc_b6e19de1f5151b51b8788bfc8ca6e5c9) #4
  unreachable

bb3:                                              ; preds = %bb11
  %_65 = ptrtoint ptr %_2 to i64
  %_68 = icmp eq i64 %_65, 0
  %_69 = and i1 %_68, true
  %_70 = xor i1 %_69, true
  br i1 %_70, label %bb12, label %panic9

panic8:                                           ; preds = %bb11
; call core::panicking::panic_misaligned_pointer_dereference
  call void @_ZN4core9panicking36panic_misaligned_pointer_dereference17hcc3cbded9382b6e5E(i64 8, i64 %_7, ptr align 8 @alloc_21bab6856a00df07d869582a6654a89d) #4
  unreachable

bb12:                                             ; preds = %bb3
  %3 = getelementptr inbounds i8, ptr %_2, i64 24
  store i32 0, ptr %3, align 8
  ret ptr %_2

panic9:                                           ; preds = %bb3
; call core::panicking::panic_null_pointer_dereference
  call void @_ZN4core9panicking30panic_null_pointer_dereference17hf718fcc86a223baaE(ptr align 8 @alloc_21bab6856a00df07d869582a6654a89d) #4
  unreachable
}

; Function Attrs: nounwind nonlazybind
define ptr @Insert(ptr %0, i32 %V) unnamed_addr #1 {
start:
  %T = alloca [8 x i8], align 8
  store ptr %0, ptr %T, align 8
  %_4 = load ptr, ptr %T, align 8
; call core::ptr::mut_ptr::<impl *mut T>::is_null
  %_3 = call zeroext i1 @"_ZN4core3ptr7mut_ptr31_$LT$impl$u20$$BP$mut$u20$T$GT$7is_null17hd0788f443ab8c6f0E"(ptr %_4) #3
  br i1 %_3, label %bb2, label %bb4

bb4:                                              ; preds = %start
  %_36 = load ptr, ptr %T, align 8
  %_37 = ptrtoint ptr %_36 to i64
  %_40 = and i64 %_37, 7
  %_41 = icmp eq i64 %_40, 0
  br i1 %_41, label %bb14, label %panic

bb2:                                              ; preds = %start
  %_5 = call ptr @NewNode(i32 %V) #3
  store ptr %_5, ptr %T, align 8
  br label %bb9

bb14:                                             ; preds = %bb4
  %_42 = load ptr, ptr %T, align 8
  %_43 = ptrtoint ptr %_42 to i64
  %_46 = icmp eq i64 %_43, 0
  %_47 = and i1 %_46, true
  %_48 = xor i1 %_47, true
  br i1 %_48, label %bb15, label %panic1

panic:                                            ; preds = %bb4
; call core::panicking::panic_misaligned_pointer_dereference
  call void @_ZN4core9panicking36panic_misaligned_pointer_dereference17hcc3cbded9382b6e5E(i64 8, i64 %_37, ptr align 8 @alloc_8c036db4b7290d13ff4933452c3f75e2) #4
  unreachable

bb15:                                             ; preds = %bb14
  %1 = load ptr, ptr %T, align 8
  %_7 = load i32, ptr %1, align 8
  %_6 = icmp sgt i32 %V, %_7
  br i1 %_6, label %bb5, label %bb7

panic1:                                           ; preds = %bb14
; call core::panicking::panic_null_pointer_dereference
  call void @_ZN4core9panicking30panic_null_pointer_dereference17hf718fcc86a223baaE(ptr align 8 @alloc_8c036db4b7290d13ff4933452c3f75e2) #4
  unreachable

bb7:                                              ; preds = %bb15
  %_18 = load ptr, ptr %T, align 8
  %_19 = ptrtoint ptr %_18 to i64
  %_22 = and i64 %_19, 7
  %_23 = icmp eq i64 %_22, 0
  br i1 %_23, label %bb11, label %panic2

bb5:                                              ; preds = %bb15
  %_30 = load ptr, ptr %T, align 8
  %_31 = ptrtoint ptr %_30 to i64
  %_34 = and i64 %_31, 7
  %_35 = icmp eq i64 %_34, 0
  br i1 %_35, label %bb13, label %panic6

bb11:                                             ; preds = %bb7
  %_63 = load ptr, ptr %T, align 8
  %_64 = ptrtoint ptr %_63 to i64
  %_67 = icmp eq i64 %_64, 0
  %_68 = and i1 %_67, true
  %_69 = xor i1 %_68, true
  br i1 %_69, label %bb18, label %panic3

panic2:                                           ; preds = %bb7
; call core::panicking::panic_misaligned_pointer_dereference
  call void @_ZN4core9panicking36panic_misaligned_pointer_dereference17hcc3cbded9382b6e5E(i64 8, i64 %_19, ptr align 8 @alloc_0277dfc44218e56a37cae940318a1547) #4
  unreachable

bb18:                                             ; preds = %bb11
  %2 = load ptr, ptr %T, align 8
  %3 = getelementptr inbounds i8, ptr %2, i64 8
  %_11 = load ptr, ptr %3, align 8
  %_10 = call ptr @Insert(ptr %_11, i32 %V) #3
  %_12 = load ptr, ptr %T, align 8
  %_13 = ptrtoint ptr %_12 to i64
  %_16 = and i64 %_13, 7
  %_17 = icmp eq i64 %_16, 0
  br i1 %_17, label %bb10, label %panic4

panic3:                                           ; preds = %bb11
; call core::panicking::panic_null_pointer_dereference
  call void @_ZN4core9panicking30panic_null_pointer_dereference17hf718fcc86a223baaE(ptr align 8 @alloc_0277dfc44218e56a37cae940318a1547) #4
  unreachable

bb10:                                             ; preds = %bb18
  %_70 = load ptr, ptr %T, align 8
  %_71 = ptrtoint ptr %_70 to i64
  %_74 = icmp eq i64 %_71, 0
  %_75 = and i1 %_74, true
  %_76 = xor i1 %_75, true
  br i1 %_76, label %bb19, label %panic5

panic4:                                           ; preds = %bb18
; call core::panicking::panic_misaligned_pointer_dereference
  call void @_ZN4core9panicking36panic_misaligned_pointer_dereference17hcc3cbded9382b6e5E(i64 8, i64 %_13, ptr align 8 @alloc_0d0d9b0f8f193e148c17108009ef7152) #4
  unreachable

bb19:                                             ; preds = %bb10
  %4 = load ptr, ptr %T, align 8
  %5 = getelementptr inbounds i8, ptr %4, i64 8
  store ptr %_10, ptr %5, align 8
  br label %bb9

panic5:                                           ; preds = %bb10
; call core::panicking::panic_null_pointer_dereference
  call void @_ZN4core9panicking30panic_null_pointer_dereference17hf718fcc86a223baaE(ptr align 8 @alloc_0d0d9b0f8f193e148c17108009ef7152) #4
  unreachable

bb9:                                              ; preds = %bb2, %bb17, %bb19
  %_0 = load ptr, ptr %T, align 8
  ret ptr %_0

bb13:                                             ; preds = %bb5
  %_49 = load ptr, ptr %T, align 8
  %_50 = ptrtoint ptr %_49 to i64
  %_53 = icmp eq i64 %_50, 0
  %_54 = and i1 %_53, true
  %_55 = xor i1 %_54, true
  br i1 %_55, label %bb16, label %panic7

panic6:                                           ; preds = %bb5
; call core::panicking::panic_misaligned_pointer_dereference
  call void @_ZN4core9panicking36panic_misaligned_pointer_dereference17hcc3cbded9382b6e5E(i64 8, i64 %_31, ptr align 8 @alloc_647e17dbe8b8ab78def08e00595cb89c) #4
  unreachable

bb16:                                             ; preds = %bb13
  %6 = load ptr, ptr %T, align 8
  %7 = getelementptr inbounds i8, ptr %6, i64 16
  %_9 = load ptr, ptr %7, align 8
  %_8 = call ptr @Insert(ptr %_9, i32 %V) #3
  %_24 = load ptr, ptr %T, align 8
  %_25 = ptrtoint ptr %_24 to i64
  %_28 = and i64 %_25, 7
  %_29 = icmp eq i64 %_28, 0
  br i1 %_29, label %bb12, label %panic8

panic7:                                           ; preds = %bb13
; call core::panicking::panic_null_pointer_dereference
  call void @_ZN4core9panicking30panic_null_pointer_dereference17hf718fcc86a223baaE(ptr align 8 @alloc_647e17dbe8b8ab78def08e00595cb89c) #4
  unreachable

bb12:                                             ; preds = %bb16
  %_56 = load ptr, ptr %T, align 8
  %_57 = ptrtoint ptr %_56 to i64
  %_60 = icmp eq i64 %_57, 0
  %_61 = and i1 %_60, true
  %_62 = xor i1 %_61, true
  br i1 %_62, label %bb17, label %panic9

panic8:                                           ; preds = %bb16
; call core::panicking::panic_misaligned_pointer_dereference
  call void @_ZN4core9panicking36panic_misaligned_pointer_dereference17hcc3cbded9382b6e5E(i64 8, i64 %_25, ptr align 8 @alloc_178a6fa9e79826942eeefeb2dd3da34d) #4
  unreachable

bb17:                                             ; preds = %bb12
  %8 = load ptr, ptr %T, align 8
  %9 = getelementptr inbounds i8, ptr %8, i64 16
  store ptr %_8, ptr %9, align 8
  br label %bb9

panic9:                                           ; preds = %bb12
; call core::panicking::panic_null_pointer_dereference
  call void @_ZN4core9panicking30panic_null_pointer_dereference17hf718fcc86a223baaE(ptr align 8 @alloc_178a6fa9e79826942eeefeb2dd3da34d) #4
  unreachable
}

; Function Attrs: nounwind nonlazybind
define i32 @check(ptr %T, i32 %V) unnamed_addr #1 {
start:
  %_0 = alloca [4 x i8], align 4
  %_49 = ptrtoint ptr %T to i64
  %_52 = and i64 %_49, 7
  %_53 = icmp eq i64 %_52, 0
  br i1 %_53, label %bb16, label %panic

bb16:                                             ; preds = %start
  %_55 = ptrtoint ptr %T to i64
  %_58 = icmp eq i64 %_55, 0
  %_59 = and i1 %_58, true
  %_60 = xor i1 %_59, true
  br i1 %_60, label %bb17, label %panic1

panic:                                            ; preds = %start
; call core::panicking::panic_misaligned_pointer_dereference
  call void @_ZN4core9panicking36panic_misaligned_pointer_dereference17hcc3cbded9382b6e5E(i64 8, i64 %_49, ptr align 8 @alloc_6d40c3789ff6e5698457c687d297f6ef) #4
  unreachable

bb17:                                             ; preds = %bb16
  %0 = getelementptr inbounds i8, ptr %T, i64 24
  %_3 = load i32, ptr %0, align 8
  %1 = icmp eq i32 %_3, 0
  br i1 %1, label %bb6, label %bb1

panic1:                                           ; preds = %bb16
; call core::panicking::panic_null_pointer_dereference
  call void @_ZN4core9panicking30panic_null_pointer_dereference17hf718fcc86a223baaE(ptr align 8 @alloc_6d40c3789ff6e5698457c687d297f6ef) #4
  unreachable

bb6:                                              ; preds = %bb17
  %_19 = ptrtoint ptr %T to i64
  %_22 = and i64 %_19, 7
  %_23 = icmp eq i64 %_22, 0
  br i1 %_23, label %bb11, label %panic2

bb1:                                              ; preds = %bb17
  %_43 = ptrtoint ptr %T to i64
  %_46 = and i64 %_43, 7
  %_47 = icmp eq i64 %_46, 0
  br i1 %_47, label %bb15, label %panic6

bb11:                                             ; preds = %bb6
  %_90 = ptrtoint ptr %T to i64
  %_93 = icmp eq i64 %_90, 0
  %_94 = and i1 %_93, true
  %_95 = xor i1 %_94, true
  br i1 %_95, label %bb22, label %panic3

panic2:                                           ; preds = %bb6
; call core::panicking::panic_misaligned_pointer_dereference
  call void @_ZN4core9panicking36panic_misaligned_pointer_dereference17hcc3cbded9382b6e5E(i64 8, i64 %_19, ptr align 8 @alloc_db66bf07ea91131da7cca3744dcaa0ce) #4
  unreachable

bb22:                                             ; preds = %bb11
  %_11 = load i32, ptr %T, align 8
  %_10 = icmp eq i32 %V, %_11
  br i1 %_10, label %bb7, label %bb8

panic3:                                           ; preds = %bb11
; call core::panicking::panic_null_pointer_dereference
  call void @_ZN4core9panicking30panic_null_pointer_dereference17hf718fcc86a223baaE(ptr align 8 @alloc_db66bf07ea91131da7cca3744dcaa0ce) #4
  unreachable

bb8:                                              ; preds = %bb22
  store i32 0, ptr %_0, align 4
  br label %bb9

bb7:                                              ; preds = %bb22
  %_13 = ptrtoint ptr %T to i64
  %_16 = and i64 %_13, 7
  %_17 = icmp eq i64 %_16, 0
  br i1 %_17, label %bb10, label %panic4

bb9:                                              ; preds = %bb19, %bb21, %bb5, %bb23, %bb8
  %2 = load i32, ptr %_0, align 4
  ret i32 %2

bb10:                                             ; preds = %bb7
  %_97 = ptrtoint ptr %T to i64
  %_100 = icmp eq i64 %_97, 0
  %_101 = and i1 %_100, true
  %_102 = xor i1 %_101, true
  br i1 %_102, label %bb23, label %panic5

panic4:                                           ; preds = %bb7
; call core::panicking::panic_misaligned_pointer_dereference
  call void @_ZN4core9panicking36panic_misaligned_pointer_dereference17hcc3cbded9382b6e5E(i64 8, i64 %_13, ptr align 8 @alloc_fdc5f6fe634689cdbcb2296e8963e5df) #4
  unreachable

bb23:                                             ; preds = %bb10
  %3 = getelementptr inbounds i8, ptr %T, i64 24
  store i32 1, ptr %3, align 8
  store i32 1, ptr %_0, align 4
  br label %bb9

panic5:                                           ; preds = %bb10
; call core::panicking::panic_null_pointer_dereference
  call void @_ZN4core9panicking30panic_null_pointer_dereference17hf718fcc86a223baaE(ptr align 8 @alloc_fdc5f6fe634689cdbcb2296e8963e5df) #4
  unreachable

bb15:                                             ; preds = %bb1
  %_62 = ptrtoint ptr %T to i64
  %_65 = icmp eq i64 %_62, 0
  %_66 = and i1 %_65, true
  %_67 = xor i1 %_66, true
  br i1 %_67, label %bb18, label %panic7

panic6:                                           ; preds = %bb1
; call core::panicking::panic_misaligned_pointer_dereference
  call void @_ZN4core9panicking36panic_misaligned_pointer_dereference17hcc3cbded9382b6e5E(i64 8, i64 %_43, ptr align 8 @alloc_fb4059e11dd603ce511a5b2ac2aa5140) #4
  unreachable

bb18:                                             ; preds = %bb15
  %_5 = load i32, ptr %T, align 8
  %_4 = icmp slt i32 %V, %_5
  br i1 %_4, label %bb2, label %bb3

panic7:                                           ; preds = %bb15
; call core::panicking::panic_null_pointer_dereference
  call void @_ZN4core9panicking30panic_null_pointer_dereference17hf718fcc86a223baaE(ptr align 8 @alloc_fb4059e11dd603ce511a5b2ac2aa5140) #4
  unreachable

bb3:                                              ; preds = %bb18
  %_31 = ptrtoint ptr %T to i64
  %_34 = and i64 %_31, 7
  %_35 = icmp eq i64 %_34, 0
  br i1 %_35, label %bb13, label %panic8

bb2:                                              ; preds = %bb18
  %_37 = ptrtoint ptr %T to i64
  %_40 = and i64 %_37, 7
  %_41 = icmp eq i64 %_40, 0
  br i1 %_41, label %bb14, label %panic12

bb13:                                             ; preds = %bb3
  %_76 = ptrtoint ptr %T to i64
  %_79 = icmp eq i64 %_76, 0
  %_80 = and i1 %_79, true
  %_81 = xor i1 %_80, true
  br i1 %_81, label %bb20, label %panic9

panic8:                                           ; preds = %bb3
; call core::panicking::panic_misaligned_pointer_dereference
  call void @_ZN4core9panicking36panic_misaligned_pointer_dereference17hcc3cbded9382b6e5E(i64 8, i64 %_31, ptr align 8 @alloc_958355f2f8c79af0ce59e609dc7116c7) #4
  unreachable

bb20:                                             ; preds = %bb13
  %_8 = load i32, ptr %T, align 8
  %_7 = icmp sgt i32 %V, %_8
  br i1 %_7, label %bb4, label %bb5

panic9:                                           ; preds = %bb13
; call core::panicking::panic_null_pointer_dereference
  call void @_ZN4core9panicking30panic_null_pointer_dereference17hf718fcc86a223baaE(ptr align 8 @alloc_958355f2f8c79af0ce59e609dc7116c7) #4
  unreachable

bb5:                                              ; preds = %bb20
  store i32 0, ptr %_0, align 4
  br label %bb9

bb4:                                              ; preds = %bb20
  %_25 = ptrtoint ptr %T to i64
  %_28 = and i64 %_25, 7
  %_29 = icmp eq i64 %_28, 0
  br i1 %_29, label %bb12, label %panic10

bb12:                                             ; preds = %bb4
  %_83 = ptrtoint ptr %T to i64
  %_86 = icmp eq i64 %_83, 0
  %_87 = and i1 %_86, true
  %_88 = xor i1 %_87, true
  br i1 %_88, label %bb21, label %panic11

panic10:                                          ; preds = %bb4
; call core::panicking::panic_misaligned_pointer_dereference
  call void @_ZN4core9panicking36panic_misaligned_pointer_dereference17hcc3cbded9382b6e5E(i64 8, i64 %_25, ptr align 8 @alloc_0b01c888ecd4578cb8ee0e5528f75848) #4
  unreachable

bb21:                                             ; preds = %bb12
  %4 = getelementptr inbounds i8, ptr %T, i64 16
  %_9 = load ptr, ptr %4, align 8
  %5 = call i32 @check(ptr %_9, i32 %V) #3
  store i32 %5, ptr %_0, align 4
  br label %bb9

panic11:                                          ; preds = %bb12
; call core::panicking::panic_null_pointer_dereference
  call void @_ZN4core9panicking30panic_null_pointer_dereference17hf718fcc86a223baaE(ptr align 8 @alloc_0b01c888ecd4578cb8ee0e5528f75848) #4
  unreachable

bb14:                                             ; preds = %bb2
  %_69 = ptrtoint ptr %T to i64
  %_72 = icmp eq i64 %_69, 0
  %_73 = and i1 %_72, true
  %_74 = xor i1 %_73, true
  br i1 %_74, label %bb19, label %panic13

panic12:                                          ; preds = %bb2
; call core::panicking::panic_misaligned_pointer_dereference
  call void @_ZN4core9panicking36panic_misaligned_pointer_dereference17hcc3cbded9382b6e5E(i64 8, i64 %_37, ptr align 8 @alloc_17b42275793d3e1201b732d801cf708d) #4
  unreachable

bb19:                                             ; preds = %bb14
  %6 = getelementptr inbounds i8, ptr %T, i64 8
  %_6 = load ptr, ptr %6, align 8
  %7 = call i32 @check(ptr %_6, i32 %V) #3
  store i32 %7, ptr %_0, align 4
  br label %bb9

panic13:                                          ; preds = %bb14
; call core::panicking::panic_null_pointer_dereference
  call void @_ZN4core9panicking30panic_null_pointer_dereference17hf718fcc86a223baaE(ptr align 8 @alloc_17b42275793d3e1201b732d801cf708d) #4
  unreachable
}

; Function Attrs: nounwind nonlazybind
define i32 @Judge(ptr %T, i32 %N) unnamed_addr #1 {
start:
  %i = alloca [4 x i8], align 4
  %Tflag = alloca [4 x i8], align 4
  %V = alloca [4 x i8], align 4
  store i32 0, ptr %V, align 4
  store i32 1, ptr %Tflag, align 4
  %_5 = call i32 (ptr, ...) @scanf(ptr @alloc_3a31753a0b113451bf74f615363720ce, ptr %V) #3
  %_35 = ptrtoint ptr %T to i64
  %_38 = and i64 %_35, 7
  %_39 = icmp eq i64 %_38, 0
  br i1 %_39, label %bb15, label %panic

bb15:                                             ; preds = %start
  %_41 = ptrtoint ptr %T to i64
  %_44 = icmp eq i64 %_41, 0
  %_45 = and i1 %_44, true
  %_46 = xor i1 %_45, true
  br i1 %_46, label %bb16, label %panic1

panic:                                            ; preds = %start
; call core::panicking::panic_misaligned_pointer_dereference
  call void @_ZN4core9panicking36panic_misaligned_pointer_dereference17hcc3cbded9382b6e5E(i64 8, i64 %_35, ptr align 8 @alloc_22f02c6fb1dfd5a255a7136a77bc207b) #4
  unreachable

bb16:                                             ; preds = %bb15
  %_13 = load i32, ptr %T, align 8
  %_14 = load i32, ptr %V, align 4
  %_12 = icmp ne i32 %_13, %_14
  br i1 %_12, label %bb2, label %bb3

panic1:                                           ; preds = %bb15
; call core::panicking::panic_null_pointer_dereference
  call void @_ZN4core9panicking30panic_null_pointer_dereference17hf718fcc86a223baaE(ptr align 8 @alloc_22f02c6fb1dfd5a255a7136a77bc207b) #4
  unreachable

bb3:                                              ; preds = %bb16
  %_29 = ptrtoint ptr %T to i64
  %_32 = and i64 %_29, 7
  %_33 = icmp eq i64 %_32, 0
  br i1 %_33, label %bb14, label %panic2

bb2:                                              ; preds = %bb16
  store i32 0, ptr %Tflag, align 4
  br label %bb4

bb14:                                             ; preds = %bb3
  %_48 = ptrtoint ptr %T to i64
  %_51 = icmp eq i64 %_48, 0
  %_52 = and i1 %_51, true
  %_53 = xor i1 %_52, true
  br i1 %_53, label %bb17, label %panic3

panic2:                                           ; preds = %bb3
; call core::panicking::panic_misaligned_pointer_dereference
  call void @_ZN4core9panicking36panic_misaligned_pointer_dereference17hcc3cbded9382b6e5E(i64 8, i64 %_29, ptr align 8 @alloc_a988a53895c5e8cd3f2b29e497141d75) #4
  unreachable

bb17:                                             ; preds = %bb14
  %0 = getelementptr inbounds i8, ptr %T, i64 24
  store i32 1, ptr %0, align 8
  br label %bb4

panic3:                                           ; preds = %bb14
; call core::panicking::panic_null_pointer_dereference
  call void @_ZN4core9panicking30panic_null_pointer_dereference17hf718fcc86a223baaE(ptr align 8 @alloc_a988a53895c5e8cd3f2b29e497141d75) #4
  unreachable

bb4:                                              ; preds = %bb2, %bb17
  store i32 1, ptr %i, align 4
  br label %bb5

bb5:                                              ; preds = %bb12, %bb4
  %_17 = load i32, ptr %i, align 4
  %_16 = icmp slt i32 %_17, %N
  br i1 %_16, label %bb6, label %bb13

bb13:                                             ; preds = %bb5
  %_0 = load i32, ptr %Tflag, align 4
  ret i32 %_0

bb6:                                              ; preds = %bb5
  %_18 = call i32 (ptr, ...) @scanf(ptr @alloc_3a31753a0b113451bf74f615363720ce, ptr %V) #3
  %_25 = load i32, ptr %Tflag, align 4
  %1 = icmp eq i32 %_25, 0
  br i1 %1, label %bb11, label %bb8

bb11:                                             ; preds = %bb8, %bb6
  store i32 0, ptr %Tflag, align 4
  br label %bb12

bb8:                                              ; preds = %bb6
  %_27 = load i32, ptr %V, align 4
  %_26 = call i32 @check(ptr %T, i32 %_27) #3
  %2 = icmp eq i32 %_26, 0
  br i1 %2, label %bb11, label %bb10

bb10:                                             ; preds = %bb8
  store i32 1, ptr %Tflag, align 4
  br label %bb12

bb12:                                             ; preds = %bb10, %bb11
  %3 = load i32, ptr %i, align 4
  %4 = add i32 %3, 1
  store i32 %4, ptr %i, align 4
  br label %bb5
}

; Function Attrs: nounwind nonlazybind
define void @ResetT(ptr %T) unnamed_addr #1 {
start:
  %_35 = ptrtoint ptr %T to i64
  %_38 = and i64 %_35, 7
  %_39 = icmp eq i64 %_38, 0
  br i1 %_39, label %bb11, label %panic

bb11:                                             ; preds = %start
  %_41 = ptrtoint ptr %T to i64
  %_44 = icmp eq i64 %_41, 0
  %_45 = and i1 %_44, true
  %_46 = xor i1 %_45, true
  br i1 %_46, label %bb12, label %panic1

panic:                                            ; preds = %start
; call core::panicking::panic_misaligned_pointer_dereference
  call void @_ZN4core9panicking36panic_misaligned_pointer_dereference17hcc3cbded9382b6e5E(i64 8, i64 %_35, ptr align 8 @alloc_6e8a19f73b06021a33cf11f3b2d48238) #4
  unreachable

bb12:                                             ; preds = %bb11
  %0 = getelementptr inbounds i8, ptr %T, i64 8
  %_3 = load ptr, ptr %0, align 8
; call core::ptr::mut_ptr::<impl *mut T>::is_null
  %_2 = call zeroext i1 @"_ZN4core3ptr7mut_ptr31_$LT$impl$u20$$BP$mut$u20$T$GT$7is_null17hd0788f443ab8c6f0E"(ptr %_3) #3
  br i1 %_2, label %bb3, label %bb2

panic1:                                           ; preds = %bb11
; call core::panicking::panic_null_pointer_dereference
  call void @_ZN4core9panicking30panic_null_pointer_dereference17hf718fcc86a223baaE(ptr align 8 @alloc_6e8a19f73b06021a33cf11f3b2d48238) #4
  unreachable

bb2:                                              ; preds = %bb12
  %_29 = ptrtoint ptr %T to i64
  %_32 = and i64 %_29, 7
  %_33 = icmp eq i64 %_32, 0
  br i1 %_33, label %bb10, label %panic2

bb3:                                              ; preds = %bb13, %bb12
  %_23 = ptrtoint ptr %T to i64
  %_26 = and i64 %_23, 7
  %_27 = icmp eq i64 %_26, 0
  br i1 %_27, label %bb9, label %panic4

bb10:                                             ; preds = %bb2
  %_48 = ptrtoint ptr %T to i64
  %_51 = icmp eq i64 %_48, 0
  %_52 = and i1 %_51, true
  %_53 = xor i1 %_52, true
  br i1 %_53, label %bb13, label %panic3

panic2:                                           ; preds = %bb2
; call core::panicking::panic_misaligned_pointer_dereference
  call void @_ZN4core9panicking36panic_misaligned_pointer_dereference17hcc3cbded9382b6e5E(i64 8, i64 %_29, ptr align 8 @alloc_033d48c10368d51367c1205bc240e55c) #4
  unreachable

bb13:                                             ; preds = %bb10
  %1 = getelementptr inbounds i8, ptr %T, i64 8
  %_5 = load ptr, ptr %1, align 8
  call void @ResetT(ptr %_5) #3
  br label %bb3

panic3:                                           ; preds = %bb10
; call core::panicking::panic_null_pointer_dereference
  call void @_ZN4core9panicking30panic_null_pointer_dereference17hf718fcc86a223baaE(ptr align 8 @alloc_033d48c10368d51367c1205bc240e55c) #4
  unreachable

bb9:                                              ; preds = %bb3
  %_55 = ptrtoint ptr %T to i64
  %_58 = icmp eq i64 %_55, 0
  %_59 = and i1 %_58, true
  %_60 = xor i1 %_59, true
  br i1 %_60, label %bb14, label %panic5

panic4:                                           ; preds = %bb3
; call core::panicking::panic_misaligned_pointer_dereference
  call void @_ZN4core9panicking36panic_misaligned_pointer_dereference17hcc3cbded9382b6e5E(i64 8, i64 %_23, ptr align 8 @alloc_51defa837211d00b128e9b5e60ecda6b) #4
  unreachable

bb14:                                             ; preds = %bb9
  %2 = getelementptr inbounds i8, ptr %T, i64 16
  %_7 = load ptr, ptr %2, align 8
; call core::ptr::mut_ptr::<impl *mut T>::is_null
  %_6 = call zeroext i1 @"_ZN4core3ptr7mut_ptr31_$LT$impl$u20$$BP$mut$u20$T$GT$7is_null17hd0788f443ab8c6f0E"(ptr %_7) #3
  br i1 %_6, label %bb6, label %bb5

panic5:                                           ; preds = %bb9
; call core::panicking::panic_null_pointer_dereference
  call void @_ZN4core9panicking30panic_null_pointer_dereference17hf718fcc86a223baaE(ptr align 8 @alloc_51defa837211d00b128e9b5e60ecda6b) #4
  unreachable

bb5:                                              ; preds = %bb14
  %_17 = ptrtoint ptr %T to i64
  %_20 = and i64 %_17, 7
  %_21 = icmp eq i64 %_20, 0
  br i1 %_21, label %bb8, label %panic6

bb6:                                              ; preds = %bb15, %bb14
  %_11 = ptrtoint ptr %T to i64
  %_14 = and i64 %_11, 7
  %_15 = icmp eq i64 %_14, 0
  br i1 %_15, label %bb7, label %panic8

bb8:                                              ; preds = %bb5
  %_62 = ptrtoint ptr %T to i64
  %_65 = icmp eq i64 %_62, 0
  %_66 = and i1 %_65, true
  %_67 = xor i1 %_66, true
  br i1 %_67, label %bb15, label %panic7

panic6:                                           ; preds = %bb5
; call core::panicking::panic_misaligned_pointer_dereference
  call void @_ZN4core9panicking36panic_misaligned_pointer_dereference17hcc3cbded9382b6e5E(i64 8, i64 %_17, ptr align 8 @alloc_a7f670ad66872aece48658a1612d4698) #4
  unreachable

bb15:                                             ; preds = %bb8
  %3 = getelementptr inbounds i8, ptr %T, i64 16
  %_9 = load ptr, ptr %3, align 8
  call void @ResetT(ptr %_9) #3
  br label %bb6

panic7:                                           ; preds = %bb8
; call core::panicking::panic_null_pointer_dereference
  call void @_ZN4core9panicking30panic_null_pointer_dereference17hf718fcc86a223baaE(ptr align 8 @alloc_a7f670ad66872aece48658a1612d4698) #4
  unreachable

bb7:                                              ; preds = %bb6
  %_69 = ptrtoint ptr %T to i64
  %_72 = icmp eq i64 %_69, 0
  %_73 = and i1 %_72, true
  %_74 = xor i1 %_73, true
  br i1 %_74, label %bb16, label %panic9

panic8:                                           ; preds = %bb6
; call core::panicking::panic_misaligned_pointer_dereference
  call void @_ZN4core9panicking36panic_misaligned_pointer_dereference17hcc3cbded9382b6e5E(i64 8, i64 %_11, ptr align 8 @alloc_fef22c008e94e74eb08b32376ab6ec59) #4
  unreachable

bb16:                                             ; preds = %bb7
  %4 = getelementptr inbounds i8, ptr %T, i64 24
  store i32 0, ptr %4, align 8
  ret void

panic9:                                           ; preds = %bb7
; call core::panicking::panic_null_pointer_dereference
  call void @_ZN4core9panicking30panic_null_pointer_dereference17hf718fcc86a223baaE(ptr align 8 @alloc_fef22c008e94e74eb08b32376ab6ec59) #4
  unreachable
}

; Function Attrs: nounwind nonlazybind
define void @FreeTree(ptr %T) unnamed_addr #1 {
start:
  %_31 = ptrtoint ptr %T to i64
  %_34 = and i64 %_31, 7
  %_35 = icmp eq i64 %_34, 0
  br i1 %_35, label %bb11, label %panic

bb11:                                             ; preds = %start
  %_37 = ptrtoint ptr %T to i64
  %_40 = icmp eq i64 %_37, 0
  %_41 = and i1 %_40, true
  %_42 = xor i1 %_41, true
  br i1 %_42, label %bb12, label %panic1

panic:                                            ; preds = %start
; call core::panicking::panic_misaligned_pointer_dereference
  call void @_ZN4core9panicking36panic_misaligned_pointer_dereference17hcc3cbded9382b6e5E(i64 8, i64 %_31, ptr align 8 @alloc_e0f55af8ba14d1ad556d8e5f4bc59db9) #4
  unreachable

bb12:                                             ; preds = %bb11
  %0 = getelementptr inbounds i8, ptr %T, i64 8
  %_3 = load ptr, ptr %0, align 8
; call core::ptr::mut_ptr::<impl *mut T>::is_null
  %_2 = call zeroext i1 @"_ZN4core3ptr7mut_ptr31_$LT$impl$u20$$BP$mut$u20$T$GT$7is_null17hd0788f443ab8c6f0E"(ptr %_3) #3
  br i1 %_2, label %bb3, label %bb2

panic1:                                           ; preds = %bb11
; call core::panicking::panic_null_pointer_dereference
  call void @_ZN4core9panicking30panic_null_pointer_dereference17hf718fcc86a223baaE(ptr align 8 @alloc_e0f55af8ba14d1ad556d8e5f4bc59db9) #4
  unreachable

bb2:                                              ; preds = %bb12
  %_25 = ptrtoint ptr %T to i64
  %_28 = and i64 %_25, 7
  %_29 = icmp eq i64 %_28, 0
  br i1 %_29, label %bb10, label %panic2

bb3:                                              ; preds = %bb13, %bb12
  %_19 = ptrtoint ptr %T to i64
  %_22 = and i64 %_19, 7
  %_23 = icmp eq i64 %_22, 0
  br i1 %_23, label %bb9, label %panic4

bb10:                                             ; preds = %bb2
  %_44 = ptrtoint ptr %T to i64
  %_47 = icmp eq i64 %_44, 0
  %_48 = and i1 %_47, true
  %_49 = xor i1 %_48, true
  br i1 %_49, label %bb13, label %panic3

panic2:                                           ; preds = %bb2
; call core::panicking::panic_misaligned_pointer_dereference
  call void @_ZN4core9panicking36panic_misaligned_pointer_dereference17hcc3cbded9382b6e5E(i64 8, i64 %_25, ptr align 8 @alloc_7bb8bdb5007bc5d618b99a2857603600) #4
  unreachable

bb13:                                             ; preds = %bb10
  %1 = getelementptr inbounds i8, ptr %T, i64 8
  %_5 = load ptr, ptr %1, align 8
  call void @FreeTree(ptr %_5) #3
  br label %bb3

panic3:                                           ; preds = %bb10
; call core::panicking::panic_null_pointer_dereference
  call void @_ZN4core9panicking30panic_null_pointer_dereference17hf718fcc86a223baaE(ptr align 8 @alloc_7bb8bdb5007bc5d618b99a2857603600) #4
  unreachable

bb9:                                              ; preds = %bb3
  %_51 = ptrtoint ptr %T to i64
  %_54 = icmp eq i64 %_51, 0
  %_55 = and i1 %_54, true
  %_56 = xor i1 %_55, true
  br i1 %_56, label %bb14, label %panic5

panic4:                                           ; preds = %bb3
; call core::panicking::panic_misaligned_pointer_dereference
  call void @_ZN4core9panicking36panic_misaligned_pointer_dereference17hcc3cbded9382b6e5E(i64 8, i64 %_19, ptr align 8 @alloc_918a92c90d290e6e2e18d4e54b76dea3) #4
  unreachable

bb14:                                             ; preds = %bb9
  %2 = getelementptr inbounds i8, ptr %T, i64 16
  %_7 = load ptr, ptr %2, align 8
; call core::ptr::mut_ptr::<impl *mut T>::is_null
  %_6 = call zeroext i1 @"_ZN4core3ptr7mut_ptr31_$LT$impl$u20$$BP$mut$u20$T$GT$7is_null17hd0788f443ab8c6f0E"(ptr %_7) #3
  br i1 %_6, label %bb6, label %bb5

panic5:                                           ; preds = %bb9
; call core::panicking::panic_null_pointer_dereference
  call void @_ZN4core9panicking30panic_null_pointer_dereference17hf718fcc86a223baaE(ptr align 8 @alloc_918a92c90d290e6e2e18d4e54b76dea3) #4
  unreachable

bb5:                                              ; preds = %bb14
  %_13 = ptrtoint ptr %T to i64
  %_16 = and i64 %_13, 7
  %_17 = icmp eq i64 %_16, 0
  br i1 %_17, label %bb8, label %panic6

bb6:                                              ; preds = %bb15, %bb14
  call void @free(ptr %T) #3
  ret void

bb8:                                              ; preds = %bb5
  %_58 = ptrtoint ptr %T to i64
  %_61 = icmp eq i64 %_58, 0
  %_62 = and i1 %_61, true
  %_63 = xor i1 %_62, true
  br i1 %_63, label %bb15, label %panic7

panic6:                                           ; preds = %bb5
; call core::panicking::panic_misaligned_pointer_dereference
  call void @_ZN4core9panicking36panic_misaligned_pointer_dereference17hcc3cbded9382b6e5E(i64 8, i64 %_13, ptr align 8 @alloc_cf352b42dc381e6c757143e5619b4a40) #4
  unreachable

bb15:                                             ; preds = %bb8
  %3 = getelementptr inbounds i8, ptr %T, i64 16
  %_9 = load ptr, ptr %3, align 8
  call void @FreeTree(ptr %_9) #3
  br label %bb6

panic7:                                           ; preds = %bb8
; call core::panicking::panic_null_pointer_dereference
  call void @_ZN4core9panicking30panic_null_pointer_dereference17hf718fcc86a223baaE(ptr align 8 @alloc_cf352b42dc381e6c757143e5619b4a40) #4
  unreachable
}

; Function Attrs: nounwind nonlazybind
declare i32 @scanf(ptr, ...) unnamed_addr #1

; Function Attrs: nounwind nonlazybind
declare ptr @malloc(i64) unnamed_addr #1

; core::panicking::panic_misaligned_pointer_dereference
; Function Attrs: cold minsize noinline noreturn nounwind nonlazybind optsize
declare void @_ZN4core9panicking36panic_misaligned_pointer_dereference17hcc3cbded9382b6e5E(i64, i64, ptr align 8) unnamed_addr #2

; core::panicking::panic_null_pointer_dereference
; Function Attrs: cold minsize noinline noreturn nounwind nonlazybind optsize
declare void @_ZN4core9panicking30panic_null_pointer_dereference17hf718fcc86a223baaE(ptr align 8) unnamed_addr #2

; Function Attrs: nounwind nonlazybind
declare void @free(ptr) unnamed_addr #1

attributes #0 = { inlinehint nounwind nonlazybind "probe-stack"="inline-asm" "target-cpu"="x86-64" }
attributes #1 = { nounwind nonlazybind "probe-stack"="inline-asm" "target-cpu"="x86-64" }
attributes #2 = { cold minsize noinline noreturn nounwind nonlazybind optsize "probe-stack"="inline-asm" "target-cpu"="x86-64" }
attributes #3 = { nounwind }
attributes #4 = { noreturn nounwind }

!llvm.module.flags = !{!0, !1}
!llvm.ident = !{!2}

!0 = !{i32 8, !"PIC Level", i32 2}
!1 = !{i32 2, !"RtLibUseGOT", i32 1}
!2 = !{!"rustc version 1.88.0-nightly (0b45675cf 2025-03-31)"}
