; ModuleID = 'bk21zt1fjyqym3al6o76v9k2u'
source_filename = "bk21zt1fjyqym3al6o76v9k2u"
target datalayout = "e-m:e-p270:32:32-p271:32:32-p272:64:64-i64:64-i128:128-f80:128-n8:16:32:64-S128"
target triple = "x86_64-unknown-linux-gnu"

@root = global [8 x i8] zeroinitializer, align 8
@alloc_f5ffd2fd1476bab43ad89fb40c72d0c5 = private unnamed_addr constant [10 x i8] c"src/lib.rs", align 1
@alloc_18dec338588aaa093ad9aca10695e080 = private unnamed_addr constant <{ ptr, [16 x i8] }> <{ ptr @alloc_f5ffd2fd1476bab43ad89fb40c72d0c5, [16 x i8] c"\0A\00\00\00\00\00\00\00$\00\00\00#\00\00\00" }>, align 8
@alloc_621b35710e7b129ef28cdcba8b7c51df = private unnamed_addr constant <{ ptr, [16 x i8] }> <{ ptr @alloc_f5ffd2fd1476bab43ad89fb40c72d0c5, [16 x i8] c"\0A\00\00\00\00\00\00\00%\00\00\00\09\00\00\00" }>, align 8
@alloc_1b6dcc8a29e20ec806e9fdaf5630f7fe = private unnamed_addr constant <{ ptr, [16 x i8] }> <{ ptr @alloc_f5ffd2fd1476bab43ad89fb40c72d0c5, [16 x i8] c"\0A\00\00\00\00\00\00\00)\00\00\00$\00\00\00" }>, align 8
@alloc_203d10657d425d1f561693c8524cd5ad = private unnamed_addr constant <{ ptr, [16 x i8] }> <{ ptr @alloc_f5ffd2fd1476bab43ad89fb40c72d0c5, [16 x i8] c"\0A\00\00\00\00\00\00\00*\00\00\00\09\00\00\00" }>, align 8
@alloc_2092402456d04f443ab580f65516984c = private unnamed_addr constant <{ ptr, [16 x i8] }> <{ ptr @alloc_f5ffd2fd1476bab43ad89fb40c72d0c5, [16 x i8] c"\0A\00\00\00\00\00\00\002\00\00\00$\00\00\00" }>, align 8
@alloc_a3bf9626690c052e01751f3809065fd8 = private unnamed_addr constant <{ ptr, [16 x i8] }> <{ ptr @alloc_f5ffd2fd1476bab43ad89fb40c72d0c5, [16 x i8] c"\0A\00\00\00\00\00\00\003\00\00\00%\00\00\00" }>, align 8
@alloc_059284c63f2adc6df33b1793623d7c27 = private unnamed_addr constant <{ ptr, [16 x i8] }> <{ ptr @alloc_f5ffd2fd1476bab43ad89fb40c72d0c5, [16 x i8] c"\0A\00\00\00\00\00\00\004\00\00\00\1A\00\00\00" }>, align 8
@alloc_78772e9746ba4e4bb2aaf51ea1bd1391 = private unnamed_addr constant <{ ptr, [16 x i8] }> <{ ptr @alloc_f5ffd2fd1476bab43ad89fb40c72d0c5, [16 x i8] c"\0A\00\00\00\00\00\00\004\00\00\00\05\00\00\00" }>, align 8
@alloc_75a9ceef90e510899807e5ec1c70f64f = private unnamed_addr constant <{ ptr, [16 x i8] }> <{ ptr @alloc_f5ffd2fd1476bab43ad89fb40c72d0c5, [16 x i8] c"\0A\00\00\00\00\00\00\005\00\00\00\14\00\00\00" }>, align 8
@alloc_7e3fb20a7114daca931f00ad16ba181b = private unnamed_addr constant <{ ptr, [16 x i8] }> <{ ptr @alloc_f5ffd2fd1476bab43ad89fb40c72d0c5, [16 x i8] c"\0A\00\00\00\00\00\00\005\00\00\00\05\00\00\00" }>, align 8
@alloc_cf364b80e5073ada2216fdd9e946236b = private unnamed_addr constant <{ ptr, [16 x i8] }> <{ ptr @alloc_f5ffd2fd1476bab43ad89fb40c72d0c5, [16 x i8] c"\0A\00\00\00\00\00\00\006\00\00\00\1A\00\00\00" }>, align 8
@alloc_b88e51dd48bed7e7836045b7d503c26f = private unnamed_addr constant <{ ptr, [16 x i8] }> <{ ptr @alloc_f5ffd2fd1476bab43ad89fb40c72d0c5, [16 x i8] c"\0A\00\00\00\00\00\00\006\00\00\00\05\00\00\00" }>, align 8
@alloc_00e94dd8e07ae97896c26b46f43cbda2 = private unnamed_addr constant <{ ptr, [16 x i8] }> <{ ptr @alloc_f5ffd2fd1476bab43ad89fb40c72d0c5, [16 x i8] c"\0A\00\00\00\00\00\00\007\00\00\00\05\00\00\00" }>, align 8
@alloc_e1cfc5e65e0e0d8887bc69443fd54186 = private unnamed_addr constant <{ ptr, [16 x i8] }> <{ ptr @alloc_f5ffd2fd1476bab43ad89fb40c72d0c5, [16 x i8] c"\0A\00\00\00\00\00\00\008\00\00\00\05\00\00\00" }>, align 8
@alloc_6939081ac62fb3603135e3880f0726eb = private unnamed_addr constant <{ ptr, [16 x i8] }> <{ ptr @alloc_f5ffd2fd1476bab43ad89fb40c72d0c5, [16 x i8] c"\0A\00\00\00\00\00\00\009\00\00\00\05\00\00\00" }>, align 8
@alloc_05519a5e87539bab8368e2f0eb332379 = private unnamed_addr constant <{ ptr, [16 x i8] }> <{ ptr @alloc_f5ffd2fd1476bab43ad89fb40c72d0c5, [16 x i8] c"\0A\00\00\00\00\00\00\00:\00\00\00\05\00\00\00" }>, align 8
@alloc_a9cc046834df20c335ea7f94ee43ccce = private unnamed_addr constant <{ ptr, [16 x i8] }> <{ ptr @alloc_f5ffd2fd1476bab43ad89fb40c72d0c5, [16 x i8] c"\0A\00\00\00\00\00\00\00;\00\00\00\08\00\00\00" }>, align 8
@alloc_26352d816de2ea1911873d6d65a7af9d = private unnamed_addr constant <{ ptr, [16 x i8] }> <{ ptr @alloc_f5ffd2fd1476bab43ad89fb40c72d0c5, [16 x i8] c"\0A\00\00\00\00\00\00\00<\00\00\00\09\00\00\00" }>, align 8
@alloc_1c77c64dfb197e32ca21febb0529373d = private unnamed_addr constant <{ ptr, [16 x i8] }> <{ ptr @alloc_f5ffd2fd1476bab43ad89fb40c72d0c5, [16 x i8] c"\0A\00\00\00\00\00\00\00B\00\00\00%\00\00\00" }>, align 8
@alloc_ff06f336c379dc447c2ed2070db48c34 = private unnamed_addr constant <{ ptr, [16 x i8] }> <{ ptr @alloc_f5ffd2fd1476bab43ad89fb40c72d0c5, [16 x i8] c"\0A\00\00\00\00\00\00\00C\00\00\00%\00\00\00" }>, align 8
@alloc_f79f06b2094faf19c3841bf93ed5c883 = private unnamed_addr constant <{ ptr, [16 x i8] }> <{ ptr @alloc_f5ffd2fd1476bab43ad89fb40c72d0c5, [16 x i8] c"\0A\00\00\00\00\00\00\00D\00\00\00\05\00\00\00" }>, align 8
@alloc_96a87398f608eaadfe7d76b8a4863991 = private unnamed_addr constant <{ ptr, [16 x i8] }> <{ ptr @alloc_f5ffd2fd1476bab43ad89fb40c72d0c5, [16 x i8] c"\0A\00\00\00\00\00\00\00E\00\00\00\05\00\00\00" }>, align 8
@alloc_8fb33a791464e754b1155f2b1b195b49 = private unnamed_addr constant <{ ptr, [16 x i8] }> <{ ptr @alloc_f5ffd2fd1476bab43ad89fb40c72d0c5, [16 x i8] c"\0A\00\00\00\00\00\00\00F\00\00\00\08\00\00\00" }>, align 8
@alloc_728aa173be55b60e2d7bc38148f90be4 = private unnamed_addr constant <{ ptr, [16 x i8] }> <{ ptr @alloc_f5ffd2fd1476bab43ad89fb40c72d0c5, [16 x i8] c"\0A\00\00\00\00\00\00\00G\00\00\00\09\00\00\00" }>, align 8
@alloc_5e508f8b25e8846369e349f2be531966 = private unnamed_addr constant <{ ptr, [16 x i8] }> <{ ptr @alloc_f5ffd2fd1476bab43ad89fb40c72d0c5, [16 x i8] c"\0A\00\00\00\00\00\00\00I\00\00\00\05\00\00\00" }>, align 8
@alloc_2b741aa80e9bacc62157d48afd5adfbd = private unnamed_addr constant <{ ptr, [16 x i8] }> <{ ptr @alloc_f5ffd2fd1476bab43ad89fb40c72d0c5, [16 x i8] c"\0A\00\00\00\00\00\00\00J\00\00\00\05\00\00\00" }>, align 8
@alloc_2efa6fb076c65f88b785c700efd47dae = private unnamed_addr constant <{ ptr, [16 x i8] }> <{ ptr @alloc_f5ffd2fd1476bab43ad89fb40c72d0c5, [16 x i8] c"\0A\00\00\00\00\00\00\00K\00\00\00\05\00\00\00" }>, align 8
@alloc_bbefbe7968a6e9730ef71c00c28bce21 = private unnamed_addr constant <{ ptr, [16 x i8] }> <{ ptr @alloc_f5ffd2fd1476bab43ad89fb40c72d0c5, [16 x i8] c"\0A\00\00\00\00\00\00\00P\00\00\00%\00\00\00" }>, align 8
@alloc_8cd9c188bc54f0a48f99b838a4128486 = private unnamed_addr constant <{ ptr, [16 x i8] }> <{ ptr @alloc_f5ffd2fd1476bab43ad89fb40c72d0c5, [16 x i8] c"\0A\00\00\00\00\00\00\00Q\00\00\00%\00\00\00" }>, align 8
@alloc_bb689b693e85b438ed3fcda2b087a10d = private unnamed_addr constant <{ ptr, [16 x i8] }> <{ ptr @alloc_f5ffd2fd1476bab43ad89fb40c72d0c5, [16 x i8] c"\0A\00\00\00\00\00\00\00R\00\00\00\05\00\00\00" }>, align 8
@alloc_7b3cfcd865bbaf9aa55e165bfbe8d2ee = private unnamed_addr constant <{ ptr, [16 x i8] }> <{ ptr @alloc_f5ffd2fd1476bab43ad89fb40c72d0c5, [16 x i8] c"\0A\00\00\00\00\00\00\00S\00\00\00\05\00\00\00" }>, align 8
@alloc_0d39ba45476f75f650454625082e8099 = private unnamed_addr constant <{ ptr, [16 x i8] }> <{ ptr @alloc_f5ffd2fd1476bab43ad89fb40c72d0c5, [16 x i8] c"\0A\00\00\00\00\00\00\00T\00\00\00\05\00\00\00" }>, align 8
@alloc_ef97693e0431bda849a44842fda94ab8 = private unnamed_addr constant <{ ptr, [16 x i8] }> <{ ptr @alloc_f5ffd2fd1476bab43ad89fb40c72d0c5, [16 x i8] c"\0A\00\00\00\00\00\00\00U\00\00\00\05\00\00\00" }>, align 8
@alloc_e3c24b4ee49629dfaca98d015979b7db = private unnamed_addr constant <{ ptr, [16 x i8] }> <{ ptr @alloc_f5ffd2fd1476bab43ad89fb40c72d0c5, [16 x i8] c"\0A\00\00\00\00\00\00\00V\00\00\00\08\00\00\00" }>, align 8
@alloc_2116a9496aa5eec09b74b7fb982edea0 = private unnamed_addr constant <{ ptr, [16 x i8] }> <{ ptr @alloc_f5ffd2fd1476bab43ad89fb40c72d0c5, [16 x i8] c"\0A\00\00\00\00\00\00\00W\00\00\00\09\00\00\00" }>, align 8
@alloc_b6556163ff544e4f0d8fee85d7181446 = private unnamed_addr constant <{ ptr, [16 x i8] }> <{ ptr @alloc_f5ffd2fd1476bab43ad89fb40c72d0c5, [16 x i8] c"\0A\00\00\00\00\00\00\00]\00\00\00$\00\00\00" }>, align 8
@alloc_ee4e70f4c812222796fd5374fd036424 = private unnamed_addr constant <{ ptr, [16 x i8] }> <{ ptr @alloc_f5ffd2fd1476bab43ad89fb40c72d0c5, [16 x i8] c"\0A\00\00\00\00\00\00\00^\00\00\00%\00\00\00" }>, align 8
@alloc_19a9d35a3f0dc6f4ec1f1516a86c2b37 = private unnamed_addr constant <{ ptr, [16 x i8] }> <{ ptr @alloc_f5ffd2fd1476bab43ad89fb40c72d0c5, [16 x i8] c"\0A\00\00\00\00\00\00\00_\00\00\00\05\00\00\00" }>, align 8
@alloc_add30d594056fbb91ae648e67a9f2e0b = private unnamed_addr constant <{ ptr, [16 x i8] }> <{ ptr @alloc_f5ffd2fd1476bab43ad89fb40c72d0c5, [16 x i8] c"\0A\00\00\00\00\00\00\00`\00\00\00\05\00\00\00" }>, align 8
@alloc_b904451420a6bb5fade327acaf31af6d = private unnamed_addr constant <{ ptr, [16 x i8] }> <{ ptr @alloc_f5ffd2fd1476bab43ad89fb40c72d0c5, [16 x i8] c"\0A\00\00\00\00\00\00\00a\00\00\00\05\00\00\00" }>, align 8
@alloc_f02d8f7a07b320bd98ec3e25340af526 = private unnamed_addr constant <{ ptr, [16 x i8] }> <{ ptr @alloc_f5ffd2fd1476bab43ad89fb40c72d0c5, [16 x i8] c"\0A\00\00\00\00\00\00\00b\00\00\00\05\00\00\00" }>, align 8
@alloc_8bb2e3038f5f5fcce792eba5e18a571f = private unnamed_addr constant <{ ptr, [16 x i8] }> <{ ptr @alloc_f5ffd2fd1476bab43ad89fb40c72d0c5, [16 x i8] c"\0A\00\00\00\00\00\00\00c\00\00\00\08\00\00\00" }>, align 8
@alloc_cfe30686ff0daf301212766601800645 = private unnamed_addr constant <{ ptr, [16 x i8] }> <{ ptr @alloc_f5ffd2fd1476bab43ad89fb40c72d0c5, [16 x i8] c"\0A\00\00\00\00\00\00\00d\00\00\00\09\00\00\00" }>, align 8
@alloc_83f5eb74f1253c6f571b01131205ddde = private unnamed_addr constant <{ ptr, [16 x i8] }> <{ ptr @alloc_f5ffd2fd1476bab43ad89fb40c72d0c5, [16 x i8] c"\0A\00\00\00\00\00\00\00n\00\00\00\05\00\00\00" }>, align 8
@alloc_dd5ca49258844dd049f35feb90dce4cb = private unnamed_addr constant <{ ptr, [16 x i8] }> <{ ptr @alloc_f5ffd2fd1476bab43ad89fb40c72d0c5, [16 x i8] c"\0A\00\00\00\00\00\00\00o\00\00\00\05\00\00\00" }>, align 8
@alloc_80883ff8e80cbb9d0e87c67dc1a3fa1d = private unnamed_addr constant <{ ptr, [16 x i8] }> <{ ptr @alloc_f5ffd2fd1476bab43ad89fb40c72d0c5, [16 x i8] c"\0A\00\00\00\00\00\00\00p\00\00\00\05\00\00\00" }>, align 8
@alloc_8b6dc6b0806fc8c5f60665f6e75fc44a = private unnamed_addr constant <{ ptr, [16 x i8] }> <{ ptr @alloc_f5ffd2fd1476bab43ad89fb40c72d0c5, [16 x i8] c"\0A\00\00\00\00\00\00\00q\00\00\00\14\00\00\00" }>, align 8
@alloc_4eafd405e6287f04cb56e32194e29e80 = private unnamed_addr constant <{ ptr, [16 x i8] }> <{ ptr @alloc_f5ffd2fd1476bab43ad89fb40c72d0c5, [16 x i8] c"\0A\00\00\00\00\00\00\00q\00\00\00\05\00\00\00" }>, align 8
@alloc_d5da31a785ca6e0998d389145461f61c = private unnamed_addr constant <{ ptr, [16 x i8] }> <{ ptr @alloc_f5ffd2fd1476bab43ad89fb40c72d0c5, [16 x i8] c"\0A\00\00\00\00\00\00\00w\00\00\00\11\00\00\00" }>, align 8
@alloc_b929c71616281bfd1be2bd4038d3ddf1 = private unnamed_addr constant [4 x i8] c"%d \00", align 1
@alloc_f34f237bdd1b4f16fe0889eb90041c57 = private unnamed_addr constant <{ ptr, [16 x i8] }> <{ ptr @alloc_f5ffd2fd1476bab43ad89fb40c72d0c5, [16 x i8] c"\0A\00\00\00\00\00\00\00x\00\00\00>\00\00\00" }>, align 8
@alloc_0383b466903d965f059f9e83ec1865fd = private unnamed_addr constant <{ ptr, [16 x i8] }> <{ ptr @alloc_f5ffd2fd1476bab43ad89fb40c72d0c5, [16 x i8] c"\0A\00\00\00\00\00\00\00y\00\00\00\11\00\00\00" }>, align 8
@alloc_5c3eb867be7f40436370efccf7c9fc9f = private unnamed_addr constant <{ ptr, [16 x i8] }> <{ ptr @alloc_f5ffd2fd1476bab43ad89fb40c72d0c5, [16 x i8] c"\0A\00\00\00\00\00\00\00\80\00\00\00#\00\00\00" }>, align 8
@alloc_89961032cc8c4a7dcdb0a48b5861b468 = private unnamed_addr constant <{ ptr, [16 x i8] }> <{ ptr @alloc_f5ffd2fd1476bab43ad89fb40c72d0c5, [16 x i8] c"\0A\00\00\00\00\00\00\00\81\00\00\00\09\00\00\00" }>, align 8
@alloc_73398d37c3b6b5a8a4ec4265558d6504 = private unnamed_addr constant <{ ptr, [16 x i8] }> <{ ptr @alloc_f5ffd2fd1476bab43ad89fb40c72d0c5, [16 x i8] c"\0A\00\00\00\00\00\00\00\85\00\00\00$\00\00\00" }>, align 8
@alloc_693c2a8883c4b85731770c54313a3051 = private unnamed_addr constant <{ ptr, [16 x i8] }> <{ ptr @alloc_f5ffd2fd1476bab43ad89fb40c72d0c5, [16 x i8] c"\0A\00\00\00\00\00\00\00\86\00\00\00\09\00\00\00" }>, align 8
@alloc_03233b4a267dd9d9d2744378cfa0def7 = private unnamed_addr constant <{ ptr, [16 x i8] }> <{ ptr @alloc_f5ffd2fd1476bab43ad89fb40c72d0c5, [16 x i8] c"\0A\00\00\00\00\00\00\00\93\00\00\00\1D\00\00\00" }>, align 8
@alloc_da1e1473966fb898c2ca23ccee2be01d = private unnamed_addr constant <{ ptr, [16 x i8] }> <{ ptr @alloc_f5ffd2fd1476bab43ad89fb40c72d0c5, [16 x i8] c"\0A\00\00\00\00\00\00\00\9A\00\00\00\1D\00\00\00" }>, align 8
@alloc_cb134b8acefe01c91a8fad8c729aea62 = private unnamed_addr constant <{ ptr, [16 x i8] }> <{ ptr @alloc_f5ffd2fd1476bab43ad89fb40c72d0c5, [16 x i8] c"\0A\00\00\00\00\00\00\00\AD\00\00\00\08\00\00\00" }>, align 8
@alloc_ac6d535600a274db2f57be193527219d = private unnamed_addr constant <{ ptr, [16 x i8] }> <{ ptr @alloc_f5ffd2fd1476bab43ad89fb40c72d0c5, [16 x i8] c"\0A\00\00\00\00\00\00\00\AF\00\00\00\0F\00\00\00" }>, align 8
@alloc_909dbae0e1e0f292e9e556cde45756c5 = private unnamed_addr constant <{ ptr, [16 x i8] }> <{ ptr @alloc_f5ffd2fd1476bab43ad89fb40c72d0c5, [16 x i8] c"\0A\00\00\00\00\00\00\00\B0\00\00\00 \00\00\00" }>, align 8
@alloc_abcef8df9889a0d0269bedb9264e214d = private unnamed_addr constant <{ ptr, [16 x i8] }> <{ ptr @alloc_f5ffd2fd1476bab43ad89fb40c72d0c5, [16 x i8] c"\0A\00\00\00\00\00\00\00\B0\00\00\00\09\00\00\00" }>, align 8
@alloc_97073ee2e36987f4a2f3b1a63d7f599e = private unnamed_addr constant <{ ptr, [16 x i8] }> <{ ptr @alloc_f5ffd2fd1476bab43ad89fb40c72d0c5, [16 x i8] c"\0A\00\00\00\00\00\00\00\AE\00\00\00\1F\00\00\00" }>, align 8
@alloc_1f627793a50a1bfe5e41005bab7fbe7a = private unnamed_addr constant <{ ptr, [16 x i8] }> <{ ptr @alloc_f5ffd2fd1476bab43ad89fb40c72d0c5, [16 x i8] c"\0A\00\00\00\00\00\00\00\AE\00\00\00\09\00\00\00" }>, align 8
@alloc_5af7884d1493ee4bd0ceffd5fc929290 = private unnamed_addr constant <{ ptr, [16 x i8] }> <{ ptr @alloc_f5ffd2fd1476bab43ad89fb40c72d0c5, [16 x i8] c"\0A\00\00\00\00\00\00\00\B2\00\00\00\05\00\00\00" }>, align 8

; core::ptr::mut_ptr::<impl *mut T>::is_null
; Function Attrs: inlinehint nounwind nonlazybind
define internal zeroext i1 @"_ZN4core3ptr7mut_ptr31_$LT$impl$u20$$BP$mut$u20$T$GT$7is_null17h4f424712537546b2E"(ptr %self) unnamed_addr #0 {
start:
  %_3 = ptrtoint ptr %self to i64
  %_0 = icmp eq i64 %_3, 0
  ret i1 %_0
}

; Function Attrs: nounwind nonlazybind
define i32 @node_height(ptr %node) unnamed_addr #1 {
start:
  %_8 = alloca [4 x i8], align 4
  %_4 = alloca [4 x i8], align 4
  %right = alloca [4 x i8], align 4
  %left = alloca [4 x i8], align 4
  %_0 = alloca [4 x i8], align 4
  store i32 0, ptr %left, align 4
  store i32 0, ptr %right, align 4
; call core::ptr::mut_ptr::<impl *mut T>::is_null
  %_5 = call zeroext i1 @"_ZN4core3ptr7mut_ptr31_$LT$impl$u20$$BP$mut$u20$T$GT$7is_null17h4f424712537546b2E"(ptr %node) #3
  br i1 %_5, label %bb5, label %bb2

bb2:                                              ; preds = %start
  %_38 = ptrtoint ptr %node to i64
  %_41 = and i64 %_38, 7
  %_42 = icmp eq i64 %_41, 0
  br i1 %_42, label %bb19, label %panic

bb5:                                              ; preds = %bb20, %start
  store i32 0, ptr %_4, align 4
  br label %bb6

bb19:                                             ; preds = %bb2
  %_44 = ptrtoint ptr %node to i64
  %_47 = icmp eq i64 %_44, 0
  %_48 = and i1 %_47, true
  %_49 = xor i1 %_48, true
  br i1 %_49, label %bb20, label %panic1

panic:                                            ; preds = %bb2
; call core::panicking::panic_misaligned_pointer_dereference
  call void @_ZN4core9panicking36panic_misaligned_pointer_dereference17hcc3cbded9382b6e5E(i64 8, i64 %_38, ptr align 8 @alloc_18dec338588aaa093ad9aca10695e080) #4
  unreachable

bb20:                                             ; preds = %bb19
  %0 = getelementptr inbounds i8, ptr %node, i64 8
  %_7 = load ptr, ptr %0, align 8
; call core::ptr::mut_ptr::<impl *mut T>::is_null
  %_6 = call zeroext i1 @"_ZN4core3ptr7mut_ptr31_$LT$impl$u20$$BP$mut$u20$T$GT$7is_null17h4f424712537546b2E"(ptr %_7) #3
  br i1 %_6, label %bb5, label %bb4

panic1:                                           ; preds = %bb19
; call core::panicking::panic_null_pointer_dereference
  call void @_ZN4core9panicking30panic_null_pointer_dereference17hf718fcc86a223baaE(ptr align 8 @alloc_18dec338588aaa093ad9aca10695e080) #4
  unreachable

bb4:                                              ; preds = %bb20
  %1 = getelementptr inbounds i8, ptr %node, i64 8
  %_17 = load ptr, ptr %1, align 8
  %_32 = ptrtoint ptr %_17 to i64
  %_35 = and i64 %_32, 7
  %_36 = icmp eq i64 %_35, 0
  br i1 %_36, label %bb18, label %panic2

bb18:                                             ; preds = %bb4
  %_51 = ptrtoint ptr %_17 to i64
  %_54 = icmp eq i64 %_51, 0
  %_55 = and i1 %_54, true
  %_56 = xor i1 %_55, true
  br i1 %_56, label %bb21, label %panic3

panic2:                                           ; preds = %bb4
; call core::panicking::panic_misaligned_pointer_dereference
  call void @_ZN4core9panicking36panic_misaligned_pointer_dereference17hcc3cbded9382b6e5E(i64 8, i64 %_32, ptr align 8 @alloc_621b35710e7b129ef28cdcba8b7c51df) #4
  unreachable

bb21:                                             ; preds = %bb18
  %2 = getelementptr inbounds i8, ptr %_17, i64 24
  %3 = load i32, ptr %2, align 8
  store i32 %3, ptr %_4, align 4
  br label %bb6

panic3:                                           ; preds = %bb18
; call core::panicking::panic_null_pointer_dereference
  call void @_ZN4core9panicking30panic_null_pointer_dereference17hf718fcc86a223baaE(ptr align 8 @alloc_621b35710e7b129ef28cdcba8b7c51df) #4
  unreachable

bb6:                                              ; preds = %bb5, %bb21
  %4 = load i32, ptr %_4, align 4
  store i32 %4, ptr %left, align 4
; call core::ptr::mut_ptr::<impl *mut T>::is_null
  %_9 = call zeroext i1 @"_ZN4core3ptr7mut_ptr31_$LT$impl$u20$$BP$mut$u20$T$GT$7is_null17h4f424712537546b2E"(ptr %node) #3
  br i1 %_9, label %bb11, label %bb8

bb8:                                              ; preds = %bb6
  %_26 = ptrtoint ptr %node to i64
  %_29 = and i64 %_26, 7
  %_30 = icmp eq i64 %_29, 0
  br i1 %_30, label %bb17, label %panic4

bb11:                                             ; preds = %bb22, %bb6
  store i32 0, ptr %_8, align 4
  br label %bb12

bb17:                                             ; preds = %bb8
  %_58 = ptrtoint ptr %node to i64
  %_61 = icmp eq i64 %_58, 0
  %_62 = and i1 %_61, true
  %_63 = xor i1 %_62, true
  br i1 %_63, label %bb22, label %panic5

panic4:                                           ; preds = %bb8
; call core::panicking::panic_misaligned_pointer_dereference
  call void @_ZN4core9panicking36panic_misaligned_pointer_dereference17hcc3cbded9382b6e5E(i64 8, i64 %_26, ptr align 8 @alloc_1b6dcc8a29e20ec806e9fdaf5630f7fe) #4
  unreachable

bb22:                                             ; preds = %bb17
  %5 = getelementptr inbounds i8, ptr %node, i64 16
  %_11 = load ptr, ptr %5, align 8
; call core::ptr::mut_ptr::<impl *mut T>::is_null
  %_10 = call zeroext i1 @"_ZN4core3ptr7mut_ptr31_$LT$impl$u20$$BP$mut$u20$T$GT$7is_null17h4f424712537546b2E"(ptr %_11) #3
  br i1 %_10, label %bb11, label %bb10

panic5:                                           ; preds = %bb17
; call core::panicking::panic_null_pointer_dereference
  call void @_ZN4core9panicking30panic_null_pointer_dereference17hf718fcc86a223baaE(ptr align 8 @alloc_1b6dcc8a29e20ec806e9fdaf5630f7fe) #4
  unreachable

bb10:                                             ; preds = %bb22
  %6 = getelementptr inbounds i8, ptr %node, i64 16
  %_18 = load ptr, ptr %6, align 8
  %_20 = ptrtoint ptr %_18 to i64
  %_23 = and i64 %_20, 7
  %_24 = icmp eq i64 %_23, 0
  br i1 %_24, label %bb16, label %panic6

bb16:                                             ; preds = %bb10
  %_65 = ptrtoint ptr %_18 to i64
  %_68 = icmp eq i64 %_65, 0
  %_69 = and i1 %_68, true
  %_70 = xor i1 %_69, true
  br i1 %_70, label %bb23, label %panic7

panic6:                                           ; preds = %bb10
; call core::panicking::panic_misaligned_pointer_dereference
  call void @_ZN4core9panicking36panic_misaligned_pointer_dereference17hcc3cbded9382b6e5E(i64 8, i64 %_20, ptr align 8 @alloc_203d10657d425d1f561693c8524cd5ad) #4
  unreachable

bb23:                                             ; preds = %bb16
  %7 = getelementptr inbounds i8, ptr %_18, i64 24
  %8 = load i32, ptr %7, align 8
  store i32 %8, ptr %_8, align 4
  br label %bb12

panic7:                                           ; preds = %bb16
; call core::panicking::panic_null_pointer_dereference
  call void @_ZN4core9panicking30panic_null_pointer_dereference17hf718fcc86a223baaE(ptr align 8 @alloc_203d10657d425d1f561693c8524cd5ad) #4
  unreachable

bb12:                                             ; preds = %bb11, %bb23
  %9 = load i32, ptr %_8, align 4
  store i32 %9, ptr %right, align 4
  %_13 = load i32, ptr %left, align 4
  %_14 = load i32, ptr %right, align 4
  %_12 = icmp sgt i32 %_13, %_14
  br i1 %_12, label %bb13, label %bb14

bb14:                                             ; preds = %bb12
  %_16 = load i32, ptr %right, align 4
  %10 = add i32 %_16, 1
  store i32 %10, ptr %_0, align 4
  br label %bb15

bb13:                                             ; preds = %bb12
  %_15 = load i32, ptr %left, align 4
  %11 = add i32 %_15, 1
  store i32 %11, ptr %_0, align 4
  br label %bb15

bb15:                                             ; preds = %bb13, %bb14
  %12 = load i32, ptr %_0, align 4
  ret i32 %12
}

; Function Attrs: nounwind nonlazybind
define ptr @LR_Rotation(ptr %node) unnamed_addr #1 {
start:
  %_92 = ptrtoint ptr %node to i64
  %_95 = and i64 %_92, 7
  %_96 = icmp eq i64 %_95, 0
  br i1 %_96, label %bb19, label %panic

bb19:                                             ; preds = %start
  %_98 = ptrtoint ptr %node to i64
  %_101 = icmp eq i64 %_98, 0
  %_102 = and i1 %_101, true
  %_103 = xor i1 %_102, true
  br i1 %_103, label %bb20, label %panic1

panic:                                            ; preds = %start
; call core::panicking::panic_misaligned_pointer_dereference
  call void @_ZN4core9panicking36panic_misaligned_pointer_dereference17hcc3cbded9382b6e5E(i64 8, i64 %_92, ptr align 8 @alloc_2092402456d04f443ab580f65516984c) #4
  unreachable

bb20:                                             ; preds = %bb19
  %0 = getelementptr inbounds i8, ptr %node, i64 8
  %node_left = load ptr, ptr %0, align 8
  %_86 = ptrtoint ptr %node_left to i64
  %_89 = and i64 %_86, 7
  %_90 = icmp eq i64 %_89, 0
  br i1 %_90, label %bb18, label %panic2

panic1:                                           ; preds = %bb19
; call core::panicking::panic_null_pointer_dereference
  call void @_ZN4core9panicking30panic_null_pointer_dereference17hf718fcc86a223baaE(ptr align 8 @alloc_2092402456d04f443ab580f65516984c) #4
  unreachable

bb18:                                             ; preds = %bb20
  %_105 = ptrtoint ptr %node_left to i64
  %_108 = icmp eq i64 %_105, 0
  %_109 = and i1 %_108, true
  %_110 = xor i1 %_109, true
  br i1 %_110, label %bb21, label %panic3

panic2:                                           ; preds = %bb20
; call core::panicking::panic_misaligned_pointer_dereference
  call void @_ZN4core9panicking36panic_misaligned_pointer_dereference17hcc3cbded9382b6e5E(i64 8, i64 %_86, ptr align 8 @alloc_a3bf9626690c052e01751f3809065fd8) #4
  unreachable

bb21:                                             ; preds = %bb18
  %1 = getelementptr inbounds i8, ptr %node_left, i64 16
  %left_right = load ptr, ptr %1, align 8
  %_80 = ptrtoint ptr %left_right to i64
  %_83 = and i64 %_80, 7
  %_84 = icmp eq i64 %_83, 0
  br i1 %_84, label %bb17, label %panic4

panic3:                                           ; preds = %bb18
; call core::panicking::panic_null_pointer_dereference
  call void @_ZN4core9panicking30panic_null_pointer_dereference17hf718fcc86a223baaE(ptr align 8 @alloc_a3bf9626690c052e01751f3809065fd8) #4
  unreachable

bb17:                                             ; preds = %bb21
  %_112 = ptrtoint ptr %left_right to i64
  %_115 = icmp eq i64 %_112, 0
  %_116 = and i1 %_115, true
  %_117 = xor i1 %_116, true
  br i1 %_117, label %bb22, label %panic5

panic4:                                           ; preds = %bb21
; call core::panicking::panic_misaligned_pointer_dereference
  call void @_ZN4core9panicking36panic_misaligned_pointer_dereference17hcc3cbded9382b6e5E(i64 8, i64 %_80, ptr align 8 @alloc_059284c63f2adc6df33b1793623d7c27) #4
  unreachable

bb22:                                             ; preds = %bb17
  %2 = getelementptr inbounds i8, ptr %left_right, i64 8
  %_3 = load ptr, ptr %2, align 8
  %_74 = ptrtoint ptr %node_left to i64
  %_77 = and i64 %_74, 7
  %_78 = icmp eq i64 %_77, 0
  br i1 %_78, label %bb16, label %panic6

panic5:                                           ; preds = %bb17
; call core::panicking::panic_null_pointer_dereference
  call void @_ZN4core9panicking30panic_null_pointer_dereference17hf718fcc86a223baaE(ptr align 8 @alloc_059284c63f2adc6df33b1793623d7c27) #4
  unreachable

bb16:                                             ; preds = %bb22
  %_119 = ptrtoint ptr %node_left to i64
  %_122 = icmp eq i64 %_119, 0
  %_123 = and i1 %_122, true
  %_124 = xor i1 %_123, true
  br i1 %_124, label %bb23, label %panic7

panic6:                                           ; preds = %bb22
; call core::panicking::panic_misaligned_pointer_dereference
  call void @_ZN4core9panicking36panic_misaligned_pointer_dereference17hcc3cbded9382b6e5E(i64 8, i64 %_74, ptr align 8 @alloc_78772e9746ba4e4bb2aaf51ea1bd1391) #4
  unreachable

bb23:                                             ; preds = %bb16
  %3 = getelementptr inbounds i8, ptr %node_left, i64 16
  store ptr %_3, ptr %3, align 8
  %_68 = ptrtoint ptr %left_right to i64
  %_71 = and i64 %_68, 7
  %_72 = icmp eq i64 %_71, 0
  br i1 %_72, label %bb15, label %panic8

panic7:                                           ; preds = %bb16
; call core::panicking::panic_null_pointer_dereference
  call void @_ZN4core9panicking30panic_null_pointer_dereference17hf718fcc86a223baaE(ptr align 8 @alloc_78772e9746ba4e4bb2aaf51ea1bd1391) #4
  unreachable

bb15:                                             ; preds = %bb23
  %_126 = ptrtoint ptr %left_right to i64
  %_129 = icmp eq i64 %_126, 0
  %_130 = and i1 %_129, true
  %_131 = xor i1 %_130, true
  br i1 %_131, label %bb24, label %panic9

panic8:                                           ; preds = %bb23
; call core::panicking::panic_misaligned_pointer_dereference
  call void @_ZN4core9panicking36panic_misaligned_pointer_dereference17hcc3cbded9382b6e5E(i64 8, i64 %_68, ptr align 8 @alloc_75a9ceef90e510899807e5ec1c70f64f) #4
  unreachable

bb24:                                             ; preds = %bb15
  %4 = getelementptr inbounds i8, ptr %left_right, i64 16
  %_4 = load ptr, ptr %4, align 8
  %_62 = ptrtoint ptr %node to i64
  %_65 = and i64 %_62, 7
  %_66 = icmp eq i64 %_65, 0
  br i1 %_66, label %bb14, label %panic10

panic9:                                           ; preds = %bb15
; call core::panicking::panic_null_pointer_dereference
  call void @_ZN4core9panicking30panic_null_pointer_dereference17hf718fcc86a223baaE(ptr align 8 @alloc_75a9ceef90e510899807e5ec1c70f64f) #4
  unreachable

bb14:                                             ; preds = %bb24
  %_133 = ptrtoint ptr %node to i64
  %_136 = icmp eq i64 %_133, 0
  %_137 = and i1 %_136, true
  %_138 = xor i1 %_137, true
  br i1 %_138, label %bb25, label %panic11

panic10:                                          ; preds = %bb24
; call core::panicking::panic_misaligned_pointer_dereference
  call void @_ZN4core9panicking36panic_misaligned_pointer_dereference17hcc3cbded9382b6e5E(i64 8, i64 %_62, ptr align 8 @alloc_7e3fb20a7114daca931f00ad16ba181b) #4
  unreachable

bb25:                                             ; preds = %bb14
  %5 = getelementptr inbounds i8, ptr %node, i64 8
  store ptr %_4, ptr %5, align 8
  %_56 = ptrtoint ptr %node to i64
  %_59 = and i64 %_56, 7
  %_60 = icmp eq i64 %_59, 0
  br i1 %_60, label %bb13, label %panic12

panic11:                                          ; preds = %bb14
; call core::panicking::panic_null_pointer_dereference
  call void @_ZN4core9panicking30panic_null_pointer_dereference17hf718fcc86a223baaE(ptr align 8 @alloc_7e3fb20a7114daca931f00ad16ba181b) #4
  unreachable

bb13:                                             ; preds = %bb25
  %_140 = ptrtoint ptr %node to i64
  %_143 = icmp eq i64 %_140, 0
  %_144 = and i1 %_143, true
  %_145 = xor i1 %_144, true
  br i1 %_145, label %bb26, label %panic13

panic12:                                          ; preds = %bb25
; call core::panicking::panic_misaligned_pointer_dereference
  call void @_ZN4core9panicking36panic_misaligned_pointer_dereference17hcc3cbded9382b6e5E(i64 8, i64 %_56, ptr align 8 @alloc_cf364b80e5073ada2216fdd9e946236b) #4
  unreachable

bb26:                                             ; preds = %bb13
  %6 = getelementptr inbounds i8, ptr %node, i64 8
  %_5 = load ptr, ptr %6, align 8
  %_50 = ptrtoint ptr %left_right to i64
  %_53 = and i64 %_50, 7
  %_54 = icmp eq i64 %_53, 0
  br i1 %_54, label %bb12, label %panic14

panic13:                                          ; preds = %bb13
; call core::panicking::panic_null_pointer_dereference
  call void @_ZN4core9panicking30panic_null_pointer_dereference17hf718fcc86a223baaE(ptr align 8 @alloc_cf364b80e5073ada2216fdd9e946236b) #4
  unreachable

bb12:                                             ; preds = %bb26
  %_147 = ptrtoint ptr %left_right to i64
  %_150 = icmp eq i64 %_147, 0
  %_151 = and i1 %_150, true
  %_152 = xor i1 %_151, true
  br i1 %_152, label %bb27, label %panic15

panic14:                                          ; preds = %bb26
; call core::panicking::panic_misaligned_pointer_dereference
  call void @_ZN4core9panicking36panic_misaligned_pointer_dereference17hcc3cbded9382b6e5E(i64 8, i64 %_50, ptr align 8 @alloc_b88e51dd48bed7e7836045b7d503c26f) #4
  unreachable

bb27:                                             ; preds = %bb12
  %7 = getelementptr inbounds i8, ptr %left_right, i64 8
  store ptr %_5, ptr %7, align 8
  %_44 = ptrtoint ptr %left_right to i64
  %_47 = and i64 %_44, 7
  %_48 = icmp eq i64 %_47, 0
  br i1 %_48, label %bb11, label %panic16

panic15:                                          ; preds = %bb12
; call core::panicking::panic_null_pointer_dereference
  call void @_ZN4core9panicking30panic_null_pointer_dereference17hf718fcc86a223baaE(ptr align 8 @alloc_b88e51dd48bed7e7836045b7d503c26f) #4
  unreachable

bb11:                                             ; preds = %bb27
  %_154 = ptrtoint ptr %left_right to i64
  %_157 = icmp eq i64 %_154, 0
  %_158 = and i1 %_157, true
  %_159 = xor i1 %_158, true
  br i1 %_159, label %bb28, label %panic17

panic16:                                          ; preds = %bb27
; call core::panicking::panic_misaligned_pointer_dereference
  call void @_ZN4core9panicking36panic_misaligned_pointer_dereference17hcc3cbded9382b6e5E(i64 8, i64 %_44, ptr align 8 @alloc_00e94dd8e07ae97896c26b46f43cbda2) #4
  unreachable

bb28:                                             ; preds = %bb11
  %8 = getelementptr inbounds i8, ptr %left_right, i64 16
  store ptr %node, ptr %8, align 8
  %_6 = call i32 @node_height(ptr %node) #3
  %_38 = ptrtoint ptr %node to i64
  %_41 = and i64 %_38, 7
  %_42 = icmp eq i64 %_41, 0
  br i1 %_42, label %bb10, label %panic18

panic17:                                          ; preds = %bb11
; call core::panicking::panic_null_pointer_dereference
  call void @_ZN4core9panicking30panic_null_pointer_dereference17hf718fcc86a223baaE(ptr align 8 @alloc_00e94dd8e07ae97896c26b46f43cbda2) #4
  unreachable

bb10:                                             ; preds = %bb28
  %_161 = ptrtoint ptr %node to i64
  %_164 = icmp eq i64 %_161, 0
  %_165 = and i1 %_164, true
  %_166 = xor i1 %_165, true
  br i1 %_166, label %bb29, label %panic19

panic18:                                          ; preds = %bb28
; call core::panicking::panic_misaligned_pointer_dereference
  call void @_ZN4core9panicking36panic_misaligned_pointer_dereference17hcc3cbded9382b6e5E(i64 8, i64 %_38, ptr align 8 @alloc_e1cfc5e65e0e0d8887bc69443fd54186) #4
  unreachable

bb29:                                             ; preds = %bb10
  %9 = getelementptr inbounds i8, ptr %node, i64 24
  store i32 %_6, ptr %9, align 8
  %_7 = call i32 @node_height(ptr %node_left) #3
  %_32 = ptrtoint ptr %node_left to i64
  %_35 = and i64 %_32, 7
  %_36 = icmp eq i64 %_35, 0
  br i1 %_36, label %bb9, label %panic20

panic19:                                          ; preds = %bb10
; call core::panicking::panic_null_pointer_dereference
  call void @_ZN4core9panicking30panic_null_pointer_dereference17hf718fcc86a223baaE(ptr align 8 @alloc_e1cfc5e65e0e0d8887bc69443fd54186) #4
  unreachable

bb9:                                              ; preds = %bb29
  %_168 = ptrtoint ptr %node_left to i64
  %_171 = icmp eq i64 %_168, 0
  %_172 = and i1 %_171, true
  %_173 = xor i1 %_172, true
  br i1 %_173, label %bb30, label %panic21

panic20:                                          ; preds = %bb29
; call core::panicking::panic_misaligned_pointer_dereference
  call void @_ZN4core9panicking36panic_misaligned_pointer_dereference17hcc3cbded9382b6e5E(i64 8, i64 %_32, ptr align 8 @alloc_6939081ac62fb3603135e3880f0726eb) #4
  unreachable

bb30:                                             ; preds = %bb9
  %10 = getelementptr inbounds i8, ptr %node_left, i64 24
  store i32 %_7, ptr %10, align 8
  %_8 = call i32 @node_height(ptr %left_right) #3
  %_26 = ptrtoint ptr %left_right to i64
  %_29 = and i64 %_26, 7
  %_30 = icmp eq i64 %_29, 0
  br i1 %_30, label %bb8, label %panic22

panic21:                                          ; preds = %bb9
; call core::panicking::panic_null_pointer_dereference
  call void @_ZN4core9panicking30panic_null_pointer_dereference17hf718fcc86a223baaE(ptr align 8 @alloc_6939081ac62fb3603135e3880f0726eb) #4
  unreachable

bb8:                                              ; preds = %bb30
  %_175 = ptrtoint ptr %left_right to i64
  %_178 = icmp eq i64 %_175, 0
  %_179 = and i1 %_178, true
  %_180 = xor i1 %_179, true
  br i1 %_180, label %bb31, label %panic23

panic22:                                          ; preds = %bb30
; call core::panicking::panic_misaligned_pointer_dereference
  call void @_ZN4core9panicking36panic_misaligned_pointer_dereference17hcc3cbded9382b6e5E(i64 8, i64 %_26, ptr align 8 @alloc_05519a5e87539bab8368e2f0eb332379) #4
  unreachable

bb31:                                             ; preds = %bb8
  %11 = getelementptr inbounds i8, ptr %left_right, i64 24
  store i32 %_8, ptr %11, align 8
  %_185 = icmp eq i64 ptrtoint (ptr @root to i64), 0
  %_186 = and i1 %_185, true
  %_187 = xor i1 %_186, true
  br i1 %_187, label %bb32, label %panic24

panic23:                                          ; preds = %bb8
; call core::panicking::panic_null_pointer_dereference
  call void @_ZN4core9panicking30panic_null_pointer_dereference17hf718fcc86a223baaE(ptr align 8 @alloc_05519a5e87539bab8368e2f0eb332379) #4
  unreachable

bb32:                                             ; preds = %bb31
  %_10 = load ptr, ptr @root, align 8
  %_9 = icmp eq ptr %_10, %node
  br i1 %_9, label %bb4, label %bb5

panic24:                                          ; preds = %bb31
; call core::panicking::panic_null_pointer_dereference
  call void @_ZN4core9panicking30panic_null_pointer_dereference17hf718fcc86a223baaE(ptr align 8 @alloc_a9cc046834df20c335ea7f94ee43ccce) #4
  unreachable

bb5:                                              ; preds = %bb33, %bb32
  ret ptr %left_right

bb4:                                              ; preds = %bb32
  %_192 = icmp eq i64 ptrtoint (ptr @root to i64), 0
  %_193 = and i1 %_192, true
  %_194 = xor i1 %_193, true
  br i1 %_194, label %bb33, label %panic25

bb33:                                             ; preds = %bb4
  store ptr %left_right, ptr @root, align 8
  br label %bb5

panic25:                                          ; preds = %bb4
; call core::panicking::panic_null_pointer_dereference
  call void @_ZN4core9panicking30panic_null_pointer_dereference17hf718fcc86a223baaE(ptr align 8 @alloc_26352d816de2ea1911873d6d65a7af9d) #4
  unreachable
}

; Function Attrs: nounwind nonlazybind
define ptr @RL_Rotation(ptr %node) unnamed_addr #1 {
start:
  %_59 = ptrtoint ptr %node to i64
  %_62 = and i64 %_59, 7
  %_63 = icmp eq i64 %_62, 0
  br i1 %_63, label %bb14, label %panic

bb14:                                             ; preds = %start
  %_65 = ptrtoint ptr %node to i64
  %_68 = icmp eq i64 %_65, 0
  %_69 = and i1 %_68, true
  %_70 = xor i1 %_69, true
  br i1 %_70, label %bb15, label %panic1

panic:                                            ; preds = %start
; call core::panicking::panic_misaligned_pointer_dereference
  call void @_ZN4core9panicking36panic_misaligned_pointer_dereference17hcc3cbded9382b6e5E(i64 8, i64 %_59, ptr align 8 @alloc_1c77c64dfb197e32ca21febb0529373d) #4
  unreachable

bb15:                                             ; preds = %bb14
  %0 = getelementptr inbounds i8, ptr %node, i64 16
  %right_node = load ptr, ptr %0, align 8
  %_53 = ptrtoint ptr %right_node to i64
  %_56 = and i64 %_53, 7
  %_57 = icmp eq i64 %_56, 0
  br i1 %_57, label %bb13, label %panic2

panic1:                                           ; preds = %bb14
; call core::panicking::panic_null_pointer_dereference
  call void @_ZN4core9panicking30panic_null_pointer_dereference17hf718fcc86a223baaE(ptr align 8 @alloc_1c77c64dfb197e32ca21febb0529373d) #4
  unreachable

bb13:                                             ; preds = %bb15
  %_72 = ptrtoint ptr %right_node to i64
  %_75 = icmp eq i64 %_72, 0
  %_76 = and i1 %_75, true
  %_77 = xor i1 %_76, true
  br i1 %_77, label %bb16, label %panic3

panic2:                                           ; preds = %bb15
; call core::panicking::panic_misaligned_pointer_dereference
  call void @_ZN4core9panicking36panic_misaligned_pointer_dereference17hcc3cbded9382b6e5E(i64 8, i64 %_53, ptr align 8 @alloc_ff06f336c379dc447c2ed2070db48c34) #4
  unreachable

bb16:                                             ; preds = %bb13
  %1 = getelementptr inbounds i8, ptr %right_node, i64 8
  %right_left = load ptr, ptr %1, align 8
  %_47 = ptrtoint ptr %right_left to i64
  %_50 = and i64 %_47, 7
  %_51 = icmp eq i64 %_50, 0
  br i1 %_51, label %bb12, label %panic4

panic3:                                           ; preds = %bb13
; call core::panicking::panic_null_pointer_dereference
  call void @_ZN4core9panicking30panic_null_pointer_dereference17hf718fcc86a223baaE(ptr align 8 @alloc_ff06f336c379dc447c2ed2070db48c34) #4
  unreachable

bb12:                                             ; preds = %bb16
  %_79 = ptrtoint ptr %right_left to i64
  %_82 = icmp eq i64 %_79, 0
  %_83 = and i1 %_82, true
  %_84 = xor i1 %_83, true
  br i1 %_84, label %bb17, label %panic5

panic4:                                           ; preds = %bb16
; call core::panicking::panic_misaligned_pointer_dereference
  call void @_ZN4core9panicking36panic_misaligned_pointer_dereference17hcc3cbded9382b6e5E(i64 8, i64 %_47, ptr align 8 @alloc_f79f06b2094faf19c3841bf93ed5c883) #4
  unreachable

bb17:                                             ; preds = %bb12
  %2 = getelementptr inbounds i8, ptr %right_left, i64 8
  store ptr %node, ptr %2, align 8
  %_41 = ptrtoint ptr %right_left to i64
  %_44 = and i64 %_41, 7
  %_45 = icmp eq i64 %_44, 0
  br i1 %_45, label %bb11, label %panic6

panic5:                                           ; preds = %bb12
; call core::panicking::panic_null_pointer_dereference
  call void @_ZN4core9panicking30panic_null_pointer_dereference17hf718fcc86a223baaE(ptr align 8 @alloc_f79f06b2094faf19c3841bf93ed5c883) #4
  unreachable

bb11:                                             ; preds = %bb17
  %_86 = ptrtoint ptr %right_left to i64
  %_89 = icmp eq i64 %_86, 0
  %_90 = and i1 %_89, true
  %_91 = xor i1 %_90, true
  br i1 %_91, label %bb18, label %panic7

panic6:                                           ; preds = %bb17
; call core::panicking::panic_misaligned_pointer_dereference
  call void @_ZN4core9panicking36panic_misaligned_pointer_dereference17hcc3cbded9382b6e5E(i64 8, i64 %_41, ptr align 8 @alloc_96a87398f608eaadfe7d76b8a4863991) #4
  unreachable

bb18:                                             ; preds = %bb11
  %3 = getelementptr inbounds i8, ptr %right_left, i64 16
  store ptr %right_node, ptr %3, align 8
  %_96 = icmp eq i64 ptrtoint (ptr @root to i64), 0
  %_97 = and i1 %_96, true
  %_98 = xor i1 %_97, true
  br i1 %_98, label %bb19, label %panic8

panic7:                                           ; preds = %bb11
; call core::panicking::panic_null_pointer_dereference
  call void @_ZN4core9panicking30panic_null_pointer_dereference17hf718fcc86a223baaE(ptr align 8 @alloc_96a87398f608eaadfe7d76b8a4863991) #4
  unreachable

bb19:                                             ; preds = %bb18
  %_4 = load ptr, ptr @root, align 8
  %_3 = icmp eq ptr %_4, %node
  br i1 %_3, label %bb1, label %bb2

panic8:                                           ; preds = %bb18
; call core::panicking::panic_null_pointer_dereference
  call void @_ZN4core9panicking30panic_null_pointer_dereference17hf718fcc86a223baaE(ptr align 8 @alloc_8fb33a791464e754b1155f2b1b195b49) #4
  unreachable

bb2:                                              ; preds = %bb20, %bb19
  %_7 = call i32 @node_height(ptr %node) #3
  %_23 = ptrtoint ptr %node to i64
  %_26 = and i64 %_23, 7
  %_27 = icmp eq i64 %_26, 0
  br i1 %_27, label %bb8, label %panic10

bb1:                                              ; preds = %bb19
  %_103 = icmp eq i64 ptrtoint (ptr @root to i64), 0
  %_104 = and i1 %_103, true
  %_105 = xor i1 %_104, true
  br i1 %_105, label %bb20, label %panic9

bb20:                                             ; preds = %bb1
  store ptr %right_left, ptr @root, align 8
  br label %bb2

panic9:                                           ; preds = %bb1
; call core::panicking::panic_null_pointer_dereference
  call void @_ZN4core9panicking30panic_null_pointer_dereference17hf718fcc86a223baaE(ptr align 8 @alloc_728aa173be55b60e2d7bc38148f90be4) #4
  unreachable

bb8:                                              ; preds = %bb2
  %_107 = ptrtoint ptr %node to i64
  %_110 = icmp eq i64 %_107, 0
  %_111 = and i1 %_110, true
  %_112 = xor i1 %_111, true
  br i1 %_112, label %bb21, label %panic11

panic10:                                          ; preds = %bb2
; call core::panicking::panic_misaligned_pointer_dereference
  call void @_ZN4core9panicking36panic_misaligned_pointer_dereference17hcc3cbded9382b6e5E(i64 8, i64 %_23, ptr align 8 @alloc_5e508f8b25e8846369e349f2be531966) #4
  unreachable

bb21:                                             ; preds = %bb8
  %4 = getelementptr inbounds i8, ptr %node, i64 24
  store i32 %_7, ptr %4, align 8
  %_8 = call i32 @node_height(ptr %right_node) #3
  %_17 = ptrtoint ptr %right_node to i64
  %_20 = and i64 %_17, 7
  %_21 = icmp eq i64 %_20, 0
  br i1 %_21, label %bb7, label %panic12

panic11:                                          ; preds = %bb8
; call core::panicking::panic_null_pointer_dereference
  call void @_ZN4core9panicking30panic_null_pointer_dereference17hf718fcc86a223baaE(ptr align 8 @alloc_5e508f8b25e8846369e349f2be531966) #4
  unreachable

bb7:                                              ; preds = %bb21
  %_114 = ptrtoint ptr %right_node to i64
  %_117 = icmp eq i64 %_114, 0
  %_118 = and i1 %_117, true
  %_119 = xor i1 %_118, true
  br i1 %_119, label %bb22, label %panic13

panic12:                                          ; preds = %bb21
; call core::panicking::panic_misaligned_pointer_dereference
  call void @_ZN4core9panicking36panic_misaligned_pointer_dereference17hcc3cbded9382b6e5E(i64 8, i64 %_17, ptr align 8 @alloc_2b741aa80e9bacc62157d48afd5adfbd) #4
  unreachable

bb22:                                             ; preds = %bb7
  %5 = getelementptr inbounds i8, ptr %right_node, i64 24
  store i32 %_8, ptr %5, align 8
  %_9 = call i32 @node_height(ptr %right_left) #3
  %_11 = ptrtoint ptr %right_left to i64
  %_14 = and i64 %_11, 7
  %_15 = icmp eq i64 %_14, 0
  br i1 %_15, label %bb6, label %panic14

panic13:                                          ; preds = %bb7
; call core::panicking::panic_null_pointer_dereference
  call void @_ZN4core9panicking30panic_null_pointer_dereference17hf718fcc86a223baaE(ptr align 8 @alloc_2b741aa80e9bacc62157d48afd5adfbd) #4
  unreachable

bb6:                                              ; preds = %bb22
  %_121 = ptrtoint ptr %right_left to i64
  %_124 = icmp eq i64 %_121, 0
  %_125 = and i1 %_124, true
  %_126 = xor i1 %_125, true
  br i1 %_126, label %bb23, label %panic15

panic14:                                          ; preds = %bb22
; call core::panicking::panic_misaligned_pointer_dereference
  call void @_ZN4core9panicking36panic_misaligned_pointer_dereference17hcc3cbded9382b6e5E(i64 8, i64 %_11, ptr align 8 @alloc_2efa6fb076c65f88b785c700efd47dae) #4
  unreachable

bb23:                                             ; preds = %bb6
  %6 = getelementptr inbounds i8, ptr %right_left, i64 24
  store i32 %_9, ptr %6, align 8
  ret ptr %right_left

panic15:                                          ; preds = %bb6
; call core::panicking::panic_null_pointer_dereference
  call void @_ZN4core9panicking30panic_null_pointer_dereference17hf718fcc86a223baaE(ptr align 8 @alloc_2efa6fb076c65f88b785c700efd47dae) #4
  unreachable
}

; Function Attrs: nounwind nonlazybind
define ptr @RR_Rotation(ptr %node) unnamed_addr #1 {
start:
  %_52 = ptrtoint ptr %node to i64
  %_55 = and i64 %_52, 7
  %_56 = icmp eq i64 %_55, 0
  br i1 %_56, label %bb12, label %panic

bb12:                                             ; preds = %start
  %_58 = ptrtoint ptr %node to i64
  %_61 = icmp eq i64 %_58, 0
  %_62 = and i1 %_61, true
  %_63 = xor i1 %_62, true
  br i1 %_63, label %bb13, label %panic1

panic:                                            ; preds = %start
; call core::panicking::panic_misaligned_pointer_dereference
  call void @_ZN4core9panicking36panic_misaligned_pointer_dereference17hcc3cbded9382b6e5E(i64 8, i64 %_52, ptr align 8 @alloc_bbefbe7968a6e9730ef71c00c28bce21) #4
  unreachable

bb13:                                             ; preds = %bb12
  %0 = getelementptr inbounds i8, ptr %node, i64 16
  %right_node = load ptr, ptr %0, align 8
  %_46 = ptrtoint ptr %right_node to i64
  %_49 = and i64 %_46, 7
  %_50 = icmp eq i64 %_49, 0
  br i1 %_50, label %bb11, label %panic2

panic1:                                           ; preds = %bb12
; call core::panicking::panic_null_pointer_dereference
  call void @_ZN4core9panicking30panic_null_pointer_dereference17hf718fcc86a223baaE(ptr align 8 @alloc_bbefbe7968a6e9730ef71c00c28bce21) #4
  unreachable

bb11:                                             ; preds = %bb13
  %_65 = ptrtoint ptr %right_node to i64
  %_68 = icmp eq i64 %_65, 0
  %_69 = and i1 %_68, true
  %_70 = xor i1 %_69, true
  br i1 %_70, label %bb14, label %panic3

panic2:                                           ; preds = %bb13
; call core::panicking::panic_misaligned_pointer_dereference
  call void @_ZN4core9panicking36panic_misaligned_pointer_dereference17hcc3cbded9382b6e5E(i64 8, i64 %_46, ptr align 8 @alloc_8cd9c188bc54f0a48f99b838a4128486) #4
  unreachable

bb14:                                             ; preds = %bb11
  %1 = getelementptr inbounds i8, ptr %right_node, i64 8
  %right_left = load ptr, ptr %1, align 8
  %_40 = ptrtoint ptr %node to i64
  %_43 = and i64 %_40, 7
  %_44 = icmp eq i64 %_43, 0
  br i1 %_44, label %bb10, label %panic4

panic3:                                           ; preds = %bb11
; call core::panicking::panic_null_pointer_dereference
  call void @_ZN4core9panicking30panic_null_pointer_dereference17hf718fcc86a223baaE(ptr align 8 @alloc_8cd9c188bc54f0a48f99b838a4128486) #4
  unreachable

bb10:                                             ; preds = %bb14
  %_72 = ptrtoint ptr %node to i64
  %_75 = icmp eq i64 %_72, 0
  %_76 = and i1 %_75, true
  %_77 = xor i1 %_76, true
  br i1 %_77, label %bb15, label %panic5

panic4:                                           ; preds = %bb14
; call core::panicking::panic_misaligned_pointer_dereference
  call void @_ZN4core9panicking36panic_misaligned_pointer_dereference17hcc3cbded9382b6e5E(i64 8, i64 %_40, ptr align 8 @alloc_bb689b693e85b438ed3fcda2b087a10d) #4
  unreachable

bb15:                                             ; preds = %bb10
  %2 = getelementptr inbounds i8, ptr %node, i64 16
  store ptr %right_left, ptr %2, align 8
  %_34 = ptrtoint ptr %right_node to i64
  %_37 = and i64 %_34, 7
  %_38 = icmp eq i64 %_37, 0
  br i1 %_38, label %bb9, label %panic6

panic5:                                           ; preds = %bb10
; call core::panicking::panic_null_pointer_dereference
  call void @_ZN4core9panicking30panic_null_pointer_dereference17hf718fcc86a223baaE(ptr align 8 @alloc_bb689b693e85b438ed3fcda2b087a10d) #4
  unreachable

bb9:                                              ; preds = %bb15
  %_79 = ptrtoint ptr %right_node to i64
  %_82 = icmp eq i64 %_79, 0
  %_83 = and i1 %_82, true
  %_84 = xor i1 %_83, true
  br i1 %_84, label %bb16, label %panic7

panic6:                                           ; preds = %bb15
; call core::panicking::panic_misaligned_pointer_dereference
  call void @_ZN4core9panicking36panic_misaligned_pointer_dereference17hcc3cbded9382b6e5E(i64 8, i64 %_34, ptr align 8 @alloc_7b3cfcd865bbaf9aa55e165bfbe8d2ee) #4
  unreachable

bb16:                                             ; preds = %bb9
  %3 = getelementptr inbounds i8, ptr %right_node, i64 8
  store ptr %node, ptr %3, align 8
  %_3 = call i32 @node_height(ptr %node) #3
  %_28 = ptrtoint ptr %node to i64
  %_31 = and i64 %_28, 7
  %_32 = icmp eq i64 %_31, 0
  br i1 %_32, label %bb8, label %panic8

panic7:                                           ; preds = %bb9
; call core::panicking::panic_null_pointer_dereference
  call void @_ZN4core9panicking30panic_null_pointer_dereference17hf718fcc86a223baaE(ptr align 8 @alloc_7b3cfcd865bbaf9aa55e165bfbe8d2ee) #4
  unreachable

bb8:                                              ; preds = %bb16
  %_86 = ptrtoint ptr %node to i64
  %_89 = icmp eq i64 %_86, 0
  %_90 = and i1 %_89, true
  %_91 = xor i1 %_90, true
  br i1 %_91, label %bb17, label %panic9

panic8:                                           ; preds = %bb16
; call core::panicking::panic_misaligned_pointer_dereference
  call void @_ZN4core9panicking36panic_misaligned_pointer_dereference17hcc3cbded9382b6e5E(i64 8, i64 %_28, ptr align 8 @alloc_0d39ba45476f75f650454625082e8099) #4
  unreachable

bb17:                                             ; preds = %bb8
  %4 = getelementptr inbounds i8, ptr %node, i64 24
  store i32 %_3, ptr %4, align 8
  %_4 = call i32 @node_height(ptr %right_node) #3
  %_22 = ptrtoint ptr %right_node to i64
  %_25 = and i64 %_22, 7
  %_26 = icmp eq i64 %_25, 0
  br i1 %_26, label %bb7, label %panic10

panic9:                                           ; preds = %bb8
; call core::panicking::panic_null_pointer_dereference
  call void @_ZN4core9panicking30panic_null_pointer_dereference17hf718fcc86a223baaE(ptr align 8 @alloc_0d39ba45476f75f650454625082e8099) #4
  unreachable

bb7:                                              ; preds = %bb17
  %_93 = ptrtoint ptr %right_node to i64
  %_96 = icmp eq i64 %_93, 0
  %_97 = and i1 %_96, true
  %_98 = xor i1 %_97, true
  br i1 %_98, label %bb18, label %panic11

panic10:                                          ; preds = %bb17
; call core::panicking::panic_misaligned_pointer_dereference
  call void @_ZN4core9panicking36panic_misaligned_pointer_dereference17hcc3cbded9382b6e5E(i64 8, i64 %_22, ptr align 8 @alloc_ef97693e0431bda849a44842fda94ab8) #4
  unreachable

bb18:                                             ; preds = %bb7
  %5 = getelementptr inbounds i8, ptr %right_node, i64 24
  store i32 %_4, ptr %5, align 8
  %_103 = icmp eq i64 ptrtoint (ptr @root to i64), 0
  %_104 = and i1 %_103, true
  %_105 = xor i1 %_104, true
  br i1 %_105, label %bb19, label %panic12

panic11:                                          ; preds = %bb7
; call core::panicking::panic_null_pointer_dereference
  call void @_ZN4core9panicking30panic_null_pointer_dereference17hf718fcc86a223baaE(ptr align 8 @alloc_ef97693e0431bda849a44842fda94ab8) #4
  unreachable

bb19:                                             ; preds = %bb18
  %_6 = load ptr, ptr @root, align 8
  %_5 = icmp eq ptr %_6, %node
  br i1 %_5, label %bb3, label %bb4

panic12:                                          ; preds = %bb18
; call core::panicking::panic_null_pointer_dereference
  call void @_ZN4core9panicking30panic_null_pointer_dereference17hf718fcc86a223baaE(ptr align 8 @alloc_e3c24b4ee49629dfaca98d015979b7db) #4
  unreachable

bb4:                                              ; preds = %bb20, %bb19
  ret ptr %right_node

bb3:                                              ; preds = %bb19
  %_110 = icmp eq i64 ptrtoint (ptr @root to i64), 0
  %_111 = and i1 %_110, true
  %_112 = xor i1 %_111, true
  br i1 %_112, label %bb20, label %panic13

bb20:                                             ; preds = %bb3
  store ptr %right_node, ptr @root, align 8
  br label %bb4

panic13:                                          ; preds = %bb3
; call core::panicking::panic_null_pointer_dereference
  call void @_ZN4core9panicking30panic_null_pointer_dereference17hf718fcc86a223baaE(ptr align 8 @alloc_2116a9496aa5eec09b74b7fb982edea0) #4
  unreachable
}

; Function Attrs: nounwind nonlazybind
define ptr @LL_Rotation(ptr %node) unnamed_addr #1 {
start:
  %_52 = ptrtoint ptr %node to i64
  %_55 = and i64 %_52, 7
  %_56 = icmp eq i64 %_55, 0
  br i1 %_56, label %bb12, label %panic

bb12:                                             ; preds = %start
  %_58 = ptrtoint ptr %node to i64
  %_61 = icmp eq i64 %_58, 0
  %_62 = and i1 %_61, true
  %_63 = xor i1 %_62, true
  br i1 %_63, label %bb13, label %panic1

panic:                                            ; preds = %start
; call core::panicking::panic_misaligned_pointer_dereference
  call void @_ZN4core9panicking36panic_misaligned_pointer_dereference17hcc3cbded9382b6e5E(i64 8, i64 %_52, ptr align 8 @alloc_b6556163ff544e4f0d8fee85d7181446) #4
  unreachable

bb13:                                             ; preds = %bb12
  %0 = getelementptr inbounds i8, ptr %node, i64 8
  %left_node = load ptr, ptr %0, align 8
  %_46 = ptrtoint ptr %left_node to i64
  %_49 = and i64 %_46, 7
  %_50 = icmp eq i64 %_49, 0
  br i1 %_50, label %bb11, label %panic2

panic1:                                           ; preds = %bb12
; call core::panicking::panic_null_pointer_dereference
  call void @_ZN4core9panicking30panic_null_pointer_dereference17hf718fcc86a223baaE(ptr align 8 @alloc_b6556163ff544e4f0d8fee85d7181446) #4
  unreachable

bb11:                                             ; preds = %bb13
  %_65 = ptrtoint ptr %left_node to i64
  %_68 = icmp eq i64 %_65, 0
  %_69 = and i1 %_68, true
  %_70 = xor i1 %_69, true
  br i1 %_70, label %bb14, label %panic3

panic2:                                           ; preds = %bb13
; call core::panicking::panic_misaligned_pointer_dereference
  call void @_ZN4core9panicking36panic_misaligned_pointer_dereference17hcc3cbded9382b6e5E(i64 8, i64 %_46, ptr align 8 @alloc_ee4e70f4c812222796fd5374fd036424) #4
  unreachable

bb14:                                             ; preds = %bb11
  %1 = getelementptr inbounds i8, ptr %left_node, i64 16
  %left_right = load ptr, ptr %1, align 8
  %_40 = ptrtoint ptr %left_node to i64
  %_43 = and i64 %_40, 7
  %_44 = icmp eq i64 %_43, 0
  br i1 %_44, label %bb10, label %panic4

panic3:                                           ; preds = %bb11
; call core::panicking::panic_null_pointer_dereference
  call void @_ZN4core9panicking30panic_null_pointer_dereference17hf718fcc86a223baaE(ptr align 8 @alloc_ee4e70f4c812222796fd5374fd036424) #4
  unreachable

bb10:                                             ; preds = %bb14
  %_72 = ptrtoint ptr %left_node to i64
  %_75 = icmp eq i64 %_72, 0
  %_76 = and i1 %_75, true
  %_77 = xor i1 %_76, true
  br i1 %_77, label %bb15, label %panic5

panic4:                                           ; preds = %bb14
; call core::panicking::panic_misaligned_pointer_dereference
  call void @_ZN4core9panicking36panic_misaligned_pointer_dereference17hcc3cbded9382b6e5E(i64 8, i64 %_40, ptr align 8 @alloc_19a9d35a3f0dc6f4ec1f1516a86c2b37) #4
  unreachable

bb15:                                             ; preds = %bb10
  %2 = getelementptr inbounds i8, ptr %left_node, i64 16
  store ptr %node, ptr %2, align 8
  %_34 = ptrtoint ptr %node to i64
  %_37 = and i64 %_34, 7
  %_38 = icmp eq i64 %_37, 0
  br i1 %_38, label %bb9, label %panic6

panic5:                                           ; preds = %bb10
; call core::panicking::panic_null_pointer_dereference
  call void @_ZN4core9panicking30panic_null_pointer_dereference17hf718fcc86a223baaE(ptr align 8 @alloc_19a9d35a3f0dc6f4ec1f1516a86c2b37) #4
  unreachable

bb9:                                              ; preds = %bb15
  %_79 = ptrtoint ptr %node to i64
  %_82 = icmp eq i64 %_79, 0
  %_83 = and i1 %_82, true
  %_84 = xor i1 %_83, true
  br i1 %_84, label %bb16, label %panic7

panic6:                                           ; preds = %bb15
; call core::panicking::panic_misaligned_pointer_dereference
  call void @_ZN4core9panicking36panic_misaligned_pointer_dereference17hcc3cbded9382b6e5E(i64 8, i64 %_34, ptr align 8 @alloc_add30d594056fbb91ae648e67a9f2e0b) #4
  unreachable

bb16:                                             ; preds = %bb9
  %3 = getelementptr inbounds i8, ptr %node, i64 8
  store ptr %left_right, ptr %3, align 8
  %_3 = call i32 @node_height(ptr %node) #3
  %_28 = ptrtoint ptr %node to i64
  %_31 = and i64 %_28, 7
  %_32 = icmp eq i64 %_31, 0
  br i1 %_32, label %bb8, label %panic8

panic7:                                           ; preds = %bb9
; call core::panicking::panic_null_pointer_dereference
  call void @_ZN4core9panicking30panic_null_pointer_dereference17hf718fcc86a223baaE(ptr align 8 @alloc_add30d594056fbb91ae648e67a9f2e0b) #4
  unreachable

bb8:                                              ; preds = %bb16
  %_86 = ptrtoint ptr %node to i64
  %_89 = icmp eq i64 %_86, 0
  %_90 = and i1 %_89, true
  %_91 = xor i1 %_90, true
  br i1 %_91, label %bb17, label %panic9

panic8:                                           ; preds = %bb16
; call core::panicking::panic_misaligned_pointer_dereference
  call void @_ZN4core9panicking36panic_misaligned_pointer_dereference17hcc3cbded9382b6e5E(i64 8, i64 %_28, ptr align 8 @alloc_b904451420a6bb5fade327acaf31af6d) #4
  unreachable

bb17:                                             ; preds = %bb8
  %4 = getelementptr inbounds i8, ptr %node, i64 24
  store i32 %_3, ptr %4, align 8
  %_4 = call i32 @node_height(ptr %left_node) #3
  %_22 = ptrtoint ptr %left_node to i64
  %_25 = and i64 %_22, 7
  %_26 = icmp eq i64 %_25, 0
  br i1 %_26, label %bb7, label %panic10

panic9:                                           ; preds = %bb8
; call core::panicking::panic_null_pointer_dereference
  call void @_ZN4core9panicking30panic_null_pointer_dereference17hf718fcc86a223baaE(ptr align 8 @alloc_b904451420a6bb5fade327acaf31af6d) #4
  unreachable

bb7:                                              ; preds = %bb17
  %_93 = ptrtoint ptr %left_node to i64
  %_96 = icmp eq i64 %_93, 0
  %_97 = and i1 %_96, true
  %_98 = xor i1 %_97, true
  br i1 %_98, label %bb18, label %panic11

panic10:                                          ; preds = %bb17
; call core::panicking::panic_misaligned_pointer_dereference
  call void @_ZN4core9panicking36panic_misaligned_pointer_dereference17hcc3cbded9382b6e5E(i64 8, i64 %_22, ptr align 8 @alloc_f02d8f7a07b320bd98ec3e25340af526) #4
  unreachable

bb18:                                             ; preds = %bb7
  %5 = getelementptr inbounds i8, ptr %left_node, i64 24
  store i32 %_4, ptr %5, align 8
  %_103 = icmp eq i64 ptrtoint (ptr @root to i64), 0
  %_104 = and i1 %_103, true
  %_105 = xor i1 %_104, true
  br i1 %_105, label %bb19, label %panic12

panic11:                                          ; preds = %bb7
; call core::panicking::panic_null_pointer_dereference
  call void @_ZN4core9panicking30panic_null_pointer_dereference17hf718fcc86a223baaE(ptr align 8 @alloc_f02d8f7a07b320bd98ec3e25340af526) #4
  unreachable

bb19:                                             ; preds = %bb18
  %_6 = load ptr, ptr @root, align 8
  %_5 = icmp eq ptr %_6, %node
  br i1 %_5, label %bb3, label %bb4

panic12:                                          ; preds = %bb18
; call core::panicking::panic_null_pointer_dereference
  call void @_ZN4core9panicking30panic_null_pointer_dereference17hf718fcc86a223baaE(ptr align 8 @alloc_8bb2e3038f5f5fcce792eba5e18a571f) #4
  unreachable

bb4:                                              ; preds = %bb20, %bb19
  ret ptr %left_node

bb3:                                              ; preds = %bb19
  %_110 = icmp eq i64 ptrtoint (ptr @root to i64), 0
  %_111 = and i1 %_110, true
  %_112 = xor i1 %_111, true
  br i1 %_112, label %bb20, label %panic13

bb20:                                             ; preds = %bb3
  store ptr %left_node, ptr @root, align 8
  br label %bb4

panic13:                                          ; preds = %bb3
; call core::panicking::panic_null_pointer_dereference
  call void @_ZN4core9panicking30panic_null_pointer_dereference17hf718fcc86a223baaE(ptr align 8 @alloc_cfe30686ff0daf301212766601800645) #4
  unreachable
}

; Function Attrs: nounwind nonlazybind
define ptr @createNode(ptr %0, i32 %value) unnamed_addr #1 {
start:
  %node = alloca [8 x i8], align 8
  store ptr %0, ptr %node, align 8
  %_3 = call ptr @malloc(i64 32) #3
  store ptr %_3, ptr %node, align 8
  %_31 = load ptr, ptr %node, align 8
  %_32 = ptrtoint ptr %_31 to i64
  %_35 = and i64 %_32, 7
  %_36 = icmp eq i64 %_35, 0
  br i1 %_36, label %bb7, label %panic

bb7:                                              ; preds = %start
  %_37 = load ptr, ptr %node, align 8
  %_38 = ptrtoint ptr %_37 to i64
  %_41 = icmp eq i64 %_38, 0
  %_42 = and i1 %_41, true
  %_43 = xor i1 %_42, true
  br i1 %_43, label %bb8, label %panic1

panic:                                            ; preds = %start
; call core::panicking::panic_misaligned_pointer_dereference
  call void @_ZN4core9panicking36panic_misaligned_pointer_dereference17hcc3cbded9382b6e5E(i64 8, i64 %_32, ptr align 8 @alloc_83f5eb74f1253c6f571b01131205ddde) #4
  unreachable

bb8:                                              ; preds = %bb7
  %1 = load ptr, ptr %node, align 8
  store i32 %value, ptr %1, align 8
  %_25 = load ptr, ptr %node, align 8
  %_26 = ptrtoint ptr %_25 to i64
  %_29 = and i64 %_26, 7
  %_30 = icmp eq i64 %_29, 0
  br i1 %_30, label %bb6, label %panic2

panic1:                                           ; preds = %bb7
; call core::panicking::panic_null_pointer_dereference
  call void @_ZN4core9panicking30panic_null_pointer_dereference17hf718fcc86a223baaE(ptr align 8 @alloc_83f5eb74f1253c6f571b01131205ddde) #4
  unreachable

bb6:                                              ; preds = %bb8
  %_44 = load ptr, ptr %node, align 8
  %_45 = ptrtoint ptr %_44 to i64
  %_48 = icmp eq i64 %_45, 0
  %_49 = and i1 %_48, true
  %_50 = xor i1 %_49, true
  br i1 %_50, label %bb9, label %panic3

panic2:                                           ; preds = %bb8
; call core::panicking::panic_misaligned_pointer_dereference
  call void @_ZN4core9panicking36panic_misaligned_pointer_dereference17hcc3cbded9382b6e5E(i64 8, i64 %_26, ptr align 8 @alloc_dd5ca49258844dd049f35feb90dce4cb) #4
  unreachable

bb9:                                              ; preds = %bb6
  %2 = load ptr, ptr %node, align 8
  %3 = getelementptr inbounds i8, ptr %2, i64 24
  store i32 1, ptr %3, align 8
  %_19 = load ptr, ptr %node, align 8
  %_20 = ptrtoint ptr %_19 to i64
  %_23 = and i64 %_20, 7
  %_24 = icmp eq i64 %_23, 0
  br i1 %_24, label %bb5, label %panic4

panic3:                                           ; preds = %bb6
; call core::panicking::panic_null_pointer_dereference
  call void @_ZN4core9panicking30panic_null_pointer_dereference17hf718fcc86a223baaE(ptr align 8 @alloc_dd5ca49258844dd049f35feb90dce4cb) #4
  unreachable

bb5:                                              ; preds = %bb9
  %_51 = load ptr, ptr %node, align 8
  %_52 = ptrtoint ptr %_51 to i64
  %_55 = icmp eq i64 %_52, 0
  %_56 = and i1 %_55, true
  %_57 = xor i1 %_56, true
  br i1 %_57, label %bb10, label %panic5

panic4:                                           ; preds = %bb9
; call core::panicking::panic_misaligned_pointer_dereference
  call void @_ZN4core9panicking36panic_misaligned_pointer_dereference17hcc3cbded9382b6e5E(i64 8, i64 %_20, ptr align 8 @alloc_80883ff8e80cbb9d0e87c67dc1a3fa1d) #4
  unreachable

bb10:                                             ; preds = %bb5
  %4 = load ptr, ptr %node, align 8
  %5 = getelementptr inbounds i8, ptr %4, i64 16
  store ptr null, ptr %5, align 8
  %_13 = load ptr, ptr %node, align 8
  %_14 = ptrtoint ptr %_13 to i64
  %_17 = and i64 %_14, 7
  %_18 = icmp eq i64 %_17, 0
  br i1 %_18, label %bb4, label %panic6

panic5:                                           ; preds = %bb5
; call core::panicking::panic_null_pointer_dereference
  call void @_ZN4core9panicking30panic_null_pointer_dereference17hf718fcc86a223baaE(ptr align 8 @alloc_80883ff8e80cbb9d0e87c67dc1a3fa1d) #4
  unreachable

bb4:                                              ; preds = %bb10
  %_58 = load ptr, ptr %node, align 8
  %_59 = ptrtoint ptr %_58 to i64
  %_62 = icmp eq i64 %_59, 0
  %_63 = and i1 %_62, true
  %_64 = xor i1 %_63, true
  br i1 %_64, label %bb11, label %panic7

panic6:                                           ; preds = %bb10
; call core::panicking::panic_misaligned_pointer_dereference
  call void @_ZN4core9panicking36panic_misaligned_pointer_dereference17hcc3cbded9382b6e5E(i64 8, i64 %_14, ptr align 8 @alloc_8b6dc6b0806fc8c5f60665f6e75fc44a) #4
  unreachable

bb11:                                             ; preds = %bb4
  %6 = load ptr, ptr %node, align 8
  %7 = getelementptr inbounds i8, ptr %6, i64 16
  %_6 = load ptr, ptr %7, align 8
  %_7 = load ptr, ptr %node, align 8
  %_8 = ptrtoint ptr %_7 to i64
  %_11 = and i64 %_8, 7
  %_12 = icmp eq i64 %_11, 0
  br i1 %_12, label %bb3, label %panic8

panic7:                                           ; preds = %bb4
; call core::panicking::panic_null_pointer_dereference
  call void @_ZN4core9panicking30panic_null_pointer_dereference17hf718fcc86a223baaE(ptr align 8 @alloc_8b6dc6b0806fc8c5f60665f6e75fc44a) #4
  unreachable

bb3:                                              ; preds = %bb11
  %_65 = load ptr, ptr %node, align 8
  %_66 = ptrtoint ptr %_65 to i64
  %_69 = icmp eq i64 %_66, 0
  %_70 = and i1 %_69, true
  %_71 = xor i1 %_70, true
  br i1 %_71, label %bb12, label %panic9

panic8:                                           ; preds = %bb11
; call core::panicking::panic_misaligned_pointer_dereference
  call void @_ZN4core9panicking36panic_misaligned_pointer_dereference17hcc3cbded9382b6e5E(i64 8, i64 %_8, ptr align 8 @alloc_4eafd405e6287f04cb56e32194e29e80) #4
  unreachable

bb12:                                             ; preds = %bb3
  %8 = load ptr, ptr %node, align 8
  %9 = getelementptr inbounds i8, ptr %8, i64 8
  store ptr %_6, ptr %9, align 8
  %_0 = load ptr, ptr %node, align 8
  ret ptr %_0

panic9:                                           ; preds = %bb3
; call core::panicking::panic_null_pointer_dereference
  call void @_ZN4core9panicking30panic_null_pointer_dereference17hf718fcc86a223baaE(ptr align 8 @alloc_4eafd405e6287f04cb56e32194e29e80) #4
  unreachable
}

; Function Attrs: nounwind nonlazybind
define void @Inorder(ptr %root_0) unnamed_addr #1 {
start:
; call core::ptr::mut_ptr::<impl *mut T>::is_null
  %_2 = call zeroext i1 @"_ZN4core3ptr7mut_ptr31_$LT$impl$u20$$BP$mut$u20$T$GT$7is_null17h4f424712537546b2E"(ptr %root_0) #3
  br i1 %_2, label %bb5, label %bb2

bb2:                                              ; preds = %start
  %_26 = ptrtoint ptr %root_0 to i64
  %_29 = and i64 %_26, 7
  %_30 = icmp eq i64 %_29, 0
  br i1 %_30, label %bb8, label %panic

bb5:                                              ; preds = %bb11, %start
  ret void

bb8:                                              ; preds = %bb2
  %_32 = ptrtoint ptr %root_0 to i64
  %_35 = icmp eq i64 %_32, 0
  %_36 = and i1 %_35, true
  %_37 = xor i1 %_36, true
  br i1 %_37, label %bb9, label %panic1

panic:                                            ; preds = %bb2
; call core::panicking::panic_misaligned_pointer_dereference
  call void @_ZN4core9panicking36panic_misaligned_pointer_dereference17hcc3cbded9382b6e5E(i64 8, i64 %_26, ptr align 8 @alloc_d5da31a785ca6e0998d389145461f61c) #4
  unreachable

bb9:                                              ; preds = %bb8
  %0 = getelementptr inbounds i8, ptr %root_0, i64 8
  %_4 = load ptr, ptr %0, align 8
  call void @Inorder(ptr %_4) #3
  %_20 = ptrtoint ptr %root_0 to i64
  %_23 = and i64 %_20, 7
  %_24 = icmp eq i64 %_23, 0
  br i1 %_24, label %bb7, label %panic2

panic1:                                           ; preds = %bb8
; call core::panicking::panic_null_pointer_dereference
  call void @_ZN4core9panicking30panic_null_pointer_dereference17hf718fcc86a223baaE(ptr align 8 @alloc_d5da31a785ca6e0998d389145461f61c) #4
  unreachable

bb7:                                              ; preds = %bb9
  %_39 = ptrtoint ptr %root_0 to i64
  %_42 = icmp eq i64 %_39, 0
  %_43 = and i1 %_42, true
  %_44 = xor i1 %_43, true
  br i1 %_44, label %bb10, label %panic3

panic2:                                           ; preds = %bb9
; call core::panicking::panic_misaligned_pointer_dereference
  call void @_ZN4core9panicking36panic_misaligned_pointer_dereference17hcc3cbded9382b6e5E(i64 8, i64 %_20, ptr align 8 @alloc_f34f237bdd1b4f16fe0889eb90041c57) #4
  unreachable

bb10:                                             ; preds = %bb7
  %_10 = load i32, ptr %root_0, align 8
  %_5 = call i32 (ptr, ...) @printf(ptr @alloc_b929c71616281bfd1be2bd4038d3ddf1, i32 %_10) #3
  %_14 = ptrtoint ptr %root_0 to i64
  %_17 = and i64 %_14, 7
  %_18 = icmp eq i64 %_17, 0
  br i1 %_18, label %bb6, label %panic4

panic3:                                           ; preds = %bb7
; call core::panicking::panic_null_pointer_dereference
  call void @_ZN4core9panicking30panic_null_pointer_dereference17hf718fcc86a223baaE(ptr align 8 @alloc_f34f237bdd1b4f16fe0889eb90041c57) #4
  unreachable

bb6:                                              ; preds = %bb10
  %_46 = ptrtoint ptr %root_0 to i64
  %_49 = icmp eq i64 %_46, 0
  %_50 = and i1 %_49, true
  %_51 = xor i1 %_50, true
  br i1 %_51, label %bb11, label %panic5

panic4:                                           ; preds = %bb10
; call core::panicking::panic_misaligned_pointer_dereference
  call void @_ZN4core9panicking36panic_misaligned_pointer_dereference17hcc3cbded9382b6e5E(i64 8, i64 %_14, ptr align 8 @alloc_0383b466903d965f059f9e83ec1865fd) #4
  unreachable

bb11:                                             ; preds = %bb6
  %1 = getelementptr inbounds i8, ptr %root_0, i64 16
  %_12 = load ptr, ptr %1, align 8
  call void @Inorder(ptr %_12) #3
  br label %bb5

panic5:                                           ; preds = %bb6
; call core::panicking::panic_null_pointer_dereference
  call void @_ZN4core9panicking30panic_null_pointer_dereference17hf718fcc86a223baaE(ptr align 8 @alloc_0383b466903d965f059f9e83ec1865fd) #4
  unreachable
}

; Function Attrs: nounwind nonlazybind
define i32 @Balance_factor(ptr %node) unnamed_addr #1 {
start:
  %_8 = alloca [4 x i8], align 4
  %_4 = alloca [4 x i8], align 4
  %right = alloca [4 x i8], align 4
  %left = alloca [4 x i8], align 4
  store i32 0, ptr %left, align 4
  store i32 0, ptr %right, align 4
; call core::ptr::mut_ptr::<impl *mut T>::is_null
  %_5 = call zeroext i1 @"_ZN4core3ptr7mut_ptr31_$LT$impl$u20$$BP$mut$u20$T$GT$7is_null17h4f424712537546b2E"(ptr %node) #3
  br i1 %_5, label %bb5, label %bb2

bb2:                                              ; preds = %start
  %_35 = ptrtoint ptr %node to i64
  %_38 = and i64 %_35, 7
  %_39 = icmp eq i64 %_38, 0
  br i1 %_39, label %bb16, label %panic

bb5:                                              ; preds = %bb17, %start
  store i32 0, ptr %_4, align 4
  br label %bb6

bb16:                                             ; preds = %bb2
  %_41 = ptrtoint ptr %node to i64
  %_44 = icmp eq i64 %_41, 0
  %_45 = and i1 %_44, true
  %_46 = xor i1 %_45, true
  br i1 %_46, label %bb17, label %panic1

panic:                                            ; preds = %bb2
; call core::panicking::panic_misaligned_pointer_dereference
  call void @_ZN4core9panicking36panic_misaligned_pointer_dereference17hcc3cbded9382b6e5E(i64 8, i64 %_35, ptr align 8 @alloc_5c3eb867be7f40436370efccf7c9fc9f) #4
  unreachable

bb17:                                             ; preds = %bb16
  %0 = getelementptr inbounds i8, ptr %node, i64 8
  %_7 = load ptr, ptr %0, align 8
; call core::ptr::mut_ptr::<impl *mut T>::is_null
  %_6 = call zeroext i1 @"_ZN4core3ptr7mut_ptr31_$LT$impl$u20$$BP$mut$u20$T$GT$7is_null17h4f424712537546b2E"(ptr %_7) #3
  br i1 %_6, label %bb5, label %bb4

panic1:                                           ; preds = %bb16
; call core::panicking::panic_null_pointer_dereference
  call void @_ZN4core9panicking30panic_null_pointer_dereference17hf718fcc86a223baaE(ptr align 8 @alloc_5c3eb867be7f40436370efccf7c9fc9f) #4
  unreachable

bb4:                                              ; preds = %bb17
  %1 = getelementptr inbounds i8, ptr %node, i64 8
  %_14 = load ptr, ptr %1, align 8
  %_29 = ptrtoint ptr %_14 to i64
  %_32 = and i64 %_29, 7
  %_33 = icmp eq i64 %_32, 0
  br i1 %_33, label %bb15, label %panic2

bb15:                                             ; preds = %bb4
  %_48 = ptrtoint ptr %_14 to i64
  %_51 = icmp eq i64 %_48, 0
  %_52 = and i1 %_51, true
  %_53 = xor i1 %_52, true
  br i1 %_53, label %bb18, label %panic3

panic2:                                           ; preds = %bb4
; call core::panicking::panic_misaligned_pointer_dereference
  call void @_ZN4core9panicking36panic_misaligned_pointer_dereference17hcc3cbded9382b6e5E(i64 8, i64 %_29, ptr align 8 @alloc_89961032cc8c4a7dcdb0a48b5861b468) #4
  unreachable

bb18:                                             ; preds = %bb15
  %2 = getelementptr inbounds i8, ptr %_14, i64 24
  %3 = load i32, ptr %2, align 8
  store i32 %3, ptr %_4, align 4
  br label %bb6

panic3:                                           ; preds = %bb15
; call core::panicking::panic_null_pointer_dereference
  call void @_ZN4core9panicking30panic_null_pointer_dereference17hf718fcc86a223baaE(ptr align 8 @alloc_89961032cc8c4a7dcdb0a48b5861b468) #4
  unreachable

bb6:                                              ; preds = %bb5, %bb18
  %4 = load i32, ptr %_4, align 4
  store i32 %4, ptr %left, align 4
; call core::ptr::mut_ptr::<impl *mut T>::is_null
  %_9 = call zeroext i1 @"_ZN4core3ptr7mut_ptr31_$LT$impl$u20$$BP$mut$u20$T$GT$7is_null17h4f424712537546b2E"(ptr %node) #3
  br i1 %_9, label %bb11, label %bb8

bb8:                                              ; preds = %bb6
  %_23 = ptrtoint ptr %node to i64
  %_26 = and i64 %_23, 7
  %_27 = icmp eq i64 %_26, 0
  br i1 %_27, label %bb14, label %panic4

bb11:                                             ; preds = %bb19, %bb6
  store i32 0, ptr %_8, align 4
  br label %bb12

bb14:                                             ; preds = %bb8
  %_55 = ptrtoint ptr %node to i64
  %_58 = icmp eq i64 %_55, 0
  %_59 = and i1 %_58, true
  %_60 = xor i1 %_59, true
  br i1 %_60, label %bb19, label %panic5

panic4:                                           ; preds = %bb8
; call core::panicking::panic_misaligned_pointer_dereference
  call void @_ZN4core9panicking36panic_misaligned_pointer_dereference17hcc3cbded9382b6e5E(i64 8, i64 %_23, ptr align 8 @alloc_73398d37c3b6b5a8a4ec4265558d6504) #4
  unreachable

bb19:                                             ; preds = %bb14
  %5 = getelementptr inbounds i8, ptr %node, i64 16
  %_11 = load ptr, ptr %5, align 8
; call core::ptr::mut_ptr::<impl *mut T>::is_null
  %_10 = call zeroext i1 @"_ZN4core3ptr7mut_ptr31_$LT$impl$u20$$BP$mut$u20$T$GT$7is_null17h4f424712537546b2E"(ptr %_11) #3
  br i1 %_10, label %bb11, label %bb10

panic5:                                           ; preds = %bb14
; call core::panicking::panic_null_pointer_dereference
  call void @_ZN4core9panicking30panic_null_pointer_dereference17hf718fcc86a223baaE(ptr align 8 @alloc_73398d37c3b6b5a8a4ec4265558d6504) #4
  unreachable

bb10:                                             ; preds = %bb19
  %6 = getelementptr inbounds i8, ptr %node, i64 16
  %_15 = load ptr, ptr %6, align 8
  %_17 = ptrtoint ptr %_15 to i64
  %_20 = and i64 %_17, 7
  %_21 = icmp eq i64 %_20, 0
  br i1 %_21, label %bb13, label %panic6

bb13:                                             ; preds = %bb10
  %_62 = ptrtoint ptr %_15 to i64
  %_65 = icmp eq i64 %_62, 0
  %_66 = and i1 %_65, true
  %_67 = xor i1 %_66, true
  br i1 %_67, label %bb20, label %panic7

panic6:                                           ; preds = %bb10
; call core::panicking::panic_misaligned_pointer_dereference
  call void @_ZN4core9panicking36panic_misaligned_pointer_dereference17hcc3cbded9382b6e5E(i64 8, i64 %_17, ptr align 8 @alloc_693c2a8883c4b85731770c54313a3051) #4
  unreachable

bb20:                                             ; preds = %bb13
  %7 = getelementptr inbounds i8, ptr %_15, i64 24
  %8 = load i32, ptr %7, align 8
  store i32 %8, ptr %_8, align 4
  br label %bb12

panic7:                                           ; preds = %bb13
; call core::panicking::panic_null_pointer_dereference
  call void @_ZN4core9panicking30panic_null_pointer_dereference17hf718fcc86a223baaE(ptr align 8 @alloc_693c2a8883c4b85731770c54313a3051) #4
  unreachable

bb12:                                             ; preds = %bb11, %bb20
  %9 = load i32, ptr %_8, align 4
  store i32 %9, ptr %right, align 4
  %_12 = load i32, ptr %left, align 4
  %_13 = load i32, ptr %right, align 4
  %_0 = sub i32 %_12, %_13
  ret i32 %_0
}

; Function Attrs: nounwind nonlazybind
define ptr @Rotate(ptr %0, i32 %BALANCE_FACTOR) unnamed_addr #1 {
start:
  %bf = alloca [4 x i8], align 4
  %node = alloca [8 x i8], align 8
  store ptr %0, ptr %node, align 8
  store i32 0, ptr %bf, align 4
  %1 = icmp eq i32 %BALANCE_FACTOR, 2
  br i1 %1, label %bb1, label %bb8

bb1:                                              ; preds = %start
  %_32 = load ptr, ptr %node, align 8
  %_33 = ptrtoint ptr %_32 to i64
  %_36 = and i64 %_33, 7
  %_37 = icmp eq i64 %_36, 0
  br i1 %_37, label %bb18, label %panic

bb8:                                              ; preds = %start
  %_14 = icmp eq i32 %BALANCE_FACTOR, -2
  br i1 %_14, label %bb9, label %bb16

bb18:                                             ; preds = %bb1
  %_38 = load ptr, ptr %node, align 8
  %_39 = ptrtoint ptr %_38 to i64
  %_42 = icmp eq i64 %_39, 0
  %_43 = and i1 %_42, true
  %_44 = xor i1 %_43, true
  br i1 %_44, label %bb19, label %panic1

panic:                                            ; preds = %bb1
; call core::panicking::panic_misaligned_pointer_dereference
  call void @_ZN4core9panicking36panic_misaligned_pointer_dereference17hcc3cbded9382b6e5E(i64 8, i64 %_33, ptr align 8 @alloc_03233b4a267dd9d9d2744378cfa0def7) #4
  unreachable

bb19:                                             ; preds = %bb18
  %2 = load ptr, ptr %node, align 8
  %3 = getelementptr inbounds i8, ptr %2, i64 8
  %_5 = load ptr, ptr %3, align 8
  %_4 = call i32 @Balance_factor(ptr %_5) #3
  store i32 %_4, ptr %bf, align 4
  %_6 = load i32, ptr %bf, align 4
  %4 = icmp eq i32 %_6, 1
  br i1 %4, label %bb3, label %bb5

panic1:                                           ; preds = %bb18
; call core::panicking::panic_null_pointer_dereference
  call void @_ZN4core9panicking30panic_null_pointer_dereference17hf718fcc86a223baaE(ptr align 8 @alloc_03233b4a267dd9d9d2744378cfa0def7) #4
  unreachable

bb3:                                              ; preds = %bb19
  %_8 = load ptr, ptr %node, align 8
  %_7 = call ptr @LL_Rotation(ptr %_8) #3
  store ptr %_7, ptr %node, align 8
  br label %bb16

bb5:                                              ; preds = %bb19
  %_10 = load i32, ptr %bf, align 4
  %_9 = icmp eq i32 %_10, -1
  br i1 %_9, label %bb6, label %bb16

bb16:                                             ; preds = %bb14, %bb13, %bb11, %bb8, %bb6, %bb5, %bb3
  %_0 = load ptr, ptr %node, align 8
  ret ptr %_0

bb6:                                              ; preds = %bb5
  %_13 = load ptr, ptr %node, align 8
  %_12 = call ptr @LR_Rotation(ptr %_13) #3
  store ptr %_12, ptr %node, align 8
  br label %bb16

bb9:                                              ; preds = %bb8
  %_26 = load ptr, ptr %node, align 8
  %_27 = ptrtoint ptr %_26 to i64
  %_30 = and i64 %_27, 7
  %_31 = icmp eq i64 %_30, 0
  br i1 %_31, label %bb17, label %panic2

bb17:                                             ; preds = %bb9
  %_45 = load ptr, ptr %node, align 8
  %_46 = ptrtoint ptr %_45 to i64
  %_49 = icmp eq i64 %_46, 0
  %_50 = and i1 %_49, true
  %_51 = xor i1 %_50, true
  br i1 %_51, label %bb20, label %panic3

panic2:                                           ; preds = %bb9
; call core::panicking::panic_misaligned_pointer_dereference
  call void @_ZN4core9panicking36panic_misaligned_pointer_dereference17hcc3cbded9382b6e5E(i64 8, i64 %_27, ptr align 8 @alloc_da1e1473966fb898c2ca23ccee2be01d) #4
  unreachable

bb20:                                             ; preds = %bb17
  %5 = load ptr, ptr %node, align 8
  %6 = getelementptr inbounds i8, ptr %5, i64 16
  %_17 = load ptr, ptr %6, align 8
  %_16 = call i32 @Balance_factor(ptr %_17) #3
  store i32 %_16, ptr %bf, align 4
  %_18 = load i32, ptr %bf, align 4
  %7 = icmp eq i32 %_18, 1
  br i1 %7, label %bb11, label %bb13

panic3:                                           ; preds = %bb17
; call core::panicking::panic_null_pointer_dereference
  call void @_ZN4core9panicking30panic_null_pointer_dereference17hf718fcc86a223baaE(ptr align 8 @alloc_da1e1473966fb898c2ca23ccee2be01d) #4
  unreachable

bb11:                                             ; preds = %bb20
  %_20 = load ptr, ptr %node, align 8
  %_19 = call ptr @RL_Rotation(ptr %_20) #3
  store ptr %_19, ptr %node, align 8
  br label %bb16

bb13:                                             ; preds = %bb20
  %_22 = load i32, ptr %bf, align 4
  %_21 = icmp eq i32 %_22, -1
  br i1 %_21, label %bb14, label %bb16

bb14:                                             ; preds = %bb13
  %_25 = load ptr, ptr %node, align 8
  %_24 = call ptr @RR_Rotation(ptr %_25) #3
  store ptr %_24, ptr %node, align 8
  br label %bb16
}

; Function Attrs: nounwind nonlazybind
define ptr @insert(ptr %node, i32 %value) unnamed_addr #1 {
start:
  %BALANCE_FACTOR = alloca [4 x i8], align 4
  %_0 = alloca [8 x i8], align 8
  store i32 0, ptr %BALANCE_FACTOR, align 4
; call core::ptr::mut_ptr::<impl *mut T>::is_null
  %_5 = call zeroext i1 @"_ZN4core3ptr7mut_ptr31_$LT$impl$u20$$BP$mut$u20$T$GT$7is_null17h4f424712537546b2E"(ptr %node) #3
  br i1 %_5, label %bb2, label %bb3

bb3:                                              ; preds = %start
  %_55 = ptrtoint ptr %node to i64
  %_58 = and i64 %_55, 7
  %_59 = icmp eq i64 %_58, 0
  br i1 %_59, label %bb20, label %panic

bb2:                                              ; preds = %start
  %0 = call ptr @createNode(ptr null, i32 %value) #3
  store ptr %0, ptr %_0, align 8
  br label %bb13

bb20:                                             ; preds = %bb3
  %_61 = ptrtoint ptr %node to i64
  %_64 = icmp eq i64 %_61, 0
  %_65 = and i1 %_64, true
  %_66 = xor i1 %_65, true
  br i1 %_66, label %bb21, label %panic1

panic:                                            ; preds = %bb3
; call core::panicking::panic_misaligned_pointer_dereference
  call void @_ZN4core9panicking36panic_misaligned_pointer_dereference17hcc3cbded9382b6e5E(i64 8, i64 %_55, ptr align 8 @alloc_cb134b8acefe01c91a8fad8c729aea62) #4
  unreachable

bb21:                                             ; preds = %bb20
  %_7 = load i32, ptr %node, align 8
  %_6 = icmp sgt i32 %_7, %value
  br i1 %_6, label %bb4, label %bb5

panic1:                                           ; preds = %bb20
; call core::panicking::panic_null_pointer_dereference
  call void @_ZN4core9panicking30panic_null_pointer_dereference17hf718fcc86a223baaE(ptr align 8 @alloc_cb134b8acefe01c91a8fad8c729aea62) #4
  unreachable

bb5:                                              ; preds = %bb21
  %_43 = ptrtoint ptr %node to i64
  %_46 = and i64 %_43, 7
  %_47 = icmp eq i64 %_46, 0
  br i1 %_47, label %bb18, label %panic2

bb4:                                              ; preds = %bb21
  %_49 = ptrtoint ptr %node to i64
  %_52 = and i64 %_49, 7
  %_53 = icmp eq i64 %_52, 0
  br i1 %_53, label %bb19, label %panic8

bb18:                                             ; preds = %bb5
  %_75 = ptrtoint ptr %node to i64
  %_78 = icmp eq i64 %_75, 0
  %_79 = and i1 %_78, true
  %_80 = xor i1 %_79, true
  br i1 %_80, label %bb23, label %panic3

panic2:                                           ; preds = %bb5
; call core::panicking::panic_misaligned_pointer_dereference
  call void @_ZN4core9panicking36panic_misaligned_pointer_dereference17hcc3cbded9382b6e5E(i64 8, i64 %_43, ptr align 8 @alloc_ac6d535600a274db2f57be193527219d) #4
  unreachable

bb23:                                             ; preds = %bb18
  %_11 = load i32, ptr %node, align 8
  %_10 = icmp slt i32 %_11, %value
  br i1 %_10, label %bb7, label %bb9

panic3:                                           ; preds = %bb18
; call core::panicking::panic_null_pointer_dereference
  call void @_ZN4core9panicking30panic_null_pointer_dereference17hf718fcc86a223baaE(ptr align 8 @alloc_ac6d535600a274db2f57be193527219d) #4
  unreachable

bb9:                                              ; preds = %bb24, %bb26, %bb23
  %_14 = call i32 @node_height(ptr %node) #3
  %_19 = ptrtoint ptr %node to i64
  %_22 = and i64 %_19, 7
  %_23 = icmp eq i64 %_22, 0
  br i1 %_23, label %bb14, label %panic12

bb7:                                              ; preds = %bb23
  %_31 = ptrtoint ptr %node to i64
  %_34 = and i64 %_31, 7
  %_35 = icmp eq i64 %_34, 0
  br i1 %_35, label %bb16, label %panic4

bb16:                                             ; preds = %bb7
  %_89 = ptrtoint ptr %node to i64
  %_92 = icmp eq i64 %_89, 0
  %_93 = and i1 %_92, true
  %_94 = xor i1 %_93, true
  br i1 %_94, label %bb25, label %panic5

panic4:                                           ; preds = %bb7
; call core::panicking::panic_misaligned_pointer_dereference
  call void @_ZN4core9panicking36panic_misaligned_pointer_dereference17hcc3cbded9382b6e5E(i64 8, i64 %_31, ptr align 8 @alloc_909dbae0e1e0f292e9e556cde45756c5) #4
  unreachable

bb25:                                             ; preds = %bb16
  %1 = getelementptr inbounds i8, ptr %node, i64 16
  %_13 = load ptr, ptr %1, align 8
  %_12 = call ptr @insert(ptr %_13, i32 %value) #3
  %_25 = ptrtoint ptr %node to i64
  %_28 = and i64 %_25, 7
  %_29 = icmp eq i64 %_28, 0
  br i1 %_29, label %bb15, label %panic6

panic5:                                           ; preds = %bb16
; call core::panicking::panic_null_pointer_dereference
  call void @_ZN4core9panicking30panic_null_pointer_dereference17hf718fcc86a223baaE(ptr align 8 @alloc_909dbae0e1e0f292e9e556cde45756c5) #4
  unreachable

bb15:                                             ; preds = %bb25
  %_96 = ptrtoint ptr %node to i64
  %_99 = icmp eq i64 %_96, 0
  %_100 = and i1 %_99, true
  %_101 = xor i1 %_100, true
  br i1 %_101, label %bb26, label %panic7

panic6:                                           ; preds = %bb25
; call core::panicking::panic_misaligned_pointer_dereference
  call void @_ZN4core9panicking36panic_misaligned_pointer_dereference17hcc3cbded9382b6e5E(i64 8, i64 %_25, ptr align 8 @alloc_abcef8df9889a0d0269bedb9264e214d) #4
  unreachable

bb26:                                             ; preds = %bb15
  %2 = getelementptr inbounds i8, ptr %node, i64 16
  store ptr %_12, ptr %2, align 8
  br label %bb9

panic7:                                           ; preds = %bb15
; call core::panicking::panic_null_pointer_dereference
  call void @_ZN4core9panicking30panic_null_pointer_dereference17hf718fcc86a223baaE(ptr align 8 @alloc_abcef8df9889a0d0269bedb9264e214d) #4
  unreachable

bb19:                                             ; preds = %bb4
  %_68 = ptrtoint ptr %node to i64
  %_71 = icmp eq i64 %_68, 0
  %_72 = and i1 %_71, true
  %_73 = xor i1 %_72, true
  br i1 %_73, label %bb22, label %panic9

panic8:                                           ; preds = %bb4
; call core::panicking::panic_misaligned_pointer_dereference
  call void @_ZN4core9panicking36panic_misaligned_pointer_dereference17hcc3cbded9382b6e5E(i64 8, i64 %_49, ptr align 8 @alloc_97073ee2e36987f4a2f3b1a63d7f599e) #4
  unreachable

bb22:                                             ; preds = %bb19
  %3 = getelementptr inbounds i8, ptr %node, i64 8
  %_9 = load ptr, ptr %3, align 8
  %_8 = call ptr @insert(ptr %_9, i32 %value) #3
  %_37 = ptrtoint ptr %node to i64
  %_40 = and i64 %_37, 7
  %_41 = icmp eq i64 %_40, 0
  br i1 %_41, label %bb17, label %panic10

panic9:                                           ; preds = %bb19
; call core::panicking::panic_null_pointer_dereference
  call void @_ZN4core9panicking30panic_null_pointer_dereference17hf718fcc86a223baaE(ptr align 8 @alloc_97073ee2e36987f4a2f3b1a63d7f599e) #4
  unreachable

bb17:                                             ; preds = %bb22
  %_82 = ptrtoint ptr %node to i64
  %_85 = icmp eq i64 %_82, 0
  %_86 = and i1 %_85, true
  %_87 = xor i1 %_86, true
  br i1 %_87, label %bb24, label %panic11

panic10:                                          ; preds = %bb22
; call core::panicking::panic_misaligned_pointer_dereference
  call void @_ZN4core9panicking36panic_misaligned_pointer_dereference17hcc3cbded9382b6e5E(i64 8, i64 %_37, ptr align 8 @alloc_1f627793a50a1bfe5e41005bab7fbe7a) #4
  unreachable

bb24:                                             ; preds = %bb17
  %4 = getelementptr inbounds i8, ptr %node, i64 8
  store ptr %_8, ptr %4, align 8
  br label %bb9

panic11:                                          ; preds = %bb17
; call core::panicking::panic_null_pointer_dereference
  call void @_ZN4core9panicking30panic_null_pointer_dereference17hf718fcc86a223baaE(ptr align 8 @alloc_1f627793a50a1bfe5e41005bab7fbe7a) #4
  unreachable

bb14:                                             ; preds = %bb9
  %_103 = ptrtoint ptr %node to i64
  %_106 = icmp eq i64 %_103, 0
  %_107 = and i1 %_106, true
  %_108 = xor i1 %_107, true
  br i1 %_108, label %bb27, label %panic13

panic12:                                          ; preds = %bb9
; call core::panicking::panic_misaligned_pointer_dereference
  call void @_ZN4core9panicking36panic_misaligned_pointer_dereference17hcc3cbded9382b6e5E(i64 8, i64 %_19, ptr align 8 @alloc_5af7884d1493ee4bd0ceffd5fc929290) #4
  unreachable

bb27:                                             ; preds = %bb14
  %5 = getelementptr inbounds i8, ptr %node, i64 24
  store i32 %_14, ptr %5, align 8
  %_15 = call i32 @Balance_factor(ptr %node) #3
  store i32 %_15, ptr %BALANCE_FACTOR, align 4
  %_17 = load i32, ptr %BALANCE_FACTOR, align 4
  %_16 = call ptr @Rotate(ptr %node, i32 %_17) #3
  store ptr %node, ptr %_0, align 8
  br label %bb13

panic13:                                          ; preds = %bb14
; call core::panicking::panic_null_pointer_dereference
  call void @_ZN4core9panicking30panic_null_pointer_dereference17hf718fcc86a223baaE(ptr align 8 @alloc_5af7884d1493ee4bd0ceffd5fc929290) #4
  unreachable

bb13:                                             ; preds = %bb2, %bb27
  %6 = load ptr, ptr %_0, align 8
  ret ptr %6
}

; core::panicking::panic_misaligned_pointer_dereference
; Function Attrs: cold minsize noinline noreturn nounwind nonlazybind optsize
declare void @_ZN4core9panicking36panic_misaligned_pointer_dereference17hcc3cbded9382b6e5E(i64, i64, ptr align 8) unnamed_addr #2

; core::panicking::panic_null_pointer_dereference
; Function Attrs: cold minsize noinline noreturn nounwind nonlazybind optsize
declare void @_ZN4core9panicking30panic_null_pointer_dereference17hf718fcc86a223baaE(ptr align 8) unnamed_addr #2

; Function Attrs: nounwind nonlazybind
declare ptr @malloc(i64) unnamed_addr #1

; Function Attrs: nounwind nonlazybind
declare i32 @printf(ptr, ...) unnamed_addr #1

attributes #0 = { inlinehint nounwind nonlazybind "probe-stack"="inline-asm" "target-cpu"="x86-64" }
attributes #1 = { nounwind nonlazybind "probe-stack"="inline-asm" "target-cpu"="x86-64" }
attributes #2 = { cold minsize noinline noreturn nounwind nonlazybind optsize "probe-stack"="inline-asm" "target-cpu"="x86-64" }
attributes #3 = { nounwind }
attributes #4 = { noreturn nounwind }

!llvm.module.flags = !{!0, !1}
!llvm.ident = !{!2}

!0 = !{i32 8, !"PIC Level", i32 2}
!1 = !{i32 2, !"RtLibUseGOT", i32 1}
!2 = !{!"rustc version 1.88.0-nightly (0b45675cf 2025-03-31)"}
