; ModuleID = 'bstsune233lnm26r3mzav27zn'
source_filename = "bstsune233lnm26r3mzav27zn"
target datalayout = "e-m:e-p270:32:32-p271:32:32-p272:64:64-i64:64-i128:128-f80:128-n8:16:32:64-S128"
target triple = "x86_64-unknown-linux-gnu"

@head = global [8 x i8] zeroinitializer, align 8
@last = global [8 x i8] zeroinitializer, align 8
@alloc_e92bca3d09367fc1316b702fb182f916 = private unnamed_addr constant [36 x i8] c"Input a number. (Enter -1 to exit)\0A\00", align 1
@alloc_3a31753a0b113451bf74f615363720ce = private unnamed_addr constant [3 x i8] c"%d\00", align 1
@alloc_f5ffd2fd1476bab43ad89fb40c72d0c5 = private unnamed_addr constant [10 x i8] c"src/lib.rs", align 1
@alloc_07f2a10419476346bdf5125fe00f2160 = private unnamed_addr constant <{ ptr, [16 x i8] }> <{ ptr @alloc_f5ffd2fd1476bab43ad89fb40c72d0c5, [16 x i8] c"\0A\00\00\00\00\00\00\00^\00\00\00\05\00\00\00" }>, align 8
@alloc_19a9d35a3f0dc6f4ec1f1516a86c2b37 = private unnamed_addr constant <{ ptr, [16 x i8] }> <{ ptr @alloc_f5ffd2fd1476bab43ad89fb40c72d0c5, [16 x i8] c"\0A\00\00\00\00\00\00\00_\00\00\00\05\00\00\00" }>, align 8
@alloc_a42e0fc2f7bcaec7e0bc84afb4ae9248 = private unnamed_addr constant <{ ptr, [16 x i8] }> <{ ptr @alloc_f5ffd2fd1476bab43ad89fb40c72d0c5, [16 x i8] c"\0A\00\00\00\00\00\00\00`\00\00\00\08\00\00\00" }>, align 8
@alloc_cfe30686ff0daf301212766601800645 = private unnamed_addr constant <{ ptr, [16 x i8] }> <{ ptr @alloc_f5ffd2fd1476bab43ad89fb40c72d0c5, [16 x i8] c"\0A\00\00\00\00\00\00\00d\00\00\00\09\00\00\00" }>, align 8
@alloc_a9ddb910048728d8cde68c8a68ffcb43 = private unnamed_addr constant <{ ptr, [16 x i8] }> <{ ptr @alloc_f5ffd2fd1476bab43ad89fb40c72d0c5, [16 x i8] c"\0A\00\00\00\00\00\00\00e\00\00\00\09\00\00\00" }>, align 8
@alloc_92b40fe40f06833e726244c13951938b = private unnamed_addr constant <{ ptr, [16 x i8] }> <{ ptr @alloc_f5ffd2fd1476bab43ad89fb40c72d0c5, [16 x i8] c"\0A\00\00\00\00\00\00\00a\00\00\00\09\00\00\00" }>, align 8
@alloc_af5a6df1d54b8f0bccfde6f4beaa6593 = private unnamed_addr constant <{ ptr, [16 x i8] }> <{ ptr @alloc_f5ffd2fd1476bab43ad89fb40c72d0c5, [16 x i8] c"\0A\00\00\00\00\00\00\00b\00\00\00\09\00\00\00" }>, align 8
@alloc_a4254ae4d91647b86dcdec4349d19c0f = private unnamed_addr constant <{ ptr, [16 x i8] }> <{ ptr @alloc_f5ffd2fd1476bab43ad89fb40c72d0c5, [16 x i8] c"\0A\00\00\00\00\00\00\00m\00\00\00\05\00\00\00" }>, align 8
@alloc_a6856c993e51b435a742ede9eecdb74c = private unnamed_addr constant <{ ptr, [16 x i8] }> <{ ptr @alloc_f5ffd2fd1476bab43ad89fb40c72d0c5, [16 x i8] c"\0A\00\00\00\00\00\00\00n\00\00\00\19\00\00\00" }>, align 8
@alloc_83f5eb74f1253c6f571b01131205ddde = private unnamed_addr constant <{ ptr, [16 x i8] }> <{ ptr @alloc_f5ffd2fd1476bab43ad89fb40c72d0c5, [16 x i8] c"\0A\00\00\00\00\00\00\00n\00\00\00\05\00\00\00" }>, align 8
@alloc_dd5ca49258844dd049f35feb90dce4cb = private unnamed_addr constant <{ ptr, [16 x i8] }> <{ ptr @alloc_f5ffd2fd1476bab43ad89fb40c72d0c5, [16 x i8] c"\0A\00\00\00\00\00\00\00o\00\00\00\05\00\00\00" }>, align 8
@alloc_1db6a2766d7e359deeb8a928b3e4113a = private unnamed_addr constant <{ ptr, [16 x i8] }> <{ ptr @alloc_f5ffd2fd1476bab43ad89fb40c72d0c5, [16 x i8] c"\0A\00\00\00\00\00\00\00s\00\00\00!\00\00\00" }>, align 8
@alloc_2a1052edd31888cd24061932c8daa9a7 = private unnamed_addr constant <{ ptr, [16 x i8] }> <{ ptr @alloc_f5ffd2fd1476bab43ad89fb40c72d0c5, [16 x i8] c"\0A\00\00\00\00\00\00\00v\00\00\00\0C\00\00\00" }>, align 8
@alloc_e694236a1330803e244ecee1f75fe163 = private unnamed_addr constant <{ ptr, [16 x i8] }> <{ ptr @alloc_f5ffd2fd1476bab43ad89fb40c72d0c5, [16 x i8] c"\0A\00\00\00\00\00\00\00\85\00\00\00\16\00\00\00" }>, align 8
@alloc_bff15e2da34384152598015c9eba106b = private unnamed_addr constant <{ ptr, [16 x i8] }> <{ ptr @alloc_f5ffd2fd1476bab43ad89fb40c72d0c5, [16 x i8] c"\0A\00\00\00\00\00\00\00z\00\00\00\0D\00\00\00" }>, align 8
@alloc_8f09bcc3ff9e4909a1ca1fcd9a10ffb7 = private unnamed_addr constant <{ ptr, [16 x i8] }> <{ ptr @alloc_f5ffd2fd1476bab43ad89fb40c72d0c5, [16 x i8] c"\0A\00\00\00\00\00\00\00{\00\00\00\1F\00\00\00" }>, align 8
@alloc_e1f5f6e5fbe9bd145d835d43b2973fcf = private unnamed_addr constant <{ ptr, [16 x i8] }> <{ ptr @alloc_f5ffd2fd1476bab43ad89fb40c72d0c5, [16 x i8] c"\0A\00\00\00\00\00\00\00{\00\00\00\0D\00\00\00" }>, align 8
@alloc_94f8dd9847ca7744ea676ef0939f743a = private unnamed_addr constant <{ ptr, [16 x i8] }> <{ ptr @alloc_f5ffd2fd1476bab43ad89fb40c72d0c5, [16 x i8] c"\0A\00\00\00\00\00\00\00|\00\00\00\0D\00\00\00" }>, align 8
@alloc_c01ec53b8ba666086f8ffa5c6163c5c4 = private unnamed_addr constant [25 x i8] c"%d is inserted after %d\0A\00", align 1
@alloc_bc5ca204768e4f95a763c2c1eb2b12a5 = private unnamed_addr constant [16 x i8] c"Key not found!\0A\00", align 1
@alloc_00b8ef2fbcda248fdffaf3f40267b4c9 = private unnamed_addr constant <{ ptr, [16 x i8] }> <{ ptr @alloc_f5ffd2fd1476bab43ad89fb40c72d0c5, [16 x i8] c"\0A\00\00\00\00\00\00\00\8E\00\00\00!\00\00\00" }>, align 8
@alloc_3b7512b8cccedcdffbd456bf2411e276 = private unnamed_addr constant <{ ptr, [16 x i8] }> <{ ptr @alloc_f5ffd2fd1476bab43ad89fb40c72d0c5, [16 x i8] c"\0A\00\00\00\00\00\00\00\92\00\00\00\0C\00\00\00" }>, align 8
@alloc_c74e84b5068f5bd0586abf2eac16545f = private unnamed_addr constant <{ ptr, [16 x i8] }> <{ ptr @alloc_f5ffd2fd1476bab43ad89fb40c72d0c5, [16 x i8] c"\0A\00\00\00\00\00\00\00\A1\00\00\00\16\00\00\00" }>, align 8
@alloc_b3088ea66c0833ceafd5f9b5d2a503a4 = private unnamed_addr constant <{ ptr, [16 x i8] }> <{ ptr @alloc_f5ffd2fd1476bab43ad89fb40c72d0c5, [16 x i8] c"\0A\00\00\00\00\00\00\00\96\00\00\00$\00\00\00" }>, align 8
@alloc_21f83570a3fb0464fad17633f480e290 = private unnamed_addr constant <{ ptr, [16 x i8] }> <{ ptr @alloc_f5ffd2fd1476bab43ad89fb40c72d0c5, [16 x i8] c"\0A\00\00\00\00\00\00\00\96\00\00\00\11\00\00\00" }>, align 8
@alloc_522abe4045a1baf596cf749cdf7af5fe = private unnamed_addr constant <{ ptr, [16 x i8] }> <{ ptr @alloc_f5ffd2fd1476bab43ad89fb40c72d0c5, [16 x i8] c"\0A\00\00\00\00\00\00\00\94\00\00\00\18\00\00\00" }>, align 8
@alloc_637dccc209ae06d980b6cbff01c4a094 = private unnamed_addr constant <{ ptr, [16 x i8] }> <{ ptr @alloc_f5ffd2fd1476bab43ad89fb40c72d0c5, [16 x i8] c"\0A\00\00\00\00\00\00\00\94\00\00\00\11\00\00\00" }>, align 8
@alloc_4ce491c208d04e7d40a27ebf4ea2707a = private unnamed_addr constant [25 x i8] c"%d is deleted from list\0A\00", align 1
@alloc_1a50945e2f61700de451df8adbfdbb38 = private unnamed_addr constant <{ ptr, [16 x i8] }> <{ ptr @alloc_f5ffd2fd1476bab43ad89fb40c72d0c5, [16 x i8] c"\0A\00\00\00\00\00\00\00\AA\00\00\00%\00\00\00" }>, align 8
@alloc_955faea93410ddf8779305fbd23ac2fb = private unnamed_addr constant <{ ptr, [16 x i8] }> <{ ptr @alloc_f5ffd2fd1476bab43ad89fb40c72d0c5, [16 x i8] c"\0A\00\00\00\00\00\00\00\AD\00\00\00\0C\00\00\00" }>, align 8
@alloc_4681e1a36b2ca2384a631e70982f3667 = private unnamed_addr constant <{ ptr, [16 x i8] }> <{ ptr @alloc_f5ffd2fd1476bab43ad89fb40c72d0c5, [16 x i8] c"\0A\00\00\00\00\00\00\00\B7\00\00\00\1A\00\00\00" }>, align 8
@alloc_10667c77d746d5f861b8f9cefe17d08c = private unnamed_addr constant [50 x i8] c"%d is present in this list. Memory address is %d\0A\00", align 1
@alloc_ee9a010be0da59f42c343331a7d56b04 = private unnamed_addr constant [16 x i8] c"Item not found\0A\00", align 1
@alloc_286858b6e51ba03e102a415c4e63a115 = private unnamed_addr constant [27 x i8] c"\0AYour full linked list is\0A\00", align 1
@alloc_b78695cb62956adb57d930cf46135fe9 = private unnamed_addr constant <{ ptr, [16 x i8] }> <{ ptr @alloc_f5ffd2fd1476bab43ad89fb40c72d0c5, [16 x i8] c"\0A\00\00\00\00\00\00\00\C2\00\00\00\0E\00\00\00" }>, align 8
@alloc_b929c71616281bfd1be2bd4038d3ddf1 = private unnamed_addr constant [4 x i8] c"%d \00", align 1
@alloc_a85426c695e9082dca24ea0353cb1e35 = private unnamed_addr constant <{ ptr, [16 x i8] }> <{ ptr @alloc_f5ffd2fd1476bab43ad89fb40c72d0c5, [16 x i8] c"\0A\00\00\00\00\00\00\00\C4\00\00\00>\00\00\00" }>, align 8
@alloc_833815eee0ea4064c898045dbbfdfbd8 = private unnamed_addr constant <{ ptr, [16 x i8] }> <{ ptr @alloc_f5ffd2fd1476bab43ad89fb40c72d0c5, [16 x i8] c"\0A\00\00\00\00\00\00\00\C5\00\00\00\12\00\00\00" }>, align 8
@alloc_914b2c69d7eca30497b9feaf15ac92f1 = private unnamed_addr constant [1 x i8] zeroinitializer, align 1

; core::ptr::mut_ptr::<impl *mut T>::is_null
; Function Attrs: inlinehint nounwind nonlazybind
define internal zeroext i1 @"_ZN4core3ptr7mut_ptr31_$LT$impl$u20$$BP$mut$u20$T$GT$7is_null17hfb222ca4d4ddb4c0E"(ptr %self) unnamed_addr #0 {
start:
  %_3 = ptrtoint ptr %self to i64
  %_0 = icmp eq i64 %_3, 0
  ret i1 %_0
}

; Function Attrs: nounwind nonlazybind
define void @create_linked_list() unnamed_addr #1 {
start:
  %val = alloca [4 x i8], align 4
  store i32 0, ptr %val, align 4
  br label %bb1

bb1:                                              ; preds = %bb5, %start
  %_2 = call i32 (ptr, ...) @printf(ptr @alloc_e92bca3d09367fc1316b702fb182f916) #3
  %_7 = call i32 (ptr, ...) @scanf(ptr @alloc_3a31753a0b113451bf74f615363720ce, ptr %val) #3
  %_15 = load i32, ptr %val, align 4
  %_14 = icmp eq i32 %_15, -1
  br i1 %_14, label %bb4, label %bb5

bb5:                                              ; preds = %bb1
  %_18 = load i32, ptr %val, align 4
  call void @insert_at_last(i32 %_18) #3
  br label %bb1

bb4:                                              ; preds = %bb1
  ret void
}

; Function Attrs: nounwind nonlazybind
define void @insert_at_last(i32 %value) unnamed_addr #1 {
start:
  %temp_node = alloca [8 x i8], align 8
  store ptr null, ptr %temp_node, align 8
  %_3 = call ptr @malloc(i64 16) #3
  store ptr %_3, ptr %temp_node, align 8
  %_54 = load ptr, ptr %temp_node, align 8
  %_55 = ptrtoint ptr %_54 to i64
  %_58 = and i64 %_55, 7
  %_59 = icmp eq i64 %_58, 0
  br i1 %_59, label %bb13, label %panic

bb13:                                             ; preds = %start
  %_60 = load ptr, ptr %temp_node, align 8
  %_61 = ptrtoint ptr %_60 to i64
  %_64 = icmp eq i64 %_61, 0
  %_65 = and i1 %_64, true
  %_66 = xor i1 %_65, true
  br i1 %_66, label %bb14, label %panic1

panic:                                            ; preds = %start
; call core::panicking::panic_misaligned_pointer_dereference
  call void @_ZN4core9panicking36panic_misaligned_pointer_dereference17hcc3cbded9382b6e5E(i64 8, i64 %_55, ptr align 8 @alloc_07f2a10419476346bdf5125fe00f2160) #4
  unreachable

bb14:                                             ; preds = %bb13
  %0 = load ptr, ptr %temp_node, align 8
  store i32 %value, ptr %0, align 8
  %_48 = load ptr, ptr %temp_node, align 8
  %_49 = ptrtoint ptr %_48 to i64
  %_52 = and i64 %_49, 7
  %_53 = icmp eq i64 %_52, 0
  br i1 %_53, label %bb12, label %panic2

panic1:                                           ; preds = %bb13
; call core::panicking::panic_null_pointer_dereference
  call void @_ZN4core9panicking30panic_null_pointer_dereference17hf718fcc86a223baaE(ptr align 8 @alloc_07f2a10419476346bdf5125fe00f2160) #4
  unreachable

bb12:                                             ; preds = %bb14
  %_67 = load ptr, ptr %temp_node, align 8
  %_68 = ptrtoint ptr %_67 to i64
  %_71 = icmp eq i64 %_68, 0
  %_72 = and i1 %_71, true
  %_73 = xor i1 %_72, true
  br i1 %_73, label %bb15, label %panic3

panic2:                                           ; preds = %bb14
; call core::panicking::panic_misaligned_pointer_dereference
  call void @_ZN4core9panicking36panic_misaligned_pointer_dereference17hcc3cbded9382b6e5E(i64 8, i64 %_49, ptr align 8 @alloc_19a9d35a3f0dc6f4ec1f1516a86c2b37) #4
  unreachable

bb15:                                             ; preds = %bb12
  %1 = load ptr, ptr %temp_node, align 8
  %2 = getelementptr inbounds i8, ptr %1, i64 8
  store ptr null, ptr %2, align 8
  %_78 = icmp eq i64 ptrtoint (ptr @head to i64), 0
  %_79 = and i1 %_78, true
  %_80 = xor i1 %_79, true
  br i1 %_80, label %bb16, label %panic4

panic3:                                           ; preds = %bb12
; call core::panicking::panic_null_pointer_dereference
  call void @_ZN4core9panicking30panic_null_pointer_dereference17hf718fcc86a223baaE(ptr align 8 @alloc_19a9d35a3f0dc6f4ec1f1516a86c2b37) #4
  unreachable

bb16:                                             ; preds = %bb15
  %_7 = load ptr, ptr @head, align 8
; call core::ptr::mut_ptr::<impl *mut T>::is_null
  %_6 = call zeroext i1 @"_ZN4core3ptr7mut_ptr31_$LT$impl$u20$$BP$mut$u20$T$GT$7is_null17hfb222ca4d4ddb4c0E"(ptr %_7) #3
  br i1 %_6, label %bb4, label %bb5

panic4:                                           ; preds = %bb15
; call core::panicking::panic_null_pointer_dereference
  call void @_ZN4core9panicking30panic_null_pointer_dereference17hf718fcc86a223baaE(ptr align 8 @alloc_a42e0fc2f7bcaec7e0bc84afb4ae9248) #4
  unreachable

bb5:                                              ; preds = %bb16
  %_13 = load ptr, ptr %temp_node, align 8
  %_17 = load ptr, ptr @last, align 8
  %_25 = ptrtoint ptr %_17 to i64
  %_28 = and i64 %_25, 7
  %_29 = icmp eq i64 %_28, 0
  br i1 %_29, label %bb8, label %panic5

bb4:                                              ; preds = %bb16
  %_9 = load ptr, ptr %temp_node, align 8
  %_85 = icmp eq i64 ptrtoint (ptr @head to i64), 0
  %_86 = and i1 %_85, true
  %_87 = xor i1 %_86, true
  br i1 %_87, label %bb17, label %panic8

bb8:                                              ; preds = %bb5
  %_96 = ptrtoint ptr %_17 to i64
  %_99 = icmp eq i64 %_96, 0
  %_100 = and i1 %_99, true
  %_101 = xor i1 %_100, true
  br i1 %_101, label %bb19, label %panic6

panic5:                                           ; preds = %bb5
; call core::panicking::panic_misaligned_pointer_dereference
  call void @_ZN4core9panicking36panic_misaligned_pointer_dereference17hcc3cbded9382b6e5E(i64 8, i64 %_25, ptr align 8 @alloc_cfe30686ff0daf301212766601800645) #4
  unreachable

bb19:                                             ; preds = %bb8
  %3 = getelementptr inbounds i8, ptr %_17, i64 8
  store ptr %_13, ptr %3, align 8
  %_15 = load ptr, ptr %temp_node, align 8
  %_106 = icmp eq i64 ptrtoint (ptr @last to i64), 0
  %_107 = and i1 %_106, true
  %_108 = xor i1 %_107, true
  br i1 %_108, label %bb20, label %panic7

panic6:                                           ; preds = %bb8
; call core::panicking::panic_null_pointer_dereference
  call void @_ZN4core9panicking30panic_null_pointer_dereference17hf718fcc86a223baaE(ptr align 8 @alloc_cfe30686ff0daf301212766601800645) #4
  unreachable

bb20:                                             ; preds = %bb19
  store ptr %_15, ptr @last, align 8
  br label %bb6

panic7:                                           ; preds = %bb19
; call core::panicking::panic_null_pointer_dereference
  call void @_ZN4core9panicking30panic_null_pointer_dereference17hf718fcc86a223baaE(ptr align 8 @alloc_a9ddb910048728d8cde68c8a68ffcb43) #4
  unreachable

bb6:                                              ; preds = %bb18, %bb20
  ret void

bb17:                                             ; preds = %bb4
  store ptr %_9, ptr @head, align 8
  %_11 = load ptr, ptr %temp_node, align 8
  %_92 = icmp eq i64 ptrtoint (ptr @last to i64), 0
  %_93 = and i1 %_92, true
  %_94 = xor i1 %_93, true
  br i1 %_94, label %bb18, label %panic9

panic8:                                           ; preds = %bb4
; call core::panicking::panic_null_pointer_dereference
  call void @_ZN4core9panicking30panic_null_pointer_dereference17hf718fcc86a223baaE(ptr align 8 @alloc_92b40fe40f06833e726244c13951938b) #4
  unreachable

bb18:                                             ; preds = %bb17
  store ptr %_11, ptr @last, align 8
  br label %bb6

panic9:                                           ; preds = %bb17
; call core::panicking::panic_null_pointer_dereference
  call void @_ZN4core9panicking30panic_null_pointer_dereference17hf718fcc86a223baaE(ptr align 8 @alloc_af5a6df1d54b8f0bccfde6f4beaa6593) #4
  unreachable
}

; Function Attrs: nounwind nonlazybind
define void @insert_at_first(i32 %value) unnamed_addr #1 {
start:
  %_3 = call ptr @malloc(i64 16) #3
  %_28 = ptrtoint ptr %_3 to i64
  %_31 = and i64 %_28, 7
  %_32 = icmp eq i64 %_31, 0
  br i1 %_32, label %bb6, label %panic

bb6:                                              ; preds = %start
  %_34 = ptrtoint ptr %_3 to i64
  %_37 = icmp eq i64 %_34, 0
  %_38 = and i1 %_37, true
  %_39 = xor i1 %_38, true
  br i1 %_39, label %bb7, label %panic1

panic:                                            ; preds = %start
; call core::panicking::panic_misaligned_pointer_dereference
  call void @_ZN4core9panicking36panic_misaligned_pointer_dereference17hcc3cbded9382b6e5E(i64 8, i64 %_28, ptr align 8 @alloc_a4254ae4d91647b86dcdec4349d19c0f) #4
  unreachable

bb7:                                              ; preds = %bb6
  store i32 %value, ptr %_3, align 8
  %_44 = icmp eq i64 ptrtoint (ptr @head to i64), 0
  %_45 = and i1 %_44, true
  %_46 = xor i1 %_45, true
  br i1 %_46, label %bb8, label %panic2

panic1:                                           ; preds = %bb6
; call core::panicking::panic_null_pointer_dereference
  call void @_ZN4core9panicking30panic_null_pointer_dereference17hf718fcc86a223baaE(ptr align 8 @alloc_a4254ae4d91647b86dcdec4349d19c0f) #4
  unreachable

bb8:                                              ; preds = %bb7
  %_6 = load ptr, ptr @head, align 8
  %_16 = ptrtoint ptr %_3 to i64
  %_19 = and i64 %_16, 7
  %_20 = icmp eq i64 %_19, 0
  br i1 %_20, label %bb4, label %panic3

panic2:                                           ; preds = %bb7
; call core::panicking::panic_null_pointer_dereference
  call void @_ZN4core9panicking30panic_null_pointer_dereference17hf718fcc86a223baaE(ptr align 8 @alloc_a6856c993e51b435a742ede9eecdb74c) #4
  unreachable

bb4:                                              ; preds = %bb8
  %_48 = ptrtoint ptr %_3 to i64
  %_51 = icmp eq i64 %_48, 0
  %_52 = and i1 %_51, true
  %_53 = xor i1 %_52, true
  br i1 %_53, label %bb9, label %panic4

panic3:                                           ; preds = %bb8
; call core::panicking::panic_misaligned_pointer_dereference
  call void @_ZN4core9panicking36panic_misaligned_pointer_dereference17hcc3cbded9382b6e5E(i64 8, i64 %_16, ptr align 8 @alloc_83f5eb74f1253c6f571b01131205ddde) #4
  unreachable

bb9:                                              ; preds = %bb4
  %0 = getelementptr inbounds i8, ptr %_3, i64 8
  store ptr %_6, ptr %0, align 8
  %_58 = icmp eq i64 ptrtoint (ptr @head to i64), 0
  %_59 = and i1 %_58, true
  %_60 = xor i1 %_59, true
  br i1 %_60, label %bb10, label %panic5

panic4:                                           ; preds = %bb4
; call core::panicking::panic_null_pointer_dereference
  call void @_ZN4core9panicking30panic_null_pointer_dereference17hf718fcc86a223baaE(ptr align 8 @alloc_83f5eb74f1253c6f571b01131205ddde) #4
  unreachable

bb10:                                             ; preds = %bb9
  store ptr %_3, ptr @head, align 8
  ret void

panic5:                                           ; preds = %bb9
; call core::panicking::panic_null_pointer_dereference
  call void @_ZN4core9panicking30panic_null_pointer_dereference17hf718fcc86a223baaE(ptr align 8 @alloc_dd5ca49258844dd049f35feb90dce4cb) #4
  unreachable
}

; Function Attrs: nounwind nonlazybind
define void @insert_after(i32 %key, i32 %value) unnamed_addr #1 {
start:
  %flag = alloca [4 x i8], align 4
  %myNode = alloca [8 x i8], align 8
  %_73 = icmp eq i64 ptrtoint (ptr @head to i64), 0
  %_74 = and i1 %_73, true
  %_75 = xor i1 %_74, true
  br i1 %_75, label %bb19, label %panic

bb19:                                             ; preds = %start
  %0 = load ptr, ptr @head, align 8
  store ptr %0, ptr %myNode, align 8
  store i32 0, ptr %flag, align 4
  br label %bb1

panic:                                            ; preds = %start
; call core::panicking::panic_null_pointer_dereference
  call void @_ZN4core9panicking30panic_null_pointer_dereference17hf718fcc86a223baaE(ptr align 8 @alloc_1db6a2766d7e359deeb8a928b3e4113a) #4
  unreachable

bb1:                                              ; preds = %bb25, %bb19
  %_7 = load ptr, ptr %myNode, align 8
; call core::ptr::mut_ptr::<impl *mut T>::is_null
  %_6 = call zeroext i1 @"_ZN4core3ptr7mut_ptr31_$LT$impl$u20$$BP$mut$u20$T$GT$7is_null17hfb222ca4d4ddb4c0E"(ptr %_7) #3
  br i1 %_6, label %bb9, label %bb3

bb3:                                              ; preds = %bb1
  %_57 = load ptr, ptr %myNode, align 8
  %_58 = ptrtoint ptr %_57 to i64
  %_61 = and i64 %_58, 7
  %_62 = icmp eq i64 %_61, 0
  br i1 %_62, label %bb17, label %panic1

bb9:                                              ; preds = %bb24, %bb1
  %_21 = load i32, ptr %flag, align 4
  %1 = icmp eq i32 %_21, 0
  br i1 %1, label %bb10, label %bb11

bb17:                                             ; preds = %bb3
  %_76 = load ptr, ptr %myNode, align 8
  %_77 = ptrtoint ptr %_76 to i64
  %_80 = icmp eq i64 %_77, 0
  %_81 = and i1 %_80, true
  %_82 = xor i1 %_81, true
  br i1 %_82, label %bb20, label %panic2

panic1:                                           ; preds = %bb3
; call core::panicking::panic_misaligned_pointer_dereference
  call void @_ZN4core9panicking36panic_misaligned_pointer_dereference17hcc3cbded9382b6e5E(i64 8, i64 %_58, ptr align 8 @alloc_2a1052edd31888cd24061932c8daa9a7) #4
  unreachable

bb20:                                             ; preds = %bb17
  %2 = load ptr, ptr %myNode, align 8
  %_9 = load i32, ptr %2, align 8
  %_8 = icmp eq i32 %_9, %key
  br i1 %_8, label %bb4, label %bb8

panic2:                                           ; preds = %bb17
; call core::panicking::panic_null_pointer_dereference
  call void @_ZN4core9panicking30panic_null_pointer_dereference17hf718fcc86a223baaE(ptr align 8 @alloc_2a1052edd31888cd24061932c8daa9a7) #4
  unreachable

bb8:                                              ; preds = %bb20
  %_27 = load ptr, ptr %myNode, align 8
  %_28 = ptrtoint ptr %_27 to i64
  %_31 = and i64 %_28, 7
  %_32 = icmp eq i64 %_31, 0
  br i1 %_32, label %bb12, label %panic3

bb4:                                              ; preds = %bb20
  %_11 = call ptr @malloc(i64 16) #3
  %_52 = ptrtoint ptr %_11 to i64
  %_55 = and i64 %_52, 7
  %_56 = icmp eq i64 %_55, 0
  br i1 %_56, label %bb16, label %panic5

bb12:                                             ; preds = %bb8
  %_111 = load ptr, ptr %myNode, align 8
  %_112 = ptrtoint ptr %_111 to i64
  %_115 = icmp eq i64 %_112, 0
  %_116 = and i1 %_115, true
  %_117 = xor i1 %_116, true
  br i1 %_117, label %bb25, label %panic4

panic3:                                           ; preds = %bb8
; call core::panicking::panic_misaligned_pointer_dereference
  call void @_ZN4core9panicking36panic_misaligned_pointer_dereference17hcc3cbded9382b6e5E(i64 8, i64 %_28, ptr align 8 @alloc_e694236a1330803e244ecee1f75fe163) #4
  unreachable

bb25:                                             ; preds = %bb12
  %3 = load ptr, ptr %myNode, align 8
  %4 = getelementptr inbounds i8, ptr %3, i64 8
  %_20 = load ptr, ptr %4, align 8
  store ptr %_20, ptr %myNode, align 8
  br label %bb1

panic4:                                           ; preds = %bb12
; call core::panicking::panic_null_pointer_dereference
  call void @_ZN4core9panicking30panic_null_pointer_dereference17hf718fcc86a223baaE(ptr align 8 @alloc_e694236a1330803e244ecee1f75fe163) #4
  unreachable

bb16:                                             ; preds = %bb4
  %_84 = ptrtoint ptr %_11 to i64
  %_87 = icmp eq i64 %_84, 0
  %_88 = and i1 %_87, true
  %_89 = xor i1 %_88, true
  br i1 %_89, label %bb21, label %panic6

panic5:                                           ; preds = %bb4
; call core::panicking::panic_misaligned_pointer_dereference
  call void @_ZN4core9panicking36panic_misaligned_pointer_dereference17hcc3cbded9382b6e5E(i64 8, i64 %_52, ptr align 8 @alloc_bff15e2da34384152598015c9eba106b) #4
  unreachable

bb21:                                             ; preds = %bb16
  store i32 %value, ptr %_11, align 8
  %_45 = load ptr, ptr %myNode, align 8
  %_46 = ptrtoint ptr %_45 to i64
  %_49 = and i64 %_46, 7
  %_50 = icmp eq i64 %_49, 0
  br i1 %_50, label %bb15, label %panic7

panic6:                                           ; preds = %bb16
; call core::panicking::panic_null_pointer_dereference
  call void @_ZN4core9panicking30panic_null_pointer_dereference17hf718fcc86a223baaE(ptr align 8 @alloc_bff15e2da34384152598015c9eba106b) #4
  unreachable

bb15:                                             ; preds = %bb21
  %_90 = load ptr, ptr %myNode, align 8
  %_91 = ptrtoint ptr %_90 to i64
  %_94 = icmp eq i64 %_91, 0
  %_95 = and i1 %_94, true
  %_96 = xor i1 %_95, true
  br i1 %_96, label %bb22, label %panic8

panic7:                                           ; preds = %bb21
; call core::panicking::panic_misaligned_pointer_dereference
  call void @_ZN4core9panicking36panic_misaligned_pointer_dereference17hcc3cbded9382b6e5E(i64 8, i64 %_46, ptr align 8 @alloc_8f09bcc3ff9e4909a1ca1fcd9a10ffb7) #4
  unreachable

bb22:                                             ; preds = %bb15
  %5 = load ptr, ptr %myNode, align 8
  %6 = getelementptr inbounds i8, ptr %5, i64 8
  %_14 = load ptr, ptr %6, align 8
  %_40 = ptrtoint ptr %_11 to i64
  %_43 = and i64 %_40, 7
  %_44 = icmp eq i64 %_43, 0
  br i1 %_44, label %bb14, label %panic9

panic8:                                           ; preds = %bb15
; call core::panicking::panic_null_pointer_dereference
  call void @_ZN4core9panicking30panic_null_pointer_dereference17hf718fcc86a223baaE(ptr align 8 @alloc_8f09bcc3ff9e4909a1ca1fcd9a10ffb7) #4
  unreachable

bb14:                                             ; preds = %bb22
  %_98 = ptrtoint ptr %_11 to i64
  %_101 = icmp eq i64 %_98, 0
  %_102 = and i1 %_101, true
  %_103 = xor i1 %_102, true
  br i1 %_103, label %bb23, label %panic10

panic9:                                           ; preds = %bb22
; call core::panicking::panic_misaligned_pointer_dereference
  call void @_ZN4core9panicking36panic_misaligned_pointer_dereference17hcc3cbded9382b6e5E(i64 8, i64 %_40, ptr align 8 @alloc_e1f5f6e5fbe9bd145d835d43b2973fcf) #4
  unreachable

bb23:                                             ; preds = %bb14
  %7 = getelementptr inbounds i8, ptr %_11, i64 8
  store ptr %_14, ptr %7, align 8
  %_33 = load ptr, ptr %myNode, align 8
  %_34 = ptrtoint ptr %_33 to i64
  %_37 = and i64 %_34, 7
  %_38 = icmp eq i64 %_37, 0
  br i1 %_38, label %bb13, label %panic11

panic10:                                          ; preds = %bb14
; call core::panicking::panic_null_pointer_dereference
  call void @_ZN4core9panicking30panic_null_pointer_dereference17hf718fcc86a223baaE(ptr align 8 @alloc_e1f5f6e5fbe9bd145d835d43b2973fcf) #4
  unreachable

bb13:                                             ; preds = %bb23
  %_104 = load ptr, ptr %myNode, align 8
  %_105 = ptrtoint ptr %_104 to i64
  %_108 = icmp eq i64 %_105, 0
  %_109 = and i1 %_108, true
  %_110 = xor i1 %_109, true
  br i1 %_110, label %bb24, label %panic12

panic11:                                          ; preds = %bb23
; call core::panicking::panic_misaligned_pointer_dereference
  call void @_ZN4core9panicking36panic_misaligned_pointer_dereference17hcc3cbded9382b6e5E(i64 8, i64 %_34, ptr align 8 @alloc_94f8dd9847ca7744ea676ef0939f743a) #4
  unreachable

bb24:                                             ; preds = %bb13
  %8 = load ptr, ptr %myNode, align 8
  %9 = getelementptr inbounds i8, ptr %8, i64 8
  store ptr %_11, ptr %9, align 8
  %_15 = call i32 (ptr, ...) @printf(ptr @alloc_c01ec53b8ba666086f8ffa5c6163c5c4, i32 %value, i32 %key) #3
  store i32 1, ptr %flag, align 4
  br label %bb9

panic12:                                          ; preds = %bb13
; call core::panicking::panic_null_pointer_dereference
  call void @_ZN4core9panicking30panic_null_pointer_dereference17hf718fcc86a223baaE(ptr align 8 @alloc_94f8dd9847ca7744ea676ef0939f743a) #4
  unreachable

bb10:                                             ; preds = %bb9
  %_22 = call i32 (ptr, ...) @printf(ptr @alloc_bc5ca204768e4f95a763c2c1eb2b12a5) #3
  br label %bb11

bb11:                                             ; preds = %bb10, %bb9
  ret void
}

; Function Attrs: nounwind nonlazybind
define void @delete_item(i32 %value) unnamed_addr #1 {
start:
  %flag = alloca [4 x i8], align 4
  %previous = alloca [8 x i8], align 8
  %myNode = alloca [8 x i8], align 8
  %_77 = icmp eq i64 ptrtoint (ptr @head to i64), 0
  %_78 = and i1 %_77, true
  %_79 = xor i1 %_78, true
  br i1 %_79, label %bb21, label %panic

bb21:                                             ; preds = %start
  %0 = load ptr, ptr @head, align 8
  store ptr %0, ptr %myNode, align 8
  store ptr null, ptr %previous, align 8
  store i32 0, ptr %flag, align 4
  br label %bb1

panic:                                            ; preds = %start
; call core::panicking::panic_null_pointer_dereference
  call void @_ZN4core9panicking30panic_null_pointer_dereference17hf718fcc86a223baaE(ptr align 8 @alloc_00b8ef2fbcda248fdffaf3f40267b4c9) #4
  unreachable

bb1:                                              ; preds = %bb27, %bb21
  %_7 = load ptr, ptr %myNode, align 8
; call core::ptr::mut_ptr::<impl *mut T>::is_null
  %_6 = call zeroext i1 @"_ZN4core3ptr7mut_ptr31_$LT$impl$u20$$BP$mut$u20$T$GT$7is_null17hfb222ca4d4ddb4c0E"(ptr %_7) #3
  br i1 %_6, label %bb11, label %bb3

bb3:                                              ; preds = %bb1
  %_61 = load ptr, ptr %myNode, align 8
  %_62 = ptrtoint ptr %_61 to i64
  %_65 = and i64 %_62, 7
  %_66 = icmp eq i64 %_65, 0
  br i1 %_66, label %bb19, label %panic1

bb11:                                             ; preds = %bb8, %bb1
  %_25 = load i32, ptr %flag, align 4
  %1 = icmp eq i32 %_25, 0
  br i1 %1, label %bb12, label %bb13

bb19:                                             ; preds = %bb3
  %_80 = load ptr, ptr %myNode, align 8
  %_81 = ptrtoint ptr %_80 to i64
  %_84 = icmp eq i64 %_81, 0
  %_85 = and i1 %_84, true
  %_86 = xor i1 %_85, true
  br i1 %_86, label %bb22, label %panic2

panic1:                                           ; preds = %bb3
; call core::panicking::panic_misaligned_pointer_dereference
  call void @_ZN4core9panicking36panic_misaligned_pointer_dereference17hcc3cbded9382b6e5E(i64 8, i64 %_62, ptr align 8 @alloc_3b7512b8cccedcdffbd456bf2411e276) #4
  unreachable

bb22:                                             ; preds = %bb19
  %2 = load ptr, ptr %myNode, align 8
  %_9 = load i32, ptr %2, align 8
  %_8 = icmp eq i32 %_9, %value
  br i1 %_8, label %bb4, label %bb10

panic2:                                           ; preds = %bb19
; call core::panicking::panic_null_pointer_dereference
  call void @_ZN4core9panicking30panic_null_pointer_dereference17hf718fcc86a223baaE(ptr align 8 @alloc_3b7512b8cccedcdffbd456bf2411e276) #4
  unreachable

bb10:                                             ; preds = %bb22
  %_23 = load ptr, ptr %myNode, align 8
  store ptr %_23, ptr %previous, align 8
  %_31 = load ptr, ptr %myNode, align 8
  %_32 = ptrtoint ptr %_31 to i64
  %_35 = and i64 %_32, 7
  %_36 = icmp eq i64 %_35, 0
  br i1 %_36, label %bb14, label %panic3

bb4:                                              ; preds = %bb22
  %_11 = load ptr, ptr %previous, align 8
; call core::ptr::mut_ptr::<impl *mut T>::is_null
  %_10 = call zeroext i1 @"_ZN4core3ptr7mut_ptr31_$LT$impl$u20$$BP$mut$u20$T$GT$7is_null17hfb222ca4d4ddb4c0E"(ptr %_11) #3
  br i1 %_10, label %bb6, label %bb7

bb14:                                             ; preds = %bb10
  %_115 = load ptr, ptr %myNode, align 8
  %_116 = ptrtoint ptr %_115 to i64
  %_119 = icmp eq i64 %_116, 0
  %_120 = and i1 %_119, true
  %_121 = xor i1 %_120, true
  br i1 %_121, label %bb27, label %panic4

panic3:                                           ; preds = %bb10
; call core::panicking::panic_misaligned_pointer_dereference
  call void @_ZN4core9panicking36panic_misaligned_pointer_dereference17hcc3cbded9382b6e5E(i64 8, i64 %_32, ptr align 8 @alloc_c74e84b5068f5bd0586abf2eac16545f) #4
  unreachable

bb27:                                             ; preds = %bb14
  %3 = load ptr, ptr %myNode, align 8
  %4 = getelementptr inbounds i8, ptr %3, i64 8
  %_24 = load ptr, ptr %4, align 8
  store ptr %_24, ptr %myNode, align 8
  br label %bb1

panic4:                                           ; preds = %bb14
; call core::panicking::panic_null_pointer_dereference
  call void @_ZN4core9panicking30panic_null_pointer_dereference17hf718fcc86a223baaE(ptr align 8 @alloc_c74e84b5068f5bd0586abf2eac16545f) #4
  unreachable

bb7:                                              ; preds = %bb4
  %_43 = load ptr, ptr %myNode, align 8
  %_44 = ptrtoint ptr %_43 to i64
  %_47 = and i64 %_44, 7
  %_48 = icmp eq i64 %_47, 0
  br i1 %_48, label %bb16, label %panic5

bb6:                                              ; preds = %bb4
  %_55 = load ptr, ptr %myNode, align 8
  %_56 = ptrtoint ptr %_55 to i64
  %_59 = and i64 %_56, 7
  %_60 = icmp eq i64 %_59, 0
  br i1 %_60, label %bb18, label %panic9

bb16:                                             ; preds = %bb7
  %_101 = load ptr, ptr %myNode, align 8
  %_102 = ptrtoint ptr %_101 to i64
  %_105 = icmp eq i64 %_102, 0
  %_106 = and i1 %_105, true
  %_107 = xor i1 %_106, true
  br i1 %_107, label %bb25, label %panic6

panic5:                                           ; preds = %bb7
; call core::panicking::panic_misaligned_pointer_dereference
  call void @_ZN4core9panicking36panic_misaligned_pointer_dereference17hcc3cbded9382b6e5E(i64 8, i64 %_44, ptr align 8 @alloc_b3088ea66c0833ceafd5f9b5d2a503a4) #4
  unreachable

bb25:                                             ; preds = %bb16
  %5 = load ptr, ptr %myNode, align 8
  %6 = getelementptr inbounds i8, ptr %5, i64 8
  %_14 = load ptr, ptr %6, align 8
  %_37 = load ptr, ptr %previous, align 8
  %_38 = ptrtoint ptr %_37 to i64
  %_41 = and i64 %_38, 7
  %_42 = icmp eq i64 %_41, 0
  br i1 %_42, label %bb15, label %panic7

panic6:                                           ; preds = %bb16
; call core::panicking::panic_null_pointer_dereference
  call void @_ZN4core9panicking30panic_null_pointer_dereference17hf718fcc86a223baaE(ptr align 8 @alloc_b3088ea66c0833ceafd5f9b5d2a503a4) #4
  unreachable

bb15:                                             ; preds = %bb25
  %_108 = load ptr, ptr %previous, align 8
  %_109 = ptrtoint ptr %_108 to i64
  %_112 = icmp eq i64 %_109, 0
  %_113 = and i1 %_112, true
  %_114 = xor i1 %_113, true
  br i1 %_114, label %bb26, label %panic8

panic7:                                           ; preds = %bb25
; call core::panicking::panic_misaligned_pointer_dereference
  call void @_ZN4core9panicking36panic_misaligned_pointer_dereference17hcc3cbded9382b6e5E(i64 8, i64 %_38, ptr align 8 @alloc_21f83570a3fb0464fad17633f480e290) #4
  unreachable

bb26:                                             ; preds = %bb15
  %7 = load ptr, ptr %previous, align 8
  %8 = getelementptr inbounds i8, ptr %7, i64 8
  store ptr %_14, ptr %8, align 8
  br label %bb8

panic8:                                           ; preds = %bb15
; call core::panicking::panic_null_pointer_dereference
  call void @_ZN4core9panicking30panic_null_pointer_dereference17hf718fcc86a223baaE(ptr align 8 @alloc_21f83570a3fb0464fad17633f480e290) #4
  unreachable

bb8:                                              ; preds = %bb24, %bb26
  %_15 = call i32 (ptr, ...) @printf(ptr @alloc_4ce491c208d04e7d40a27ebf4ea2707a, i32 %value) #3
  store i32 1, ptr %flag, align 4
  %_22 = load ptr, ptr %myNode, align 8
  call void @free(ptr %_22) #3
  br label %bb11

bb18:                                             ; preds = %bb6
  %_87 = load ptr, ptr %myNode, align 8
  %_88 = ptrtoint ptr %_87 to i64
  %_91 = icmp eq i64 %_88, 0
  %_92 = and i1 %_91, true
  %_93 = xor i1 %_92, true
  br i1 %_93, label %bb23, label %panic10

panic9:                                           ; preds = %bb6
; call core::panicking::panic_misaligned_pointer_dereference
  call void @_ZN4core9panicking36panic_misaligned_pointer_dereference17hcc3cbded9382b6e5E(i64 8, i64 %_56, ptr align 8 @alloc_522abe4045a1baf596cf749cdf7af5fe) #4
  unreachable

bb23:                                             ; preds = %bb18
  %9 = load ptr, ptr %myNode, align 8
  %10 = getelementptr inbounds i8, ptr %9, i64 8
  %_12 = load ptr, ptr %10, align 8
  %_98 = icmp eq i64 ptrtoint (ptr @head to i64), 0
  %_99 = and i1 %_98, true
  %_100 = xor i1 %_99, true
  br i1 %_100, label %bb24, label %panic11

panic10:                                          ; preds = %bb18
; call core::panicking::panic_null_pointer_dereference
  call void @_ZN4core9panicking30panic_null_pointer_dereference17hf718fcc86a223baaE(ptr align 8 @alloc_522abe4045a1baf596cf749cdf7af5fe) #4
  unreachable

bb24:                                             ; preds = %bb23
  store ptr %_12, ptr @head, align 8
  br label %bb8

panic11:                                          ; preds = %bb23
; call core::panicking::panic_null_pointer_dereference
  call void @_ZN4core9panicking30panic_null_pointer_dereference17hf718fcc86a223baaE(ptr align 8 @alloc_637dccc209ae06d980b6cbff01c4a094) #4
  unreachable

bb12:                                             ; preds = %bb11
  %_26 = call i32 (ptr, ...) @printf(ptr @alloc_bc5ca204768e4f95a763c2c1eb2b12a5) #3
  br label %bb13

bb13:                                             ; preds = %bb12, %bb11
  ret void
}

; Function Attrs: nounwind nonlazybind
define void @search_item(i32 %value) unnamed_addr #1 {
start:
  %flag = alloca [4 x i8], align 4
  %searchNode = alloca [8 x i8], align 8
  %_44 = icmp eq i64 ptrtoint (ptr @head to i64), 0
  %_45 = and i1 %_44, true
  %_46 = xor i1 %_45, true
  br i1 %_46, label %bb13, label %panic

bb13:                                             ; preds = %start
  %0 = load ptr, ptr @head, align 8
  store ptr %0, ptr %searchNode, align 8
  store i32 0, ptr %flag, align 4
  br label %bb1

panic:                                            ; preds = %start
; call core::panicking::panic_null_pointer_dereference
  call void @_ZN4core9panicking30panic_null_pointer_dereference17hf718fcc86a223baaE(ptr align 8 @alloc_1a50945e2f61700de451df8adbfdbb38) #4
  unreachable

bb1:                                              ; preds = %bb15, %bb13
  %_6 = load ptr, ptr %searchNode, align 8
; call core::ptr::mut_ptr::<impl *mut T>::is_null
  %_5 = call zeroext i1 @"_ZN4core3ptr7mut_ptr31_$LT$impl$u20$$BP$mut$u20$T$GT$7is_null17hfb222ca4d4ddb4c0E"(ptr %_6) #3
  br i1 %_5, label %bb7, label %bb3

bb3:                                              ; preds = %bb1
  %_28 = load ptr, ptr %searchNode, align 8
  %_29 = ptrtoint ptr %_28 to i64
  %_32 = and i64 %_29, 7
  %_33 = icmp eq i64 %_32, 0
  br i1 %_33, label %bb11, label %panic1

bb7:                                              ; preds = %bb4, %bb1
  %_16 = load i32, ptr %flag, align 4
  %1 = icmp eq i32 %_16, 0
  br i1 %1, label %bb8, label %bb9

bb11:                                             ; preds = %bb3
  %_47 = load ptr, ptr %searchNode, align 8
  %_48 = ptrtoint ptr %_47 to i64
  %_51 = icmp eq i64 %_48, 0
  %_52 = and i1 %_51, true
  %_53 = xor i1 %_52, true
  br i1 %_53, label %bb14, label %panic2

panic1:                                           ; preds = %bb3
; call core::panicking::panic_misaligned_pointer_dereference
  call void @_ZN4core9panicking36panic_misaligned_pointer_dereference17hcc3cbded9382b6e5E(i64 8, i64 %_29, ptr align 8 @alloc_955faea93410ddf8779305fbd23ac2fb) #4
  unreachable

bb14:                                             ; preds = %bb11
  %2 = load ptr, ptr %searchNode, align 8
  %_8 = load i32, ptr %2, align 8
  %_7 = icmp eq i32 %_8, %value
  br i1 %_7, label %bb4, label %bb6

panic2:                                           ; preds = %bb11
; call core::panicking::panic_null_pointer_dereference
  call void @_ZN4core9panicking30panic_null_pointer_dereference17hf718fcc86a223baaE(ptr align 8 @alloc_955faea93410ddf8779305fbd23ac2fb) #4
  unreachable

bb6:                                              ; preds = %bb14
  %_22 = load ptr, ptr %searchNode, align 8
  %_23 = ptrtoint ptr %_22 to i64
  %_26 = and i64 %_23, 7
  %_27 = icmp eq i64 %_26, 0
  br i1 %_27, label %bb10, label %panic3

bb4:                                              ; preds = %bb14
  %_14 = load ptr, ptr %searchNode, align 8
  %_9 = call i32 (ptr, ...) @printf(ptr @alloc_10667c77d746d5f861b8f9cefe17d08c, i32 %value, ptr %_14) #3
  store i32 1, ptr %flag, align 4
  br label %bb7

bb10:                                             ; preds = %bb6
  %_54 = load ptr, ptr %searchNode, align 8
  %_55 = ptrtoint ptr %_54 to i64
  %_58 = icmp eq i64 %_55, 0
  %_59 = and i1 %_58, true
  %_60 = xor i1 %_59, true
  br i1 %_60, label %bb15, label %panic4

panic3:                                           ; preds = %bb6
; call core::panicking::panic_misaligned_pointer_dereference
  call void @_ZN4core9panicking36panic_misaligned_pointer_dereference17hcc3cbded9382b6e5E(i64 8, i64 %_23, ptr align 8 @alloc_4681e1a36b2ca2384a631e70982f3667) #4
  unreachable

bb15:                                             ; preds = %bb10
  %3 = load ptr, ptr %searchNode, align 8
  %4 = getelementptr inbounds i8, ptr %3, i64 8
  %_15 = load ptr, ptr %4, align 8
  store ptr %_15, ptr %searchNode, align 8
  br label %bb1

panic4:                                           ; preds = %bb10
; call core::panicking::panic_null_pointer_dereference
  call void @_ZN4core9panicking30panic_null_pointer_dereference17hf718fcc86a223baaE(ptr align 8 @alloc_4681e1a36b2ca2384a631e70982f3667) #4
  unreachable

bb8:                                              ; preds = %bb7
  %_17 = call i32 (ptr, ...) @printf(ptr @alloc_ee9a010be0da59f42c343331a7d56b04) #3
  br label %bb9

bb9:                                              ; preds = %bb8, %bb7
  ret void
}

; Function Attrs: nounwind nonlazybind
define void @print_linked_list() unnamed_addr #1 {
start:
  %myList = alloca [8 x i8], align 8
  %_1 = call i32 (ptr, ...) @printf(ptr @alloc_286858b6e51ba03e102a415c4e63a115) #3
  store ptr null, ptr %myList, align 8
  %_45 = icmp eq i64 ptrtoint (ptr @head to i64), 0
  %_46 = and i1 %_45, true
  %_47 = xor i1 %_46, true
  br i1 %_47, label %bb11, label %panic

bb11:                                             ; preds = %start
  %_7 = load ptr, ptr @head, align 8
  store ptr %_7, ptr %myList, align 8
  br label %bb2

panic:                                            ; preds = %start
; call core::panicking::panic_null_pointer_dereference
  call void @_ZN4core9panicking30panic_null_pointer_dereference17hf718fcc86a223baaE(ptr align 8 @alloc_b78695cb62956adb57d930cf46135fe9) #4
  unreachable

bb2:                                              ; preds = %bb13, %bb11
  %_10 = load ptr, ptr %myList, align 8
; call core::ptr::mut_ptr::<impl *mut T>::is_null
  %_9 = call zeroext i1 @"_ZN4core3ptr7mut_ptr31_$LT$impl$u20$$BP$mut$u20$T$GT$7is_null17hfb222ca4d4ddb4c0E"(ptr %_10) #3
  br i1 %_9, label %bb4, label %bb5

bb5:                                              ; preds = %bb2
  %_29 = load ptr, ptr %myList, align 8
  %_30 = ptrtoint ptr %_29 to i64
  %_33 = and i64 %_30, 7
  %_34 = icmp eq i64 %_33, 0
  br i1 %_34, label %bb9, label %panic1

bb4:                                              ; preds = %bb2
  %_18 = call i32 @puts(ptr @alloc_914b2c69d7eca30497b9feaf15ac92f1) #3
  ret void

bb9:                                              ; preds = %bb5
  %_48 = load ptr, ptr %myList, align 8
  %_49 = ptrtoint ptr %_48 to i64
  %_52 = icmp eq i64 %_49, 0
  %_53 = and i1 %_52, true
  %_54 = xor i1 %_53, true
  br i1 %_54, label %bb12, label %panic2

panic1:                                           ; preds = %bb5
; call core::panicking::panic_misaligned_pointer_dereference
  call void @_ZN4core9panicking36panic_misaligned_pointer_dereference17hcc3cbded9382b6e5E(i64 8, i64 %_30, ptr align 8 @alloc_a85426c695e9082dca24ea0353cb1e35) #4
  unreachable

bb12:                                             ; preds = %bb9
  %0 = load ptr, ptr %myList, align 8
  %_16 = load i32, ptr %0, align 8
  %_11 = call i32 (ptr, ...) @printf(ptr @alloc_b929c71616281bfd1be2bd4038d3ddf1, i32 %_16) #3
  %_23 = load ptr, ptr %myList, align 8
  %_24 = ptrtoint ptr %_23 to i64
  %_27 = and i64 %_24, 7
  %_28 = icmp eq i64 %_27, 0
  br i1 %_28, label %bb8, label %panic3

panic2:                                           ; preds = %bb9
; call core::panicking::panic_null_pointer_dereference
  call void @_ZN4core9panicking30panic_null_pointer_dereference17hf718fcc86a223baaE(ptr align 8 @alloc_a85426c695e9082dca24ea0353cb1e35) #4
  unreachable

bb8:                                              ; preds = %bb12
  %_55 = load ptr, ptr %myList, align 8
  %_56 = ptrtoint ptr %_55 to i64
  %_59 = icmp eq i64 %_56, 0
  %_60 = and i1 %_59, true
  %_61 = xor i1 %_60, true
  br i1 %_61, label %bb13, label %panic4

panic3:                                           ; preds = %bb12
; call core::panicking::panic_misaligned_pointer_dereference
  call void @_ZN4core9panicking36panic_misaligned_pointer_dereference17hcc3cbded9382b6e5E(i64 8, i64 %_24, ptr align 8 @alloc_833815eee0ea4064c898045dbbfdfbd8) #4
  unreachable

bb13:                                             ; preds = %bb8
  %1 = load ptr, ptr %myList, align 8
  %2 = getelementptr inbounds i8, ptr %1, i64 8
  %_17 = load ptr, ptr %2, align 8
  store ptr %_17, ptr %myList, align 8
  br label %bb2

panic4:                                           ; preds = %bb8
; call core::panicking::panic_null_pointer_dereference
  call void @_ZN4core9panicking30panic_null_pointer_dereference17hf718fcc86a223baaE(ptr align 8 @alloc_833815eee0ea4064c898045dbbfdfbd8) #4
  unreachable
}

; Function Attrs: nounwind nonlazybind
declare i32 @printf(ptr, ...) unnamed_addr #1

; Function Attrs: nounwind nonlazybind
declare i32 @scanf(ptr, ...) unnamed_addr #1

; Function Attrs: nounwind nonlazybind
declare ptr @malloc(i64) unnamed_addr #1

; core::panicking::panic_misaligned_pointer_dereference
; Function Attrs: cold minsize noinline noreturn nounwind nonlazybind optsize
declare void @_ZN4core9panicking36panic_misaligned_pointer_dereference17hcc3cbded9382b6e5E(i64, i64, ptr align 8) unnamed_addr #2

; core::panicking::panic_null_pointer_dereference
; Function Attrs: cold minsize noinline noreturn nounwind nonlazybind optsize
declare void @_ZN4core9panicking30panic_null_pointer_dereference17hf718fcc86a223baaE(ptr align 8) unnamed_addr #2

; Function Attrs: nounwind nonlazybind
declare void @free(ptr) unnamed_addr #1

; Function Attrs: nounwind nonlazybind
declare i32 @puts(ptr) unnamed_addr #1

attributes #0 = { inlinehint nounwind nonlazybind "probe-stack"="inline-asm" "target-cpu"="x86-64" }
attributes #1 = { nounwind nonlazybind "probe-stack"="inline-asm" "target-cpu"="x86-64" }
attributes #2 = { cold minsize noinline noreturn nounwind nonlazybind optsize "probe-stack"="inline-asm" "target-cpu"="x86-64" }
attributes #3 = { nounwind }
attributes #4 = { noreturn nounwind }

!llvm.module.flags = !{!0, !1}
!llvm.ident = !{!2}

!0 = !{i32 8, !"PIC Level", i32 2}
!1 = !{i32 2, !"RtLibUseGOT", i32 1}
!2 = !{!"rustc version 1.88.0-nightly (0b45675cf 2025-03-31)"}
