; ModuleID = '5hz8mt0w4cjy934unkrx843gf'
source_filename = "5hz8mt0w4cjy934unkrx843gf"
target datalayout = "e-m:e-p270:32:32-p271:32:32-p272:64:64-i64:64-i128:128-f80:128-n8:16:32:64-S128"
target triple = "x86_64-unknown-linux-gnu"

@root = global [8 x i8] zeroinitializer, align 8
@alloc_f5ffd2fd1476bab43ad89fb40c72d0c5 = private unnamed_addr constant [10 x i8] c"src/lib.rs", align 1
@alloc_a5b0153b64ce9fb086bbe49abac09c13 = private unnamed_addr constant <{ ptr, [16 x i8] }> <{ ptr @alloc_f5ffd2fd1476bab43ad89fb40c72d0c5, [16 x i8] c"\0A\00\00\00\00\00\00\00C\00\00\00\17\00\00\00" }>, align 8
@alloc_620736c10c680a47826600779f2fe8b0 = private unnamed_addr constant <{ ptr, [16 x i8] }> <{ ptr @alloc_f5ffd2fd1476bab43ad89fb40c72d0c5, [16 x i8] c"\0A\00\00\00\00\00\00\00E\00\00\00\17\00\00\00" }>, align 8
@alloc_2f8634760784bdab8d450ddc5940e55b = private unnamed_addr constant <{ ptr, [16 x i8] }> <{ ptr @alloc_f5ffd2fd1476bab43ad89fb40c72d0c5, [16 x i8] c"\0A\00\00\00\00\00\00\00G\00\00\00\0F\00\00\00" }>, align 8
@alloc_ec40ccda9e1f90f1fc6e04d7d1f47049 = private unnamed_addr constant <{ ptr, [16 x i8] }> <{ ptr @alloc_f5ffd2fd1476bab43ad89fb40c72d0c5, [16 x i8] c"\0A\00\00\00\00\00\00\00H\00\00\00\0C\00\00\00" }>, align 8
@alloc_529d468218a0bdb07f002d03e57f85eb = private unnamed_addr constant <{ ptr, [16 x i8] }> <{ ptr @alloc_f5ffd2fd1476bab43ad89fb40c72d0c5, [16 x i8] c"\0A\00\00\00\00\00\00\00K\00\00\00\0F\00\00\00" }>, align 8
@alloc_1b079427a9a2d0fa28f6d95417650b17 = private unnamed_addr constant <{ ptr, [16 x i8] }> <{ ptr @alloc_f5ffd2fd1476bab43ad89fb40c72d0c5, [16 x i8] c"\0A\00\00\00\00\00\00\00M\00\00\00\0F\00\00\00" }>, align 8
@alloc_091715f619090ee08b4f8f12961970d2 = private unnamed_addr constant <{ ptr, [16 x i8] }> <{ ptr @alloc_f5ffd2fd1476bab43ad89fb40c72d0c5, [16 x i8] c"\0A\00\00\00\00\00\00\00P\00\00\003\00\00\00" }>, align 8
@alloc_6a0532ce3a0fb02ce2733c805e88480e = private unnamed_addr constant <{ ptr, [16 x i8] }> <{ ptr @alloc_f5ffd2fd1476bab43ad89fb40c72d0c5, [16 x i8] c"\0A\00\00\00\00\00\00\00Q\00\00\00!\00\00\00" }>, align 8
@alloc_aad1b153ad67dca377fd0f3c9944bfa6 = private unnamed_addr constant <{ ptr, [16 x i8] }> <{ ptr @alloc_f5ffd2fd1476bab43ad89fb40c72d0c5, [16 x i8] c"\0A\00\00\00\00\00\00\00Q\00\00\00\09\00\00\00" }>, align 8
@alloc_6b29f5e62535ca8b6970a96a62232e09 = private unnamed_addr constant <{ ptr, [16 x i8] }> <{ ptr @alloc_f5ffd2fd1476bab43ad89fb40c72d0c5, [16 x i8] c"\0A\00\00\00\00\00\00\00S\00\00\00&\00\00\00" }>, align 8
@alloc_03e1f55d7a74a673c2a0dd3db0cb1f3c = private unnamed_addr constant <{ ptr, [16 x i8] }> <{ ptr @alloc_f5ffd2fd1476bab43ad89fb40c72d0c5, [16 x i8] c"\0A\00\00\00\00\00\00\00S\00\00\00A\00\00\00" }>, align 8
@alloc_48b505e14fb771830a694fa0a2d37e03 = private unnamed_addr constant <{ ptr, [16 x i8] }> <{ ptr @alloc_f5ffd2fd1476bab43ad89fb40c72d0c5, [16 x i8] c"\0A\00\00\00\00\00\00\00R\00\00\00\09\00\00\00" }>, align 8
@alloc_53185fca74415ddd9e071af3166200c6 = private unnamed_addr constant <{ ptr, [16 x i8] }> <{ ptr @alloc_f5ffd2fd1476bab43ad89fb40c72d0c5, [16 x i8] c"\0A\00\00\00\00\00\00\00N\00\00\00\17\00\00\00" }>, align 8
@alloc_c2e75e837da10c2cc87e6750356497bf = private unnamed_addr constant <{ ptr, [16 x i8] }> <{ ptr @alloc_f5ffd2fd1476bab43ad89fb40c72d0c5, [16 x i8] c"\0A\00\00\00\00\00\00\00L\00\00\00\17\00\00\00" }>, align 8
@alloc_f294084b9e675466f0ac902f9bc29232 = private unnamed_addr constant <{ ptr, [16 x i8] }> <{ ptr @alloc_f5ffd2fd1476bab43ad89fb40c72d0c5, [16 x i8] c"\0A\00\00\00\00\00\00\00F\00\00\000\00\00\00" }>, align 8
@alloc_93f542bb911f596888750692fcb70c80 = private unnamed_addr constant <{ ptr, [16 x i8] }> <{ ptr @alloc_f5ffd2fd1476bab43ad89fb40c72d0c5, [16 x i8] c"\0A\00\00\00\00\00\00\00F\00\00\00\09\00\00\00" }>, align 8
@alloc_37e6d46e3cdf1fe898702fc37da021a3 = private unnamed_addr constant <{ ptr, [16 x i8] }> <{ ptr @alloc_f5ffd2fd1476bab43ad89fb40c72d0c5, [16 x i8] c"\0A\00\00\00\00\00\00\00D\00\00\00/\00\00\00" }>, align 8
@alloc_0a7276ce039af27c46eae82d9ce26786 = private unnamed_addr constant <{ ptr, [16 x i8] }> <{ ptr @alloc_f5ffd2fd1476bab43ad89fb40c72d0c5, [16 x i8] c"\0A\00\00\00\00\00\00\00D\00\00\00\09\00\00\00" }>, align 8
@alloc_3c79ad7b6bce864e29f449480d67fd10 = private unnamed_addr constant <{ ptr, [16 x i8] }> <{ ptr @alloc_f5ffd2fd1476bab43ad89fb40c72d0c5, [16 x i8] c"\0A\00\00\00\00\00\00\00Y\00\00\00\08\00\00\00" }>, align 8
@alloc_0d0b385b4bd442ab4dc062d6018f2682 = private unnamed_addr constant <{ ptr, [16 x i8] }> <{ ptr @alloc_f5ffd2fd1476bab43ad89fb40c72d0c5, [16 x i8] c"\0A\00\00\00\00\00\00\00\\\00\00\00\18\00\00\00" }>, align 8
@alloc_a7719f03fef2466a9c2c85bc9a7335b9 = private unnamed_addr constant <{ ptr, [16 x i8] }> <{ ptr @alloc_f5ffd2fd1476bab43ad89fb40c72d0c5, [16 x i8] c"\0A\00\00\00\00\00\00\00d\00\00\00\05\00\00\00" }>, align 8
@alloc_450171e86de59dbae00fbb1e9c5a45bc = private unnamed_addr constant <{ ptr, [16 x i8] }> <{ ptr @alloc_f5ffd2fd1476bab43ad89fb40c72d0c5, [16 x i8] c"\0A\00\00\00\00\00\00\00e\00\00\00\05\00\00\00" }>, align 8
@alloc_ed842d3a2a3e93c7ae0fc91ef014b45f = private unnamed_addr constant <{ ptr, [16 x i8] }> <{ ptr @alloc_f5ffd2fd1476bab43ad89fb40c72d0c5, [16 x i8] c"\0A\00\00\00\00\00\00\00f\00\00\00\05\00\00\00" }>, align 8
@alloc_4f51d414e5eb3fd04e2482f6604aa387 = private unnamed_addr constant <{ ptr, [16 x i8] }> <{ ptr @alloc_f5ffd2fd1476bab43ad89fb40c72d0c5, [16 x i8] c"\0A\00\00\00\00\00\00\00g\00\00\00\08\00\00\00" }>, align 8
@alloc_9731ae733a0e921fea755ae51970bc06 = private unnamed_addr constant <{ ptr, [16 x i8] }> <{ ptr @alloc_f5ffd2fd1476bab43ad89fb40c72d0c5, [16 x i8] c"\0A\00\00\00\00\00\00\00j\00\00\00\17\00\00\00" }>, align 8
@alloc_a6856c993e51b435a742ede9eecdb74c = private unnamed_addr constant <{ ptr, [16 x i8] }> <{ ptr @alloc_f5ffd2fd1476bab43ad89fb40c72d0c5, [16 x i8] c"\0A\00\00\00\00\00\00\00n\00\00\00\19\00\00\00" }>, align 8
@alloc_32bcae89ae4c10b0eed602eeffddef8d = private unnamed_addr constant <{ ptr, [16 x i8] }> <{ ptr @alloc_f5ffd2fd1476bab43ad89fb40c72d0c5, [16 x i8] c"\0A\00\00\00\00\00\00\00u\00\00\00\1F\00\00\00" }>, align 8
@alloc_0d768feed04930a8a88bc9dff7b72c21 = private unnamed_addr constant <{ ptr, [16 x i8] }> <{ ptr @alloc_f5ffd2fd1476bab43ad89fb40c72d0c5, [16 x i8] c"\0A\00\00\00\00\00\00\00w\00\00\00\15\00\00\00" }>, align 8
@alloc_adae5dbe55394693430944bd2afed518 = private unnamed_addr constant <{ ptr, [16 x i8] }> <{ ptr @alloc_f5ffd2fd1476bab43ad89fb40c72d0c5, [16 x i8] c"\0A\00\00\00\00\00\00\00o\00\00\00\1F\00\00\00" }>, align 8
@alloc_674eb94a811622e830a5c6a030cc5c65 = private unnamed_addr constant <{ ptr, [16 x i8] }> <{ ptr @alloc_f5ffd2fd1476bab43ad89fb40c72d0c5, [16 x i8] c"\0A\00\00\00\00\00\00\00q\00\00\00\15\00\00\00" }>, align 8
@alloc_1aa9c3ab3ec38e0d3207d2e5ac4937bd = private unnamed_addr constant <{ ptr, [16 x i8] }> <{ ptr @alloc_f5ffd2fd1476bab43ad89fb40c72d0c5, [16 x i8] c"\0A\00\00\00\00\00\00\00h\00\00\00\09\00\00\00" }>, align 8
@alloc_b929c71616281bfd1be2bd4038d3ddf1 = private unnamed_addr constant [4 x i8] c"%d \00", align 1
@alloc_276be0ddd1c8c91aedee9a36723cd5cf = private unnamed_addr constant <{ ptr, [16 x i8] }> <{ ptr @alloc_f5ffd2fd1476bab43ad89fb40c72d0c5, [16 x i8] c"\0A\00\00\00\00\00\00\00\83\00\00\00:\00\00\00" }>, align 8
@alloc_18f6a75514ee4e9cc79209d42191fa92 = private unnamed_addr constant <{ ptr, [16 x i8] }> <{ ptr @alloc_f5ffd2fd1476bab43ad89fb40c72d0c5, [16 x i8] c"\0A\00\00\00\00\00\00\00\84\00\00\00\13\00\00\00" }>, align 8
@alloc_4d24cfbce8a114a13557034aef0d48fb = private unnamed_addr constant <{ ptr, [16 x i8] }> <{ ptr @alloc_f5ffd2fd1476bab43ad89fb40c72d0c5, [16 x i8] c"\0A\00\00\00\00\00\00\00\85\00\00\00\13\00\00\00" }>, align 8

; core::ptr::mut_ptr::<impl *mut T>::is_null
; Function Attrs: inlinehint nounwind nonlazybind
define internal zeroext i1 @"_ZN4core3ptr7mut_ptr31_$LT$impl$u20$$BP$mut$u20$T$GT$7is_null17h16ce851c4a7ab182E"(ptr %self) unnamed_addr #0 {
start:
  %_3 = ptrtoint ptr %self to i64
  %_0 = icmp eq i64 %_3, 0
  ret i1 %_0
}

; Function Attrs: nounwind nonlazybind
define ptr @deleteNode(ptr %0, i32 %value) unnamed_addr #1 {
start:
  %_0 = alloca [8 x i8], align 8
  %currentNode = alloca [8 x i8], align 8
  store ptr %0, ptr %currentNode, align 8
  %_4 = load ptr, ptr %currentNode, align 8
; call core::ptr::mut_ptr::<impl *mut T>::is_null
  %_3 = call zeroext i1 @"_ZN4core3ptr7mut_ptr31_$LT$impl$u20$$BP$mut$u20$T$GT$7is_null17h16ce851c4a7ab182E"(ptr %_4) #3
  br i1 %_3, label %bb2, label %bb3

bb3:                                              ; preds = %start
  %_131 = load ptr, ptr %currentNode, align 8
  %_132 = ptrtoint ptr %_131 to i64
  %_135 = and i64 %_132, 7
  %_136 = icmp eq i64 %_135, 0
  br i1 %_136, label %bb42, label %panic

bb2:                                              ; preds = %start
  store ptr null, ptr %_0, align 8
  br label %bb24

bb42:                                             ; preds = %bb3
  %_137 = load ptr, ptr %currentNode, align 8
  %_138 = ptrtoint ptr %_137 to i64
  %_141 = icmp eq i64 %_138, 0
  %_142 = and i1 %_141, true
  %_143 = xor i1 %_142, true
  br i1 %_143, label %bb43, label %panic1

panic:                                            ; preds = %bb3
; call core::panicking::panic_misaligned_pointer_dereference
  call void @_ZN4core9panicking36panic_misaligned_pointer_dereference17hcc3cbded9382b6e5E(i64 8, i64 %_132, ptr align 8 @alloc_a5b0153b64ce9fb086bbe49abac09c13) #4
  unreachable

bb43:                                             ; preds = %bb42
  %1 = load ptr, ptr %currentNode, align 8
  %_6 = load i32, ptr %1, align 8
  %_5 = icmp slt i32 %value, %_6
  br i1 %_5, label %bb4, label %bb6

panic1:                                           ; preds = %bb42
; call core::panicking::panic_null_pointer_dereference
  call void @_ZN4core9panicking30panic_null_pointer_dereference17hf718fcc86a223baaE(ptr align 8 @alloc_a5b0153b64ce9fb086bbe49abac09c13) #4
  unreachable

bb6:                                              ; preds = %bb43
  %_113 = load ptr, ptr %currentNode, align 8
  %_114 = ptrtoint ptr %_113 to i64
  %_117 = and i64 %_114, 7
  %_118 = icmp eq i64 %_117, 0
  br i1 %_118, label %bb39, label %panic2

bb4:                                              ; preds = %bb43
  %_125 = load ptr, ptr %currentNode, align 8
  %_126 = ptrtoint ptr %_125 to i64
  %_129 = and i64 %_126, 7
  %_130 = icmp eq i64 %_129, 0
  br i1 %_130, label %bb41, label %panic32

bb39:                                             ; preds = %bb6
  %_158 = load ptr, ptr %currentNode, align 8
  %_159 = ptrtoint ptr %_158 to i64
  %_162 = icmp eq i64 %_159, 0
  %_163 = and i1 %_162, true
  %_164 = xor i1 %_163, true
  br i1 %_164, label %bb46, label %panic3

panic2:                                           ; preds = %bb6
; call core::panicking::panic_misaligned_pointer_dereference
  call void @_ZN4core9panicking36panic_misaligned_pointer_dereference17hcc3cbded9382b6e5E(i64 8, i64 %_114, ptr align 8 @alloc_620736c10c680a47826600779f2fe8b0) #4
  unreachable

bb46:                                             ; preds = %bb39
  %2 = load ptr, ptr %currentNode, align 8
  %_10 = load i32, ptr %2, align 8
  %_9 = icmp sgt i32 %value, %_10
  br i1 %_9, label %bb7, label %bb9

panic3:                                           ; preds = %bb39
; call core::panicking::panic_null_pointer_dereference
  call void @_ZN4core9panicking30panic_null_pointer_dereference17hf718fcc86a223baaE(ptr align 8 @alloc_620736c10c680a47826600779f2fe8b0) #4
  unreachable

bb9:                                              ; preds = %bb46
  %_95 = load ptr, ptr %currentNode, align 8
  %_96 = ptrtoint ptr %_95 to i64
  %_99 = and i64 %_96, 7
  %_100 = icmp eq i64 %_99, 0
  br i1 %_100, label %bb36, label %panic4

bb7:                                              ; preds = %bb46
  %_107 = load ptr, ptr %currentNode, align 8
  %_108 = ptrtoint ptr %_107 to i64
  %_111 = and i64 %_108, 7
  %_112 = icmp eq i64 %_111, 0
  br i1 %_112, label %bb38, label %panic28

bb36:                                             ; preds = %bb9
  %_179 = load ptr, ptr %currentNode, align 8
  %_180 = ptrtoint ptr %_179 to i64
  %_183 = icmp eq i64 %_180, 0
  %_184 = and i1 %_183, true
  %_185 = xor i1 %_184, true
  br i1 %_185, label %bb49, label %panic5

panic4:                                           ; preds = %bb9
; call core::panicking::panic_misaligned_pointer_dereference
  call void @_ZN4core9panicking36panic_misaligned_pointer_dereference17hcc3cbded9382b6e5E(i64 8, i64 %_96, ptr align 8 @alloc_2f8634760784bdab8d450ddc5940e55b) #4
  unreachable

bb49:                                             ; preds = %bb36
  %3 = load ptr, ptr %currentNode, align 8
  %4 = getelementptr inbounds i8, ptr %3, i64 8
  %_14 = load ptr, ptr %4, align 8
; call core::ptr::mut_ptr::<impl *mut T>::is_null
  %_13 = call zeroext i1 @"_ZN4core3ptr7mut_ptr31_$LT$impl$u20$$BP$mut$u20$T$GT$7is_null17h16ce851c4a7ab182E"(ptr %_14) #3
  br i1 %_13, label %bb11, label %bb14

panic5:                                           ; preds = %bb36
; call core::panicking::panic_null_pointer_dereference
  call void @_ZN4core9panicking30panic_null_pointer_dereference17hf718fcc86a223baaE(ptr align 8 @alloc_2f8634760784bdab8d450ddc5940e55b) #4
  unreachable

bb14:                                             ; preds = %bb50, %bb49
  %_83 = load ptr, ptr %currentNode, align 8
  %_84 = ptrtoint ptr %_83 to i64
  %_87 = and i64 %_84, 7
  %_88 = icmp eq i64 %_87, 0
  br i1 %_88, label %bb34, label %panic8

bb11:                                             ; preds = %bb49
  %_89 = load ptr, ptr %currentNode, align 8
  %_90 = ptrtoint ptr %_89 to i64
  %_93 = and i64 %_90, 7
  %_94 = icmp eq i64 %_93, 0
  br i1 %_94, label %bb35, label %panic6

bb35:                                             ; preds = %bb11
  %_186 = load ptr, ptr %currentNode, align 8
  %_187 = ptrtoint ptr %_186 to i64
  %_190 = icmp eq i64 %_187, 0
  %_191 = and i1 %_190, true
  %_192 = xor i1 %_191, true
  br i1 %_192, label %bb50, label %panic7

panic6:                                           ; preds = %bb11
; call core::panicking::panic_misaligned_pointer_dereference
  call void @_ZN4core9panicking36panic_misaligned_pointer_dereference17hcc3cbded9382b6e5E(i64 8, i64 %_90, ptr align 8 @alloc_ec40ccda9e1f90f1fc6e04d7d1f47049) #4
  unreachable

bb50:                                             ; preds = %bb35
  %5 = load ptr, ptr %currentNode, align 8
  %6 = getelementptr inbounds i8, ptr %5, i64 16
  %_16 = load ptr, ptr %6, align 8
; call core::ptr::mut_ptr::<impl *mut T>::is_null
  %_15 = call zeroext i1 @"_ZN4core3ptr7mut_ptr31_$LT$impl$u20$$BP$mut$u20$T$GT$7is_null17h16ce851c4a7ab182E"(ptr %_16) #3
  br i1 %_15, label %bb13, label %bb14

panic7:                                           ; preds = %bb35
; call core::panicking::panic_null_pointer_dereference
  call void @_ZN4core9panicking30panic_null_pointer_dereference17hf718fcc86a223baaE(ptr align 8 @alloc_ec40ccda9e1f90f1fc6e04d7d1f47049) #4
  unreachable

bb13:                                             ; preds = %bb50
  store ptr null, ptr %currentNode, align 8
  br label %bb23

bb34:                                             ; preds = %bb14
  %_193 = load ptr, ptr %currentNode, align 8
  %_194 = ptrtoint ptr %_193 to i64
  %_197 = icmp eq i64 %_194, 0
  %_198 = and i1 %_197, true
  %_199 = xor i1 %_198, true
  br i1 %_199, label %bb51, label %panic9

panic8:                                           ; preds = %bb14
; call core::panicking::panic_misaligned_pointer_dereference
  call void @_ZN4core9panicking36panic_misaligned_pointer_dereference17hcc3cbded9382b6e5E(i64 8, i64 %_84, ptr align 8 @alloc_529d468218a0bdb07f002d03e57f85eb) #4
  unreachable

bb51:                                             ; preds = %bb34
  %7 = load ptr, ptr %currentNode, align 8
  %8 = getelementptr inbounds i8, ptr %7, i64 8
  %_18 = load ptr, ptr %8, align 8
; call core::ptr::mut_ptr::<impl *mut T>::is_null
  %_17 = call zeroext i1 @"_ZN4core3ptr7mut_ptr31_$LT$impl$u20$$BP$mut$u20$T$GT$7is_null17h16ce851c4a7ab182E"(ptr %_18) #3
  br i1 %_17, label %bb16, label %bb17

panic9:                                           ; preds = %bb34
; call core::panicking::panic_null_pointer_dereference
  call void @_ZN4core9panicking30panic_null_pointer_dereference17hf718fcc86a223baaE(ptr align 8 @alloc_529d468218a0bdb07f002d03e57f85eb) #4
  unreachable

bb17:                                             ; preds = %bb51
  %_71 = load ptr, ptr %currentNode, align 8
  %_72 = ptrtoint ptr %_71 to i64
  %_75 = and i64 %_72, 7
  %_76 = icmp eq i64 %_75, 0
  br i1 %_76, label %bb32, label %panic10

bb16:                                             ; preds = %bb51
  %_77 = load ptr, ptr %currentNode, align 8
  %_78 = ptrtoint ptr %_77 to i64
  %_81 = and i64 %_78, 7
  %_82 = icmp eq i64 %_81, 0
  br i1 %_82, label %bb33, label %panic26

bb32:                                             ; preds = %bb17
  %_207 = load ptr, ptr %currentNode, align 8
  %_208 = ptrtoint ptr %_207 to i64
  %_211 = icmp eq i64 %_208, 0
  %_212 = and i1 %_211, true
  %_213 = xor i1 %_212, true
  br i1 %_213, label %bb53, label %panic11

panic10:                                          ; preds = %bb17
; call core::panicking::panic_misaligned_pointer_dereference
  call void @_ZN4core9panicking36panic_misaligned_pointer_dereference17hcc3cbded9382b6e5E(i64 8, i64 %_72, ptr align 8 @alloc_1b079427a9a2d0fa28f6d95417650b17) #4
  unreachable

bb53:                                             ; preds = %bb32
  %9 = load ptr, ptr %currentNode, align 8
  %10 = getelementptr inbounds i8, ptr %9, i64 16
  %_21 = load ptr, ptr %10, align 8
; call core::ptr::mut_ptr::<impl *mut T>::is_null
  %_20 = call zeroext i1 @"_ZN4core3ptr7mut_ptr31_$LT$impl$u20$$BP$mut$u20$T$GT$7is_null17h16ce851c4a7ab182E"(ptr %_21) #3
  br i1 %_20, label %bb19, label %bb20

panic11:                                          ; preds = %bb32
; call core::panicking::panic_null_pointer_dereference
  call void @_ZN4core9panicking30panic_null_pointer_dereference17hf718fcc86a223baaE(ptr align 8 @alloc_1b079427a9a2d0fa28f6d95417650b17) #4
  unreachable

bb20:                                             ; preds = %bb53
  %_59 = load ptr, ptr %currentNode, align 8
  %_60 = ptrtoint ptr %_59 to i64
  %_63 = and i64 %_60, 7
  %_64 = icmp eq i64 %_63, 0
  br i1 %_64, label %bb30, label %panic12

bb19:                                             ; preds = %bb53
  %_65 = load ptr, ptr %currentNode, align 8
  %_66 = ptrtoint ptr %_65 to i64
  %_69 = and i64 %_66, 7
  %_70 = icmp eq i64 %_69, 0
  br i1 %_70, label %bb31, label %panic24

bb30:                                             ; preds = %bb20
  %_221 = load ptr, ptr %currentNode, align 8
  %_222 = ptrtoint ptr %_221 to i64
  %_225 = icmp eq i64 %_222, 0
  %_226 = and i1 %_225, true
  %_227 = xor i1 %_226, true
  br i1 %_227, label %bb55, label %panic13

panic12:                                          ; preds = %bb20
; call core::panicking::panic_misaligned_pointer_dereference
  call void @_ZN4core9panicking36panic_misaligned_pointer_dereference17hcc3cbded9382b6e5E(i64 8, i64 %_60, ptr align 8 @alloc_091715f619090ee08b4f8f12961970d2) #4
  unreachable

bb55:                                             ; preds = %bb30
  %11 = load ptr, ptr %currentNode, align 8
  %12 = getelementptr inbounds i8, ptr %11, i64 16
  %_24 = load ptr, ptr %12, align 8
  %tempNode = call ptr @findMinimum(ptr %_24) #3
  %_54 = ptrtoint ptr %tempNode to i64
  %_57 = and i64 %_54, 7
  %_58 = icmp eq i64 %_57, 0
  br i1 %_58, label %bb29, label %panic14

panic13:                                          ; preds = %bb30
; call core::panicking::panic_null_pointer_dereference
  call void @_ZN4core9panicking30panic_null_pointer_dereference17hf718fcc86a223baaE(ptr align 8 @alloc_091715f619090ee08b4f8f12961970d2) #4
  unreachable

bb29:                                             ; preds = %bb55
  %_229 = ptrtoint ptr %tempNode to i64
  %_232 = icmp eq i64 %_229, 0
  %_233 = and i1 %_232, true
  %_234 = xor i1 %_233, true
  br i1 %_234, label %bb56, label %panic15

panic14:                                          ; preds = %bb55
; call core::panicking::panic_misaligned_pointer_dereference
  call void @_ZN4core9panicking36panic_misaligned_pointer_dereference17hcc3cbded9382b6e5E(i64 8, i64 %_54, ptr align 8 @alloc_6a0532ce3a0fb02ce2733c805e88480e) #4
  unreachable

bb56:                                             ; preds = %bb29
  %_25 = load i32, ptr %tempNode, align 8
  %_47 = load ptr, ptr %currentNode, align 8
  %_48 = ptrtoint ptr %_47 to i64
  %_51 = and i64 %_48, 7
  %_52 = icmp eq i64 %_51, 0
  br i1 %_52, label %bb28, label %panic16

panic15:                                          ; preds = %bb29
; call core::panicking::panic_null_pointer_dereference
  call void @_ZN4core9panicking30panic_null_pointer_dereference17hf718fcc86a223baaE(ptr align 8 @alloc_6a0532ce3a0fb02ce2733c805e88480e) #4
  unreachable

bb28:                                             ; preds = %bb56
  %_235 = load ptr, ptr %currentNode, align 8
  %_236 = ptrtoint ptr %_235 to i64
  %_239 = icmp eq i64 %_236, 0
  %_240 = and i1 %_239, true
  %_241 = xor i1 %_240, true
  br i1 %_241, label %bb57, label %panic17

panic16:                                          ; preds = %bb56
; call core::panicking::panic_misaligned_pointer_dereference
  call void @_ZN4core9panicking36panic_misaligned_pointer_dereference17hcc3cbded9382b6e5E(i64 8, i64 %_48, ptr align 8 @alloc_aad1b153ad67dca377fd0f3c9944bfa6) #4
  unreachable

bb57:                                             ; preds = %bb28
  %13 = load ptr, ptr %currentNode, align 8
  store i32 %_25, ptr %13, align 8
  %_41 = load ptr, ptr %currentNode, align 8
  %_42 = ptrtoint ptr %_41 to i64
  %_45 = and i64 %_42, 7
  %_46 = icmp eq i64 %_45, 0
  br i1 %_46, label %bb27, label %panic18

panic17:                                          ; preds = %bb28
; call core::panicking::panic_null_pointer_dereference
  call void @_ZN4core9panicking30panic_null_pointer_dereference17hf718fcc86a223baaE(ptr align 8 @alloc_aad1b153ad67dca377fd0f3c9944bfa6) #4
  unreachable

bb27:                                             ; preds = %bb57
  %_242 = load ptr, ptr %currentNode, align 8
  %_243 = ptrtoint ptr %_242 to i64
  %_246 = icmp eq i64 %_243, 0
  %_247 = and i1 %_246, true
  %_248 = xor i1 %_247, true
  br i1 %_248, label %bb58, label %panic19

panic18:                                          ; preds = %bb57
; call core::panicking::panic_misaligned_pointer_dereference
  call void @_ZN4core9panicking36panic_misaligned_pointer_dereference17hcc3cbded9382b6e5E(i64 8, i64 %_42, ptr align 8 @alloc_6b29f5e62535ca8b6970a96a62232e09) #4
  unreachable

bb58:                                             ; preds = %bb27
  %14 = load ptr, ptr %currentNode, align 8
  %15 = getelementptr inbounds i8, ptr %14, i64 16
  %_27 = load ptr, ptr %15, align 8
  %_36 = ptrtoint ptr %tempNode to i64
  %_39 = and i64 %_36, 7
  %_40 = icmp eq i64 %_39, 0
  br i1 %_40, label %bb26, label %panic20

panic19:                                          ; preds = %bb27
; call core::panicking::panic_null_pointer_dereference
  call void @_ZN4core9panicking30panic_null_pointer_dereference17hf718fcc86a223baaE(ptr align 8 @alloc_6b29f5e62535ca8b6970a96a62232e09) #4
  unreachable

bb26:                                             ; preds = %bb58
  %_250 = ptrtoint ptr %tempNode to i64
  %_253 = icmp eq i64 %_250, 0
  %_254 = and i1 %_253, true
  %_255 = xor i1 %_254, true
  br i1 %_255, label %bb59, label %panic21

panic20:                                          ; preds = %bb58
; call core::panicking::panic_misaligned_pointer_dereference
  call void @_ZN4core9panicking36panic_misaligned_pointer_dereference17hcc3cbded9382b6e5E(i64 8, i64 %_36, ptr align 8 @alloc_03e1f55d7a74a673c2a0dd3db0cb1f3c) #4
  unreachable

bb59:                                             ; preds = %bb26
  %_28 = load i32, ptr %tempNode, align 8
  %_26 = call ptr @deleteNode(ptr %_27, i32 %_28) #3
  %_29 = load ptr, ptr %currentNode, align 8
  %_30 = ptrtoint ptr %_29 to i64
  %_33 = and i64 %_30, 7
  %_34 = icmp eq i64 %_33, 0
  br i1 %_34, label %bb25, label %panic22

panic21:                                          ; preds = %bb26
; call core::panicking::panic_null_pointer_dereference
  call void @_ZN4core9panicking30panic_null_pointer_dereference17hf718fcc86a223baaE(ptr align 8 @alloc_03e1f55d7a74a673c2a0dd3db0cb1f3c) #4
  unreachable

bb25:                                             ; preds = %bb59
  %_256 = load ptr, ptr %currentNode, align 8
  %_257 = ptrtoint ptr %_256 to i64
  %_260 = icmp eq i64 %_257, 0
  %_261 = and i1 %_260, true
  %_262 = xor i1 %_261, true
  br i1 %_262, label %bb60, label %panic23

panic22:                                          ; preds = %bb59
; call core::panicking::panic_misaligned_pointer_dereference
  call void @_ZN4core9panicking36panic_misaligned_pointer_dereference17hcc3cbded9382b6e5E(i64 8, i64 %_30, ptr align 8 @alloc_48b505e14fb771830a694fa0a2d37e03) #4
  unreachable

bb60:                                             ; preds = %bb25
  %16 = load ptr, ptr %currentNode, align 8
  %17 = getelementptr inbounds i8, ptr %16, i64 16
  store ptr %_26, ptr %17, align 8
  br label %bb23

panic23:                                          ; preds = %bb25
; call core::panicking::panic_null_pointer_dereference
  call void @_ZN4core9panicking30panic_null_pointer_dereference17hf718fcc86a223baaE(ptr align 8 @alloc_48b505e14fb771830a694fa0a2d37e03) #4
  unreachable

bb23:                                             ; preds = %bb45, %bb48, %bb13, %bb52, %bb54, %bb60
  %18 = load ptr, ptr %currentNode, align 8
  store ptr %18, ptr %_0, align 8
  br label %bb24

bb31:                                             ; preds = %bb19
  %_214 = load ptr, ptr %currentNode, align 8
  %_215 = ptrtoint ptr %_214 to i64
  %_218 = icmp eq i64 %_215, 0
  %_219 = and i1 %_218, true
  %_220 = xor i1 %_219, true
  br i1 %_220, label %bb54, label %panic25

panic24:                                          ; preds = %bb19
; call core::panicking::panic_misaligned_pointer_dereference
  call void @_ZN4core9panicking36panic_misaligned_pointer_dereference17hcc3cbded9382b6e5E(i64 8, i64 %_66, ptr align 8 @alloc_53185fca74415ddd9e071af3166200c6) #4
  unreachable

bb54:                                             ; preds = %bb31
  %19 = load ptr, ptr %currentNode, align 8
  %20 = getelementptr inbounds i8, ptr %19, i64 8
  %_22 = load ptr, ptr %20, align 8
  store ptr %_22, ptr %currentNode, align 8
  br label %bb23

panic25:                                          ; preds = %bb31
; call core::panicking::panic_null_pointer_dereference
  call void @_ZN4core9panicking30panic_null_pointer_dereference17hf718fcc86a223baaE(ptr align 8 @alloc_53185fca74415ddd9e071af3166200c6) #4
  unreachable

bb33:                                             ; preds = %bb16
  %_200 = load ptr, ptr %currentNode, align 8
  %_201 = ptrtoint ptr %_200 to i64
  %_204 = icmp eq i64 %_201, 0
  %_205 = and i1 %_204, true
  %_206 = xor i1 %_205, true
  br i1 %_206, label %bb52, label %panic27

panic26:                                          ; preds = %bb16
; call core::panicking::panic_misaligned_pointer_dereference
  call void @_ZN4core9panicking36panic_misaligned_pointer_dereference17hcc3cbded9382b6e5E(i64 8, i64 %_78, ptr align 8 @alloc_c2e75e837da10c2cc87e6750356497bf) #4
  unreachable

bb52:                                             ; preds = %bb33
  %21 = load ptr, ptr %currentNode, align 8
  %22 = getelementptr inbounds i8, ptr %21, i64 16
  %_19 = load ptr, ptr %22, align 8
  store ptr %_19, ptr %currentNode, align 8
  br label %bb23

panic27:                                          ; preds = %bb33
; call core::panicking::panic_null_pointer_dereference
  call void @_ZN4core9panicking30panic_null_pointer_dereference17hf718fcc86a223baaE(ptr align 8 @alloc_c2e75e837da10c2cc87e6750356497bf) #4
  unreachable

bb38:                                             ; preds = %bb7
  %_165 = load ptr, ptr %currentNode, align 8
  %_166 = ptrtoint ptr %_165 to i64
  %_169 = icmp eq i64 %_166, 0
  %_170 = and i1 %_169, true
  %_171 = xor i1 %_170, true
  br i1 %_171, label %bb47, label %panic29

panic28:                                          ; preds = %bb7
; call core::panicking::panic_misaligned_pointer_dereference
  call void @_ZN4core9panicking36panic_misaligned_pointer_dereference17hcc3cbded9382b6e5E(i64 8, i64 %_108, ptr align 8 @alloc_f294084b9e675466f0ac902f9bc29232) #4
  unreachable

bb47:                                             ; preds = %bb38
  %23 = load ptr, ptr %currentNode, align 8
  %24 = getelementptr inbounds i8, ptr %23, i64 16
  %_12 = load ptr, ptr %24, align 8
  %_11 = call ptr @deleteNode(ptr %_12, i32 %value) #3
  %_101 = load ptr, ptr %currentNode, align 8
  %_102 = ptrtoint ptr %_101 to i64
  %_105 = and i64 %_102, 7
  %_106 = icmp eq i64 %_105, 0
  br i1 %_106, label %bb37, label %panic30

panic29:                                          ; preds = %bb38
; call core::panicking::panic_null_pointer_dereference
  call void @_ZN4core9panicking30panic_null_pointer_dereference17hf718fcc86a223baaE(ptr align 8 @alloc_f294084b9e675466f0ac902f9bc29232) #4
  unreachable

bb37:                                             ; preds = %bb47
  %_172 = load ptr, ptr %currentNode, align 8
  %_173 = ptrtoint ptr %_172 to i64
  %_176 = icmp eq i64 %_173, 0
  %_177 = and i1 %_176, true
  %_178 = xor i1 %_177, true
  br i1 %_178, label %bb48, label %panic31

panic30:                                          ; preds = %bb47
; call core::panicking::panic_misaligned_pointer_dereference
  call void @_ZN4core9panicking36panic_misaligned_pointer_dereference17hcc3cbded9382b6e5E(i64 8, i64 %_102, ptr align 8 @alloc_93f542bb911f596888750692fcb70c80) #4
  unreachable

bb48:                                             ; preds = %bb37
  %25 = load ptr, ptr %currentNode, align 8
  %26 = getelementptr inbounds i8, ptr %25, i64 16
  store ptr %_11, ptr %26, align 8
  br label %bb23

panic31:                                          ; preds = %bb37
; call core::panicking::panic_null_pointer_dereference
  call void @_ZN4core9panicking30panic_null_pointer_dereference17hf718fcc86a223baaE(ptr align 8 @alloc_93f542bb911f596888750692fcb70c80) #4
  unreachable

bb41:                                             ; preds = %bb4
  %_144 = load ptr, ptr %currentNode, align 8
  %_145 = ptrtoint ptr %_144 to i64
  %_148 = icmp eq i64 %_145, 0
  %_149 = and i1 %_148, true
  %_150 = xor i1 %_149, true
  br i1 %_150, label %bb44, label %panic33

panic32:                                          ; preds = %bb4
; call core::panicking::panic_misaligned_pointer_dereference
  call void @_ZN4core9panicking36panic_misaligned_pointer_dereference17hcc3cbded9382b6e5E(i64 8, i64 %_126, ptr align 8 @alloc_37e6d46e3cdf1fe898702fc37da021a3) #4
  unreachable

bb44:                                             ; preds = %bb41
  %27 = load ptr, ptr %currentNode, align 8
  %28 = getelementptr inbounds i8, ptr %27, i64 8
  %_8 = load ptr, ptr %28, align 8
  %_7 = call ptr @deleteNode(ptr %_8, i32 %value) #3
  %_119 = load ptr, ptr %currentNode, align 8
  %_120 = ptrtoint ptr %_119 to i64
  %_123 = and i64 %_120, 7
  %_124 = icmp eq i64 %_123, 0
  br i1 %_124, label %bb40, label %panic34

panic33:                                          ; preds = %bb41
; call core::panicking::panic_null_pointer_dereference
  call void @_ZN4core9panicking30panic_null_pointer_dereference17hf718fcc86a223baaE(ptr align 8 @alloc_37e6d46e3cdf1fe898702fc37da021a3) #4
  unreachable

bb40:                                             ; preds = %bb44
  %_151 = load ptr, ptr %currentNode, align 8
  %_152 = ptrtoint ptr %_151 to i64
  %_155 = icmp eq i64 %_152, 0
  %_156 = and i1 %_155, true
  %_157 = xor i1 %_156, true
  br i1 %_157, label %bb45, label %panic35

panic34:                                          ; preds = %bb44
; call core::panicking::panic_misaligned_pointer_dereference
  call void @_ZN4core9panicking36panic_misaligned_pointer_dereference17hcc3cbded9382b6e5E(i64 8, i64 %_120, ptr align 8 @alloc_0a7276ce039af27c46eae82d9ce26786) #4
  unreachable

bb45:                                             ; preds = %bb40
  %29 = load ptr, ptr %currentNode, align 8
  %30 = getelementptr inbounds i8, ptr %29, i64 8
  store ptr %_7, ptr %30, align 8
  br label %bb23

panic35:                                          ; preds = %bb40
; call core::panicking::panic_null_pointer_dereference
  call void @_ZN4core9panicking30panic_null_pointer_dereference17hf718fcc86a223baaE(ptr align 8 @alloc_0a7276ce039af27c46eae82d9ce26786) #4
  unreachable

bb24:                                             ; preds = %bb2, %bb23
  %31 = load ptr, ptr %_0, align 8
  ret ptr %31
}

; Function Attrs: nounwind nonlazybind
define ptr @findMinimum(ptr %currentNode) unnamed_addr #1 {
start:
  %_0 = alloca [8 x i8], align 8
  %_12 = ptrtoint ptr %currentNode to i64
  %_15 = and i64 %_12, 7
  %_16 = icmp eq i64 %_15, 0
  br i1 %_16, label %bb6, label %panic

bb6:                                              ; preds = %start
  %_18 = ptrtoint ptr %currentNode to i64
  %_21 = icmp eq i64 %_18, 0
  %_22 = and i1 %_21, true
  %_23 = xor i1 %_22, true
  br i1 %_23, label %bb7, label %panic1

panic:                                            ; preds = %start
; call core::panicking::panic_misaligned_pointer_dereference
  call void @_ZN4core9panicking36panic_misaligned_pointer_dereference17hcc3cbded9382b6e5E(i64 8, i64 %_12, ptr align 8 @alloc_3c79ad7b6bce864e29f449480d67fd10) #4
  unreachable

bb7:                                              ; preds = %bb6
  %0 = getelementptr inbounds i8, ptr %currentNode, i64 8
  %_3 = load ptr, ptr %0, align 8
; call core::ptr::mut_ptr::<impl *mut T>::is_null
  %_2 = call zeroext i1 @"_ZN4core3ptr7mut_ptr31_$LT$impl$u20$$BP$mut$u20$T$GT$7is_null17h16ce851c4a7ab182E"(ptr %_3) #3
  br i1 %_2, label %bb2, label %bb3

panic1:                                           ; preds = %bb6
; call core::panicking::panic_null_pointer_dereference
  call void @_ZN4core9panicking30panic_null_pointer_dereference17hf718fcc86a223baaE(ptr align 8 @alloc_3c79ad7b6bce864e29f449480d67fd10) #4
  unreachable

bb3:                                              ; preds = %bb7
  %_6 = ptrtoint ptr %currentNode to i64
  %_9 = and i64 %_6, 7
  %_10 = icmp eq i64 %_9, 0
  br i1 %_10, label %bb5, label %panic2

bb2:                                              ; preds = %bb7
  store ptr %currentNode, ptr %_0, align 8
  br label %bb4

bb5:                                              ; preds = %bb3
  %_25 = ptrtoint ptr %currentNode to i64
  %_28 = icmp eq i64 %_25, 0
  %_29 = and i1 %_28, true
  %_30 = xor i1 %_29, true
  br i1 %_30, label %bb8, label %panic3

panic2:                                           ; preds = %bb3
; call core::panicking::panic_misaligned_pointer_dereference
  call void @_ZN4core9panicking36panic_misaligned_pointer_dereference17hcc3cbded9382b6e5E(i64 8, i64 %_6, ptr align 8 @alloc_0d0b385b4bd442ab4dc062d6018f2682) #4
  unreachable

bb8:                                              ; preds = %bb5
  %1 = getelementptr inbounds i8, ptr %currentNode, i64 8
  %_4 = load ptr, ptr %1, align 8
  %2 = call ptr @findMinimum(ptr %_4) #3
  store ptr %2, ptr %_0, align 8
  br label %bb4

panic3:                                           ; preds = %bb5
; call core::panicking::panic_null_pointer_dereference
  call void @_ZN4core9panicking30panic_null_pointer_dereference17hf718fcc86a223baaE(ptr align 8 @alloc_0d0b385b4bd442ab4dc062d6018f2682) #4
  unreachable

bb4:                                              ; preds = %bb2, %bb8
  %3 = load ptr, ptr %_0, align 8
  ret ptr %3
}

; Function Attrs: nounwind nonlazybind
define void @insertNode(i32 %value) unnamed_addr #1 {
start:
  %parentNode = alloca [8 x i8], align 8
  %currentNode = alloca [8 x i8], align 8
  %tempNode = alloca [8 x i8], align 8
  store ptr null, ptr %tempNode, align 8
  store ptr null, ptr %currentNode, align 8
  store ptr null, ptr %parentNode, align 8
  %_5 = call ptr @malloc(i64 24) #3
  store ptr %_5, ptr %tempNode, align 8
  %_86 = load ptr, ptr %tempNode, align 8
  %_87 = ptrtoint ptr %_86 to i64
  %_90 = and i64 %_87, 7
  %_91 = icmp eq i64 %_90, 0
  br i1 %_91, label %bb24, label %panic

bb24:                                             ; preds = %start
  %_92 = load ptr, ptr %tempNode, align 8
  %_93 = ptrtoint ptr %_92 to i64
  %_96 = icmp eq i64 %_93, 0
  %_97 = and i1 %_96, true
  %_98 = xor i1 %_97, true
  br i1 %_98, label %bb25, label %panic1

panic:                                            ; preds = %start
; call core::panicking::panic_misaligned_pointer_dereference
  call void @_ZN4core9panicking36panic_misaligned_pointer_dereference17hcc3cbded9382b6e5E(i64 8, i64 %_87, ptr align 8 @alloc_a7719f03fef2466a9c2c85bc9a7335b9) #4
  unreachable

bb25:                                             ; preds = %bb24
  %0 = load ptr, ptr %tempNode, align 8
  store i32 %value, ptr %0, align 8
  %_80 = load ptr, ptr %tempNode, align 8
  %_81 = ptrtoint ptr %_80 to i64
  %_84 = and i64 %_81, 7
  %_85 = icmp eq i64 %_84, 0
  br i1 %_85, label %bb23, label %panic2

panic1:                                           ; preds = %bb24
; call core::panicking::panic_null_pointer_dereference
  call void @_ZN4core9panicking30panic_null_pointer_dereference17hf718fcc86a223baaE(ptr align 8 @alloc_a7719f03fef2466a9c2c85bc9a7335b9) #4
  unreachable

bb23:                                             ; preds = %bb25
  %_99 = load ptr, ptr %tempNode, align 8
  %_100 = ptrtoint ptr %_99 to i64
  %_103 = icmp eq i64 %_100, 0
  %_104 = and i1 %_103, true
  %_105 = xor i1 %_104, true
  br i1 %_105, label %bb26, label %panic3

panic2:                                           ; preds = %bb25
; call core::panicking::panic_misaligned_pointer_dereference
  call void @_ZN4core9panicking36panic_misaligned_pointer_dereference17hcc3cbded9382b6e5E(i64 8, i64 %_81, ptr align 8 @alloc_450171e86de59dbae00fbb1e9c5a45bc) #4
  unreachable

bb26:                                             ; preds = %bb23
  %1 = load ptr, ptr %tempNode, align 8
  %2 = getelementptr inbounds i8, ptr %1, i64 8
  store ptr null, ptr %2, align 8
  %_74 = load ptr, ptr %tempNode, align 8
  %_75 = ptrtoint ptr %_74 to i64
  %_78 = and i64 %_75, 7
  %_79 = icmp eq i64 %_78, 0
  br i1 %_79, label %bb22, label %panic4

panic3:                                           ; preds = %bb23
; call core::panicking::panic_null_pointer_dereference
  call void @_ZN4core9panicking30panic_null_pointer_dereference17hf718fcc86a223baaE(ptr align 8 @alloc_450171e86de59dbae00fbb1e9c5a45bc) #4
  unreachable

bb22:                                             ; preds = %bb26
  %_106 = load ptr, ptr %tempNode, align 8
  %_107 = ptrtoint ptr %_106 to i64
  %_110 = icmp eq i64 %_107, 0
  %_111 = and i1 %_110, true
  %_112 = xor i1 %_111, true
  br i1 %_112, label %bb27, label %panic5

panic4:                                           ; preds = %bb26
; call core::panicking::panic_misaligned_pointer_dereference
  call void @_ZN4core9panicking36panic_misaligned_pointer_dereference17hcc3cbded9382b6e5E(i64 8, i64 %_75, ptr align 8 @alloc_ed842d3a2a3e93c7ae0fc91ef014b45f) #4
  unreachable

bb27:                                             ; preds = %bb22
  %3 = load ptr, ptr %tempNode, align 8
  %4 = getelementptr inbounds i8, ptr %3, i64 16
  store ptr null, ptr %4, align 8
  %_117 = icmp eq i64 ptrtoint (ptr @root to i64), 0
  %_118 = and i1 %_117, true
  %_119 = xor i1 %_118, true
  br i1 %_119, label %bb28, label %panic6

panic5:                                           ; preds = %bb22
; call core::panicking::panic_null_pointer_dereference
  call void @_ZN4core9panicking30panic_null_pointer_dereference17hf718fcc86a223baaE(ptr align 8 @alloc_ed842d3a2a3e93c7ae0fc91ef014b45f) #4
  unreachable

bb28:                                             ; preds = %bb27
  %_9 = load ptr, ptr @root, align 8
; call core::ptr::mut_ptr::<impl *mut T>::is_null
  %_8 = call zeroext i1 @"_ZN4core3ptr7mut_ptr31_$LT$impl$u20$$BP$mut$u20$T$GT$7is_null17h16ce851c4a7ab182E"(ptr %_9) #3
  br i1 %_8, label %bb4, label %bb5

panic6:                                           ; preds = %bb27
; call core::panicking::panic_null_pointer_dereference
  call void @_ZN4core9panicking30panic_null_pointer_dereference17hf718fcc86a223baaE(ptr align 8 @alloc_4f51d414e5eb3fd04e2482f6604aa387) #4
  unreachable

bb5:                                              ; preds = %bb28
  %_131 = icmp eq i64 ptrtoint (ptr @root to i64), 0
  %_132 = and i1 %_131, true
  %_133 = xor i1 %_132, true
  br i1 %_133, label %bb30, label %panic7

bb4:                                              ; preds = %bb28
  %_11 = load ptr, ptr %tempNode, align 8
  %_124 = icmp eq i64 ptrtoint (ptr @root to i64), 0
  %_125 = and i1 %_124, true
  %_126 = xor i1 %_125, true
  br i1 %_126, label %bb29, label %panic18

bb30:                                             ; preds = %bb5
  %_13 = load ptr, ptr @root, align 8
  store ptr %_13, ptr %currentNode, align 8
  store ptr null, ptr %parentNode, align 8
  br label %bb6

panic7:                                           ; preds = %bb5
; call core::panicking::panic_null_pointer_dereference
  call void @_ZN4core9panicking30panic_null_pointer_dereference17hf718fcc86a223baaE(ptr align 8 @alloc_9731ae733a0e921fea755ae51970bc06) #4
  unreachable

bb6:                                              ; preds = %bb32, %bb34, %bb30
  %_15 = load ptr, ptr %currentNode, align 8
  store ptr %_15, ptr %parentNode, align 8
  %_50 = load ptr, ptr %parentNode, align 8
  %_51 = ptrtoint ptr %_50 to i64
  %_54 = and i64 %_51, 7
  %_55 = icmp eq i64 %_54, 0
  br i1 %_55, label %bb18, label %panic8

bb18:                                             ; preds = %bb6
  %_134 = load ptr, ptr %parentNode, align 8
  %_135 = ptrtoint ptr %_134 to i64
  %_138 = icmp eq i64 %_135, 0
  %_139 = and i1 %_138, true
  %_140 = xor i1 %_139, true
  br i1 %_140, label %bb31, label %panic9

panic8:                                           ; preds = %bb6
; call core::panicking::panic_misaligned_pointer_dereference
  call void @_ZN4core9panicking36panic_misaligned_pointer_dereference17hcc3cbded9382b6e5E(i64 8, i64 %_51, ptr align 8 @alloc_a6856c993e51b435a742ede9eecdb74c) #4
  unreachable

bb31:                                             ; preds = %bb18
  %5 = load ptr, ptr %parentNode, align 8
  %_17 = load i32, ptr %5, align 8
  %_16 = icmp sle i32 %value, %_17
  br i1 %_16, label %bb7, label %bb10

panic9:                                           ; preds = %bb18
; call core::panicking::panic_null_pointer_dereference
  call void @_ZN4core9panicking30panic_null_pointer_dereference17hf718fcc86a223baaE(ptr align 8 @alloc_a6856c993e51b435a742ede9eecdb74c) #4
  unreachable

bb10:                                             ; preds = %bb31
  %_32 = load ptr, ptr %currentNode, align 8
  %_33 = ptrtoint ptr %_32 to i64
  %_36 = and i64 %_33, 7
  %_37 = icmp eq i64 %_36, 0
  br i1 %_37, label %bb15, label %panic10

bb7:                                              ; preds = %bb31
  %_44 = load ptr, ptr %currentNode, align 8
  %_45 = ptrtoint ptr %_44 to i64
  %_48 = and i64 %_45, 7
  %_49 = icmp eq i64 %_48, 0
  br i1 %_49, label %bb17, label %panic14

bb15:                                             ; preds = %bb10
  %_155 = load ptr, ptr %currentNode, align 8
  %_156 = ptrtoint ptr %_155 to i64
  %_159 = icmp eq i64 %_156, 0
  %_160 = and i1 %_159, true
  %_161 = xor i1 %_160, true
  br i1 %_161, label %bb34, label %panic11

panic10:                                          ; preds = %bb10
; call core::panicking::panic_misaligned_pointer_dereference
  call void @_ZN4core9panicking36panic_misaligned_pointer_dereference17hcc3cbded9382b6e5E(i64 8, i64 %_33, ptr align 8 @alloc_32bcae89ae4c10b0eed602eeffddef8d) #4
  unreachable

bb34:                                             ; preds = %bb15
  %6 = load ptr, ptr %currentNode, align 8
  %7 = getelementptr inbounds i8, ptr %6, i64 16
  %_22 = load ptr, ptr %7, align 8
  store ptr %_22, ptr %currentNode, align 8
  %_24 = load ptr, ptr %currentNode, align 8
; call core::ptr::mut_ptr::<impl *mut T>::is_null
  %_23 = call zeroext i1 @"_ZN4core3ptr7mut_ptr31_$LT$impl$u20$$BP$mut$u20$T$GT$7is_null17h16ce851c4a7ab182E"(ptr %_24) #3
  br i1 %_23, label %bb12, label %bb6

panic11:                                          ; preds = %bb15
; call core::panicking::panic_null_pointer_dereference
  call void @_ZN4core9panicking30panic_null_pointer_dereference17hf718fcc86a223baaE(ptr align 8 @alloc_32bcae89ae4c10b0eed602eeffddef8d) #4
  unreachable

bb12:                                             ; preds = %bb34
  %_25 = load ptr, ptr %tempNode, align 8
  %_26 = load ptr, ptr %parentNode, align 8
  %_27 = ptrtoint ptr %_26 to i64
  %_30 = and i64 %_27, 7
  %_31 = icmp eq i64 %_30, 0
  br i1 %_31, label %bb14, label %panic12

bb14:                                             ; preds = %bb12
  %_162 = load ptr, ptr %parentNode, align 8
  %_163 = ptrtoint ptr %_162 to i64
  %_166 = icmp eq i64 %_163, 0
  %_167 = and i1 %_166, true
  %_168 = xor i1 %_167, true
  br i1 %_168, label %bb35, label %panic13

panic12:                                          ; preds = %bb12
; call core::panicking::panic_misaligned_pointer_dereference
  call void @_ZN4core9panicking36panic_misaligned_pointer_dereference17hcc3cbded9382b6e5E(i64 8, i64 %_27, ptr align 8 @alloc_0d768feed04930a8a88bc9dff7b72c21) #4
  unreachable

bb35:                                             ; preds = %bb14
  %8 = load ptr, ptr %parentNode, align 8
  %9 = getelementptr inbounds i8, ptr %8, i64 16
  store ptr %_25, ptr %9, align 8
  br label %bb13

panic13:                                          ; preds = %bb14
; call core::panicking::panic_null_pointer_dereference
  call void @_ZN4core9panicking30panic_null_pointer_dereference17hf718fcc86a223baaE(ptr align 8 @alloc_0d768feed04930a8a88bc9dff7b72c21) #4
  unreachable

bb13:                                             ; preds = %bb29, %bb33, %bb35
  ret void

bb17:                                             ; preds = %bb7
  %_141 = load ptr, ptr %currentNode, align 8
  %_142 = ptrtoint ptr %_141 to i64
  %_145 = icmp eq i64 %_142, 0
  %_146 = and i1 %_145, true
  %_147 = xor i1 %_146, true
  br i1 %_147, label %bb32, label %panic15

panic14:                                          ; preds = %bb7
; call core::panicking::panic_misaligned_pointer_dereference
  call void @_ZN4core9panicking36panic_misaligned_pointer_dereference17hcc3cbded9382b6e5E(i64 8, i64 %_45, ptr align 8 @alloc_adae5dbe55394693430944bd2afed518) #4
  unreachable

bb32:                                             ; preds = %bb17
  %10 = load ptr, ptr %currentNode, align 8
  %11 = getelementptr inbounds i8, ptr %10, i64 8
  %_18 = load ptr, ptr %11, align 8
  store ptr %_18, ptr %currentNode, align 8
  %_20 = load ptr, ptr %currentNode, align 8
; call core::ptr::mut_ptr::<impl *mut T>::is_null
  %_19 = call zeroext i1 @"_ZN4core3ptr7mut_ptr31_$LT$impl$u20$$BP$mut$u20$T$GT$7is_null17h16ce851c4a7ab182E"(ptr %_20) #3
  br i1 %_19, label %bb9, label %bb6

panic15:                                          ; preds = %bb17
; call core::panicking::panic_null_pointer_dereference
  call void @_ZN4core9panicking30panic_null_pointer_dereference17hf718fcc86a223baaE(ptr align 8 @alloc_adae5dbe55394693430944bd2afed518) #4
  unreachable

bb9:                                              ; preds = %bb32
  %_21 = load ptr, ptr %tempNode, align 8
  %_38 = load ptr, ptr %parentNode, align 8
  %_39 = ptrtoint ptr %_38 to i64
  %_42 = and i64 %_39, 7
  %_43 = icmp eq i64 %_42, 0
  br i1 %_43, label %bb16, label %panic16

bb16:                                             ; preds = %bb9
  %_148 = load ptr, ptr %parentNode, align 8
  %_149 = ptrtoint ptr %_148 to i64
  %_152 = icmp eq i64 %_149, 0
  %_153 = and i1 %_152, true
  %_154 = xor i1 %_153, true
  br i1 %_154, label %bb33, label %panic17

panic16:                                          ; preds = %bb9
; call core::panicking::panic_misaligned_pointer_dereference
  call void @_ZN4core9panicking36panic_misaligned_pointer_dereference17hcc3cbded9382b6e5E(i64 8, i64 %_39, ptr align 8 @alloc_674eb94a811622e830a5c6a030cc5c65) #4
  unreachable

bb33:                                             ; preds = %bb16
  %12 = load ptr, ptr %parentNode, align 8
  %13 = getelementptr inbounds i8, ptr %12, i64 8
  store ptr %_21, ptr %13, align 8
  br label %bb13

panic17:                                          ; preds = %bb16
; call core::panicking::panic_null_pointer_dereference
  call void @_ZN4core9panicking30panic_null_pointer_dereference17hf718fcc86a223baaE(ptr align 8 @alloc_674eb94a811622e830a5c6a030cc5c65) #4
  unreachable

bb29:                                             ; preds = %bb4
  store ptr %_11, ptr @root, align 8
  br label %bb13

panic18:                                          ; preds = %bb4
; call core::panicking::panic_null_pointer_dereference
  call void @_ZN4core9panicking30panic_null_pointer_dereference17hf718fcc86a223baaE(ptr align 8 @alloc_1aa9c3ab3ec38e0d3207d2e5ac4937bd) #4
  unreachable
}

; Function Attrs: nounwind nonlazybind
define void @preOrderPrint(ptr %root_0) unnamed_addr #1 {
start:
; call core::ptr::mut_ptr::<impl *mut T>::is_null
  %_2 = call zeroext i1 @"_ZN4core3ptr7mut_ptr31_$LT$impl$u20$$BP$mut$u20$T$GT$7is_null17h16ce851c4a7ab182E"(ptr %root_0) #3
  br i1 %_2, label %bb5, label %bb2

bb2:                                              ; preds = %start
  %_26 = ptrtoint ptr %root_0 to i64
  %_29 = and i64 %_26, 7
  %_30 = icmp eq i64 %_29, 0
  br i1 %_30, label %bb8, label %panic

bb5:                                              ; preds = %bb11, %start
  ret void

bb8:                                              ; preds = %bb2
  %_32 = ptrtoint ptr %root_0 to i64
  %_35 = icmp eq i64 %_32, 0
  %_36 = and i1 %_35, true
  %_37 = xor i1 %_36, true
  br i1 %_37, label %bb9, label %panic1

panic:                                            ; preds = %bb2
; call core::panicking::panic_misaligned_pointer_dereference
  call void @_ZN4core9panicking36panic_misaligned_pointer_dereference17hcc3cbded9382b6e5E(i64 8, i64 %_26, ptr align 8 @alloc_276be0ddd1c8c91aedee9a36723cd5cf) #4
  unreachable

bb9:                                              ; preds = %bb8
  %_8 = load i32, ptr %root_0, align 8
  %_3 = call i32 (ptr, ...) @printf(ptr @alloc_b929c71616281bfd1be2bd4038d3ddf1, i32 %_8) #3
  %_20 = ptrtoint ptr %root_0 to i64
  %_23 = and i64 %_20, 7
  %_24 = icmp eq i64 %_23, 0
  br i1 %_24, label %bb7, label %panic2

panic1:                                           ; preds = %bb8
; call core::panicking::panic_null_pointer_dereference
  call void @_ZN4core9panicking30panic_null_pointer_dereference17hf718fcc86a223baaE(ptr align 8 @alloc_276be0ddd1c8c91aedee9a36723cd5cf) #4
  unreachable

bb7:                                              ; preds = %bb9
  %_39 = ptrtoint ptr %root_0 to i64
  %_42 = icmp eq i64 %_39, 0
  %_43 = and i1 %_42, true
  %_44 = xor i1 %_43, true
  br i1 %_44, label %bb10, label %panic3

panic2:                                           ; preds = %bb9
; call core::panicking::panic_misaligned_pointer_dereference
  call void @_ZN4core9panicking36panic_misaligned_pointer_dereference17hcc3cbded9382b6e5E(i64 8, i64 %_20, ptr align 8 @alloc_18f6a75514ee4e9cc79209d42191fa92) #4
  unreachable

bb10:                                             ; preds = %bb7
  %0 = getelementptr inbounds i8, ptr %root_0, i64 8
  %_10 = load ptr, ptr %0, align 8
  call void @preOrderPrint(ptr %_10) #3
  %_14 = ptrtoint ptr %root_0 to i64
  %_17 = and i64 %_14, 7
  %_18 = icmp eq i64 %_17, 0
  br i1 %_18, label %bb6, label %panic4

panic3:                                           ; preds = %bb7
; call core::panicking::panic_null_pointer_dereference
  call void @_ZN4core9panicking30panic_null_pointer_dereference17hf718fcc86a223baaE(ptr align 8 @alloc_18f6a75514ee4e9cc79209d42191fa92) #4
  unreachable

bb6:                                              ; preds = %bb10
  %_46 = ptrtoint ptr %root_0 to i64
  %_49 = icmp eq i64 %_46, 0
  %_50 = and i1 %_49, true
  %_51 = xor i1 %_50, true
  br i1 %_51, label %bb11, label %panic5

panic4:                                           ; preds = %bb10
; call core::panicking::panic_misaligned_pointer_dereference
  call void @_ZN4core9panicking36panic_misaligned_pointer_dereference17hcc3cbded9382b6e5E(i64 8, i64 %_14, ptr align 8 @alloc_4d24cfbce8a114a13557034aef0d48fb) #4
  unreachable

bb11:                                             ; preds = %bb6
  %1 = getelementptr inbounds i8, ptr %root_0, i64 16
  %_12 = load ptr, ptr %1, align 8
  call void @preOrderPrint(ptr %_12) #3
  br label %bb5

panic5:                                           ; preds = %bb6
; call core::panicking::panic_null_pointer_dereference
  call void @_ZN4core9panicking30panic_null_pointer_dereference17hf718fcc86a223baaE(ptr align 8 @alloc_4d24cfbce8a114a13557034aef0d48fb) #4
  unreachable
}

; core::panicking::panic_misaligned_pointer_dereference
; Function Attrs: cold minsize noinline noreturn nounwind nonlazybind optsize
declare void @_ZN4core9panicking36panic_misaligned_pointer_dereference17hcc3cbded9382b6e5E(i64, i64, ptr align 8) unnamed_addr #2

; core::panicking::panic_null_pointer_dereference
; Function Attrs: cold minsize noinline noreturn nounwind nonlazybind optsize
declare void @_ZN4core9panicking30panic_null_pointer_dereference17hf718fcc86a223baaE(ptr align 8) unnamed_addr #2

; Function Attrs: nounwind nonlazybind
declare ptr @malloc(i64) unnamed_addr #1

; Function Attrs: nounwind nonlazybind
declare i32 @printf(ptr, ...) unnamed_addr #1

attributes #0 = { inlinehint nounwind nonlazybind "probe-stack"="inline-asm" "target-cpu"="x86-64" }
attributes #1 = { nounwind nonlazybind "probe-stack"="inline-asm" "target-cpu"="x86-64" }
attributes #2 = { cold minsize noinline noreturn nounwind nonlazybind optsize "probe-stack"="inline-asm" "target-cpu"="x86-64" }
attributes #3 = { nounwind }
attributes #4 = { noreturn nounwind }

!llvm.module.flags = !{!0, !1}
!llvm.ident = !{!2}

!0 = !{i32 8, !"PIC Level", i32 2}
!1 = !{i32 2, !"RtLibUseGOT", i32 1}
!2 = !{!"rustc version 1.88.0-nightly (0b45675cf 2025-03-31)"}
