; ModuleID = '73wznbfdx2pbmcb1njs81uwlh'
source_filename = "73wznbfdx2pbmcb1njs81uwlh"
target datalayout = "e-m:e-p270:32:32-p271:32:32-p272:64:64-i64:64-i128:128-f80:128-n8:16:32:64-S128"
target triple = "x86_64-unknown-linux-gnu"

@alloc_f5ffd2fd1476bab43ad89fb40c72d0c5 = private unnamed_addr constant [10 x i8] c"src/lib.rs", align 1
@alloc_d72a9f8fb4af32f6b0dd8db31663a995 = private unnamed_addr constant <{ ptr, [16 x i8] }> <{ ptr @alloc_f5ffd2fd1476bab43ad89fb40c72d0c5, [16 x i8] c"\0A\00\00\00\00\00\00\00=\00\00\00\09\00\00\00" }>, align 8
@alloc_12949963044e42ed685d8cd48be299bf = private unnamed_addr constant <{ ptr, [16 x i8] }> <{ ptr @alloc_f5ffd2fd1476bab43ad89fb40c72d0c5, [16 x i8] c"\0A\00\00\00\00\00\00\00>\00\00\00\09\00\00\00" }>, align 8
@alloc_7ee74070257268e41eaa2eb93955cf64 = private unnamed_addr constant <{ ptr, [16 x i8] }> <{ ptr @alloc_f5ffd2fd1476bab43ad89fb40c72d0c5, [16 x i8] c"\0A\00\00\00\00\00\00\00?\00\00\00\10\00\00\00" }>, align 8
@alloc_73ed8ca87f1521c96876d2cdbb656763 = private unnamed_addr constant <{ ptr, [16 x i8] }> <{ ptr @alloc_f5ffd2fd1476bab43ad89fb40c72d0c5, [16 x i8] c"\0A\00\00\00\00\00\00\00A\00\00\00\05\00\00\00" }>, align 8
@alloc_5947ff25e7e4824c93b6ab1492d9f46b = private unnamed_addr constant <{ ptr, [16 x i8] }> <{ ptr @alloc_f5ffd2fd1476bab43ad89fb40c72d0c5, [16 x i8] c"\0A\00\00\00\00\00\00\00D\00\00\00\08\00\00\00" }>, align 8
@alloc_df86e900c94cc1f649585c8cd53247f2 = private unnamed_addr constant <{ ptr, [16 x i8] }> <{ ptr @alloc_f5ffd2fd1476bab43ad89fb40c72d0c5, [16 x i8] c"\0A\00\00\00\00\00\00\00H\00\00\00\05\00\00\00" }>, align 8
@alloc_5e508f8b25e8846369e349f2be531966 = private unnamed_addr constant <{ ptr, [16 x i8] }> <{ ptr @alloc_f5ffd2fd1476bab43ad89fb40c72d0c5, [16 x i8] c"\0A\00\00\00\00\00\00\00I\00\00\00\05\00\00\00" }>, align 8
@alloc_2b741aa80e9bacc62157d48afd5adfbd = private unnamed_addr constant <{ ptr, [16 x i8] }> <{ ptr @alloc_f5ffd2fd1476bab43ad89fb40c72d0c5, [16 x i8] c"\0A\00\00\00\00\00\00\00J\00\00\00\05\00\00\00" }>, align 8
@alloc_049f0175afd296b0a10ebf878682152f = private unnamed_addr constant <{ ptr, [16 x i8] }> <{ ptr @alloc_f5ffd2fd1476bab43ad89fb40c72d0c5, [16 x i8] c"\0A\00\00\00\00\00\00\00K\00\00\00\0C\00\00\00" }>, align 8
@alloc_c018e81c44b56d4512225b2248f84799 = private unnamed_addr constant [27 x i8] c"Unable to allocate memory!\00", align 1
@alloc_2e21785ec7e2d2bffd360fb5a6d35da7 = private unnamed_addr constant <{ ptr, [16 x i8] }> <{ ptr @alloc_f5ffd2fd1476bab43ad89fb40c72d0c5, [16 x i8] c"\0A\00\00\00\00\00\00\008\00\00\00\09\00\00\00" }>, align 8
@alloc_54661a6bf4c4c14d833e867732f015c6 = private unnamed_addr constant <{ ptr, [16 x i8] }> <{ ptr @alloc_f5ffd2fd1476bab43ad89fb40c72d0c5, [16 x i8] c"\0A\00\00\00\00\00\00\009\00\00\00\09\00\00\00" }>, align 8
@alloc_34601f51cf681dbfdafdf6e10cdc20f3 = private unnamed_addr constant <{ ptr, [16 x i8] }> <{ ptr @alloc_f5ffd2fd1476bab43ad89fb40c72d0c5, [16 x i8] c"\0A\00\00\00\00\00\00\00:\00\00\00\09\00\00\00" }>, align 8
@alloc_ef2eaabdcbce8865e8a3128d16f5bc14 = private unnamed_addr constant <{ ptr, [16 x i8] }> <{ ptr @alloc_f5ffd2fd1476bab43ad89fb40c72d0c5, [16 x i8] c"\0A\00\00\00\00\00\00\00U\00\00\00\08\00\00\00" }>, align 8
@alloc_7a422a4a419d5657800e10d00a2c1d22 = private unnamed_addr constant <{ ptr, [16 x i8] }> <{ ptr @alloc_f5ffd2fd1476bab43ad89fb40c72d0c5, [16 x i8] c"\0A\00\00\00\00\00\00\00]\00\00\00\1A\00\00\00" }>, align 8
@alloc_6341b233800e0398808c2b1d19675d89 = private unnamed_addr constant <{ ptr, [16 x i8] }> <{ ptr @alloc_f5ffd2fd1476bab43ad89fb40c72d0c5, [16 x i8] c"\0A\00\00\00\00\00\00\00[\00\00\00\1E\00\00\00" }>, align 8

; core::ptr::mut_ptr::<impl *mut T>::is_null
; Function Attrs: inlinehint nounwind nonlazybind
define internal zeroext i1 @"_ZN4core3ptr7mut_ptr31_$LT$impl$u20$$BP$mut$u20$T$GT$7is_null17h269c5702e0f687bdE"(ptr %self) unnamed_addr #0 {
start:
  %_3 = ptrtoint ptr %self to i64
  %_0 = icmp eq i64 %_3, 0
  ret i1 %_0
}

; Function Attrs: nounwind nonlazybind
define ptr @add_digit(ptr %0, i8 signext %value) unnamed_addr #1 {
start:
  %_0 = alloca [8 x i8], align 8
  %digit = alloca [8 x i8], align 8
  store ptr %0, ptr %digit, align 8
  %_4 = load ptr, ptr %digit, align 8
; call core::ptr::mut_ptr::<impl *mut T>::is_null
  %_3 = call zeroext i1 @"_ZN4core3ptr7mut_ptr31_$LT$impl$u20$$BP$mut$u20$T$GT$7is_null17h269c5702e0f687bdE"(ptr %_4) #3
  br i1 %_3, label %bb2, label %bb9

bb9:                                              ; preds = %start
  %_80 = load ptr, ptr %digit, align 8
  %_81 = ptrtoint ptr %_80 to i64
  %_84 = and i64 %_81, 7
  %_85 = icmp eq i64 %_84, 0
  br i1 %_85, label %bb28, label %panic

bb2:                                              ; preds = %start
  %_5 = call ptr @malloc(i64 24) #3
  store ptr %_5, ptr %digit, align 8
  %_9 = load ptr, ptr %digit, align 8
; call core::ptr::mut_ptr::<impl *mut T>::is_null
  %_8 = call zeroext i1 @"_ZN4core3ptr7mut_ptr31_$LT$impl$u20$$BP$mut$u20$T$GT$7is_null17h269c5702e0f687bdE"(ptr %_9) #3
  br i1 %_8, label %bb6, label %bb8

bb28:                                             ; preds = %bb9
  %_125 = load ptr, ptr %digit, align 8
  %_126 = ptrtoint ptr %_125 to i64
  %_129 = icmp eq i64 %_126, 0
  %_130 = and i1 %_129, true
  %_131 = xor i1 %_130, true
  br i1 %_131, label %bb35, label %panic1

panic:                                            ; preds = %bb9
; call core::panicking::panic_misaligned_pointer_dereference
  call void @_ZN4core9panicking36panic_misaligned_pointer_dereference17hcc3cbded9382b6e5E(i64 8, i64 %_81, ptr align 8 @alloc_d72a9f8fb4af32f6b0dd8db31663a995) #4
  unreachable

bb35:                                             ; preds = %bb28
  %1 = load ptr, ptr %digit, align 8
  %2 = getelementptr inbounds i8, ptr %1, i64 8
  %_16 = load ptr, ptr %2, align 8
; call core::ptr::mut_ptr::<impl *mut T>::is_null
  %_15 = call zeroext i1 @"_ZN4core3ptr7mut_ptr31_$LT$impl$u20$$BP$mut$u20$T$GT$7is_null17h269c5702e0f687bdE"(ptr %_16) #3
  br i1 %_15, label %bb11, label %bb12

panic1:                                           ; preds = %bb28
; call core::panicking::panic_null_pointer_dereference
  call void @_ZN4core9panicking30panic_null_pointer_dereference17hf718fcc86a223baaE(ptr align 8 @alloc_d72a9f8fb4af32f6b0dd8db31663a995) #4
  unreachable

bb12:                                             ; preds = %bb35
  %3 = load ptr, ptr %digit, align 8
  %4 = getelementptr inbounds i8, ptr %3, i64 8
  %_28 = load ptr, ptr %4, align 8
  %_75 = ptrtoint ptr %_28 to i64
  %_78 = and i64 %_75, 7
  %_79 = icmp eq i64 %_78, 0
  br i1 %_79, label %bb27, label %panic2

bb11:                                             ; preds = %bb35
  %_17 = call ptr @malloc(i64 24) #3
  %_62 = load ptr, ptr %digit, align 8
  %_63 = ptrtoint ptr %_62 to i64
  %_66 = and i64 %_63, 7
  %_67 = icmp eq i64 %_66, 0
  br i1 %_67, label %bb25, label %panic6

bb27:                                             ; preds = %bb12
  %_133 = ptrtoint ptr %_28 to i64
  %_136 = icmp eq i64 %_133, 0
  %_137 = and i1 %_136, true
  %_138 = xor i1 %_137, true
  br i1 %_138, label %bb36, label %panic3

panic2:                                           ; preds = %bb12
; call core::panicking::panic_misaligned_pointer_dereference
  call void @_ZN4core9panicking36panic_misaligned_pointer_dereference17hcc3cbded9382b6e5E(i64 8, i64 %_75, ptr align 8 @alloc_12949963044e42ed685d8cd48be299bf) #4
  unreachable

bb36:                                             ; preds = %bb27
  store i8 %value, ptr %_28, align 8
  %_68 = load ptr, ptr %digit, align 8
  %_69 = ptrtoint ptr %_68 to i64
  %_72 = and i64 %_69, 7
  %_73 = icmp eq i64 %_72, 0
  br i1 %_73, label %bb26, label %panic4

panic3:                                           ; preds = %bb27
; call core::panicking::panic_null_pointer_dereference
  call void @_ZN4core9panicking30panic_null_pointer_dereference17hf718fcc86a223baaE(ptr align 8 @alloc_12949963044e42ed685d8cd48be299bf) #4
  unreachable

bb26:                                             ; preds = %bb36
  %_139 = load ptr, ptr %digit, align 8
  %_140 = ptrtoint ptr %_139 to i64
  %_143 = icmp eq i64 %_140, 0
  %_144 = and i1 %_143, true
  %_145 = xor i1 %_144, true
  br i1 %_145, label %bb37, label %panic5

panic4:                                           ; preds = %bb36
; call core::panicking::panic_misaligned_pointer_dereference
  call void @_ZN4core9panicking36panic_misaligned_pointer_dereference17hcc3cbded9382b6e5E(i64 8, i64 %_69, ptr align 8 @alloc_7ee74070257268e41eaa2eb93955cf64) #4
  unreachable

bb37:                                             ; preds = %bb26
  %5 = load ptr, ptr %digit, align 8
  %6 = getelementptr inbounds i8, ptr %5, i64 8
  %7 = load ptr, ptr %6, align 8
  store ptr %7, ptr %_0, align 8
  br label %bb19

panic5:                                           ; preds = %bb26
; call core::panicking::panic_null_pointer_dereference
  call void @_ZN4core9panicking30panic_null_pointer_dereference17hf718fcc86a223baaE(ptr align 8 @alloc_7ee74070257268e41eaa2eb93955cf64) #4
  unreachable

bb19:                                             ; preds = %bb6, %bb34, %bb16, %bb43, %bb37
  %8 = load ptr, ptr %_0, align 8
  ret ptr %8

bb25:                                             ; preds = %bb11
  %_146 = load ptr, ptr %digit, align 8
  %_147 = ptrtoint ptr %_146 to i64
  %_150 = icmp eq i64 %_147, 0
  %_151 = and i1 %_150, true
  %_152 = xor i1 %_151, true
  br i1 %_152, label %bb38, label %panic7

panic6:                                           ; preds = %bb11
; call core::panicking::panic_misaligned_pointer_dereference
  call void @_ZN4core9panicking36panic_misaligned_pointer_dereference17hcc3cbded9382b6e5E(i64 8, i64 %_63, ptr align 8 @alloc_73ed8ca87f1521c96876d2cdbb656763) #4
  unreachable

bb38:                                             ; preds = %bb25
  %9 = load ptr, ptr %digit, align 8
  %10 = getelementptr inbounds i8, ptr %9, i64 8
  store ptr %_17, ptr %10, align 8
  %_56 = load ptr, ptr %digit, align 8
  %_57 = ptrtoint ptr %_56 to i64
  %_60 = and i64 %_57, 7
  %_61 = icmp eq i64 %_60, 0
  br i1 %_61, label %bb24, label %panic8

panic7:                                           ; preds = %bb25
; call core::panicking::panic_null_pointer_dereference
  call void @_ZN4core9panicking30panic_null_pointer_dereference17hf718fcc86a223baaE(ptr align 8 @alloc_73ed8ca87f1521c96876d2cdbb656763) #4
  unreachable

bb24:                                             ; preds = %bb38
  %_153 = load ptr, ptr %digit, align 8
  %_154 = ptrtoint ptr %_153 to i64
  %_157 = icmp eq i64 %_154, 0
  %_158 = and i1 %_157, true
  %_159 = xor i1 %_158, true
  br i1 %_159, label %bb39, label %panic9

panic8:                                           ; preds = %bb38
; call core::panicking::panic_misaligned_pointer_dereference
  call void @_ZN4core9panicking36panic_misaligned_pointer_dereference17hcc3cbded9382b6e5E(i64 8, i64 %_57, ptr align 8 @alloc_5947ff25e7e4824c93b6ab1492d9f46b) #4
  unreachable

bb39:                                             ; preds = %bb24
  %11 = load ptr, ptr %digit, align 8
  %12 = getelementptr inbounds i8, ptr %11, i64 8
  %_21 = load ptr, ptr %12, align 8
; call core::ptr::mut_ptr::<impl *mut T>::is_null
  %_20 = call zeroext i1 @"_ZN4core3ptr7mut_ptr31_$LT$impl$u20$$BP$mut$u20$T$GT$7is_null17h269c5702e0f687bdE"(ptr %_21) #3
  br i1 %_20, label %bb16, label %bb18

panic9:                                           ; preds = %bb24
; call core::panicking::panic_null_pointer_dereference
  call void @_ZN4core9panicking30panic_null_pointer_dereference17hf718fcc86a223baaE(ptr align 8 @alloc_5947ff25e7e4824c93b6ab1492d9f46b) #4
  unreachable

bb18:                                             ; preds = %bb39
  %13 = load ptr, ptr %digit, align 8
  %14 = getelementptr inbounds i8, ptr %13, i64 8
  %_29 = load ptr, ptr %14, align 8
  %_51 = ptrtoint ptr %_29 to i64
  %_54 = and i64 %_51, 7
  %_55 = icmp eq i64 %_54, 0
  br i1 %_55, label %bb23, label %panic10

bb16:                                             ; preds = %bb39
  call void @perror(ptr @alloc_c018e81c44b56d4512225b2248f84799) #3
  store ptr null, ptr %_0, align 8
  br label %bb19

bb23:                                             ; preds = %bb18
  %_161 = ptrtoint ptr %_29 to i64
  %_164 = icmp eq i64 %_161, 0
  %_165 = and i1 %_164, true
  %_166 = xor i1 %_165, true
  br i1 %_166, label %bb40, label %panic11

panic10:                                          ; preds = %bb18
; call core::panicking::panic_misaligned_pointer_dereference
  call void @_ZN4core9panicking36panic_misaligned_pointer_dereference17hcc3cbded9382b6e5E(i64 8, i64 %_51, ptr align 8 @alloc_df86e900c94cc1f649585c8cd53247f2) #4
  unreachable

bb40:                                             ; preds = %bb23
  store i8 %value, ptr %_29, align 8
  %15 = load ptr, ptr %digit, align 8
  %16 = getelementptr inbounds i8, ptr %15, i64 8
  %_30 = load ptr, ptr %16, align 8
  %_45 = ptrtoint ptr %_30 to i64
  %_48 = and i64 %_45, 7
  %_49 = icmp eq i64 %_48, 0
  br i1 %_49, label %bb22, label %panic12

panic11:                                          ; preds = %bb23
; call core::panicking::panic_null_pointer_dereference
  call void @_ZN4core9panicking30panic_null_pointer_dereference17hf718fcc86a223baaE(ptr align 8 @alloc_df86e900c94cc1f649585c8cd53247f2) #4
  unreachable

bb22:                                             ; preds = %bb40
  %_168 = ptrtoint ptr %_30 to i64
  %_171 = icmp eq i64 %_168, 0
  %_172 = and i1 %_171, true
  %_173 = xor i1 %_172, true
  br i1 %_173, label %bb41, label %panic13

panic12:                                          ; preds = %bb40
; call core::panicking::panic_misaligned_pointer_dereference
  call void @_ZN4core9panicking36panic_misaligned_pointer_dereference17hcc3cbded9382b6e5E(i64 8, i64 %_45, ptr align 8 @alloc_5e508f8b25e8846369e349f2be531966) #4
  unreachable

bb41:                                             ; preds = %bb22
  %17 = getelementptr inbounds i8, ptr %_30, i64 8
  store ptr null, ptr %17, align 8
  %_27 = load ptr, ptr %digit, align 8
  %18 = load ptr, ptr %digit, align 8
  %19 = getelementptr inbounds i8, ptr %18, i64 8
  %_31 = load ptr, ptr %19, align 8
  %_39 = ptrtoint ptr %_31 to i64
  %_42 = and i64 %_39, 7
  %_43 = icmp eq i64 %_42, 0
  br i1 %_43, label %bb21, label %panic14

panic13:                                          ; preds = %bb22
; call core::panicking::panic_null_pointer_dereference
  call void @_ZN4core9panicking30panic_null_pointer_dereference17hf718fcc86a223baaE(ptr align 8 @alloc_5e508f8b25e8846369e349f2be531966) #4
  unreachable

bb21:                                             ; preds = %bb41
  %_175 = ptrtoint ptr %_31 to i64
  %_178 = icmp eq i64 %_175, 0
  %_179 = and i1 %_178, true
  %_180 = xor i1 %_179, true
  br i1 %_180, label %bb42, label %panic15

panic14:                                          ; preds = %bb41
; call core::panicking::panic_misaligned_pointer_dereference
  call void @_ZN4core9panicking36panic_misaligned_pointer_dereference17hcc3cbded9382b6e5E(i64 8, i64 %_39, ptr align 8 @alloc_2b741aa80e9bacc62157d48afd5adfbd) #4
  unreachable

bb42:                                             ; preds = %bb21
  %20 = getelementptr inbounds i8, ptr %_31, i64 16
  store ptr %_27, ptr %20, align 8
  %_32 = load ptr, ptr %digit, align 8
  %_33 = ptrtoint ptr %_32 to i64
  %_36 = and i64 %_33, 7
  %_37 = icmp eq i64 %_36, 0
  br i1 %_37, label %bb20, label %panic16

panic15:                                          ; preds = %bb21
; call core::panicking::panic_null_pointer_dereference
  call void @_ZN4core9panicking30panic_null_pointer_dereference17hf718fcc86a223baaE(ptr align 8 @alloc_2b741aa80e9bacc62157d48afd5adfbd) #4
  unreachable

bb20:                                             ; preds = %bb42
  %_181 = load ptr, ptr %digit, align 8
  %_182 = ptrtoint ptr %_181 to i64
  %_185 = icmp eq i64 %_182, 0
  %_186 = and i1 %_185, true
  %_187 = xor i1 %_186, true
  br i1 %_187, label %bb43, label %panic17

panic16:                                          ; preds = %bb42
; call core::panicking::panic_misaligned_pointer_dereference
  call void @_ZN4core9panicking36panic_misaligned_pointer_dereference17hcc3cbded9382b6e5E(i64 8, i64 %_33, ptr align 8 @alloc_049f0175afd296b0a10ebf878682152f) #4
  unreachable

bb43:                                             ; preds = %bb20
  %21 = load ptr, ptr %digit, align 8
  %22 = getelementptr inbounds i8, ptr %21, i64 8
  %23 = load ptr, ptr %22, align 8
  store ptr %23, ptr %_0, align 8
  br label %bb19

panic17:                                          ; preds = %bb20
; call core::panicking::panic_null_pointer_dereference
  call void @_ZN4core9panicking30panic_null_pointer_dereference17hf718fcc86a223baaE(ptr align 8 @alloc_049f0175afd296b0a10ebf878682152f) #4
  unreachable

bb8:                                              ; preds = %bb2
  %_98 = load ptr, ptr %digit, align 8
  %_99 = ptrtoint ptr %_98 to i64
  %_102 = and i64 %_99, 7
  %_103 = icmp eq i64 %_102, 0
  br i1 %_103, label %bb31, label %panic18

bb6:                                              ; preds = %bb2
  call void @perror(ptr @alloc_c018e81c44b56d4512225b2248f84799) #3
  store ptr null, ptr %_0, align 8
  br label %bb19

bb31:                                             ; preds = %bb8
  %_104 = load ptr, ptr %digit, align 8
  %_105 = ptrtoint ptr %_104 to i64
  %_108 = icmp eq i64 %_105, 0
  %_109 = and i1 %_108, true
  %_110 = xor i1 %_109, true
  br i1 %_110, label %bb32, label %panic19

panic18:                                          ; preds = %bb8
; call core::panicking::panic_misaligned_pointer_dereference
  call void @_ZN4core9panicking36panic_misaligned_pointer_dereference17hcc3cbded9382b6e5E(i64 8, i64 %_99, ptr align 8 @alloc_2e21785ec7e2d2bffd360fb5a6d35da7) #4
  unreachable

bb32:                                             ; preds = %bb31
  %24 = load ptr, ptr %digit, align 8
  store i8 %value, ptr %24, align 8
  %_92 = load ptr, ptr %digit, align 8
  %_93 = ptrtoint ptr %_92 to i64
  %_96 = and i64 %_93, 7
  %_97 = icmp eq i64 %_96, 0
  br i1 %_97, label %bb30, label %panic20

panic19:                                          ; preds = %bb31
; call core::panicking::panic_null_pointer_dereference
  call void @_ZN4core9panicking30panic_null_pointer_dereference17hf718fcc86a223baaE(ptr align 8 @alloc_2e21785ec7e2d2bffd360fb5a6d35da7) #4
  unreachable

bb30:                                             ; preds = %bb32
  %_111 = load ptr, ptr %digit, align 8
  %_112 = ptrtoint ptr %_111 to i64
  %_115 = icmp eq i64 %_112, 0
  %_116 = and i1 %_115, true
  %_117 = xor i1 %_116, true
  br i1 %_117, label %bb33, label %panic21

panic20:                                          ; preds = %bb32
; call core::panicking::panic_misaligned_pointer_dereference
  call void @_ZN4core9panicking36panic_misaligned_pointer_dereference17hcc3cbded9382b6e5E(i64 8, i64 %_93, ptr align 8 @alloc_54661a6bf4c4c14d833e867732f015c6) #4
  unreachable

bb33:                                             ; preds = %bb30
  %25 = load ptr, ptr %digit, align 8
  %26 = getelementptr inbounds i8, ptr %25, i64 8
  store ptr null, ptr %26, align 8
  %_86 = load ptr, ptr %digit, align 8
  %_87 = ptrtoint ptr %_86 to i64
  %_90 = and i64 %_87, 7
  %_91 = icmp eq i64 %_90, 0
  br i1 %_91, label %bb29, label %panic22

panic21:                                          ; preds = %bb30
; call core::panicking::panic_null_pointer_dereference
  call void @_ZN4core9panicking30panic_null_pointer_dereference17hf718fcc86a223baaE(ptr align 8 @alloc_54661a6bf4c4c14d833e867732f015c6) #4
  unreachable

bb29:                                             ; preds = %bb33
  %_118 = load ptr, ptr %digit, align 8
  %_119 = ptrtoint ptr %_118 to i64
  %_122 = icmp eq i64 %_119, 0
  %_123 = and i1 %_122, true
  %_124 = xor i1 %_123, true
  br i1 %_124, label %bb34, label %panic23

panic22:                                          ; preds = %bb33
; call core::panicking::panic_misaligned_pointer_dereference
  call void @_ZN4core9panicking36panic_misaligned_pointer_dereference17hcc3cbded9382b6e5E(i64 8, i64 %_87, ptr align 8 @alloc_34601f51cf681dbfdafdf6e10cdc20f3) #4
  unreachable

bb34:                                             ; preds = %bb29
  %27 = load ptr, ptr %digit, align 8
  %28 = getelementptr inbounds i8, ptr %27, i64 16
  store ptr null, ptr %28, align 8
  %29 = load ptr, ptr %digit, align 8
  store ptr %29, ptr %_0, align 8
  br label %bb19

panic23:                                          ; preds = %bb29
; call core::panicking::panic_null_pointer_dereference
  call void @_ZN4core9panicking30panic_null_pointer_dereference17hf718fcc86a223baaE(ptr align 8 @alloc_34601f51cf681dbfdafdf6e10cdc20f3) #4
  unreachable
}

; Function Attrs: nounwind nonlazybind
define signext i8 @remove_digits(ptr %0, i32 %N) unnamed_addr #1 {
start:
  %_0 = alloca [1 x i8], align 1
  %digit = alloca [8 x i8], align 8
  store ptr %0, ptr %digit, align 8
  %_4 = load ptr, ptr %digit, align 8
; call core::ptr::mut_ptr::<impl *mut T>::is_null
  %_3 = call zeroext i1 @"_ZN4core3ptr7mut_ptr31_$LT$impl$u20$$BP$mut$u20$T$GT$7is_null17h269c5702e0f687bdE"(ptr %_4) #3
  br i1 %_3, label %bb2, label %bb3

bb3:                                              ; preds = %start
  %_26 = load ptr, ptr %digit, align 8
  %_27 = ptrtoint ptr %_26 to i64
  %_30 = and i64 %_27, 7
  %_31 = icmp eq i64 %_30, 0
  br i1 %_31, label %bb13, label %panic

bb2:                                              ; preds = %start
  store i8 0, ptr %_0, align 1
  br label %bb10

bb13:                                             ; preds = %bb3
  %_32 = load ptr, ptr %digit, align 8
  %_33 = ptrtoint ptr %_32 to i64
  %_36 = icmp eq i64 %_33, 0
  %_37 = and i1 %_36, true
  %_38 = xor i1 %_37, true
  br i1 %_38, label %bb14, label %panic1

panic:                                            ; preds = %bb3
; call core::panicking::panic_misaligned_pointer_dereference
  call void @_ZN4core9panicking36panic_misaligned_pointer_dereference17hcc3cbded9382b6e5E(i64 8, i64 %_27, ptr align 8 @alloc_ef2eaabdcbce8865e8a3128d16f5bc14) #4
  unreachable

bb14:                                             ; preds = %bb13
  %1 = load ptr, ptr %digit, align 8
  %2 = getelementptr inbounds i8, ptr %1, i64 8
  %_6 = load ptr, ptr %2, align 8
; call core::ptr::mut_ptr::<impl *mut T>::is_null
  %_5 = call zeroext i1 @"_ZN4core3ptr7mut_ptr31_$LT$impl$u20$$BP$mut$u20$T$GT$7is_null17h269c5702e0f687bdE"(ptr %_6) #3
  br i1 %_5, label %bb5, label %bb7

panic1:                                           ; preds = %bb13
; call core::panicking::panic_null_pointer_dereference
  call void @_ZN4core9panicking30panic_null_pointer_dereference17hf718fcc86a223baaE(ptr align 8 @alloc_ef2eaabdcbce8865e8a3128d16f5bc14) #4
  unreachable

bb7:                                              ; preds = %bb14
  %_10 = icmp sgt i32 %N, 0
  br i1 %_10, label %bb8, label %bb9

bb5:                                              ; preds = %bb14
  %_9 = load ptr, ptr %digit, align 8
  call void @free(ptr %_9) #3
  store ptr null, ptr %digit, align 8
  store i8 0, ptr %_0, align 1
  br label %bb10

bb9:                                              ; preds = %bb7
  %_14 = load ptr, ptr %digit, align 8
  %_15 = ptrtoint ptr %_14 to i64
  %_18 = and i64 %_15, 7
  %_19 = icmp eq i64 %_18, 0
  br i1 %_19, label %bb11, label %panic2

bb8:                                              ; preds = %bb7
  %_20 = load ptr, ptr %digit, align 8
  %_21 = ptrtoint ptr %_20 to i64
  %_24 = and i64 %_21, 7
  %_25 = icmp eq i64 %_24, 0
  br i1 %_25, label %bb12, label %panic4

bb11:                                             ; preds = %bb9
  %_46 = load ptr, ptr %digit, align 8
  %_47 = ptrtoint ptr %_46 to i64
  %_50 = icmp eq i64 %_47, 0
  %_51 = and i1 %_50, true
  %_52 = xor i1 %_51, true
  br i1 %_52, label %bb16, label %panic3

panic2:                                           ; preds = %bb9
; call core::panicking::panic_misaligned_pointer_dereference
  call void @_ZN4core9panicking36panic_misaligned_pointer_dereference17hcc3cbded9382b6e5E(i64 8, i64 %_15, ptr align 8 @alloc_7a422a4a419d5657800e10d00a2c1d22) #4
  unreachable

bb16:                                             ; preds = %bb11
  %3 = load ptr, ptr %digit, align 8
  %4 = getelementptr inbounds i8, ptr %3, i64 8
  %_13 = load ptr, ptr %4, align 8
  %5 = call signext i8 @remove_digits(ptr %_13, i32 0) #3
  store i8 %5, ptr %_0, align 1
  br label %bb10

panic3:                                           ; preds = %bb11
; call core::panicking::panic_null_pointer_dereference
  call void @_ZN4core9panicking30panic_null_pointer_dereference17hf718fcc86a223baaE(ptr align 8 @alloc_7a422a4a419d5657800e10d00a2c1d22) #4
  unreachable

bb10:                                             ; preds = %bb2, %bb5, %bb15, %bb16
  %6 = load i8, ptr %_0, align 1
  ret i8 %6

bb12:                                             ; preds = %bb8
  %_39 = load ptr, ptr %digit, align 8
  %_40 = ptrtoint ptr %_39 to i64
  %_43 = icmp eq i64 %_40, 0
  %_44 = and i1 %_43, true
  %_45 = xor i1 %_44, true
  br i1 %_45, label %bb15, label %panic5

panic4:                                           ; preds = %bb8
; call core::panicking::panic_misaligned_pointer_dereference
  call void @_ZN4core9panicking36panic_misaligned_pointer_dereference17hcc3cbded9382b6e5E(i64 8, i64 %_21, ptr align 8 @alloc_6341b233800e0398808c2b1d19675d89) #4
  unreachable

bb15:                                             ; preds = %bb12
  %7 = load ptr, ptr %digit, align 8
  %8 = getelementptr inbounds i8, ptr %7, i64 8
  %_11 = load ptr, ptr %8, align 8
  %_12 = sub i32 %N, 1
  %9 = call signext i8 @remove_digits(ptr %_11, i32 %_12) #3
  store i8 %9, ptr %_0, align 1
  br label %bb10

panic5:                                           ; preds = %bb12
; call core::panicking::panic_null_pointer_dereference
  call void @_ZN4core9panicking30panic_null_pointer_dereference17hf718fcc86a223baaE(ptr align 8 @alloc_6341b233800e0398808c2b1d19675d89) #4
  unreachable
}

; core::panicking::panic_misaligned_pointer_dereference
; Function Attrs: cold minsize noinline noreturn nounwind nonlazybind optsize
declare void @_ZN4core9panicking36panic_misaligned_pointer_dereference17hcc3cbded9382b6e5E(i64, i64, ptr align 8) unnamed_addr #2

; core::panicking::panic_null_pointer_dereference
; Function Attrs: cold minsize noinline noreturn nounwind nonlazybind optsize
declare void @_ZN4core9panicking30panic_null_pointer_dereference17hf718fcc86a223baaE(ptr align 8) unnamed_addr #2

; Function Attrs: nounwind nonlazybind
declare ptr @malloc(i64) unnamed_addr #1

; Function Attrs: nounwind nonlazybind
declare void @perror(ptr) unnamed_addr #1

; Function Attrs: nounwind nonlazybind
declare void @free(ptr) unnamed_addr #1

attributes #0 = { inlinehint nounwind nonlazybind "probe-stack"="inline-asm" "target-cpu"="x86-64" }
attributes #1 = { nounwind nonlazybind "probe-stack"="inline-asm" "target-cpu"="x86-64" }
attributes #2 = { cold minsize noinline noreturn nounwind nonlazybind optsize "probe-stack"="inline-asm" "target-cpu"="x86-64" }
attributes #3 = { nounwind }
attributes #4 = { noreturn nounwind }

!llvm.module.flags = !{!0, !1}
!llvm.ident = !{!2}

!0 = !{i32 8, !"PIC Level", i32 2}
!1 = !{i32 2, !"RtLibUseGOT", i32 1}
!2 = !{!"rustc version 1.88.0-nightly (0b45675cf 2025-03-31)"}
