; ModuleID = 'dtetqee4bd0t5pr5o25e3o4um'
source_filename = "dtetqee4bd0t5pr5o25e3o4um"
target datalayout = "e-m:e-p270:32:32-p271:32:32-p272:64:64-i64:64-i128:128-f80:128-n8:16:32:64-S128"
target triple = "x86_64-unknown-linux-gnu"

@head = global [8 x i8] zeroinitializer, align 8
@tail = global [8 x i8] zeroinitializer, align 8
@alloc_f5ffd2fd1476bab43ad89fb40c72d0c5 = private unnamed_addr constant [10 x i8] c"src/lib.rs", align 1
@alloc_d1a11e64fdd63add9ab4729a70b53b74 = private unnamed_addr constant <{ ptr, [16 x i8] }> <{ ptr @alloc_f5ffd2fd1476bab43ad89fb40c72d0c5, [16 x i8] c"\0A\00\00\00\00\00\00\00u\00\00\00\05\00\00\00" }>, align 8
@alloc_cd8a9e3bea58a3ea65cd1f5ac8c5404f = private unnamed_addr constant <{ ptr, [16 x i8] }> <{ ptr @alloc_f5ffd2fd1476bab43ad89fb40c72d0c5, [16 x i8] c"\0A\00\00\00\00\00\00\00v\00\00\00\05\00\00\00" }>, align 8
@alloc_33163a8e673ee25e32a7ea0cadee3b6e = private unnamed_addr constant <{ ptr, [16 x i8] }> <{ ptr @alloc_f5ffd2fd1476bab43ad89fb40c72d0c5, [16 x i8] c"\0A\00\00\00\00\00\00\00w\00\00\00\05\00\00\00" }>, align 8
@alloc_2869dcfb657f7f7c3065a0527ec2bd44 = private unnamed_addr constant <{ ptr, [16 x i8] }> <{ ptr @alloc_f5ffd2fd1476bab43ad89fb40c72d0c5, [16 x i8] c"\0A\00\00\00\00\00\00\00}\00\00\00\08\00\00\00" }>, align 8
@alloc_2ffed3ee6ec7956d656e23c93c6bf845 = private unnamed_addr constant <{ ptr, [16 x i8] }> <{ ptr @alloc_f5ffd2fd1476bab43ad89fb40c72d0c5, [16 x i8] c"\0A\00\00\00\00\00\00\00\82\00\00\00\17\00\00\00" }>, align 8
@alloc_3689581ac3e8ceaaaf9b37c8e542fe4a = private unnamed_addr constant <{ ptr, [16 x i8] }> <{ ptr @alloc_f5ffd2fd1476bab43ad89fb40c72d0c5, [16 x i8] c"\0A\00\00\00\00\00\00\00\82\00\00\00\05\00\00\00" }>, align 8
@alloc_ff9152b01998611ba6bd446c3ae8be7e = private unnamed_addr constant <{ ptr, [16 x i8] }> <{ ptr @alloc_f5ffd2fd1476bab43ad89fb40c72d0c5, [16 x i8] c"\0A\00\00\00\00\00\00\00\83\00\00\00\05\00\00\00" }>, align 8
@alloc_4c915bac303742f1dcbead2acc9529f0 = private unnamed_addr constant <{ ptr, [16 x i8] }> <{ ptr @alloc_f5ffd2fd1476bab43ad89fb40c72d0c5, [16 x i8] c"\0A\00\00\00\00\00\00\00\84\00\00\00\05\00\00\00" }>, align 8
@alloc_a36005e6c8643271d28bd8edf2a6f760 = private unnamed_addr constant <{ ptr, [16 x i8] }> <{ ptr @alloc_f5ffd2fd1476bab43ad89fb40c72d0c5, [16 x i8] c"\0A\00\00\00\00\00\00\00~\00\00\00\09\00\00\00" }>, align 8
@alloc_be7452df8c180fa1736a845b90103292 = private unnamed_addr constant <{ ptr, [16 x i8] }> <{ ptr @alloc_f5ffd2fd1476bab43ad89fb40c72d0c5, [16 x i8] c"\0A\00\00\00\00\00\00\00\7F\00\00\00\09\00\00\00" }>, align 8
@alloc_332b04e046d21efe20c5624d56eafe7f = private unnamed_addr constant <{ ptr, [16 x i8] }> <{ ptr @alloc_f5ffd2fd1476bab43ad89fb40c72d0c5, [16 x i8] c"\0A\00\00\00\00\00\00\00\89\00\00\00\08\00\00\00" }>, align 8
@alloc_0b7356edd6c258138378ae9052cfed88 = private unnamed_addr constant <{ ptr, [16 x i8] }> <{ ptr @alloc_f5ffd2fd1476bab43ad89fb40c72d0c5, [16 x i8] c"\0A\00\00\00\00\00\00\00\8E\00\00\00\05\00\00\00" }>, align 8
@alloc_ed7edddf85031bd5de463627733ebe3f = private unnamed_addr constant <{ ptr, [16 x i8] }> <{ ptr @alloc_f5ffd2fd1476bab43ad89fb40c72d0c5, [16 x i8] c"\0A\00\00\00\00\00\00\00\8F\00\00\00\1B\00\00\00" }>, align 8
@alloc_fef22c008e94e74eb08b32376ab6ec59 = private unnamed_addr constant <{ ptr, [16 x i8] }> <{ ptr @alloc_f5ffd2fd1476bab43ad89fb40c72d0c5, [16 x i8] c"\0A\00\00\00\00\00\00\00\8F\00\00\00\05\00\00\00" }>, align 8
@alloc_cfb0380af96fcc257f59b04d0cb4fc70 = private unnamed_addr constant <{ ptr, [16 x i8] }> <{ ptr @alloc_f5ffd2fd1476bab43ad89fb40c72d0c5, [16 x i8] c"\0A\00\00\00\00\00\00\00\90\00\00\00\05\00\00\00" }>, align 8
@alloc_4a6eda898bdde920aeb6902aaba4aae6 = private unnamed_addr constant <{ ptr, [16 x i8] }> <{ ptr @alloc_f5ffd2fd1476bab43ad89fb40c72d0c5, [16 x i8] c"\0A\00\00\00\00\00\00\00\8A\00\00\00\09\00\00\00" }>, align 8
@alloc_847817f60a835e11a29d83b54122ef92 = private unnamed_addr constant <{ ptr, [16 x i8] }> <{ ptr @alloc_f5ffd2fd1476bab43ad89fb40c72d0c5, [16 x i8] c"\0A\00\00\00\00\00\00\00\8B\00\00\00\09\00\00\00" }>, align 8
@alloc_245c20208a3025c15b10c5c8fd19fabf = private unnamed_addr constant <{ ptr, [16 x i8] }> <{ ptr @alloc_f5ffd2fd1476bab43ad89fb40c72d0c5, [16 x i8] c"\0A\00\00\00\00\00\00\00\98\00\00\00\08\00\00\00" }>, align 8
@alloc_ddbd717cda471c31d327238e1a1f7dd8 = private unnamed_addr constant <{ ptr, [16 x i8] }> <{ ptr @alloc_f5ffd2fd1476bab43ad89fb40c72d0c5, [16 x i8] c"\0A\00\00\00\00\00\00\00\9F\00\00\00\0C\00\00\00" }>, align 8
@alloc_53878a0abc92ff6c97d7e00682732c5a = private unnamed_addr constant <{ ptr, [16 x i8] }> <{ ptr @alloc_f5ffd2fd1476bab43ad89fb40c72d0c5, [16 x i8] c"\0A\00\00\00\00\00\00\00\A1\00\00\00/\00\00\00" }>, align 8
@alloc_ab6b5210d3a68efd5de113313000a031 = private unnamed_addr constant <{ ptr, [16 x i8] }> <{ ptr @alloc_f5ffd2fd1476bab43ad89fb40c72d0c5, [16 x i8] c"\0A\00\00\00\00\00\00\00\A2\00\00\00\10\00\00\00" }>, align 8
@alloc_7ec5ca33a68ccfa3f41b4b64e66e6e95 = private unnamed_addr constant <{ ptr, [16 x i8] }> <{ ptr @alloc_f5ffd2fd1476bab43ad89fb40c72d0c5, [16 x i8] c"\0A\00\00\00\00\00\00\00\A6\00\00\00\17\00\00\00" }>, align 8
@alloc_9995e332b2797eeb540179b656e45cd4 = private unnamed_addr constant <{ ptr, [16 x i8] }> <{ ptr @alloc_f5ffd2fd1476bab43ad89fb40c72d0c5, [16 x i8] c"\0A\00\00\00\00\00\00\00\A6\00\00\00\05\00\00\00" }>, align 8
@alloc_153577ba8f98b271c09ac00094c72bfe = private unnamed_addr constant <{ ptr, [16 x i8] }> <{ ptr @alloc_f5ffd2fd1476bab43ad89fb40c72d0c5, [16 x i8] c"\0A\00\00\00\00\00\00\00\A7\00\00\00\05\00\00\00" }>, align 8
@alloc_d5bcf93b2d7c8194211c52721551334d = private unnamed_addr constant <{ ptr, [16 x i8] }> <{ ptr @alloc_f5ffd2fd1476bab43ad89fb40c72d0c5, [16 x i8] c"\0A\00\00\00\00\00\00\00\A8\00\00\00\09\00\00\00" }>, align 8
@alloc_ae5e1855ae657dc6275d634bcc1ad0a8 = private unnamed_addr constant <{ ptr, [16 x i8] }> <{ ptr @alloc_f5ffd2fd1476bab43ad89fb40c72d0c5, [16 x i8] c"\0A\00\00\00\00\00\00\00\A9\00\00\00\09\00\00\00" }>, align 8
@alloc_19ef5686f7c824e937507197093df347 = private unnamed_addr constant <{ ptr, [16 x i8] }> <{ ptr @alloc_f5ffd2fd1476bab43ad89fb40c72d0c5, [16 x i8] c"\0A\00\00\00\00\00\00\00\AB\00\00\00\05\00\00\00" }>, align 8
@alloc_7fed4a1089f77536642fd43c2a992067 = private unnamed_addr constant <{ ptr, [16 x i8] }> <{ ptr @alloc_f5ffd2fd1476bab43ad89fb40c72d0c5, [16 x i8] c"\0A\00\00\00\00\00\00\00\99\00\00\00\09\00\00\00" }>, align 8
@alloc_9b55ecc9b8b32794fadf225c74bfc5f4 = private unnamed_addr constant <{ ptr, [16 x i8] }> <{ ptr @alloc_f5ffd2fd1476bab43ad89fb40c72d0c5, [16 x i8] c"\0A\00\00\00\00\00\00\00\9A\00\00\00\09\00\00\00" }>, align 8
@alloc_6ed8ead5c3180de3c836418e748d1daf = private unnamed_addr constant <{ ptr, [16 x i8] }> <{ ptr @alloc_f5ffd2fd1476bab43ad89fb40c72d0c5, [16 x i8] c"\0A\00\00\00\00\00\00\00\AF\00\00\00\08\00\00\00" }>, align 8
@alloc_5a8dc6b99c1ac937fe6fbec1a1dc4b96 = private unnamed_addr constant <{ ptr, [16 x i8] }> <{ ptr @alloc_f5ffd2fd1476bab43ad89fb40c72d0c5, [16 x i8] c"\0A\00\00\00\00\00\00\00\B3\00\00\00\10\00\00\00" }>, align 8
@alloc_19874e16cc89f604ad731fe0d5d2a916 = private unnamed_addr constant <{ ptr, [16 x i8] }> <{ ptr @alloc_f5ffd2fd1476bab43ad89fb40c72d0c5, [16 x i8] c"\0A\00\00\00\00\00\00\00\B3\00\00\00\09\00\00\00" }>, align 8
@alloc_0b91bd9d6a03156f76814c5e8c64139a = private unnamed_addr constant <{ ptr, [16 x i8] }> <{ ptr @alloc_f5ffd2fd1476bab43ad89fb40c72d0c5, [16 x i8] c"\0A\00\00\00\00\00\00\00\B4\00\00\00\0C\00\00\00" }>, align 8
@alloc_beae4e76a72fb68fcffa273cbc5d9ba2 = private unnamed_addr constant <{ ptr, [16 x i8] }> <{ ptr @alloc_f5ffd2fd1476bab43ad89fb40c72d0c5, [16 x i8] c"\0A\00\00\00\00\00\00\00\B7\00\00\00\0D\00\00\00" }>, align 8
@alloc_be6279a693becf20b72df92490ff40e8 = private unnamed_addr constant <{ ptr, [16 x i8] }> <{ ptr @alloc_f5ffd2fd1476bab43ad89fb40c72d0c5, [16 x i8] c"\0A\00\00\00\00\00\00\00\B5\00\00\00\0D\00\00\00" }>, align 8
@alloc_06e8584b8937be9206285b4299dbd43c = private unnamed_addr constant <{ ptr, [16 x i8] }> <{ ptr @alloc_f5ffd2fd1476bab43ad89fb40c72d0c5, [16 x i8] c"\0A\00\00\00\00\00\00\00\C1\00\00\00\0C\00\00\00" }>, align 8
@alloc_f4615d753c00f4c4adbe878780b98b58 = private unnamed_addr constant <{ ptr, [16 x i8] }> <{ ptr @alloc_f5ffd2fd1476bab43ad89fb40c72d0c5, [16 x i8] c"\0A\00\00\00\00\00\00\00\C2\00\00\00\1C\00\00\00" }>, align 8
@alloc_309c860f12a842d23ae8135ac52bbe52 = private unnamed_addr constant <{ ptr, [16 x i8] }> <{ ptr @alloc_f5ffd2fd1476bab43ad89fb40c72d0c5, [16 x i8] c"\0A\00\00\00\00\00\00\00\C3\00\00\00\10\00\00\00" }>, align 8
@alloc_7ffddcca424cfe045c5d12a857a3ed2c = private unnamed_addr constant [47 x i8] c"Desired position does not exist! Position: %d\0A\00", align 1
@alloc_29af6d5c3b78b585cf905cc5363c5d06 = private unnamed_addr constant <{ ptr, [16 x i8] }> <{ ptr @alloc_f5ffd2fd1476bab43ad89fb40c72d0c5, [16 x i8] c"\0A\00\00\00\00\00\00\00\C8\00\00\00\17\00\00\00" }>, align 8
@alloc_87cd2df624e51f3ff5c5db5809a5596b = private unnamed_addr constant <{ ptr, [16 x i8] }> <{ ptr @alloc_f5ffd2fd1476bab43ad89fb40c72d0c5, [16 x i8] c"\0A\00\00\00\00\00\00\00\C9\00\00\00\1F\00\00\00" }>, align 8
@alloc_b43a6be7cca4e83fa608b327967ef1b0 = private unnamed_addr constant <{ ptr, [16 x i8] }> <{ ptr @alloc_f5ffd2fd1476bab43ad89fb40c72d0c5, [16 x i8] c"\0A\00\00\00\00\00\00\00\C9\00\00\00\09\00\00\00" }>, align 8
@alloc_98f1e3f806f6f1a41762c69dbb21d162 = private unnamed_addr constant <{ ptr, [16 x i8] }> <{ ptr @alloc_f5ffd2fd1476bab43ad89fb40c72d0c5, [16 x i8] c"\0A\00\00\00\00\00\00\00\CA\00\00\00\0C\00\00\00" }>, align 8
@alloc_dab7fb669b4803dedcdb12d3e7dff7c3 = private unnamed_addr constant <{ ptr, [16 x i8] }> <{ ptr @alloc_f5ffd2fd1476bab43ad89fb40c72d0c5, [16 x i8] c"\0A\00\00\00\00\00\00\00\CD\00\00\00\0D\00\00\00" }>, align 8
@alloc_26ce945512e5b824db98558e54903466 = private unnamed_addr constant <{ ptr, [16 x i8] }> <{ ptr @alloc_f5ffd2fd1476bab43ad89fb40c72d0c5, [16 x i8] c"\0A\00\00\00\00\00\00\00\CB\00\00\00\0D\00\00\00" }>, align 8
@alloc_c8ad36a10291c91213a24a22e0a383d1 = private unnamed_addr constant [45 x i8] c"\0AYour updated linked list in FORWARD ORDER:\0A\00", align 1
@alloc_3d301d70bff80d690be6ab1826b85086 = private unnamed_addr constant <{ ptr, [16 x i8] }> <{ ptr @alloc_f5ffd2fd1476bab43ad89fb40c72d0c5, [16 x i8] c"\0A\00\00\00\00\00\00\00\DF\00\00\00\0E\00\00\00" }>, align 8
@alloc_b7f5a2b9fd42c07cdbbcbd677697f4af = private unnamed_addr constant <{ ptr, [16 x i8] }> <{ ptr @alloc_f5ffd2fd1476bab43ad89fb40c72d0c5, [16 x i8] c"\0A\00\00\00\00\00\00\00\E0\00\00\00\0D\00\00\00" }>, align 8
@alloc_ba0c72309e78d072281c39a4d5d8b1f7 = private unnamed_addr constant <{ ptr, [16 x i8] }> <{ ptr @alloc_f5ffd2fd1476bab43ad89fb40c72d0c5, [16 x i8] c"\0A\00\00\00\00\00\00\00\E0\00\00\00\1F\00\00\00" }>, align 8
@alloc_b929c71616281bfd1be2bd4038d3ddf1 = private unnamed_addr constant [4 x i8] c"%d \00", align 1
@alloc_233efc366c612305a15eb0c6e7a2142d = private unnamed_addr constant <{ ptr, [16 x i8] }> <{ ptr @alloc_f5ffd2fd1476bab43ad89fb40c72d0c5, [16 x i8] c"\0A\00\00\00\00\00\00\00\E1\00\00\00>\00\00\00" }>, align 8
@alloc_745f8e410582c5609a11085eea1bb0b0 = private unnamed_addr constant <{ ptr, [16 x i8] }> <{ ptr @alloc_f5ffd2fd1476bab43ad89fb40c72d0c5, [16 x i8] c"\0A\00\00\00\00\00\00\00\E2\00\00\00\16\00\00\00" }>, align 8
@alloc_b6c266c5cc09f2818249f1245f6af9d9 = private unnamed_addr constant <{ ptr, [16 x i8] }> <{ ptr @alloc_f5ffd2fd1476bab43ad89fb40c72d0c5, [16 x i8] c"\0A\00\00\00\00\00\00\00\E5\00\00\00\12\00\00\00" }>, align 8
@alloc_f3588b28b94f0809fcc8d717033d3e48 = private unnamed_addr constant [2 x i8] c"\0A\00", align 1
@alloc_5aac9180518332af6feff9a608d54801 = private unnamed_addr constant [42 x i8] c"\0AYour full linked list in REVERSE ORDER:\0A\00", align 1
@alloc_4f481045738f764d370480e041859fda = private unnamed_addr constant <{ ptr, [16 x i8] }> <{ ptr @alloc_f5ffd2fd1476bab43ad89fb40c72d0c5, [16 x i8] c"\0A\00\00\00\00\00\00\00\F0\00\00\00\0E\00\00\00" }>, align 8
@alloc_026e0387c7dcb345b8b3f04b6b228928 = private unnamed_addr constant <{ ptr, [16 x i8] }> <{ ptr @alloc_f5ffd2fd1476bab43ad89fb40c72d0c5, [16 x i8] c"\0A\00\00\00\00\00\00\00\F1\00\00\00\0D\00\00\00" }>, align 8
@alloc_74e8fc983f51a43749a13a78af4ccbfc = private unnamed_addr constant <{ ptr, [16 x i8] }> <{ ptr @alloc_f5ffd2fd1476bab43ad89fb40c72d0c5, [16 x i8] c"\0A\00\00\00\00\00\00\00\F1\00\00\00\1F\00\00\00" }>, align 8
@alloc_f1cc639bdd575dc178c8a9260aa7bf30 = private unnamed_addr constant <{ ptr, [16 x i8] }> <{ ptr @alloc_f5ffd2fd1476bab43ad89fb40c72d0c5, [16 x i8] c"\0A\00\00\00\00\00\00\00\F2\00\00\00>\00\00\00" }>, align 8
@alloc_4387045ef11fa5b4c5890e05887fa270 = private unnamed_addr constant <{ ptr, [16 x i8] }> <{ ptr @alloc_f5ffd2fd1476bab43ad89fb40c72d0c5, [16 x i8] c"\0A\00\00\00\00\00\00\00\F3\00\00\00\0C\00\00\00" }>, align 8
@alloc_2ce26ef5b3dbcdd40d4b60956d6973ca = private unnamed_addr constant <{ ptr, [16 x i8] }> <{ ptr @alloc_f5ffd2fd1476bab43ad89fb40c72d0c5, [16 x i8] c"\0A\00\00\00\00\00\00\00\F6\00\00\00\12\00\00\00" }>, align 8
@alloc_9afdaa843513f516e6791c9465cac10d = private unnamed_addr constant <{ ptr, [16 x i8] }> <{ ptr @alloc_f5ffd2fd1476bab43ad89fb40c72d0c5, [16 x i8] c"\0A\00\00\00\00\00\00\00\FC\00\00\00\1C\00\00\00" }>, align 8
@alloc_65ea2bcae1e73f3fc7ed329f52d00e5e = private unnamed_addr constant <{ ptr, [16 x i8] }> <{ ptr @alloc_f5ffd2fd1476bab43ad89fb40c72d0c5, [16 x i8] c"\0A\00\00\00\00\00\00\00\FE\00\00\00\0C\00\00\00" }>, align 8
@alloc_387001fe3b9e1d3b33494c42a5fc0980 = private unnamed_addr constant <{ ptr, [16 x i8] }> <{ ptr @alloc_f5ffd2fd1476bab43ad89fb40c72d0c5, [16 x i8] c"\0A\00\00\00\00\00\00\00\01\01\00\00\11\00\00\00" }>, align 8

; core::ptr::mut_ptr::<impl *mut T>::is_null
; Function Attrs: inlinehint nounwind nonlazybind
define internal zeroext i1 @"_ZN4core3ptr7mut_ptr31_$LT$impl$u20$$BP$mut$u20$T$GT$7is_null17h0e16debab06a6182E"(ptr %self) unnamed_addr #0 {
start:
  %_3 = ptrtoint ptr %self to i64
  %_0 = icmp eq i64 %_3, 0
  ret i1 %_0
}

; Function Attrs: nounwind nonlazybind
define ptr @getNewNode(i32 %val) unnamed_addr #1 {
start:
  %temp_node = alloca [8 x i8], align 8
  store ptr null, ptr %temp_node, align 8
  %_3 = call ptr @malloc(i64 24) #3
  store ptr %_3, ptr %temp_node, align 8
  %_18 = load ptr, ptr %temp_node, align 8
  %_19 = ptrtoint ptr %_18 to i64
  %_22 = and i64 %_19, 7
  %_23 = icmp eq i64 %_22, 0
  br i1 %_23, label %bb5, label %panic

bb5:                                              ; preds = %start
  %_24 = load ptr, ptr %temp_node, align 8
  %_25 = ptrtoint ptr %_24 to i64
  %_28 = icmp eq i64 %_25, 0
  %_29 = and i1 %_28, true
  %_30 = xor i1 %_29, true
  br i1 %_30, label %bb6, label %panic1

panic:                                            ; preds = %start
; call core::panicking::panic_misaligned_pointer_dereference
  call void @_ZN4core9panicking36panic_misaligned_pointer_dereference17hcc3cbded9382b6e5E(i64 8, i64 %_19, ptr align 8 @alloc_d1a11e64fdd63add9ab4729a70b53b74) #4
  unreachable

bb6:                                              ; preds = %bb5
  %0 = load ptr, ptr %temp_node, align 8
  store i32 %val, ptr %0, align 8
  %_12 = load ptr, ptr %temp_node, align 8
  %_13 = ptrtoint ptr %_12 to i64
  %_16 = and i64 %_13, 7
  %_17 = icmp eq i64 %_16, 0
  br i1 %_17, label %bb4, label %panic2

panic1:                                           ; preds = %bb5
; call core::panicking::panic_null_pointer_dereference
  call void @_ZN4core9panicking30panic_null_pointer_dereference17hf718fcc86a223baaE(ptr align 8 @alloc_d1a11e64fdd63add9ab4729a70b53b74) #4
  unreachable

bb4:                                              ; preds = %bb6
  %_31 = load ptr, ptr %temp_node, align 8
  %_32 = ptrtoint ptr %_31 to i64
  %_35 = icmp eq i64 %_32, 0
  %_36 = and i1 %_35, true
  %_37 = xor i1 %_36, true
  br i1 %_37, label %bb7, label %panic3

panic2:                                           ; preds = %bb6
; call core::panicking::panic_misaligned_pointer_dereference
  call void @_ZN4core9panicking36panic_misaligned_pointer_dereference17hcc3cbded9382b6e5E(i64 8, i64 %_13, ptr align 8 @alloc_cd8a9e3bea58a3ea65cd1f5ac8c5404f) #4
  unreachable

bb7:                                              ; preds = %bb4
  %1 = load ptr, ptr %temp_node, align 8
  %2 = getelementptr inbounds i8, ptr %1, i64 8
  store ptr null, ptr %2, align 8
  %_6 = load ptr, ptr %temp_node, align 8
  %_7 = ptrtoint ptr %_6 to i64
  %_10 = and i64 %_7, 7
  %_11 = icmp eq i64 %_10, 0
  br i1 %_11, label %bb3, label %panic4

panic3:                                           ; preds = %bb4
; call core::panicking::panic_null_pointer_dereference
  call void @_ZN4core9panicking30panic_null_pointer_dereference17hf718fcc86a223baaE(ptr align 8 @alloc_cd8a9e3bea58a3ea65cd1f5ac8c5404f) #4
  unreachable

bb3:                                              ; preds = %bb7
  %_38 = load ptr, ptr %temp_node, align 8
  %_39 = ptrtoint ptr %_38 to i64
  %_42 = icmp eq i64 %_39, 0
  %_43 = and i1 %_42, true
  %_44 = xor i1 %_43, true
  br i1 %_44, label %bb8, label %panic5

panic4:                                           ; preds = %bb7
; call core::panicking::panic_misaligned_pointer_dereference
  call void @_ZN4core9panicking36panic_misaligned_pointer_dereference17hcc3cbded9382b6e5E(i64 8, i64 %_7, ptr align 8 @alloc_33163a8e673ee25e32a7ea0cadee3b6e) #4
  unreachable

bb8:                                              ; preds = %bb3
  %3 = load ptr, ptr %temp_node, align 8
  %4 = getelementptr inbounds i8, ptr %3, i64 16
  store ptr null, ptr %4, align 8
  %_0 = load ptr, ptr %temp_node, align 8
  ret ptr %_0

panic5:                                           ; preds = %bb3
; call core::panicking::panic_null_pointer_dereference
  call void @_ZN4core9panicking30panic_null_pointer_dereference17hf718fcc86a223baaE(ptr align 8 @alloc_33163a8e673ee25e32a7ea0cadee3b6e) #4
  unreachable
}

; Function Attrs: nounwind nonlazybind
define void @insert_at_head(i32 %value) unnamed_addr #1 {
start:
  %newNode = call ptr @getNewNode(i32 %value) #3
  %_59 = icmp eq i64 ptrtoint (ptr @head to i64), 0
  %_60 = and i1 %_59, true
  %_61 = xor i1 %_60, true
  br i1 %_61, label %bb13, label %panic

bb13:                                             ; preds = %start
  %_4 = load ptr, ptr @head, align 8
; call core::ptr::mut_ptr::<impl *mut T>::is_null
  %_3 = call zeroext i1 @"_ZN4core3ptr7mut_ptr31_$LT$impl$u20$$BP$mut$u20$T$GT$7is_null17h0e16debab06a6182E"(ptr %_4) #3
  br i1 %_3, label %bb3, label %bb4

panic:                                            ; preds = %start
; call core::panicking::panic_null_pointer_dereference
  call void @_ZN4core9panicking30panic_null_pointer_dereference17hf718fcc86a223baaE(ptr align 8 @alloc_2869dcfb657f7f7c3065a0527ec2bd44) #4
  unreachable

bb4:                                              ; preds = %bb13
  %_80 = icmp eq i64 ptrtoint (ptr @head to i64), 0
  %_81 = and i1 %_80, true
  %_82 = xor i1 %_81, true
  br i1 %_82, label %bb16, label %panic1

bb3:                                              ; preds = %bb13
  %_66 = icmp eq i64 ptrtoint (ptr @head to i64), 0
  %_67 = and i1 %_66, true
  %_68 = xor i1 %_67, true
  br i1 %_68, label %bb14, label %panic7

bb16:                                             ; preds = %bb4
  %_8 = load ptr, ptr @head, align 8
  %_26 = ptrtoint ptr %newNode to i64
  %_29 = and i64 %_26, 7
  %_30 = icmp eq i64 %_29, 0
  br i1 %_30, label %bb8, label %panic2

panic1:                                           ; preds = %bb4
; call core::panicking::panic_null_pointer_dereference
  call void @_ZN4core9panicking30panic_null_pointer_dereference17hf718fcc86a223baaE(ptr align 8 @alloc_2ffed3ee6ec7956d656e23c93c6bf845) #4
  unreachable

bb8:                                              ; preds = %bb16
  %_84 = ptrtoint ptr %newNode to i64
  %_87 = icmp eq i64 %_84, 0
  %_88 = and i1 %_87, true
  %_89 = xor i1 %_88, true
  br i1 %_89, label %bb17, label %panic3

panic2:                                           ; preds = %bb16
; call core::panicking::panic_misaligned_pointer_dereference
  call void @_ZN4core9panicking36panic_misaligned_pointer_dereference17hcc3cbded9382b6e5E(i64 8, i64 %_26, ptr align 8 @alloc_3689581ac3e8ceaaaf9b37c8e542fe4a) #4
  unreachable

bb17:                                             ; preds = %bb8
  %0 = getelementptr inbounds i8, ptr %newNode, i64 8
  store ptr %_8, ptr %0, align 8
  %_12 = load ptr, ptr @head, align 8
  %_20 = ptrtoint ptr %_12 to i64
  %_23 = and i64 %_20, 7
  %_24 = icmp eq i64 %_23, 0
  br i1 %_24, label %bb7, label %panic4

panic3:                                           ; preds = %bb8
; call core::panicking::panic_null_pointer_dereference
  call void @_ZN4core9panicking30panic_null_pointer_dereference17hf718fcc86a223baaE(ptr align 8 @alloc_3689581ac3e8ceaaaf9b37c8e542fe4a) #4
  unreachable

bb7:                                              ; preds = %bb17
  %_91 = ptrtoint ptr %_12 to i64
  %_94 = icmp eq i64 %_91, 0
  %_95 = and i1 %_94, true
  %_96 = xor i1 %_95, true
  br i1 %_96, label %bb18, label %panic5

panic4:                                           ; preds = %bb17
; call core::panicking::panic_misaligned_pointer_dereference
  call void @_ZN4core9panicking36panic_misaligned_pointer_dereference17hcc3cbded9382b6e5E(i64 8, i64 %_20, ptr align 8 @alloc_ff9152b01998611ba6bd446c3ae8be7e) #4
  unreachable

bb18:                                             ; preds = %bb7
  %1 = getelementptr inbounds i8, ptr %_12, i64 16
  store ptr %newNode, ptr %1, align 8
  %_101 = icmp eq i64 ptrtoint (ptr @head to i64), 0
  %_102 = and i1 %_101, true
  %_103 = xor i1 %_102, true
  br i1 %_103, label %bb19, label %panic6

panic5:                                           ; preds = %bb7
; call core::panicking::panic_null_pointer_dereference
  call void @_ZN4core9panicking30panic_null_pointer_dereference17hf718fcc86a223baaE(ptr align 8 @alloc_ff9152b01998611ba6bd446c3ae8be7e) #4
  unreachable

bb19:                                             ; preds = %bb18
  store ptr %newNode, ptr @head, align 8
  br label %bb5

panic6:                                           ; preds = %bb18
; call core::panicking::panic_null_pointer_dereference
  call void @_ZN4core9panicking30panic_null_pointer_dereference17hf718fcc86a223baaE(ptr align 8 @alloc_4c915bac303742f1dcbead2acc9529f0) #4
  unreachable

bb5:                                              ; preds = %bb15, %bb19
  ret void

bb14:                                             ; preds = %bb3
  store ptr %newNode, ptr @head, align 8
  %_73 = icmp eq i64 ptrtoint (ptr @tail to i64), 0
  %_74 = and i1 %_73, true
  %_75 = xor i1 %_74, true
  br i1 %_75, label %bb15, label %panic8

panic7:                                           ; preds = %bb3
; call core::panicking::panic_null_pointer_dereference
  call void @_ZN4core9panicking30panic_null_pointer_dereference17hf718fcc86a223baaE(ptr align 8 @alloc_a36005e6c8643271d28bd8edf2a6f760) #4
  unreachable

bb15:                                             ; preds = %bb14
  store ptr %newNode, ptr @tail, align 8
  br label %bb5

panic8:                                           ; preds = %bb14
; call core::panicking::panic_null_pointer_dereference
  call void @_ZN4core9panicking30panic_null_pointer_dereference17hf718fcc86a223baaE(ptr align 8 @alloc_be7452df8c180fa1736a845b90103292) #4
  unreachable
}

; Function Attrs: nounwind nonlazybind
define void @insert_at_tail(i32 %value) unnamed_addr #1 {
start:
  %newNode = call ptr @getNewNode(i32 %value) #3
  %_59 = icmp eq i64 ptrtoint (ptr @head to i64), 0
  %_60 = and i1 %_59, true
  %_61 = xor i1 %_60, true
  br i1 %_61, label %bb13, label %panic

bb13:                                             ; preds = %start
  %_4 = load ptr, ptr @head, align 8
; call core::ptr::mut_ptr::<impl *mut T>::is_null
  %_3 = call zeroext i1 @"_ZN4core3ptr7mut_ptr31_$LT$impl$u20$$BP$mut$u20$T$GT$7is_null17h0e16debab06a6182E"(ptr %_4) #3
  br i1 %_3, label %bb3, label %bb4

panic:                                            ; preds = %start
; call core::panicking::panic_null_pointer_dereference
  call void @_ZN4core9panicking30panic_null_pointer_dereference17hf718fcc86a223baaE(ptr align 8 @alloc_332b04e046d21efe20c5624d56eafe7f) #4
  unreachable

bb4:                                              ; preds = %bb13
  %_12 = load ptr, ptr @tail, align 8
  %_32 = ptrtoint ptr %_12 to i64
  %_35 = and i64 %_32, 7
  %_36 = icmp eq i64 %_35, 0
  br i1 %_36, label %bb9, label %panic1

bb3:                                              ; preds = %bb13
  %_66 = icmp eq i64 ptrtoint (ptr @head to i64), 0
  %_67 = and i1 %_66, true
  %_68 = xor i1 %_67, true
  br i1 %_68, label %bb14, label %panic7

bb9:                                              ; preds = %bb4
  %_77 = ptrtoint ptr %_12 to i64
  %_80 = icmp eq i64 %_77, 0
  %_81 = and i1 %_80, true
  %_82 = xor i1 %_81, true
  br i1 %_82, label %bb16, label %panic2

panic1:                                           ; preds = %bb4
; call core::panicking::panic_misaligned_pointer_dereference
  call void @_ZN4core9panicking36panic_misaligned_pointer_dereference17hcc3cbded9382b6e5E(i64 8, i64 %_32, ptr align 8 @alloc_0b7356edd6c258138378ae9052cfed88) #4
  unreachable

bb16:                                             ; preds = %bb9
  %0 = getelementptr inbounds i8, ptr %_12, i64 8
  store ptr %newNode, ptr %0, align 8
  %_87 = icmp eq i64 ptrtoint (ptr @tail to i64), 0
  %_88 = and i1 %_87, true
  %_89 = xor i1 %_88, true
  br i1 %_89, label %bb17, label %panic3

panic2:                                           ; preds = %bb9
; call core::panicking::panic_null_pointer_dereference
  call void @_ZN4core9panicking30panic_null_pointer_dereference17hf718fcc86a223baaE(ptr align 8 @alloc_0b7356edd6c258138378ae9052cfed88) #4
  unreachable

bb17:                                             ; preds = %bb16
  %_9 = load ptr, ptr @tail, align 8
  %_20 = ptrtoint ptr %newNode to i64
  %_23 = and i64 %_20, 7
  %_24 = icmp eq i64 %_23, 0
  br i1 %_24, label %bb7, label %panic4

panic3:                                           ; preds = %bb16
; call core::panicking::panic_null_pointer_dereference
  call void @_ZN4core9panicking30panic_null_pointer_dereference17hf718fcc86a223baaE(ptr align 8 @alloc_ed7edddf85031bd5de463627733ebe3f) #4
  unreachable

bb7:                                              ; preds = %bb17
  %_91 = ptrtoint ptr %newNode to i64
  %_94 = icmp eq i64 %_91, 0
  %_95 = and i1 %_94, true
  %_96 = xor i1 %_95, true
  br i1 %_96, label %bb18, label %panic5

panic4:                                           ; preds = %bb17
; call core::panicking::panic_misaligned_pointer_dereference
  call void @_ZN4core9panicking36panic_misaligned_pointer_dereference17hcc3cbded9382b6e5E(i64 8, i64 %_20, ptr align 8 @alloc_fef22c008e94e74eb08b32376ab6ec59) #4
  unreachable

bb18:                                             ; preds = %bb7
  %1 = getelementptr inbounds i8, ptr %newNode, i64 16
  store ptr %_9, ptr %1, align 8
  %_101 = icmp eq i64 ptrtoint (ptr @tail to i64), 0
  %_102 = and i1 %_101, true
  %_103 = xor i1 %_102, true
  br i1 %_103, label %bb19, label %panic6

panic5:                                           ; preds = %bb7
; call core::panicking::panic_null_pointer_dereference
  call void @_ZN4core9panicking30panic_null_pointer_dereference17hf718fcc86a223baaE(ptr align 8 @alloc_fef22c008e94e74eb08b32376ab6ec59) #4
  unreachable

bb19:                                             ; preds = %bb18
  store ptr %newNode, ptr @tail, align 8
  br label %bb5

panic6:                                           ; preds = %bb18
; call core::panicking::panic_null_pointer_dereference
  call void @_ZN4core9panicking30panic_null_pointer_dereference17hf718fcc86a223baaE(ptr align 8 @alloc_cfb0380af96fcc257f59b04d0cb4fc70) #4
  unreachable

bb5:                                              ; preds = %bb15, %bb19
  ret void

bb14:                                             ; preds = %bb3
  store ptr %newNode, ptr @head, align 8
  %_73 = icmp eq i64 ptrtoint (ptr @tail to i64), 0
  %_74 = and i1 %_73, true
  %_75 = xor i1 %_74, true
  br i1 %_75, label %bb15, label %panic8

panic7:                                           ; preds = %bb3
; call core::panicking::panic_null_pointer_dereference
  call void @_ZN4core9panicking30panic_null_pointer_dereference17hf718fcc86a223baaE(ptr align 8 @alloc_4a6eda898bdde920aeb6902aaba4aae6) #4
  unreachable

bb15:                                             ; preds = %bb14
  store ptr %newNode, ptr @tail, align 8
  br label %bb5

panic8:                                           ; preds = %bb14
; call core::panicking::panic_null_pointer_dereference
  call void @_ZN4core9panicking30panic_null_pointer_dereference17hf718fcc86a223baaE(ptr align 8 @alloc_847817f60a835e11a29d83b54122ef92) #4
  unreachable
}

; Function Attrs: nounwind nonlazybind
define void @insert_at_middle(i32 %value, i32 %position) unnamed_addr #1 {
start:
  %i = alloca [4 x i8], align 4
  %temp = alloca [8 x i8], align 8
  %newNode = call ptr @getNewNode(i32 %value) #3
  %_103 = icmp eq i64 ptrtoint (ptr @head to i64), 0
  %_104 = and i1 %_103, true
  %_105 = xor i1 %_104, true
  br i1 %_105, label %bb28, label %panic

bb28:                                             ; preds = %start
  %_5 = load ptr, ptr @head, align 8
; call core::ptr::mut_ptr::<impl *mut T>::is_null
  %_4 = call zeroext i1 @"_ZN4core3ptr7mut_ptr31_$LT$impl$u20$$BP$mut$u20$T$GT$7is_null17h0e16debab06a6182E"(ptr %_5) #3
  br i1 %_4, label %bb3, label %bb4

panic:                                            ; preds = %start
; call core::panicking::panic_null_pointer_dereference
  call void @_ZN4core9panicking30panic_null_pointer_dereference17hf718fcc86a223baaE(ptr align 8 @alloc_245c20208a3025c15b10c5c8fd19fabf) #4
  unreachable

bb4:                                              ; preds = %bb28
  %_10 = call ptr @malloc(i64 24) #3
  store ptr %_10, ptr %temp, align 8
  %_124 = icmp eq i64 ptrtoint (ptr @head to i64), 0
  %_125 = and i1 %_124, true
  %_126 = xor i1 %_125, true
  br i1 %_126, label %bb31, label %panic1

bb3:                                              ; preds = %bb28
  %_110 = icmp eq i64 ptrtoint (ptr @head to i64), 0
  %_111 = and i1 %_110, true
  %_112 = xor i1 %_111, true
  br i1 %_112, label %bb29, label %panic18

bb31:                                             ; preds = %bb4
  %_13 = load ptr, ptr @head, align 8
  store ptr %_13, ptr %temp, align 8
  store i32 1, ptr %i, align 4
  br label %bb7

panic1:                                           ; preds = %bb4
; call core::panicking::panic_null_pointer_dereference
  call void @_ZN4core9panicking30panic_null_pointer_dereference17hf718fcc86a223baaE(ptr align 8 @alloc_ddbd717cda471c31d327238e1a1f7dd8) #4
  unreachable

bb7:                                              ; preds = %bb33, %bb31
  %_17 = load i32, ptr %i, align 4
  %_18 = sub i32 %position, 1
  %_16 = icmp slt i32 %_17, %_18
  br i1 %_16, label %bb8, label %bb11

bb11:                                             ; preds = %bb32, %bb7
  %_57 = load ptr, ptr %temp, align 8
  %_58 = ptrtoint ptr %_57 to i64
  %_61 = and i64 %_58, 7
  %_62 = icmp eq i64 %_61, 0
  br i1 %_62, label %bb21, label %panic6

bb8:                                              ; preds = %bb7
  %_69 = load ptr, ptr %temp, align 8
  %_70 = ptrtoint ptr %_69 to i64
  %_73 = and i64 %_70, 7
  %_74 = icmp eq i64 %_73, 0
  br i1 %_74, label %bb23, label %panic2

bb23:                                             ; preds = %bb8
  %_127 = load ptr, ptr %temp, align 8
  %_128 = ptrtoint ptr %_127 to i64
  %_131 = icmp eq i64 %_128, 0
  %_132 = and i1 %_131, true
  %_133 = xor i1 %_132, true
  br i1 %_133, label %bb32, label %panic3

panic2:                                           ; preds = %bb8
; call core::panicking::panic_misaligned_pointer_dereference
  call void @_ZN4core9panicking36panic_misaligned_pointer_dereference17hcc3cbded9382b6e5E(i64 8, i64 %_70, ptr align 8 @alloc_53878a0abc92ff6c97d7e00682732c5a) #4
  unreachable

bb32:                                             ; preds = %bb23
  %0 = load ptr, ptr %temp, align 8
  %1 = getelementptr inbounds i8, ptr %0, i64 8
  %_20 = load ptr, ptr %1, align 8
; call core::ptr::mut_ptr::<impl *mut T>::is_null
  %_19 = call zeroext i1 @"_ZN4core3ptr7mut_ptr31_$LT$impl$u20$$BP$mut$u20$T$GT$7is_null17h0e16debab06a6182E"(ptr %_20) #3
  br i1 %_19, label %bb11, label %bb10

panic3:                                           ; preds = %bb23
; call core::panicking::panic_null_pointer_dereference
  call void @_ZN4core9panicking30panic_null_pointer_dereference17hf718fcc86a223baaE(ptr align 8 @alloc_53878a0abc92ff6c97d7e00682732c5a) #4
  unreachable

bb10:                                             ; preds = %bb32
  %_63 = load ptr, ptr %temp, align 8
  %_64 = ptrtoint ptr %_63 to i64
  %_67 = and i64 %_64, 7
  %_68 = icmp eq i64 %_67, 0
  br i1 %_68, label %bb22, label %panic4

bb22:                                             ; preds = %bb10
  %_134 = load ptr, ptr %temp, align 8
  %_135 = ptrtoint ptr %_134 to i64
  %_138 = icmp eq i64 %_135, 0
  %_139 = and i1 %_138, true
  %_140 = xor i1 %_139, true
  br i1 %_140, label %bb33, label %panic5

panic4:                                           ; preds = %bb10
; call core::panicking::panic_misaligned_pointer_dereference
  call void @_ZN4core9panicking36panic_misaligned_pointer_dereference17hcc3cbded9382b6e5E(i64 8, i64 %_64, ptr align 8 @alloc_ab6b5210d3a68efd5de113313000a031) #4
  unreachable

bb33:                                             ; preds = %bb22
  %2 = load ptr, ptr %temp, align 8
  %3 = getelementptr inbounds i8, ptr %2, i64 8
  %_21 = load ptr, ptr %3, align 8
  store ptr %_21, ptr %temp, align 8
  %4 = load i32, ptr %i, align 4
  %5 = add i32 %4, 1
  store i32 %5, ptr %i, align 4
  br label %bb7

panic5:                                           ; preds = %bb22
; call core::panicking::panic_null_pointer_dereference
  call void @_ZN4core9panicking30panic_null_pointer_dereference17hf718fcc86a223baaE(ptr align 8 @alloc_ab6b5210d3a68efd5de113313000a031) #4
  unreachable

bb21:                                             ; preds = %bb11
  %_141 = load ptr, ptr %temp, align 8
  %_142 = ptrtoint ptr %_141 to i64
  %_145 = icmp eq i64 %_142, 0
  %_146 = and i1 %_145, true
  %_147 = xor i1 %_146, true
  br i1 %_147, label %bb34, label %panic7

panic6:                                           ; preds = %bb11
; call core::panicking::panic_misaligned_pointer_dereference
  call void @_ZN4core9panicking36panic_misaligned_pointer_dereference17hcc3cbded9382b6e5E(i64 8, i64 %_58, ptr align 8 @alloc_7ec5ca33a68ccfa3f41b4b64e66e6e95) #4
  unreachable

bb34:                                             ; preds = %bb21
  %6 = load ptr, ptr %temp, align 8
  %7 = getelementptr inbounds i8, ptr %6, i64 8
  %_22 = load ptr, ptr %7, align 8
  %_52 = ptrtoint ptr %newNode to i64
  %_55 = and i64 %_52, 7
  %_56 = icmp eq i64 %_55, 0
  br i1 %_56, label %bb20, label %panic8

panic7:                                           ; preds = %bb21
; call core::panicking::panic_null_pointer_dereference
  call void @_ZN4core9panicking30panic_null_pointer_dereference17hf718fcc86a223baaE(ptr align 8 @alloc_7ec5ca33a68ccfa3f41b4b64e66e6e95) #4
  unreachable

bb20:                                             ; preds = %bb34
  %_149 = ptrtoint ptr %newNode to i64
  %_152 = icmp eq i64 %_149, 0
  %_153 = and i1 %_152, true
  %_154 = xor i1 %_153, true
  br i1 %_154, label %bb35, label %panic9

panic8:                                           ; preds = %bb34
; call core::panicking::panic_misaligned_pointer_dereference
  call void @_ZN4core9panicking36panic_misaligned_pointer_dereference17hcc3cbded9382b6e5E(i64 8, i64 %_52, ptr align 8 @alloc_9995e332b2797eeb540179b656e45cd4) #4
  unreachable

bb35:                                             ; preds = %bb20
  %8 = getelementptr inbounds i8, ptr %newNode, i64 8
  store ptr %_22, ptr %8, align 8
  %_23 = load ptr, ptr %temp, align 8
  %_46 = ptrtoint ptr %newNode to i64
  %_49 = and i64 %_46, 7
  %_50 = icmp eq i64 %_49, 0
  br i1 %_50, label %bb19, label %panic10

panic9:                                           ; preds = %bb20
; call core::panicking::panic_null_pointer_dereference
  call void @_ZN4core9panicking30panic_null_pointer_dereference17hf718fcc86a223baaE(ptr align 8 @alloc_9995e332b2797eeb540179b656e45cd4) #4
  unreachable

bb19:                                             ; preds = %bb35
  %_156 = ptrtoint ptr %newNode to i64
  %_159 = icmp eq i64 %_156, 0
  %_160 = and i1 %_159, true
  %_161 = xor i1 %_160, true
  br i1 %_161, label %bb36, label %panic11

panic10:                                          ; preds = %bb35
; call core::panicking::panic_misaligned_pointer_dereference
  call void @_ZN4core9panicking36panic_misaligned_pointer_dereference17hcc3cbded9382b6e5E(i64 8, i64 %_46, ptr align 8 @alloc_153577ba8f98b271c09ac00094c72bfe) #4
  unreachable

bb36:                                             ; preds = %bb19
  %9 = getelementptr inbounds i8, ptr %newNode, i64 16
  store ptr %_23, ptr %9, align 8
  %_39 = load ptr, ptr %temp, align 8
  %_40 = ptrtoint ptr %_39 to i64
  %_43 = and i64 %_40, 7
  %_44 = icmp eq i64 %_43, 0
  br i1 %_44, label %bb18, label %panic12

panic11:                                          ; preds = %bb19
; call core::panicking::panic_null_pointer_dereference
  call void @_ZN4core9panicking30panic_null_pointer_dereference17hf718fcc86a223baaE(ptr align 8 @alloc_153577ba8f98b271c09ac00094c72bfe) #4
  unreachable

bb18:                                             ; preds = %bb36
  %_162 = load ptr, ptr %temp, align 8
  %_163 = ptrtoint ptr %_162 to i64
  %_166 = icmp eq i64 %_163, 0
  %_167 = and i1 %_166, true
  %_168 = xor i1 %_167, true
  br i1 %_168, label %bb37, label %panic13

panic12:                                          ; preds = %bb36
; call core::panicking::panic_misaligned_pointer_dereference
  call void @_ZN4core9panicking36panic_misaligned_pointer_dereference17hcc3cbded9382b6e5E(i64 8, i64 %_40, ptr align 8 @alloc_d5bcf93b2d7c8194211c52721551334d) #4
  unreachable

bb37:                                             ; preds = %bb18
  %10 = load ptr, ptr %temp, align 8
  %11 = getelementptr inbounds i8, ptr %10, i64 8
  %_25 = load ptr, ptr %11, align 8
; call core::ptr::mut_ptr::<impl *mut T>::is_null
  %_24 = call zeroext i1 @"_ZN4core3ptr7mut_ptr31_$LT$impl$u20$$BP$mut$u20$T$GT$7is_null17h0e16debab06a6182E"(ptr %_25) #3
  br i1 %_24, label %bb14, label %bb13

panic13:                                          ; preds = %bb18
; call core::panicking::panic_null_pointer_dereference
  call void @_ZN4core9panicking30panic_null_pointer_dereference17hf718fcc86a223baaE(ptr align 8 @alloc_d5bcf93b2d7c8194211c52721551334d) #4
  unreachable

bb13:                                             ; preds = %bb37
  %12 = load ptr, ptr %temp, align 8
  %13 = getelementptr inbounds i8, ptr %12, i64 8
  %_26 = load ptr, ptr %13, align 8
  %_34 = ptrtoint ptr %_26 to i64
  %_37 = and i64 %_34, 7
  %_38 = icmp eq i64 %_37, 0
  br i1 %_38, label %bb17, label %panic14

bb14:                                             ; preds = %bb38, %bb37
  %_27 = load ptr, ptr %temp, align 8
  %_28 = ptrtoint ptr %_27 to i64
  %_31 = and i64 %_28, 7
  %_32 = icmp eq i64 %_31, 0
  br i1 %_32, label %bb16, label %panic16

bb17:                                             ; preds = %bb13
  %_170 = ptrtoint ptr %_26 to i64
  %_173 = icmp eq i64 %_170, 0
  %_174 = and i1 %_173, true
  %_175 = xor i1 %_174, true
  br i1 %_175, label %bb38, label %panic15

panic14:                                          ; preds = %bb13
; call core::panicking::panic_misaligned_pointer_dereference
  call void @_ZN4core9panicking36panic_misaligned_pointer_dereference17hcc3cbded9382b6e5E(i64 8, i64 %_34, ptr align 8 @alloc_ae5e1855ae657dc6275d634bcc1ad0a8) #4
  unreachable

bb38:                                             ; preds = %bb17
  %14 = getelementptr inbounds i8, ptr %_26, i64 16
  store ptr %newNode, ptr %14, align 8
  br label %bb14

panic15:                                          ; preds = %bb17
; call core::panicking::panic_null_pointer_dereference
  call void @_ZN4core9panicking30panic_null_pointer_dereference17hf718fcc86a223baaE(ptr align 8 @alloc_ae5e1855ae657dc6275d634bcc1ad0a8) #4
  unreachable

bb16:                                             ; preds = %bb14
  %_176 = load ptr, ptr %temp, align 8
  %_177 = ptrtoint ptr %_176 to i64
  %_180 = icmp eq i64 %_177, 0
  %_181 = and i1 %_180, true
  %_182 = xor i1 %_181, true
  br i1 %_182, label %bb39, label %panic17

panic16:                                          ; preds = %bb14
; call core::panicking::panic_misaligned_pointer_dereference
  call void @_ZN4core9panicking36panic_misaligned_pointer_dereference17hcc3cbded9382b6e5E(i64 8, i64 %_28, ptr align 8 @alloc_19ef5686f7c824e937507197093df347) #4
  unreachable

bb39:                                             ; preds = %bb16
  %15 = load ptr, ptr %temp, align 8
  %16 = getelementptr inbounds i8, ptr %15, i64 8
  store ptr %newNode, ptr %16, align 8
  br label %bb15

panic17:                                          ; preds = %bb16
; call core::panicking::panic_null_pointer_dereference
  call void @_ZN4core9panicking30panic_null_pointer_dereference17hf718fcc86a223baaE(ptr align 8 @alloc_19ef5686f7c824e937507197093df347) #4
  unreachable

bb15:                                             ; preds = %bb30, %bb39
  ret void

bb29:                                             ; preds = %bb3
  store ptr %newNode, ptr @head, align 8
  %_117 = icmp eq i64 ptrtoint (ptr @tail to i64), 0
  %_118 = and i1 %_117, true
  %_119 = xor i1 %_118, true
  br i1 %_119, label %bb30, label %panic19

panic18:                                          ; preds = %bb3
; call core::panicking::panic_null_pointer_dereference
  call void @_ZN4core9panicking30panic_null_pointer_dereference17hf718fcc86a223baaE(ptr align 8 @alloc_7fed4a1089f77536642fd43c2a992067) #4
  unreachable

bb30:                                             ; preds = %bb29
  store ptr %newNode, ptr @tail, align 8
  br label %bb15

panic19:                                          ; preds = %bb29
; call core::panicking::panic_null_pointer_dereference
  call void @_ZN4core9panicking30panic_null_pointer_dereference17hf718fcc86a223baaE(ptr align 8 @alloc_9b55ecc9b8b32794fadf225c74bfc5f4) #4
  unreachable
}

; Function Attrs: nounwind nonlazybind
define void @deleteNode(i32 %position) unnamed_addr #1 {
start:
  %i = alloca [4 x i8], align 4
  %tempAnother = alloca [8 x i8], align 8
  %temp = alloca [8 x i8], align 8
  %_146 = icmp eq i64 ptrtoint (ptr @head to i64), 0
  %_147 = and i1 %_146, true
  %_148 = xor i1 %_147, true
  br i1 %_148, label %bb39, label %panic

bb39:                                             ; preds = %start
  %_3 = load ptr, ptr @head, align 8
; call core::ptr::mut_ptr::<impl *mut T>::is_null
  %_2 = call zeroext i1 @"_ZN4core3ptr7mut_ptr31_$LT$impl$u20$$BP$mut$u20$T$GT$7is_null17h0e16debab06a6182E"(ptr %_3) #3
  br i1 %_2, label %bb23, label %bb2

panic:                                            ; preds = %start
; call core::panicking::panic_null_pointer_dereference
  call void @_ZN4core9panicking30panic_null_pointer_dereference17hf718fcc86a223baaE(ptr align 8 @alloc_6ed8ead5c3180de3c836418e748d1daf) #4
  unreachable

bb2:                                              ; preds = %bb39
  %0 = icmp eq i32 %position, 1
  br i1 %0, label %bb3, label %bb4

bb23:                                             ; preds = %bb22, %bb18, %bb43, %bb44, %bb39
  ret void

bb3:                                              ; preds = %bb2
  %_47 = load ptr, ptr @head, align 8
  %_131 = ptrtoint ptr %_47 to i64
  %_134 = and i64 %_131, 7
  %_135 = icmp eq i64 %_134, 0
  br i1 %_135, label %bb37, label %panic1

bb4:                                              ; preds = %bb2
  %_14 = call ptr @malloc(i64 24) #3
  store ptr %_14, ptr %temp, align 8
  %_18 = call ptr @malloc(i64 24) #3
  store ptr %_18, ptr %tempAnother, align 8
  store i32 1, ptr %i, align 4
  %_188 = icmp eq i64 ptrtoint (ptr @head to i64), 0
  %_189 = and i1 %_188, true
  %_190 = xor i1 %_189, true
  br i1 %_190, label %bb45, label %panic9

bb37:                                             ; preds = %bb3
  %_150 = ptrtoint ptr %_47 to i64
  %_153 = icmp eq i64 %_150, 0
  %_154 = and i1 %_153, true
  %_155 = xor i1 %_154, true
  br i1 %_155, label %bb40, label %panic2

panic1:                                           ; preds = %bb3
; call core::panicking::panic_misaligned_pointer_dereference
  call void @_ZN4core9panicking36panic_misaligned_pointer_dereference17hcc3cbded9382b6e5E(i64 8, i64 %_131, ptr align 8 @alloc_5a8dc6b99c1ac937fe6fbec1a1dc4b96) #4
  unreachable

bb40:                                             ; preds = %bb37
  %1 = getelementptr inbounds i8, ptr %_47, i64 8
  %_5 = load ptr, ptr %1, align 8
  %_160 = icmp eq i64 ptrtoint (ptr @head to i64), 0
  %_161 = and i1 %_160, true
  %_162 = xor i1 %_161, true
  br i1 %_162, label %bb41, label %panic3

panic2:                                           ; preds = %bb37
; call core::panicking::panic_null_pointer_dereference
  call void @_ZN4core9panicking30panic_null_pointer_dereference17hf718fcc86a223baaE(ptr align 8 @alloc_5a8dc6b99c1ac937fe6fbec1a1dc4b96) #4
  unreachable

bb41:                                             ; preds = %bb40
  store ptr %_5, ptr @head, align 8
  %_48 = load ptr, ptr @head, align 8
  %_119 = ptrtoint ptr %_48 to i64
  %_122 = and i64 %_119, 7
  %_123 = icmp eq i64 %_122, 0
  br i1 %_123, label %bb35, label %panic4

panic3:                                           ; preds = %bb40
; call core::panicking::panic_null_pointer_dereference
  call void @_ZN4core9panicking30panic_null_pointer_dereference17hf718fcc86a223baaE(ptr align 8 @alloc_19874e16cc89f604ad731fe0d5d2a916) #4
  unreachable

bb35:                                             ; preds = %bb41
  %_164 = ptrtoint ptr %_48 to i64
  %_167 = icmp eq i64 %_164, 0
  %_168 = and i1 %_167, true
  %_169 = xor i1 %_168, true
  br i1 %_169, label %bb42, label %panic5

panic4:                                           ; preds = %bb41
; call core::panicking::panic_misaligned_pointer_dereference
  call void @_ZN4core9panicking36panic_misaligned_pointer_dereference17hcc3cbded9382b6e5E(i64 8, i64 %_119, ptr align 8 @alloc_0b91bd9d6a03156f76814c5e8c64139a) #4
  unreachable

bb42:                                             ; preds = %bb35
  %2 = getelementptr inbounds i8, ptr %_48, i64 8
  %_9 = load ptr, ptr %2, align 8
; call core::ptr::mut_ptr::<impl *mut T>::is_null
  %_8 = call zeroext i1 @"_ZN4core3ptr7mut_ptr31_$LT$impl$u20$$BP$mut$u20$T$GT$7is_null17h0e16debab06a6182E"(ptr %_9) #3
  br i1 %_8, label %bb6, label %bb7

panic5:                                           ; preds = %bb35
; call core::panicking::panic_null_pointer_dereference
  call void @_ZN4core9panicking30panic_null_pointer_dereference17hf718fcc86a223baaE(ptr align 8 @alloc_0b91bd9d6a03156f76814c5e8c64139a) #4
  unreachable

bb7:                                              ; preds = %bb42
  %_49 = load ptr, ptr @head, align 8
  %3 = getelementptr inbounds i8, ptr %_49, i64 8
  %_50 = load ptr, ptr %3, align 8
  %_107 = ptrtoint ptr %_50 to i64
  %_110 = and i64 %_107, 7
  %_111 = icmp eq i64 %_110, 0
  br i1 %_111, label %bb33, label %panic6

bb6:                                              ; preds = %bb42
  %_174 = icmp eq i64 ptrtoint (ptr @tail to i64), 0
  %_175 = and i1 %_174, true
  %_176 = xor i1 %_175, true
  br i1 %_176, label %bb43, label %panic8

bb33:                                             ; preds = %bb7
  %_178 = ptrtoint ptr %_50 to i64
  %_181 = icmp eq i64 %_178, 0
  %_182 = and i1 %_181, true
  %_183 = xor i1 %_182, true
  br i1 %_183, label %bb44, label %panic7

panic6:                                           ; preds = %bb7
; call core::panicking::panic_misaligned_pointer_dereference
  call void @_ZN4core9panicking36panic_misaligned_pointer_dereference17hcc3cbded9382b6e5E(i64 8, i64 %_107, ptr align 8 @alloc_beae4e76a72fb68fcffa273cbc5d9ba2) #4
  unreachable

bb44:                                             ; preds = %bb33
  %4 = getelementptr inbounds i8, ptr %_50, i64 16
  store ptr null, ptr %4, align 8
  br label %bb23

panic7:                                           ; preds = %bb33
; call core::panicking::panic_null_pointer_dereference
  call void @_ZN4core9panicking30panic_null_pointer_dereference17hf718fcc86a223baaE(ptr align 8 @alloc_beae4e76a72fb68fcffa273cbc5d9ba2) #4
  unreachable

bb43:                                             ; preds = %bb6
  store ptr null, ptr @tail, align 8
  br label %bb23

panic8:                                           ; preds = %bb6
; call core::panicking::panic_null_pointer_dereference
  call void @_ZN4core9panicking30panic_null_pointer_dereference17hf718fcc86a223baaE(ptr align 8 @alloc_be6279a693becf20b72df92490ff40e8) #4
  unreachable

bb45:                                             ; preds = %bb4
  %_22 = load ptr, ptr @head, align 8
  store ptr %_22, ptr %temp, align 8
  br label %bb12

panic9:                                           ; preds = %bb4
; call core::panicking::panic_null_pointer_dereference
  call void @_ZN4core9panicking30panic_null_pointer_dereference17hf718fcc86a223baaE(ptr align 8 @alloc_06e8584b8937be9206285b4299dbd43c) #4
  unreachable

bb12:                                             ; preds = %bb47, %bb45
  %_25 = load i32, ptr %i, align 4
  %_24 = icmp slt i32 %_25, %position
  br i1 %_24, label %bb13, label %bb16

bb16:                                             ; preds = %bb46, %bb12
  %_30 = load i32, ptr %i, align 4
  %_29 = icmp eq i32 %_30, %position
  br i1 %_29, label %bb17, label %bb18

bb13:                                             ; preds = %bb12
  %_94 = load ptr, ptr %temp, align 8
  %_95 = ptrtoint ptr %_94 to i64
  %_98 = and i64 %_95, 7
  %_99 = icmp eq i64 %_98, 0
  br i1 %_99, label %bb31, label %panic10

bb31:                                             ; preds = %bb13
  %_191 = load ptr, ptr %temp, align 8
  %_192 = ptrtoint ptr %_191 to i64
  %_195 = icmp eq i64 %_192, 0
  %_196 = and i1 %_195, true
  %_197 = xor i1 %_196, true
  br i1 %_197, label %bb46, label %panic11

panic10:                                          ; preds = %bb13
; call core::panicking::panic_misaligned_pointer_dereference
  call void @_ZN4core9panicking36panic_misaligned_pointer_dereference17hcc3cbded9382b6e5E(i64 8, i64 %_95, ptr align 8 @alloc_f4615d753c00f4c4adbe878780b98b58) #4
  unreachable

bb46:                                             ; preds = %bb31
  %5 = load ptr, ptr %temp, align 8
  %6 = getelementptr inbounds i8, ptr %5, i64 8
  %_27 = load ptr, ptr %6, align 8
; call core::ptr::mut_ptr::<impl *mut T>::is_null
  %_26 = call zeroext i1 @"_ZN4core3ptr7mut_ptr31_$LT$impl$u20$$BP$mut$u20$T$GT$7is_null17h0e16debab06a6182E"(ptr %_27) #3
  br i1 %_26, label %bb16, label %bb15

panic11:                                          ; preds = %bb31
; call core::panicking::panic_null_pointer_dereference
  call void @_ZN4core9panicking30panic_null_pointer_dereference17hf718fcc86a223baaE(ptr align 8 @alloc_f4615d753c00f4c4adbe878780b98b58) #4
  unreachable

bb15:                                             ; preds = %bb46
  %_88 = load ptr, ptr %temp, align 8
  %_89 = ptrtoint ptr %_88 to i64
  %_92 = and i64 %_89, 7
  %_93 = icmp eq i64 %_92, 0
  br i1 %_93, label %bb30, label %panic12

bb30:                                             ; preds = %bb15
  %_198 = load ptr, ptr %temp, align 8
  %_199 = ptrtoint ptr %_198 to i64
  %_202 = icmp eq i64 %_199, 0
  %_203 = and i1 %_202, true
  %_204 = xor i1 %_203, true
  br i1 %_204, label %bb47, label %panic13

panic12:                                          ; preds = %bb15
; call core::panicking::panic_misaligned_pointer_dereference
  call void @_ZN4core9panicking36panic_misaligned_pointer_dereference17hcc3cbded9382b6e5E(i64 8, i64 %_89, ptr align 8 @alloc_309c860f12a842d23ae8135ac52bbe52) #4
  unreachable

bb47:                                             ; preds = %bb30
  %7 = load ptr, ptr %temp, align 8
  %8 = getelementptr inbounds i8, ptr %7, i64 8
  %_28 = load ptr, ptr %8, align 8
  store ptr %_28, ptr %temp, align 8
  %9 = load i32, ptr %i, align 4
  %10 = add i32 %9, 1
  store i32 %10, ptr %i, align 4
  br label %bb12

panic13:                                          ; preds = %bb30
; call core::panicking::panic_null_pointer_dereference
  call void @_ZN4core9panicking30panic_null_pointer_dereference17hf718fcc86a223baaE(ptr align 8 @alloc_309c860f12a842d23ae8135ac52bbe52) #4
  unreachable

bb18:                                             ; preds = %bb16
  %_46 = load i32, ptr %i, align 4
  %_41 = call i32 (ptr, ...) @printf(ptr @alloc_7ffddcca424cfe045c5d12a857a3ed2c, i32 %_46) #3
  br label %bb23

bb17:                                             ; preds = %bb16
  %_82 = load ptr, ptr %temp, align 8
  %_83 = ptrtoint ptr %_82 to i64
  %_86 = and i64 %_83, 7
  %_87 = icmp eq i64 %_86, 0
  br i1 %_87, label %bb29, label %panic14

bb29:                                             ; preds = %bb17
  %_205 = load ptr, ptr %temp, align 8
  %_206 = ptrtoint ptr %_205 to i64
  %_209 = icmp eq i64 %_206, 0
  %_210 = and i1 %_209, true
  %_211 = xor i1 %_210, true
  br i1 %_211, label %bb48, label %panic15

panic14:                                          ; preds = %bb17
; call core::panicking::panic_misaligned_pointer_dereference
  call void @_ZN4core9panicking36panic_misaligned_pointer_dereference17hcc3cbded9382b6e5E(i64 8, i64 %_83, ptr align 8 @alloc_29af6d5c3b78b585cf905cc5363c5d06) #4
  unreachable

bb48:                                             ; preds = %bb29
  %11 = load ptr, ptr %temp, align 8
  %12 = getelementptr inbounds i8, ptr %11, i64 16
  %_31 = load ptr, ptr %12, align 8
  store ptr %_31, ptr %tempAnother, align 8
  %_76 = load ptr, ptr %temp, align 8
  %_77 = ptrtoint ptr %_76 to i64
  %_80 = and i64 %_77, 7
  %_81 = icmp eq i64 %_80, 0
  br i1 %_81, label %bb28, label %panic16

panic15:                                          ; preds = %bb29
; call core::panicking::panic_null_pointer_dereference
  call void @_ZN4core9panicking30panic_null_pointer_dereference17hf718fcc86a223baaE(ptr align 8 @alloc_29af6d5c3b78b585cf905cc5363c5d06) #4
  unreachable

bb28:                                             ; preds = %bb48
  %_212 = load ptr, ptr %temp, align 8
  %_213 = ptrtoint ptr %_212 to i64
  %_216 = icmp eq i64 %_213, 0
  %_217 = and i1 %_216, true
  %_218 = xor i1 %_217, true
  br i1 %_218, label %bb49, label %panic17

panic16:                                          ; preds = %bb48
; call core::panicking::panic_misaligned_pointer_dereference
  call void @_ZN4core9panicking36panic_misaligned_pointer_dereference17hcc3cbded9382b6e5E(i64 8, i64 %_77, ptr align 8 @alloc_87cd2df624e51f3ff5c5db5809a5596b) #4
  unreachable

bb49:                                             ; preds = %bb28
  %13 = load ptr, ptr %temp, align 8
  %14 = getelementptr inbounds i8, ptr %13, i64 8
  %_32 = load ptr, ptr %14, align 8
  %_70 = load ptr, ptr %tempAnother, align 8
  %_71 = ptrtoint ptr %_70 to i64
  %_74 = and i64 %_71, 7
  %_75 = icmp eq i64 %_74, 0
  br i1 %_75, label %bb27, label %panic18

panic17:                                          ; preds = %bb28
; call core::panicking::panic_null_pointer_dereference
  call void @_ZN4core9panicking30panic_null_pointer_dereference17hf718fcc86a223baaE(ptr align 8 @alloc_87cd2df624e51f3ff5c5db5809a5596b) #4
  unreachable

bb27:                                             ; preds = %bb49
  %_219 = load ptr, ptr %tempAnother, align 8
  %_220 = ptrtoint ptr %_219 to i64
  %_223 = icmp eq i64 %_220, 0
  %_224 = and i1 %_223, true
  %_225 = xor i1 %_224, true
  br i1 %_225, label %bb50, label %panic19

panic18:                                          ; preds = %bb49
; call core::panicking::panic_misaligned_pointer_dereference
  call void @_ZN4core9panicking36panic_misaligned_pointer_dereference17hcc3cbded9382b6e5E(i64 8, i64 %_71, ptr align 8 @alloc_b43a6be7cca4e83fa608b327967ef1b0) #4
  unreachable

bb50:                                             ; preds = %bb27
  %15 = load ptr, ptr %tempAnother, align 8
  %16 = getelementptr inbounds i8, ptr %15, i64 8
  store ptr %_32, ptr %16, align 8
  %_64 = load ptr, ptr %temp, align 8
  %_65 = ptrtoint ptr %_64 to i64
  %_68 = and i64 %_65, 7
  %_69 = icmp eq i64 %_68, 0
  br i1 %_69, label %bb26, label %panic20

panic19:                                          ; preds = %bb27
; call core::panicking::panic_null_pointer_dereference
  call void @_ZN4core9panicking30panic_null_pointer_dereference17hf718fcc86a223baaE(ptr align 8 @alloc_b43a6be7cca4e83fa608b327967ef1b0) #4
  unreachable

bb26:                                             ; preds = %bb50
  %_226 = load ptr, ptr %temp, align 8
  %_227 = ptrtoint ptr %_226 to i64
  %_230 = icmp eq i64 %_227, 0
  %_231 = and i1 %_230, true
  %_232 = xor i1 %_231, true
  br i1 %_232, label %bb51, label %panic21

panic20:                                          ; preds = %bb50
; call core::panicking::panic_misaligned_pointer_dereference
  call void @_ZN4core9panicking36panic_misaligned_pointer_dereference17hcc3cbded9382b6e5E(i64 8, i64 %_65, ptr align 8 @alloc_98f1e3f806f6f1a41762c69dbb21d162) #4
  unreachable

bb51:                                             ; preds = %bb26
  %17 = load ptr, ptr %temp, align 8
  %18 = getelementptr inbounds i8, ptr %17, i64 8
  %_34 = load ptr, ptr %18, align 8
; call core::ptr::mut_ptr::<impl *mut T>::is_null
  %_33 = call zeroext i1 @"_ZN4core3ptr7mut_ptr31_$LT$impl$u20$$BP$mut$u20$T$GT$7is_null17h0e16debab06a6182E"(ptr %_34) #3
  br i1 %_33, label %bb20, label %bb21

panic21:                                          ; preds = %bb26
; call core::panicking::panic_null_pointer_dereference
  call void @_ZN4core9panicking30panic_null_pointer_dereference17hf718fcc86a223baaE(ptr align 8 @alloc_98f1e3f806f6f1a41762c69dbb21d162) #4
  unreachable

bb21:                                             ; preds = %bb51
  %_37 = load ptr, ptr %tempAnother, align 8
  %19 = load ptr, ptr %temp, align 8
  %20 = getelementptr inbounds i8, ptr %19, i64 8
  %_51 = load ptr, ptr %20, align 8
  %_53 = ptrtoint ptr %_51 to i64
  %_56 = and i64 %_53, 7
  %_57 = icmp eq i64 %_56, 0
  br i1 %_57, label %bb24, label %panic22

bb20:                                             ; preds = %bb51
  %_35 = load ptr, ptr %tempAnother, align 8
  %_237 = icmp eq i64 ptrtoint (ptr @tail to i64), 0
  %_238 = and i1 %_237, true
  %_239 = xor i1 %_238, true
  br i1 %_239, label %bb52, label %panic24

bb24:                                             ; preds = %bb21
  %_241 = ptrtoint ptr %_51 to i64
  %_244 = icmp eq i64 %_241, 0
  %_245 = and i1 %_244, true
  %_246 = xor i1 %_245, true
  br i1 %_246, label %bb53, label %panic23

panic22:                                          ; preds = %bb21
; call core::panicking::panic_misaligned_pointer_dereference
  call void @_ZN4core9panicking36panic_misaligned_pointer_dereference17hcc3cbded9382b6e5E(i64 8, i64 %_53, ptr align 8 @alloc_dab7fb669b4803dedcdb12d3e7dff7c3) #4
  unreachable

bb53:                                             ; preds = %bb24
  %21 = getelementptr inbounds i8, ptr %_51, i64 16
  store ptr %_37, ptr %21, align 8
  br label %bb22

panic23:                                          ; preds = %bb24
; call core::panicking::panic_null_pointer_dereference
  call void @_ZN4core9panicking30panic_null_pointer_dereference17hf718fcc86a223baaE(ptr align 8 @alloc_dab7fb669b4803dedcdb12d3e7dff7c3) #4
  unreachable

bb22:                                             ; preds = %bb52, %bb53
  %_40 = load ptr, ptr %temp, align 8
  call void @free(ptr %_40) #3
  br label %bb23

bb52:                                             ; preds = %bb20
  store ptr %_35, ptr @tail, align 8
  br label %bb22

panic24:                                          ; preds = %bb20
; call core::panicking::panic_null_pointer_dereference
  call void @_ZN4core9panicking30panic_null_pointer_dereference17hf718fcc86a223baaE(ptr align 8 @alloc_26ce945512e5b824db98558e54903466) #4
  unreachable
}

; Function Attrs: nounwind nonlazybind
define void @printLinkedListForward() unnamed_addr #1 {
start:
  %myList = alloca [8 x i8], align 8
  %_1 = call i32 (ptr, ...) @printf(ptr @alloc_c8ad36a10291c91213a24a22e0a383d1) #3
  store ptr null, ptr %myList, align 8
  %_71 = icmp eq i64 ptrtoint (ptr @head to i64), 0
  %_72 = and i1 %_71, true
  %_73 = xor i1 %_72, true
  br i1 %_73, label %bb17, label %panic

bb17:                                             ; preds = %start
  %_7 = load ptr, ptr @head, align 8
  store ptr %_7, ptr %myList, align 8
  br label %bb2

panic:                                            ; preds = %start
; call core::panicking::panic_null_pointer_dereference
  call void @_ZN4core9panicking30panic_null_pointer_dereference17hf718fcc86a223baaE(ptr align 8 @alloc_3d301d70bff80d690be6ab1826b85086) #4
  unreachable

bb2:                                              ; preds = %bb22, %bb17
  %_78 = icmp eq i64 ptrtoint (ptr @head to i64), 0
  %_79 = and i1 %_78, true
  %_80 = xor i1 %_79, true
  br i1 %_80, label %bb18, label %panic1

bb18:                                             ; preds = %bb2
  %_10 = load ptr, ptr @head, align 8
; call core::ptr::mut_ptr::<impl *mut T>::is_null
  %_9 = call zeroext i1 @"_ZN4core3ptr7mut_ptr31_$LT$impl$u20$$BP$mut$u20$T$GT$7is_null17h0e16debab06a6182E"(ptr %_10) #3
  br i1 %_9, label %bb9, label %bb4

panic1:                                           ; preds = %bb2
; call core::panicking::panic_null_pointer_dereference
  call void @_ZN4core9panicking30panic_null_pointer_dereference17hf718fcc86a223baaE(ptr align 8 @alloc_b7f5a2b9fd42c07cdbbcbd677697f4af) #4
  unreachable

bb4:                                              ; preds = %bb18
  %_85 = icmp eq i64 ptrtoint (ptr @tail to i64), 0
  %_86 = and i1 %_85, true
  %_87 = xor i1 %_86, true
  br i1 %_87, label %bb19, label %panic2

bb9:                                              ; preds = %bb21, %bb19, %bb18
  %_26 = call i32 @puts(ptr @alloc_f3588b28b94f0809fcc8d717033d3e48) #3
  ret void

bb19:                                             ; preds = %bb4
  %_13 = load ptr, ptr @tail, align 8
; call core::ptr::mut_ptr::<impl *mut T>::is_null
  %_12 = call zeroext i1 @"_ZN4core3ptr7mut_ptr31_$LT$impl$u20$$BP$mut$u20$T$GT$7is_null17h0e16debab06a6182E"(ptr %_13) #3
  br i1 %_12, label %bb9, label %bb6

panic2:                                           ; preds = %bb4
; call core::panicking::panic_null_pointer_dereference
  call void @_ZN4core9panicking30panic_null_pointer_dereference17hf718fcc86a223baaE(ptr align 8 @alloc_ba0c72309e78d072281c39a4d5d8b1f7) #4
  unreachable

bb6:                                              ; preds = %bb19
  %_43 = load ptr, ptr %myList, align 8
  %_44 = ptrtoint ptr %_43 to i64
  %_47 = and i64 %_44, 7
  %_48 = icmp eq i64 %_47, 0
  br i1 %_48, label %bb13, label %panic3

bb13:                                             ; preds = %bb6
  %_88 = load ptr, ptr %myList, align 8
  %_89 = ptrtoint ptr %_88 to i64
  %_92 = icmp eq i64 %_89, 0
  %_93 = and i1 %_92, true
  %_94 = xor i1 %_93, true
  br i1 %_94, label %bb20, label %panic4

panic3:                                           ; preds = %bb6
; call core::panicking::panic_misaligned_pointer_dereference
  call void @_ZN4core9panicking36panic_misaligned_pointer_dereference17hcc3cbded9382b6e5E(i64 8, i64 %_44, ptr align 8 @alloc_233efc366c612305a15eb0c6e7a2142d) #4
  unreachable

bb20:                                             ; preds = %bb13
  %0 = load ptr, ptr %myList, align 8
  %_20 = load i32, ptr %0, align 8
  %_15 = call i32 (ptr, ...) @printf(ptr @alloc_b929c71616281bfd1be2bd4038d3ddf1, i32 %_20) #3
  %_22 = load ptr, ptr %myList, align 8
  %_99 = icmp eq i64 ptrtoint (ptr @tail to i64), 0
  %_100 = and i1 %_99, true
  %_101 = xor i1 %_100, true
  br i1 %_101, label %bb21, label %panic5

panic4:                                           ; preds = %bb13
; call core::panicking::panic_null_pointer_dereference
  call void @_ZN4core9panicking30panic_null_pointer_dereference17hf718fcc86a223baaE(ptr align 8 @alloc_233efc366c612305a15eb0c6e7a2142d) #4
  unreachable

bb21:                                             ; preds = %bb20
  %_23 = load ptr, ptr @tail, align 8
  %_21 = icmp eq ptr %_22, %_23
  br i1 %_21, label %bb9, label %bb8

panic5:                                           ; preds = %bb20
; call core::panicking::panic_null_pointer_dereference
  call void @_ZN4core9panicking30panic_null_pointer_dereference17hf718fcc86a223baaE(ptr align 8 @alloc_745f8e410582c5609a11085eea1bb0b0) #4
  unreachable

bb8:                                              ; preds = %bb21
  %_31 = load ptr, ptr %myList, align 8
  %_32 = ptrtoint ptr %_31 to i64
  %_35 = and i64 %_32, 7
  %_36 = icmp eq i64 %_35, 0
  br i1 %_36, label %bb11, label %panic6

bb11:                                             ; preds = %bb8
  %_102 = load ptr, ptr %myList, align 8
  %_103 = ptrtoint ptr %_102 to i64
  %_106 = icmp eq i64 %_103, 0
  %_107 = and i1 %_106, true
  %_108 = xor i1 %_107, true
  br i1 %_108, label %bb22, label %panic7

panic6:                                           ; preds = %bb8
; call core::panicking::panic_misaligned_pointer_dereference
  call void @_ZN4core9panicking36panic_misaligned_pointer_dereference17hcc3cbded9382b6e5E(i64 8, i64 %_32, ptr align 8 @alloc_b6c266c5cc09f2818249f1245f6af9d9) #4
  unreachable

bb22:                                             ; preds = %bb11
  %1 = load ptr, ptr %myList, align 8
  %2 = getelementptr inbounds i8, ptr %1, i64 8
  %_25 = load ptr, ptr %2, align 8
  store ptr %_25, ptr %myList, align 8
  br label %bb2

panic7:                                           ; preds = %bb11
; call core::panicking::panic_null_pointer_dereference
  call void @_ZN4core9panicking30panic_null_pointer_dereference17hf718fcc86a223baaE(ptr align 8 @alloc_b6c266c5cc09f2818249f1245f6af9d9) #4
  unreachable
}

; Function Attrs: nounwind nonlazybind
define void @printLinkedListBackward() unnamed_addr #1 {
start:
  %myList = alloca [8 x i8], align 8
  %_1 = call i32 (ptr, ...) @printf(ptr @alloc_5aac9180518332af6feff9a608d54801) #3
  store ptr null, ptr %myList, align 8
  %_69 = icmp eq i64 ptrtoint (ptr @tail to i64), 0
  %_70 = and i1 %_69, true
  %_71 = xor i1 %_70, true
  br i1 %_71, label %bb18, label %panic

bb18:                                             ; preds = %start
  %_7 = load ptr, ptr @tail, align 8
  store ptr %_7, ptr %myList, align 8
  br label %bb2

panic:                                            ; preds = %start
; call core::panicking::panic_null_pointer_dereference
  call void @_ZN4core9panicking30panic_null_pointer_dereference17hf718fcc86a223baaE(ptr align 8 @alloc_4f481045738f764d370480e041859fda) #4
  unreachable

bb2:                                              ; preds = %bb23, %bb18
  %_76 = icmp eq i64 ptrtoint (ptr @head to i64), 0
  %_77 = and i1 %_76, true
  %_78 = xor i1 %_77, true
  br i1 %_78, label %bb19, label %panic1

bb19:                                             ; preds = %bb2
  %_10 = load ptr, ptr @head, align 8
; call core::ptr::mut_ptr::<impl *mut T>::is_null
  %_9 = call zeroext i1 @"_ZN4core3ptr7mut_ptr31_$LT$impl$u20$$BP$mut$u20$T$GT$7is_null17h0e16debab06a6182E"(ptr %_10) #3
  br i1 %_9, label %bb10, label %bb4

panic1:                                           ; preds = %bb2
; call core::panicking::panic_null_pointer_dereference
  call void @_ZN4core9panicking30panic_null_pointer_dereference17hf718fcc86a223baaE(ptr align 8 @alloc_026e0387c7dcb345b8b3f04b6b228928) #4
  unreachable

bb4:                                              ; preds = %bb19
  %_83 = icmp eq i64 ptrtoint (ptr @tail to i64), 0
  %_84 = and i1 %_83, true
  %_85 = xor i1 %_84, true
  br i1 %_85, label %bb20, label %panic2

bb10:                                             ; preds = %bb22, %bb20, %bb19
  %_24 = call i32 @puts(ptr @alloc_f3588b28b94f0809fcc8d717033d3e48) #3
  ret void

bb20:                                             ; preds = %bb4
  %_13 = load ptr, ptr @tail, align 8
; call core::ptr::mut_ptr::<impl *mut T>::is_null
  %_12 = call zeroext i1 @"_ZN4core3ptr7mut_ptr31_$LT$impl$u20$$BP$mut$u20$T$GT$7is_null17h0e16debab06a6182E"(ptr %_13) #3
  br i1 %_12, label %bb10, label %bb6

panic2:                                           ; preds = %bb4
; call core::panicking::panic_null_pointer_dereference
  call void @_ZN4core9panicking30panic_null_pointer_dereference17hf718fcc86a223baaE(ptr align 8 @alloc_74e8fc983f51a43749a13a78af4ccbfc) #4
  unreachable

bb6:                                              ; preds = %bb20
  %_41 = load ptr, ptr %myList, align 8
  %_42 = ptrtoint ptr %_41 to i64
  %_45 = and i64 %_42, 7
  %_46 = icmp eq i64 %_45, 0
  br i1 %_46, label %bb14, label %panic3

bb14:                                             ; preds = %bb6
  %_86 = load ptr, ptr %myList, align 8
  %_87 = ptrtoint ptr %_86 to i64
  %_90 = icmp eq i64 %_87, 0
  %_91 = and i1 %_90, true
  %_92 = xor i1 %_91, true
  br i1 %_92, label %bb21, label %panic4

panic3:                                           ; preds = %bb6
; call core::panicking::panic_misaligned_pointer_dereference
  call void @_ZN4core9panicking36panic_misaligned_pointer_dereference17hcc3cbded9382b6e5E(i64 8, i64 %_42, ptr align 8 @alloc_f1cc639bdd575dc178c8a9260aa7bf30) #4
  unreachable

bb21:                                             ; preds = %bb14
  %0 = load ptr, ptr %myList, align 8
  %_20 = load i32, ptr %0, align 8
  %_15 = call i32 (ptr, ...) @printf(ptr @alloc_b929c71616281bfd1be2bd4038d3ddf1, i32 %_20) #3
  %_35 = load ptr, ptr %myList, align 8
  %_36 = ptrtoint ptr %_35 to i64
  %_39 = and i64 %_36, 7
  %_40 = icmp eq i64 %_39, 0
  br i1 %_40, label %bb13, label %panic5

panic4:                                           ; preds = %bb14
; call core::panicking::panic_null_pointer_dereference
  call void @_ZN4core9panicking30panic_null_pointer_dereference17hf718fcc86a223baaE(ptr align 8 @alloc_f1cc639bdd575dc178c8a9260aa7bf30) #4
  unreachable

bb13:                                             ; preds = %bb21
  %_93 = load ptr, ptr %myList, align 8
  %_94 = ptrtoint ptr %_93 to i64
  %_97 = icmp eq i64 %_94, 0
  %_98 = and i1 %_97, true
  %_99 = xor i1 %_98, true
  br i1 %_99, label %bb22, label %panic6

panic5:                                           ; preds = %bb21
; call core::panicking::panic_misaligned_pointer_dereference
  call void @_ZN4core9panicking36panic_misaligned_pointer_dereference17hcc3cbded9382b6e5E(i64 8, i64 %_36, ptr align 8 @alloc_4387045ef11fa5b4c5890e05887fa270) #4
  unreachable

bb22:                                             ; preds = %bb13
  %1 = load ptr, ptr %myList, align 8
  %2 = getelementptr inbounds i8, ptr %1, i64 16
  %_22 = load ptr, ptr %2, align 8
; call core::ptr::mut_ptr::<impl *mut T>::is_null
  %_21 = call zeroext i1 @"_ZN4core3ptr7mut_ptr31_$LT$impl$u20$$BP$mut$u20$T$GT$7is_null17h0e16debab06a6182E"(ptr %_22) #3
  br i1 %_21, label %bb10, label %bb9

panic6:                                           ; preds = %bb13
; call core::panicking::panic_null_pointer_dereference
  call void @_ZN4core9panicking30panic_null_pointer_dereference17hf718fcc86a223baaE(ptr align 8 @alloc_4387045ef11fa5b4c5890e05887fa270) #4
  unreachable

bb9:                                              ; preds = %bb22
  %_29 = load ptr, ptr %myList, align 8
  %_30 = ptrtoint ptr %_29 to i64
  %_33 = and i64 %_30, 7
  %_34 = icmp eq i64 %_33, 0
  br i1 %_34, label %bb12, label %panic7

bb12:                                             ; preds = %bb9
  %_100 = load ptr, ptr %myList, align 8
  %_101 = ptrtoint ptr %_100 to i64
  %_104 = icmp eq i64 %_101, 0
  %_105 = and i1 %_104, true
  %_106 = xor i1 %_105, true
  br i1 %_106, label %bb23, label %panic8

panic7:                                           ; preds = %bb9
; call core::panicking::panic_misaligned_pointer_dereference
  call void @_ZN4core9panicking36panic_misaligned_pointer_dereference17hcc3cbded9382b6e5E(i64 8, i64 %_30, ptr align 8 @alloc_2ce26ef5b3dbcdd40d4b60956d6973ca) #4
  unreachable

bb23:                                             ; preds = %bb12
  %3 = load ptr, ptr %myList, align 8
  %4 = getelementptr inbounds i8, ptr %3, i64 16
  %_23 = load ptr, ptr %4, align 8
  store ptr %_23, ptr %myList, align 8
  br label %bb2

panic8:                                           ; preds = %bb12
; call core::panicking::panic_null_pointer_dereference
  call void @_ZN4core9panicking30panic_null_pointer_dereference17hf718fcc86a223baaE(ptr align 8 @alloc_2ce26ef5b3dbcdd40d4b60956d6973ca) #4
  unreachable
}

; Function Attrs: nounwind nonlazybind
define zeroext i1 @isValueAvailable(i32 %value) unnamed_addr #1 {
start:
  %p = alloca [8 x i8], align 8
  %_0 = alloca [1 x i8], align 1
  %_31 = icmp eq i64 ptrtoint (ptr @head to i64), 0
  %_32 = and i1 %_31, true
  %_33 = xor i1 %_32, true
  br i1 %_33, label %bb11, label %panic

bb11:                                             ; preds = %start
  %0 = load ptr, ptr @head, align 8
  store ptr %0, ptr %p, align 8
  br label %bb1

panic:                                            ; preds = %start
; call core::panicking::panic_null_pointer_dereference
  call void @_ZN4core9panicking30panic_null_pointer_dereference17hf718fcc86a223baaE(ptr align 8 @alloc_9afdaa843513f516e6791c9465cac10d) #4
  unreachable

bb1:                                              ; preds = %bb13, %bb11
  %_5 = load ptr, ptr %p, align 8
; call core::ptr::mut_ptr::<impl *mut T>::is_null
  %_4 = call zeroext i1 @"_ZN4core3ptr7mut_ptr31_$LT$impl$u20$$BP$mut$u20$T$GT$7is_null17h0e16debab06a6182E"(ptr %_5) #3
  br i1 %_4, label %bb3, label %bb4

bb4:                                              ; preds = %bb1
  %_15 = load ptr, ptr %p, align 8
  %_16 = ptrtoint ptr %_15 to i64
  %_19 = and i64 %_16, 7
  %_20 = icmp eq i64 %_19, 0
  br i1 %_20, label %bb9, label %panic1

bb3:                                              ; preds = %bb1
  store i8 0, ptr %_0, align 1
  br label %bb7

bb9:                                              ; preds = %bb4
  %_34 = load ptr, ptr %p, align 8
  %_35 = ptrtoint ptr %_34 to i64
  %_38 = icmp eq i64 %_35, 0
  %_39 = and i1 %_38, true
  %_40 = xor i1 %_39, true
  br i1 %_40, label %bb12, label %panic2

panic1:                                           ; preds = %bb4
; call core::panicking::panic_misaligned_pointer_dereference
  call void @_ZN4core9panicking36panic_misaligned_pointer_dereference17hcc3cbded9382b6e5E(i64 8, i64 %_16, ptr align 8 @alloc_65ea2bcae1e73f3fc7ed329f52d00e5e) #4
  unreachable

bb12:                                             ; preds = %bb9
  %1 = load ptr, ptr %p, align 8
  %_7 = load i32, ptr %1, align 8
  %_6 = icmp eq i32 %_7, %value
  br i1 %_6, label %bb5, label %bb6

panic2:                                           ; preds = %bb9
; call core::panicking::panic_null_pointer_dereference
  call void @_ZN4core9panicking30panic_null_pointer_dereference17hf718fcc86a223baaE(ptr align 8 @alloc_65ea2bcae1e73f3fc7ed329f52d00e5e) #4
  unreachable

bb6:                                              ; preds = %bb12
  %_9 = load ptr, ptr %p, align 8
  %_10 = ptrtoint ptr %_9 to i64
  %_13 = and i64 %_10, 7
  %_14 = icmp eq i64 %_13, 0
  br i1 %_14, label %bb8, label %panic3

bb5:                                              ; preds = %bb12
  store i8 1, ptr %_0, align 1
  br label %bb7

bb8:                                              ; preds = %bb6
  %_41 = load ptr, ptr %p, align 8
  %_42 = ptrtoint ptr %_41 to i64
  %_45 = icmp eq i64 %_42, 0
  %_46 = and i1 %_45, true
  %_47 = xor i1 %_46, true
  br i1 %_47, label %bb13, label %panic4

panic3:                                           ; preds = %bb6
; call core::panicking::panic_misaligned_pointer_dereference
  call void @_ZN4core9panicking36panic_misaligned_pointer_dereference17hcc3cbded9382b6e5E(i64 8, i64 %_10, ptr align 8 @alloc_387001fe3b9e1d3b33494c42a5fc0980) #4
  unreachable

bb13:                                             ; preds = %bb8
  %2 = load ptr, ptr %p, align 8
  %3 = getelementptr inbounds i8, ptr %2, i64 8
  %_8 = load ptr, ptr %3, align 8
  store ptr %_8, ptr %p, align 8
  br label %bb1

panic4:                                           ; preds = %bb8
; call core::panicking::panic_null_pointer_dereference
  call void @_ZN4core9panicking30panic_null_pointer_dereference17hf718fcc86a223baaE(ptr align 8 @alloc_387001fe3b9e1d3b33494c42a5fc0980) #4
  unreachable

bb7:                                              ; preds = %bb3, %bb5
  %4 = load i8, ptr %_0, align 1
  %5 = trunc nuw i8 %4 to i1
  ret i1 %5
}

; Function Attrs: nounwind nonlazybind
declare ptr @malloc(i64) unnamed_addr #1

; core::panicking::panic_misaligned_pointer_dereference
; Function Attrs: cold minsize noinline noreturn nounwind nonlazybind optsize
declare void @_ZN4core9panicking36panic_misaligned_pointer_dereference17hcc3cbded9382b6e5E(i64, i64, ptr align 8) unnamed_addr #2

; core::panicking::panic_null_pointer_dereference
; Function Attrs: cold minsize noinline noreturn nounwind nonlazybind optsize
declare void @_ZN4core9panicking30panic_null_pointer_dereference17hf718fcc86a223baaE(ptr align 8) unnamed_addr #2

; Function Attrs: nounwind nonlazybind
declare i32 @printf(ptr, ...) unnamed_addr #1

; Function Attrs: nounwind nonlazybind
declare void @free(ptr) unnamed_addr #1

; Function Attrs: nounwind nonlazybind
declare i32 @puts(ptr) unnamed_addr #1

attributes #0 = { inlinehint nounwind nonlazybind "probe-stack"="inline-asm" "target-cpu"="x86-64" }
attributes #1 = { nounwind nonlazybind "probe-stack"="inline-asm" "target-cpu"="x86-64" }
attributes #2 = { cold minsize noinline noreturn nounwind nonlazybind optsize "probe-stack"="inline-asm" "target-cpu"="x86-64" }
attributes #3 = { nounwind }
attributes #4 = { noreturn nounwind }

!llvm.module.flags = !{!0, !1}
!llvm.ident = !{!2}

!0 = !{i32 8, !"PIC Level", i32 2}
!1 = !{i32 2, !"RtLibUseGOT", i32 1}
!2 = !{!"rustc version 1.88.0-nightly (0b45675cf 2025-03-31)"}
