; ModuleID = '5oncn0u2wivi0etqfetcd6tbl'
source_filename = "5oncn0u2wivi0etqfetcd6tbl"
target datalayout = "e-m:e-p270:32:32-p271:32:32-p272:64:64-i64:64-i128:128-f80:128-n8:16:32:64-S128"
target triple = "x86_64-unknown-linux-gnu"

@alloc_f5ffd2fd1476bab43ad89fb40c72d0c5 = private unnamed_addr constant [10 x i8] c"src/lib.rs", align 1
@alloc_0b50959ea5d314dc6ee942953635721f = private unnamed_addr constant <{ ptr, [16 x i8] }> <{ ptr @alloc_f5ffd2fd1476bab43ad89fb40c72d0c5, [16 x i8] c"\0A\00\00\00\00\00\00\00&\00\00\00\05\00\00\00" }>, align 8
@alloc_b27378ee2bd181288edc40722b5e7ff9 = private unnamed_addr constant <{ ptr, [16 x i8] }> <{ ptr @alloc_f5ffd2fd1476bab43ad89fb40c72d0c5, [16 x i8] c"\0A\00\00\00\00\00\00\00'\00\00\00\05\00\00\00" }>, align 8
@alloc_a5af790506893fecb536f0eb82cf8c98 = private unnamed_addr constant <{ ptr, [16 x i8] }> <{ ptr @alloc_f5ffd2fd1476bab43ad89fb40c72d0c5, [16 x i8] c"\0A\00\00\00\00\00\00\00(\00\00\00\05\00\00\00" }>, align 8
@alloc_5b5279463fb85ea043a38d9e68062f54 = private unnamed_addr constant <{ ptr, [16 x i8] }> <{ ptr @alloc_f5ffd2fd1476bab43ad89fb40c72d0c5, [16 x i8] c"\0A\00\00\00\00\00\00\00)\00\00\00\13\00\00\00" }>, align 8
@alloc_c7c39c6091be3a9f85ea3d17117247d9 = private unnamed_addr constant <{ ptr, [16 x i8] }> <{ ptr @alloc_f5ffd2fd1476bab43ad89fb40c72d0c5, [16 x i8] c"\0A\00\00\00\00\00\00\00)\00\00\00\05\00\00\00" }>, align 8
@alloc_b27ebd3a40138308000e20c678d5dd0d = private unnamed_addr constant <{ ptr, [16 x i8] }> <{ ptr @alloc_f5ffd2fd1476bab43ad89fb40c72d0c5, [16 x i8] c"\0A\00\00\00\00\00\00\00*\00\00\00\08\00\00\00" }>, align 8
@alloc_91938f4c0a8778134eecfb5b5f91b93a = private unnamed_addr constant <{ ptr, [16 x i8] }> <{ ptr @alloc_f5ffd2fd1476bab43ad89fb40c72d0c5, [16 x i8] c"\0A\00\00\00\00\00\00\00.\00\00\00\1F\00\00\00" }>, align 8
@alloc_ba1bf0d081f4fc27094bac12cee33d75 = private unnamed_addr constant <{ ptr, [16 x i8] }> <{ ptr @alloc_f5ffd2fd1476bab43ad89fb40c72d0c5, [16 x i8] c"\0A\00\00\00\00\00\00\002\00\00\00\13\00\00\00" }>, align 8
@alloc_eea076ea731bcd1065228f3a1014b99c = private unnamed_addr constant <{ ptr, [16 x i8] }> <{ ptr @alloc_f5ffd2fd1476bab43ad89fb40c72d0c5, [16 x i8] c"\0A\00\00\00\00\00\00\002\00\00\00D\00\00\00" }>, align 8
@alloc_c896ac5653a61a3e67da70954334056e = private unnamed_addr constant <{ ptr, [16 x i8] }> <{ ptr @alloc_f5ffd2fd1476bab43ad89fb40c72d0c5, [16 x i8] c"\0A\00\00\00\00\00\00\002\00\00\00.\00\00\00" }>, align 8
@alloc_0fa31c1059ed1a3b1eba14d36ff0670f = private unnamed_addr constant <{ ptr, [16 x i8] }> <{ ptr @alloc_f5ffd2fd1476bab43ad89fb40c72d0c5, [16 x i8] c"\0A\00\00\00\00\00\00\004\00\00\00\08\00\00\00" }>, align 8
@alloc_63188e69ffb2521d05f02437e1ad7f52 = private unnamed_addr constant <{ ptr, [16 x i8] }> <{ ptr @alloc_f5ffd2fd1476bab43ad89fb40c72d0c5, [16 x i8] c"\0A\00\00\00\00\00\00\007\00\00\00\09\00\00\00" }>, align 8
@alloc_c0f90236b5e415c2ebc24f248a4af884 = private unnamed_addr constant <{ ptr, [16 x i8] }> <{ ptr @alloc_f5ffd2fd1476bab43ad89fb40c72d0c5, [16 x i8] c"\0A\00\00\00\00\00\00\005\00\00\00\09\00\00\00" }>, align 8
@alloc_cd6f5addf8c0ee6dcd886fc661a12d39 = private unnamed_addr constant <{ ptr, [16 x i8] }> <{ ptr @alloc_f5ffd2fd1476bab43ad89fb40c72d0c5, [16 x i8] c"\0A\00\00\00\00\00\00\00+\00\00\00\09\00\00\00" }>, align 8
@alloc_b929c71616281bfd1be2bd4038d3ddf1 = private unnamed_addr constant [4 x i8] c"%d \00", align 1
@alloc_a689375c4a29b588ebec849568fb65a9 = private unnamed_addr constant <{ ptr, [16 x i8] }> <{ ptr @alloc_f5ffd2fd1476bab43ad89fb40c72d0c5, [16 x i8] c"\0A\00\00\00\00\00\00\00=\00\00\00>\00\00\00" }>, align 8
@alloc_b5998cc32dae40afff89863176ee401c = private unnamed_addr constant <{ ptr, [16 x i8] }> <{ ptr @alloc_f5ffd2fd1476bab43ad89fb40c72d0c5, [16 x i8] c"\0A\00\00\00\00\00\00\00>\00\00\00\10\00\00\00" }>, align 8
@alloc_7ee74070257268e41eaa2eb93955cf64 = private unnamed_addr constant <{ ptr, [16 x i8] }> <{ ptr @alloc_f5ffd2fd1476bab43ad89fb40c72d0c5, [16 x i8] c"\0A\00\00\00\00\00\00\00?\00\00\00\10\00\00\00" }>, align 8
@stack = global [800 x i8] zeroinitializer, align 8
@sp = global [4 x i8] c"\FF\FF\FF\FF", align 4
@alloc_df86e900c94cc1f649585c8cd53247f2 = private unnamed_addr constant <{ ptr, [16 x i8] }> <{ ptr @alloc_f5ffd2fd1476bab43ad89fb40c72d0c5, [16 x i8] c"\0A\00\00\00\00\00\00\00H\00\00\00\05\00\00\00" }>, align 8
@alloc_331faa19afa301c918f7c2da00ad03ea = private unnamed_addr constant <{ ptr, [16 x i8] }> <{ ptr @alloc_f5ffd2fd1476bab43ad89fb40c72d0c5, [16 x i8] c"\0A\00\00\00\00\00\00\00I\00\00\00\0B\00\00\00" }>, align 8
@alloc_5e508f8b25e8846369e349f2be531966 = private unnamed_addr constant <{ ptr, [16 x i8] }> <{ ptr @alloc_f5ffd2fd1476bab43ad89fb40c72d0c5, [16 x i8] c"\0A\00\00\00\00\00\00\00I\00\00\00\05\00\00\00" }>, align 8
@alloc_507fd805f5e346d08a77749bde46500b = private unnamed_addr constant <{ ptr, [16 x i8] }> <{ ptr @alloc_f5ffd2fd1476bab43ad89fb40c72d0c5, [16 x i8] c"\0A\00\00\00\00\00\00\00M\00\00\00\12\00\00\00" }>, align 8
@alloc_2be66f708afb6c9c7afef10e3ef8e1cd = private unnamed_addr constant <{ ptr, [16 x i8] }> <{ ptr @alloc_f5ffd2fd1476bab43ad89fb40c72d0c5, [16 x i8] c"\0A\00\00\00\00\00\00\00N\00\00\00\0A\00\00\00" }>, align 8
@alloc_d276e58b0b165cf6e7ab175535023059 = private unnamed_addr constant <{ ptr, [16 x i8] }> <{ ptr @alloc_f5ffd2fd1476bab43ad89fb40c72d0c5, [16 x i8] c"\0A\00\00\00\00\00\00\00N\00\00\00\05\00\00\00" }>, align 8
@alloc_133884221307f360c9bf1d5d30168c07 = private unnamed_addr constant <{ ptr, [16 x i8] }> <{ ptr @alloc_f5ffd2fd1476bab43ad89fb40c72d0c5, [16 x i8] c"\0A\00\00\00\00\00\00\00O\00\00\00\0C\00\00\00" }>, align 8
@alloc_361462eda4b93086c107bec19c62202e = private unnamed_addr constant <{ ptr, [16 x i8] }> <{ ptr @alloc_f5ffd2fd1476bab43ad89fb40c72d0c5, [16 x i8] c"\0A\00\00\00\00\00\00\00S\00\00\00\0D\00\00\00" }>, align 8
@alloc_db4d7606cd927a81a840b7608f52bc9c = private unnamed_addr constant <{ ptr, [16 x i8] }> <{ ptr @alloc_f5ffd2fd1476bab43ad89fb40c72d0c5, [16 x i8] c"\0A\00\00\00\00\00\00\00^\00\00\00\0D\00\00\00" }>, align 8
@alloc_5ca9e62fc1e17ed7e8e214ac1585f1ac = private unnamed_addr constant <{ ptr, [16 x i8] }> <{ ptr @alloc_f5ffd2fd1476bab43ad89fb40c72d0c5, [16 x i8] c"\0A\00\00\00\00\00\00\00`\00\00\00\10\00\00\00" }>, align 8
@alloc_d7634a2dc8c3c52458dd62286c2deb4b = private unnamed_addr constant <{ ptr, [16 x i8] }> <{ ptr @alloc_f5ffd2fd1476bab43ad89fb40c72d0c5, [16 x i8] c"\0A\00\00\00\00\00\00\00a\00\00\00\19\00\00\00" }>, align 8
@alloc_9ea3d517f7855741afb3ef42cf7a1385 = private unnamed_addr constant <{ ptr, [16 x i8] }> <{ ptr @alloc_f5ffd2fd1476bab43ad89fb40c72d0c5, [16 x i8] c"\0A\00\00\00\00\00\00\00c\00\00\00\13\00\00\00" }>, align 8
@alloc_9e26390110a9fe3724997bf16ac2df84 = private unnamed_addr constant <{ ptr, [16 x i8] }> <{ ptr @alloc_f5ffd2fd1476bab43ad89fb40c72d0c5, [16 x i8] c"\0A\00\00\00\00\00\00\00g\00\00\00\18\00\00\00" }>, align 8
@alloc_8a15a7387ec8196140b6b0100d90557f = private unnamed_addr constant <{ ptr, [16 x i8] }> <{ ptr @alloc_f5ffd2fd1476bab43ad89fb40c72d0c5, [16 x i8] c"\0A\00\00\00\00\00\00\00h\00\00\00\13\00\00\00" }>, align 8
@queue = global [800 x i8] zeroinitializer, align 8
@head = global [4 x i8] zeroinitializer, align 4
@rear = global [4 x i8] zeroinitializer, align 4
@alloc_0882f91a599619b9fd464d5e2869844d = private unnamed_addr constant <{ ptr, [16 x i8] }> <{ ptr @alloc_f5ffd2fd1476bab43ad89fb40c72d0c5, [16 x i8] c"\0A\00\00\00\00\00\00\00u\00\00\00\0D\00\00\00" }>, align 8
@alloc_3a86206865b41f75deb03b7e17362bc6 = private unnamed_addr constant <{ ptr, [16 x i8] }> <{ ptr @alloc_f5ffd2fd1476bab43ad89fb40c72d0c5, [16 x i8] c"\0A\00\00\00\00\00\00\00u\00\00\00\15\00\00\00" }>, align 8
@alloc_2f6cf15279033a4b4c1bbdc81017239c = private unnamed_addr constant <{ ptr, [16 x i8] }> <{ ptr @alloc_f5ffd2fd1476bab43ad89fb40c72d0c5, [16 x i8] c"\0A\00\00\00\00\00\00\00y\00\00\00\0E\00\00\00" }>, align 8
@alloc_7ed355707147a2ae12a104f88a7d5cda = private unnamed_addr constant <{ ptr, [16 x i8] }> <{ ptr @alloc_f5ffd2fd1476bab43ad89fb40c72d0c5, [16 x i8] c"\0A\00\00\00\00\00\00\00y\00\00\00\0D\00\00\00" }>, align 8
@alloc_692856fc57fa019d53bf550f89dfb5c0 = private unnamed_addr constant <{ ptr, [16 x i8] }> <{ ptr @alloc_f5ffd2fd1476bab43ad89fb40c72d0c5, [16 x i8] c"\0A\00\00\00\00\00\00\00y\00\00\00?\00\00\00" }>, align 8
@alloc_bb2283afc8d334dfbec6b1ce37b24fa1 = private unnamed_addr constant <{ ptr, [16 x i8] }> <{ ptr @alloc_f5ffd2fd1476bab43ad89fb40c72d0c5, [16 x i8] c"\0A\00\00\00\00\00\00\00\81\00\00\00\0B\00\00\00" }>, align 8
@alloc_7d8d58b36d2b2d423935116080665165 = private unnamed_addr constant <{ ptr, [16 x i8] }> <{ ptr @alloc_f5ffd2fd1476bab43ad89fb40c72d0c5, [16 x i8] c"\0A\00\00\00\00\00\00\00\81\00\00\00\05\00\00\00" }>, align 8
@alloc_9860fb69fecd049fe02a8887b8fca456 = private unnamed_addr constant <{ ptr, [16 x i8] }> <{ ptr @alloc_f5ffd2fd1476bab43ad89fb40c72d0c5, [16 x i8] c"\0A\00\00\00\00\00\00\00\82\00\00\00\0D\00\00\00" }>, align 8
@alloc_a675f529b481df6ed4a8d7df8a46dd0a = private unnamed_addr constant <{ ptr, [16 x i8] }> <{ ptr @alloc_f5ffd2fd1476bab43ad89fb40c72d0c5, [16 x i8] c"\0A\00\00\00\00\00\00\00\82\00\00\00\0C\00\00\00" }>, align 8
@alloc_3689581ac3e8ceaaaf9b37c8e542fe4a = private unnamed_addr constant <{ ptr, [16 x i8] }> <{ ptr @alloc_f5ffd2fd1476bab43ad89fb40c72d0c5, [16 x i8] c"\0A\00\00\00\00\00\00\00\82\00\00\00\05\00\00\00" }>, align 8
@alloc_9d742cb45c4b2acb51b1774092d4bf53 = private unnamed_addr constant [20 x i8] c"Error:almost full.\0A\00", align 1
@alloc_1152936f1bd54fc1c1cf7be441131fac = private unnamed_addr constant <{ ptr, [16 x i8] }> <{ ptr @alloc_f5ffd2fd1476bab43ad89fb40c72d0c5, [16 x i8] c"\0A\00\00\00\00\00\00\00\89\00\00\00$\00\00\00" }>, align 8
@alloc_c1dc58c22d6fbb16661607eb210b6739 = private unnamed_addr constant <{ ptr, [16 x i8] }> <{ ptr @alloc_f5ffd2fd1476bab43ad89fb40c72d0c5, [16 x i8] c"\0A\00\00\00\00\00\00\00\89\00\00\00\1E\00\00\00" }>, align 8
@alloc_2463c7572c0394f6acb85cb6dd5cc5d9 = private unnamed_addr constant <{ ptr, [16 x i8] }> <{ ptr @alloc_f5ffd2fd1476bab43ad89fb40c72d0c5, [16 x i8] c"\0A\00\00\00\00\00\00\00\8A\00\00\00\0D\00\00\00" }>, align 8
@alloc_6d4ce5c5bfa01d21db76e289c9f31d60 = private unnamed_addr constant <{ ptr, [16 x i8] }> <{ ptr @alloc_f5ffd2fd1476bab43ad89fb40c72d0c5, [16 x i8] c"\0A\00\00\00\00\00\00\00\8A\00\00\00\0C\00\00\00" }>, align 8
@alloc_70178eb7113c3c0b445ab205f817bb84 = private unnamed_addr constant <{ ptr, [16 x i8] }> <{ ptr @alloc_f5ffd2fd1476bab43ad89fb40c72d0c5, [16 x i8] c"\0A\00\00\00\00\00\00\00\8A\00\00\00\05\00\00\00" }>, align 8
@alloc_30f342d7b0ff4f8245bb6c1eac2ee9c8 = private unnamed_addr constant <{ ptr, [16 x i8] }> <{ ptr @alloc_f5ffd2fd1476bab43ad89fb40c72d0c5, [16 x i8] c"\0A\00\00\00\00\00\00\00\93\00\00\00\05\00\00\00" }>, align 8
@alloc_5d06fb7b0feaa2a616f7931aa3b71f15 = private unnamed_addr constant <{ ptr, [16 x i8] }> <{ ptr @alloc_f5ffd2fd1476bab43ad89fb40c72d0c5, [16 x i8] c"\0A\00\00\00\00\00\00\00\98\00\00\00\0C\00\00\00" }>, align 8
@alloc_4b4b09a4bedc7a577dbab104a48e1ede = private unnamed_addr constant <{ ptr, [16 x i8] }> <{ ptr @alloc_f5ffd2fd1476bab43ad89fb40c72d0c5, [16 x i8] c"\0A\00\00\00\00\00\00\00\99\00\00\00\15\00\00\00" }>, align 8
@alloc_c1d91c828c8b05842ef2eaaf842f0434 = private unnamed_addr constant <{ ptr, [16 x i8] }> <{ ptr @alloc_f5ffd2fd1476bab43ad89fb40c72d0c5, [16 x i8] c"\0A\00\00\00\00\00\00\00\9B\00\00\00\0D\00\00\00" }>, align 8
@alloc_1af3d8862d3e2a00cfc3261e5fe0433b = private unnamed_addr constant <{ ptr, [16 x i8] }> <{ ptr @alloc_f5ffd2fd1476bab43ad89fb40c72d0c5, [16 x i8] c"\0A\00\00\00\00\00\00\00\9C\00\00\00$\00\00\00" }>, align 8
@alloc_eb3df14630061be3e3a09a7781d5efda = private unnamed_addr constant <{ ptr, [16 x i8] }> <{ ptr @alloc_f5ffd2fd1476bab43ad89fb40c72d0c5, [16 x i8] c"\0A\00\00\00\00\00\00\00\9C\00\00\00\0D\00\00\00" }>, align 8
@alloc_3b2c7da0ab05cc068f7dd30407049272 = private unnamed_addr constant <{ ptr, [16 x i8] }> <{ ptr @alloc_f5ffd2fd1476bab43ad89fb40c72d0c5, [16 x i8] c"\0A\00\00\00\00\00\00\00\9D\00\00\00\15\00\00\00" }>, align 8
@alloc_7b68064b5dc9ae848c0dbe227ee85bc6 = private unnamed_addr constant <{ ptr, [16 x i8] }> <{ ptr @alloc_f5ffd2fd1476bab43ad89fb40c72d0c5, [16 x i8] c"\0A\00\00\00\00\00\00\00\9F\00\00\00\0D\00\00\00" }>, align 8
@alloc_48971eb08ad72f37c9695810841dc9f2 = private unnamed_addr constant <{ ptr, [16 x i8] }> <{ ptr @alloc_f5ffd2fd1476bab43ad89fb40c72d0c5, [16 x i8] c"\0A\00\00\00\00\00\00\00\A0\00\00\00%\00\00\00" }>, align 8
@alloc_339fa33099482739c880679cf374d431 = private unnamed_addr constant <{ ptr, [16 x i8] }> <{ ptr @alloc_f5ffd2fd1476bab43ad89fb40c72d0c5, [16 x i8] c"\0A\00\00\00\00\00\00\00\A0\00\00\00\0D\00\00\00" }>, align 8
@alloc_c88f646300f9af5677fcc4f39feda3b8 = private unnamed_addr constant <{ ptr, [16 x i8] }> <{ ptr @alloc_f5ffd2fd1476bab43ad89fb40c72d0c5, [16 x i8] c"\0A\00\00\00\00\00\00\00\A1\00\00\00\15\00\00\00" }>, align 8

; core::ptr::mut_ptr::<impl *mut T>::is_null
; Function Attrs: inlinehint nounwind nonlazybind
define internal zeroext i1 @"_ZN4core3ptr7mut_ptr31_$LT$impl$u20$$BP$mut$u20$T$GT$7is_null17h655a2e2591820108E"(ptr %self) unnamed_addr #0 {
start:
  %_3 = ptrtoint ptr %self to i64
  %_0 = icmp eq i64 %_3, 0
  ret i1 %_0
}

; Function Attrs: nounwind nonlazybind
define void @insertnode(ptr %treep, i32 %vertex) unnamed_addr #1 {
start:
  %_17 = alloca [8 x i8], align 8
  %parent = alloca [8 x i8], align 8
  %tree = alloca [8 x i8], align 8
  %_4 = call ptr @malloc(i64 24) #5
; call core::ptr::mut_ptr::<impl *mut T>::is_null
  %_7 = call zeroext i1 @"_ZN4core3ptr7mut_ptr31_$LT$impl$u20$$BP$mut$u20$T$GT$7is_null17h655a2e2591820108E"(ptr %_4) #5
  br i1 %_7, label %bb4, label %bb5

bb5:                                              ; preds = %start
  %_101 = ptrtoint ptr %_4 to i64
  %_104 = and i64 %_101, 7
  %_105 = icmp eq i64 %_104, 0
  br i1 %_105, label %bb32, label %panic

bb4:                                              ; preds = %start
  call void @exit(i32 1) #6
  unreachable

bb32:                                             ; preds = %bb5
  %_107 = ptrtoint ptr %_4 to i64
  %_110 = icmp eq i64 %_107, 0
  %_111 = and i1 %_110, true
  %_112 = xor i1 %_111, true
  br i1 %_112, label %bb33, label %panic1

panic:                                            ; preds = %bb5
; call core::panicking::panic_misaligned_pointer_dereference
  call void @_ZN4core9panicking36panic_misaligned_pointer_dereference17hcc3cbded9382b6e5E(i64 8, i64 %_101, ptr align 8 @alloc_0b50959ea5d314dc6ee942953635721f) #6
  unreachable

bb33:                                             ; preds = %bb32
  store i32 %vertex, ptr %_4, align 8
  %_95 = ptrtoint ptr %_4 to i64
  %_98 = and i64 %_95, 7
  %_99 = icmp eq i64 %_98, 0
  br i1 %_99, label %bb31, label %panic2

panic1:                                           ; preds = %bb32
; call core::panicking::panic_null_pointer_dereference
  call void @_ZN4core9panicking30panic_null_pointer_dereference17hf718fcc86a223baaE(ptr align 8 @alloc_0b50959ea5d314dc6ee942953635721f) #6
  unreachable

bb31:                                             ; preds = %bb33
  %_114 = ptrtoint ptr %_4 to i64
  %_117 = icmp eq i64 %_114, 0
  %_118 = and i1 %_117, true
  %_119 = xor i1 %_118, true
  br i1 %_119, label %bb34, label %panic3

panic2:                                           ; preds = %bb33
; call core::panicking::panic_misaligned_pointer_dereference
  call void @_ZN4core9panicking36panic_misaligned_pointer_dereference17hcc3cbded9382b6e5E(i64 8, i64 %_95, ptr align 8 @alloc_b27378ee2bd181288edc40722b5e7ff9) #6
  unreachable

bb34:                                             ; preds = %bb31
  %0 = getelementptr inbounds i8, ptr %_4, i64 4
  store i32 0, ptr %0, align 4
  %_89 = ptrtoint ptr %_4 to i64
  %_92 = and i64 %_89, 7
  %_93 = icmp eq i64 %_92, 0
  br i1 %_93, label %bb30, label %panic4

panic3:                                           ; preds = %bb31
; call core::panicking::panic_null_pointer_dereference
  call void @_ZN4core9panicking30panic_null_pointer_dereference17hf718fcc86a223baaE(ptr align 8 @alloc_b27378ee2bd181288edc40722b5e7ff9) #6
  unreachable

bb30:                                             ; preds = %bb34
  %_121 = ptrtoint ptr %_4 to i64
  %_124 = icmp eq i64 %_121, 0
  %_125 = and i1 %_124, true
  %_126 = xor i1 %_125, true
  br i1 %_126, label %bb35, label %panic5

panic4:                                           ; preds = %bb34
; call core::panicking::panic_misaligned_pointer_dereference
  call void @_ZN4core9panicking36panic_misaligned_pointer_dereference17hcc3cbded9382b6e5E(i64 8, i64 %_89, ptr align 8 @alloc_a5af790506893fecb536f0eb82cf8c98) #6
  unreachable

bb35:                                             ; preds = %bb30
  %1 = getelementptr inbounds i8, ptr %_4, i64 16
  store ptr null, ptr %1, align 8
  %_83 = ptrtoint ptr %_4 to i64
  %_86 = and i64 %_83, 7
  %_87 = icmp eq i64 %_86, 0
  br i1 %_87, label %bb29, label %panic6

panic5:                                           ; preds = %bb30
; call core::panicking::panic_null_pointer_dereference
  call void @_ZN4core9panicking30panic_null_pointer_dereference17hf718fcc86a223baaE(ptr align 8 @alloc_a5af790506893fecb536f0eb82cf8c98) #6
  unreachable

bb29:                                             ; preds = %bb35
  %_128 = ptrtoint ptr %_4 to i64
  %_131 = icmp eq i64 %_128, 0
  %_132 = and i1 %_131, true
  %_133 = xor i1 %_132, true
  br i1 %_133, label %bb36, label %panic7

panic6:                                           ; preds = %bb35
; call core::panicking::panic_misaligned_pointer_dereference
  call void @_ZN4core9panicking36panic_misaligned_pointer_dereference17hcc3cbded9382b6e5E(i64 8, i64 %_83, ptr align 8 @alloc_5b5279463fb85ea043a38d9e68062f54) #6
  unreachable

bb36:                                             ; preds = %bb29
  %2 = getelementptr inbounds i8, ptr %_4, i64 16
  %_9 = load ptr, ptr %2, align 8
  %_77 = ptrtoint ptr %_4 to i64
  %_80 = and i64 %_77, 7
  %_81 = icmp eq i64 %_80, 0
  br i1 %_81, label %bb28, label %panic8

panic7:                                           ; preds = %bb29
; call core::panicking::panic_null_pointer_dereference
  call void @_ZN4core9panicking30panic_null_pointer_dereference17hf718fcc86a223baaE(ptr align 8 @alloc_5b5279463fb85ea043a38d9e68062f54) #6
  unreachable

bb28:                                             ; preds = %bb36
  %_135 = ptrtoint ptr %_4 to i64
  %_138 = icmp eq i64 %_135, 0
  %_139 = and i1 %_138, true
  %_140 = xor i1 %_139, true
  br i1 %_140, label %bb37, label %panic9

panic8:                                           ; preds = %bb36
; call core::panicking::panic_misaligned_pointer_dereference
  call void @_ZN4core9panicking36panic_misaligned_pointer_dereference17hcc3cbded9382b6e5E(i64 8, i64 %_77, ptr align 8 @alloc_c7c39c6091be3a9f85ea3d17117247d9) #6
  unreachable

bb37:                                             ; preds = %bb28
  %3 = getelementptr inbounds i8, ptr %_4, i64 8
  store ptr %_9, ptr %3, align 8
  %_71 = ptrtoint ptr %treep to i64
  %_74 = and i64 %_71, 7
  %_75 = icmp eq i64 %_74, 0
  br i1 %_75, label %bb27, label %panic10

panic9:                                           ; preds = %bb28
; call core::panicking::panic_null_pointer_dereference
  call void @_ZN4core9panicking30panic_null_pointer_dereference17hf718fcc86a223baaE(ptr align 8 @alloc_c7c39c6091be3a9f85ea3d17117247d9) #6
  unreachable

bb27:                                             ; preds = %bb37
  %_142 = ptrtoint ptr %treep to i64
  %_145 = icmp eq i64 %_142, 0
  %_146 = and i1 %_145, true
  %_147 = xor i1 %_146, true
  br i1 %_147, label %bb38, label %panic11

panic10:                                          ; preds = %bb37
; call core::panicking::panic_misaligned_pointer_dereference
  call void @_ZN4core9panicking36panic_misaligned_pointer_dereference17hcc3cbded9382b6e5E(i64 8, i64 %_71, ptr align 8 @alloc_b27ebd3a40138308000e20c678d5dd0d) #6
  unreachable

bb38:                                             ; preds = %bb27
  %_11 = load ptr, ptr %treep, align 8
; call core::ptr::mut_ptr::<impl *mut T>::is_null
  %_10 = call zeroext i1 @"_ZN4core3ptr7mut_ptr31_$LT$impl$u20$$BP$mut$u20$T$GT$7is_null17h655a2e2591820108E"(ptr %_11) #5
  br i1 %_10, label %bb7, label %bb8

panic11:                                          ; preds = %bb27
; call core::panicking::panic_null_pointer_dereference
  call void @_ZN4core9panicking30panic_null_pointer_dereference17hf718fcc86a223baaE(ptr align 8 @alloc_b27ebd3a40138308000e20c678d5dd0d) #6
  unreachable

bb8:                                              ; preds = %bb38
  %_59 = ptrtoint ptr %treep to i64
  %_62 = and i64 %_59, 7
  %_63 = icmp eq i64 %_62, 0
  br i1 %_63, label %bb25, label %panic12

bb7:                                              ; preds = %bb38
  %_65 = ptrtoint ptr %treep to i64
  %_68 = and i64 %_65, 7
  %_69 = icmp eq i64 %_68, 0
  br i1 %_69, label %bb26, label %panic26

bb25:                                             ; preds = %bb8
  %_156 = ptrtoint ptr %treep to i64
  %_159 = icmp eq i64 %_156, 0
  %_160 = and i1 %_159, true
  %_161 = xor i1 %_160, true
  br i1 %_161, label %bb40, label %panic13

panic12:                                          ; preds = %bb8
; call core::panicking::panic_misaligned_pointer_dereference
  call void @_ZN4core9panicking36panic_misaligned_pointer_dereference17hcc3cbded9382b6e5E(i64 8, i64 %_59, ptr align 8 @alloc_91938f4c0a8778134eecfb5b5f91b93a) #6
  unreachable

bb40:                                             ; preds = %bb25
  %4 = load ptr, ptr %treep, align 8
  store ptr %4, ptr %tree, align 8
  store ptr null, ptr %parent, align 8
  br label %bb9

panic13:                                          ; preds = %bb25
; call core::panicking::panic_null_pointer_dereference
  call void @_ZN4core9panicking30panic_null_pointer_dereference17hf718fcc86a223baaE(ptr align 8 @alloc_91938f4c0a8778134eecfb5b5f91b93a) #6
  unreachable

bb9:                                              ; preds = %bb15, %bb40
  %_15 = load ptr, ptr %tree, align 8
; call core::ptr::mut_ptr::<impl *mut T>::is_null
  %_14 = call zeroext i1 @"_ZN4core3ptr7mut_ptr31_$LT$impl$u20$$BP$mut$u20$T$GT$7is_null17h655a2e2591820108E"(ptr %_15) #5
  br i1 %_14, label %bb11, label %bb12

bb12:                                             ; preds = %bb9
  %_16 = load ptr, ptr %tree, align 8
  store ptr %_16, ptr %parent, align 8
  %_46 = load ptr, ptr %tree, align 8
  %_47 = ptrtoint ptr %_46 to i64
  %_50 = and i64 %_47, 7
  %_51 = icmp eq i64 %_50, 0
  br i1 %_51, label %bb23, label %panic14

bb11:                                             ; preds = %bb9
  %_52 = load ptr, ptr %parent, align 8
  %_53 = ptrtoint ptr %_52 to i64
  %_56 = and i64 %_53, 7
  %_57 = icmp eq i64 %_56, 0
  br i1 %_57, label %bb24, label %panic20

bb23:                                             ; preds = %bb12
  %_169 = load ptr, ptr %tree, align 8
  %_170 = ptrtoint ptr %_169 to i64
  %_173 = icmp eq i64 %_170, 0
  %_174 = and i1 %_173, true
  %_175 = xor i1 %_174, true
  br i1 %_175, label %bb42, label %panic15

panic14:                                          ; preds = %bb12
; call core::panicking::panic_misaligned_pointer_dereference
  call void @_ZN4core9panicking36panic_misaligned_pointer_dereference17hcc3cbded9382b6e5E(i64 8, i64 %_47, ptr align 8 @alloc_ba1bf0d081f4fc27094bac12cee33d75) #6
  unreachable

bb42:                                             ; preds = %bb23
  %5 = load ptr, ptr %tree, align 8
  %_19 = load i32, ptr %5, align 8
  %_18 = icmp sge i32 %_19, %vertex
  br i1 %_18, label %bb13, label %bb14

panic15:                                          ; preds = %bb23
; call core::panicking::panic_null_pointer_dereference
  call void @_ZN4core9panicking30panic_null_pointer_dereference17hf718fcc86a223baaE(ptr align 8 @alloc_ba1bf0d081f4fc27094bac12cee33d75) #6
  unreachable

bb14:                                             ; preds = %bb42
  %_34 = load ptr, ptr %tree, align 8
  %_35 = ptrtoint ptr %_34 to i64
  %_38 = and i64 %_35, 7
  %_39 = icmp eq i64 %_38, 0
  br i1 %_39, label %bb21, label %panic16

bb13:                                             ; preds = %bb42
  %_40 = load ptr, ptr %tree, align 8
  %_41 = ptrtoint ptr %_40 to i64
  %_44 = and i64 %_41, 7
  %_45 = icmp eq i64 %_44, 0
  br i1 %_45, label %bb22, label %panic18

bb21:                                             ; preds = %bb14
  %_183 = load ptr, ptr %tree, align 8
  %_184 = ptrtoint ptr %_183 to i64
  %_187 = icmp eq i64 %_184, 0
  %_188 = and i1 %_187, true
  %_189 = xor i1 %_188, true
  br i1 %_189, label %bb44, label %panic17

panic16:                                          ; preds = %bb14
; call core::panicking::panic_misaligned_pointer_dereference
  call void @_ZN4core9panicking36panic_misaligned_pointer_dereference17hcc3cbded9382b6e5E(i64 8, i64 %_35, ptr align 8 @alloc_eea076ea731bcd1065228f3a1014b99c) #6
  unreachable

bb44:                                             ; preds = %bb21
  %6 = load ptr, ptr %tree, align 8
  %7 = getelementptr inbounds i8, ptr %6, i64 16
  %8 = load ptr, ptr %7, align 8
  store ptr %8, ptr %_17, align 8
  br label %bb15

panic17:                                          ; preds = %bb21
; call core::panicking::panic_null_pointer_dereference
  call void @_ZN4core9panicking30panic_null_pointer_dereference17hf718fcc86a223baaE(ptr align 8 @alloc_eea076ea731bcd1065228f3a1014b99c) #6
  unreachable

bb15:                                             ; preds = %bb43, %bb44
  %9 = load ptr, ptr %_17, align 8
  store ptr %9, ptr %tree, align 8
  br label %bb9

bb22:                                             ; preds = %bb13
  %_176 = load ptr, ptr %tree, align 8
  %_177 = ptrtoint ptr %_176 to i64
  %_180 = icmp eq i64 %_177, 0
  %_181 = and i1 %_180, true
  %_182 = xor i1 %_181, true
  br i1 %_182, label %bb43, label %panic19

panic18:                                          ; preds = %bb13
; call core::panicking::panic_misaligned_pointer_dereference
  call void @_ZN4core9panicking36panic_misaligned_pointer_dereference17hcc3cbded9382b6e5E(i64 8, i64 %_41, ptr align 8 @alloc_c896ac5653a61a3e67da70954334056e) #6
  unreachable

bb43:                                             ; preds = %bb22
  %10 = load ptr, ptr %tree, align 8
  %11 = getelementptr inbounds i8, ptr %10, i64 8
  %12 = load ptr, ptr %11, align 8
  store ptr %12, ptr %_17, align 8
  br label %bb15

panic19:                                          ; preds = %bb22
; call core::panicking::panic_null_pointer_dereference
  call void @_ZN4core9panicking30panic_null_pointer_dereference17hf718fcc86a223baaE(ptr align 8 @alloc_c896ac5653a61a3e67da70954334056e) #6
  unreachable

bb24:                                             ; preds = %bb11
  %_162 = load ptr, ptr %parent, align 8
  %_163 = ptrtoint ptr %_162 to i64
  %_166 = icmp eq i64 %_163, 0
  %_167 = and i1 %_166, true
  %_168 = xor i1 %_167, true
  br i1 %_168, label %bb41, label %panic21

panic20:                                          ; preds = %bb11
; call core::panicking::panic_misaligned_pointer_dereference
  call void @_ZN4core9panicking36panic_misaligned_pointer_dereference17hcc3cbded9382b6e5E(i64 8, i64 %_53, ptr align 8 @alloc_0fa31c1059ed1a3b1eba14d36ff0670f) #6
  unreachable

bb41:                                             ; preds = %bb24
  %13 = load ptr, ptr %parent, align 8
  %_21 = load i32, ptr %13, align 8
  %_20 = icmp sge i32 %_21, %vertex
  br i1 %_20, label %bb16, label %bb17

panic21:                                          ; preds = %bb24
; call core::panicking::panic_null_pointer_dereference
  call void @_ZN4core9panicking30panic_null_pointer_dereference17hf718fcc86a223baaE(ptr align 8 @alloc_0fa31c1059ed1a3b1eba14d36ff0670f) #6
  unreachable

bb17:                                             ; preds = %bb41
  %_22 = load ptr, ptr %parent, align 8
  %_23 = ptrtoint ptr %_22 to i64
  %_26 = and i64 %_23, 7
  %_27 = icmp eq i64 %_26, 0
  br i1 %_27, label %bb19, label %panic22

bb16:                                             ; preds = %bb41
  %_28 = load ptr, ptr %parent, align 8
  %_29 = ptrtoint ptr %_28 to i64
  %_32 = and i64 %_29, 7
  %_33 = icmp eq i64 %_32, 0
  br i1 %_33, label %bb20, label %panic24

bb19:                                             ; preds = %bb17
  %_197 = load ptr, ptr %parent, align 8
  %_198 = ptrtoint ptr %_197 to i64
  %_201 = icmp eq i64 %_198, 0
  %_202 = and i1 %_201, true
  %_203 = xor i1 %_202, true
  br i1 %_203, label %bb46, label %panic23

panic22:                                          ; preds = %bb17
; call core::panicking::panic_misaligned_pointer_dereference
  call void @_ZN4core9panicking36panic_misaligned_pointer_dereference17hcc3cbded9382b6e5E(i64 8, i64 %_23, ptr align 8 @alloc_63188e69ffb2521d05f02437e1ad7f52) #6
  unreachable

bb46:                                             ; preds = %bb19
  %14 = load ptr, ptr %parent, align 8
  %15 = getelementptr inbounds i8, ptr %14, i64 16
  store ptr %_4, ptr %15, align 8
  br label %bb18

panic23:                                          ; preds = %bb19
; call core::panicking::panic_null_pointer_dereference
  call void @_ZN4core9panicking30panic_null_pointer_dereference17hf718fcc86a223baaE(ptr align 8 @alloc_63188e69ffb2521d05f02437e1ad7f52) #6
  unreachable

bb18:                                             ; preds = %bb39, %bb45, %bb46
  ret void

bb20:                                             ; preds = %bb16
  %_190 = load ptr, ptr %parent, align 8
  %_191 = ptrtoint ptr %_190 to i64
  %_194 = icmp eq i64 %_191, 0
  %_195 = and i1 %_194, true
  %_196 = xor i1 %_195, true
  br i1 %_196, label %bb45, label %panic25

panic24:                                          ; preds = %bb16
; call core::panicking::panic_misaligned_pointer_dereference
  call void @_ZN4core9panicking36panic_misaligned_pointer_dereference17hcc3cbded9382b6e5E(i64 8, i64 %_29, ptr align 8 @alloc_c0f90236b5e415c2ebc24f248a4af884) #6
  unreachable

bb45:                                             ; preds = %bb20
  %16 = load ptr, ptr %parent, align 8
  %17 = getelementptr inbounds i8, ptr %16, i64 8
  store ptr %_4, ptr %17, align 8
  br label %bb18

panic25:                                          ; preds = %bb20
; call core::panicking::panic_null_pointer_dereference
  call void @_ZN4core9panicking30panic_null_pointer_dereference17hf718fcc86a223baaE(ptr align 8 @alloc_c0f90236b5e415c2ebc24f248a4af884) #6
  unreachable

bb26:                                             ; preds = %bb7
  %_149 = ptrtoint ptr %treep to i64
  %_152 = icmp eq i64 %_149, 0
  %_153 = and i1 %_152, true
  %_154 = xor i1 %_153, true
  br i1 %_154, label %bb39, label %panic27

panic26:                                          ; preds = %bb7
; call core::panicking::panic_misaligned_pointer_dereference
  call void @_ZN4core9panicking36panic_misaligned_pointer_dereference17hcc3cbded9382b6e5E(i64 8, i64 %_65, ptr align 8 @alloc_cd6f5addf8c0ee6dcd886fc661a12d39) #6
  unreachable

bb39:                                             ; preds = %bb26
  store ptr %_4, ptr %treep, align 8
  br label %bb18

panic27:                                          ; preds = %bb26
; call core::panicking::panic_null_pointer_dereference
  call void @_ZN4core9panicking30panic_null_pointer_dereference17hf718fcc86a223baaE(ptr align 8 @alloc_cd6f5addf8c0ee6dcd886fc661a12d39) #6
  unreachable
}

; Function Attrs: nounwind nonlazybind
define void @prefix(ptr %tree) unnamed_addr #1 {
start:
; call core::ptr::mut_ptr::<impl *mut T>::is_null
  %_2 = call zeroext i1 @"_ZN4core3ptr7mut_ptr31_$LT$impl$u20$$BP$mut$u20$T$GT$7is_null17h655a2e2591820108E"(ptr %tree) #5
  br i1 %_2, label %bb5, label %bb2

bb2:                                              ; preds = %start
  %_26 = ptrtoint ptr %tree to i64
  %_29 = and i64 %_26, 7
  %_30 = icmp eq i64 %_29, 0
  br i1 %_30, label %bb8, label %panic

bb5:                                              ; preds = %bb11, %start
  ret void

bb8:                                              ; preds = %bb2
  %_32 = ptrtoint ptr %tree to i64
  %_35 = icmp eq i64 %_32, 0
  %_36 = and i1 %_35, true
  %_37 = xor i1 %_36, true
  br i1 %_37, label %bb9, label %panic1

panic:                                            ; preds = %bb2
; call core::panicking::panic_misaligned_pointer_dereference
  call void @_ZN4core9panicking36panic_misaligned_pointer_dereference17hcc3cbded9382b6e5E(i64 8, i64 %_26, ptr align 8 @alloc_a689375c4a29b588ebec849568fb65a9) #6
  unreachable

bb9:                                              ; preds = %bb8
  %_8 = load i32, ptr %tree, align 8
  %_3 = call i32 (ptr, ...) @printf(ptr @alloc_b929c71616281bfd1be2bd4038d3ddf1, i32 %_8) #5
  %_20 = ptrtoint ptr %tree to i64
  %_23 = and i64 %_20, 7
  %_24 = icmp eq i64 %_23, 0
  br i1 %_24, label %bb7, label %panic2

panic1:                                           ; preds = %bb8
; call core::panicking::panic_null_pointer_dereference
  call void @_ZN4core9panicking30panic_null_pointer_dereference17hf718fcc86a223baaE(ptr align 8 @alloc_a689375c4a29b588ebec849568fb65a9) #6
  unreachable

bb7:                                              ; preds = %bb9
  %_39 = ptrtoint ptr %tree to i64
  %_42 = icmp eq i64 %_39, 0
  %_43 = and i1 %_42, true
  %_44 = xor i1 %_43, true
  br i1 %_44, label %bb10, label %panic3

panic2:                                           ; preds = %bb9
; call core::panicking::panic_misaligned_pointer_dereference
  call void @_ZN4core9panicking36panic_misaligned_pointer_dereference17hcc3cbded9382b6e5E(i64 8, i64 %_20, ptr align 8 @alloc_b5998cc32dae40afff89863176ee401c) #6
  unreachable

bb10:                                             ; preds = %bb7
  %0 = getelementptr inbounds i8, ptr %tree, i64 8
  %_10 = load ptr, ptr %0, align 8
  call void @prefix(ptr %_10) #5
  %_14 = ptrtoint ptr %tree to i64
  %_17 = and i64 %_14, 7
  %_18 = icmp eq i64 %_17, 0
  br i1 %_18, label %bb6, label %panic4

panic3:                                           ; preds = %bb7
; call core::panicking::panic_null_pointer_dereference
  call void @_ZN4core9panicking30panic_null_pointer_dereference17hf718fcc86a223baaE(ptr align 8 @alloc_b5998cc32dae40afff89863176ee401c) #6
  unreachable

bb6:                                              ; preds = %bb10
  %_46 = ptrtoint ptr %tree to i64
  %_49 = icmp eq i64 %_46, 0
  %_50 = and i1 %_49, true
  %_51 = xor i1 %_50, true
  br i1 %_51, label %bb11, label %panic5

panic4:                                           ; preds = %bb10
; call core::panicking::panic_misaligned_pointer_dereference
  call void @_ZN4core9panicking36panic_misaligned_pointer_dereference17hcc3cbded9382b6e5E(i64 8, i64 %_14, ptr align 8 @alloc_7ee74070257268e41eaa2eb93955cf64) #6
  unreachable

bb11:                                             ; preds = %bb6
  %1 = getelementptr inbounds i8, ptr %tree, i64 16
  %_12 = load ptr, ptr %1, align 8
  call void @prefix(ptr %_12) #5
  br label %bb5

panic5:                                           ; preds = %bb6
; call core::panicking::panic_null_pointer_dereference
  call void @_ZN4core9panicking30panic_null_pointer_dereference17hf718fcc86a223baaE(ptr align 8 @alloc_7ee74070257268e41eaa2eb93955cf64) #6
  unreachable
}

; Function Attrs: nounwind nonlazybind
define void @push(ptr %item) unnamed_addr #1 {
start:
  %_43 = icmp eq i64 ptrtoint (ptr @sp to i64), 0
  %_44 = and i1 %_43, true
  %_45 = xor i1 %_44, true
  br i1 %_45, label %bb7, label %panic

bb7:                                              ; preds = %start
  %_36 = icmp eq i64 ptrtoint (ptr @sp to i64), 0
  %_37 = and i1 %_36, true
  %_38 = xor i1 %_37, true
  br i1 %_38, label %bb6, label %panic1

panic:                                            ; preds = %start
; call core::panicking::panic_null_pointer_dereference
  call void @_ZN4core9panicking30panic_null_pointer_dereference17hf718fcc86a223baaE(ptr align 8 @alloc_df86e900c94cc1f649585c8cd53247f2) #6
  unreachable

bb6:                                              ; preds = %bb7
  %0 = load i32, ptr @sp, align 4
  %1 = add i32 %0, 1
  store i32 %1, ptr @sp, align 4
  %_50 = icmp eq i64 ptrtoint (ptr @sp to i64), 0
  %_51 = and i1 %_50, true
  %_52 = xor i1 %_51, true
  br i1 %_52, label %bb8, label %panic2

panic1:                                           ; preds = %bb7
; call core::panicking::panic_null_pointer_dereference
  call void @_ZN4core9panicking30panic_null_pointer_dereference17hf718fcc86a223baaE(ptr align 8 @alloc_df86e900c94cc1f649585c8cd53247f2) #6
  unreachable

bb8:                                              ; preds = %bb6
  %_5 = load i32, ptr @sp, align 4
  %_4 = sext i32 %_5 to i64
  %_7 = icmp ult i64 %_4, 100
  br i1 %_7, label %bb1, label %panic3

panic2:                                           ; preds = %bb6
; call core::panicking::panic_null_pointer_dereference
  call void @_ZN4core9panicking30panic_null_pointer_dereference17hf718fcc86a223baaE(ptr align 8 @alloc_331faa19afa301c918f7c2da00ad03ea) #6
  unreachable

bb1:                                              ; preds = %bb8
  %_57 = icmp eq i64 ptrtoint (ptr @stack to i64), 0
  %_58 = and i1 %_57, true
  %_59 = xor i1 %_58, true
  br i1 %_59, label %bb9, label %panic4

panic3:                                           ; preds = %bb8
; call core::panicking::panic_bounds_check
  call void @_ZN4core9panicking18panic_bounds_check17h27d1e4f0cb1112dfE(i64 %_4, i64 100, ptr align 8 @alloc_5e508f8b25e8846369e349f2be531966) #6
  unreachable

bb9:                                              ; preds = %bb1
  %2 = getelementptr inbounds nuw ptr, ptr @stack, i64 %_4
  store ptr %item, ptr %2, align 8
  ret void

panic4:                                           ; preds = %bb1
; call core::panicking::panic_null_pointer_dereference
  call void @_ZN4core9panicking30panic_null_pointer_dereference17hf718fcc86a223baaE(ptr align 8 @alloc_5e508f8b25e8846369e349f2be531966) #6
  unreachable
}

; Function Attrs: nounwind nonlazybind
define ptr @pop() unnamed_addr #1 {
start:
  %_37 = icmp eq i64 ptrtoint (ptr @sp to i64), 0
  %_38 = and i1 %_37, true
  %_39 = xor i1 %_38, true
  br i1 %_39, label %bb6, label %panic

bb6:                                              ; preds = %start
  %fresh0 = load i32, ptr @sp, align 4
  %_44 = icmp eq i64 ptrtoint (ptr @sp to i64), 0
  %_45 = and i1 %_44, true
  %_46 = xor i1 %_45, true
  br i1 %_46, label %bb7, label %panic1

panic:                                            ; preds = %start
; call core::panicking::panic_null_pointer_dereference
  call void @_ZN4core9panicking30panic_null_pointer_dereference17hf718fcc86a223baaE(ptr align 8 @alloc_507fd805f5e346d08a77749bde46500b) #6
  unreachable

bb7:                                              ; preds = %bb6
  %_3 = load i32, ptr @sp, align 4
  %_51 = icmp eq i64 ptrtoint (ptr @sp to i64), 0
  %_52 = and i1 %_51, true
  %_53 = xor i1 %_52, true
  br i1 %_53, label %bb8, label %panic2

panic1:                                           ; preds = %bb6
; call core::panicking::panic_null_pointer_dereference
  call void @_ZN4core9panicking30panic_null_pointer_dereference17hf718fcc86a223baaE(ptr align 8 @alloc_2be66f708afb6c9c7afef10e3ef8e1cd) #6
  unreachable

bb8:                                              ; preds = %bb7
  %0 = sub i32 %_3, 1
  store i32 %0, ptr @sp, align 4
  %_7 = sext i32 %fresh0 to i64
  %_8 = icmp ult i64 %_7, 100
  br i1 %_8, label %bb1, label %panic3

panic2:                                           ; preds = %bb7
; call core::panicking::panic_null_pointer_dereference
  call void @_ZN4core9panicking30panic_null_pointer_dereference17hf718fcc86a223baaE(ptr align 8 @alloc_d276e58b0b165cf6e7ab175535023059) #6
  unreachable

bb1:                                              ; preds = %bb8
  %_58 = icmp eq i64 ptrtoint (ptr @stack to i64), 0
  %_59 = and i1 %_58, true
  %_60 = xor i1 %_59, true
  br i1 %_60, label %bb9, label %panic4

panic3:                                           ; preds = %bb8
; call core::panicking::panic_bounds_check
  call void @_ZN4core9panicking18panic_bounds_check17h27d1e4f0cb1112dfE(i64 %_7, i64 100, ptr align 8 @alloc_133884221307f360c9bf1d5d30168c07) #6
  unreachable

bb9:                                              ; preds = %bb1
  %1 = getelementptr inbounds nuw ptr, ptr @stack, i64 %_7
  %_0 = load ptr, ptr %1, align 8
  ret ptr %_0

panic4:                                           ; preds = %bb1
; call core::panicking::panic_null_pointer_dereference
  call void @_ZN4core9panicking30panic_null_pointer_dereference17hf718fcc86a223baaE(ptr align 8 @alloc_133884221307f360c9bf1d5d30168c07) #6
  unreachable
}

; Function Attrs: nounwind nonlazybind
define i32 @empty() unnamed_addr #1 {
start:
  %_15 = icmp eq i64 ptrtoint (ptr @sp to i64), 0
  %_16 = and i1 %_15, true
  %_17 = xor i1 %_16, true
  br i1 %_17, label %bb2, label %panic

bb2:                                              ; preds = %start
  %_2 = load i32, ptr @sp, align 4
  %_1 = icmp eq i32 %_2, -1
  %_0 = zext i1 %_1 to i32
  ret i32 %_0

panic:                                            ; preds = %start
; call core::panicking::panic_null_pointer_dereference
  call void @_ZN4core9panicking30panic_null_pointer_dereference17hf718fcc86a223baaE(ptr align 8 @alloc_361462eda4b93086c107bec19c62202e) #6
  unreachable
}

; Function Attrs: nounwind nonlazybind
define i32 @getdepth(ptr %tree) unnamed_addr #1 {
start:
  %depth = alloca [4 x i8], align 4
  %curdepth = alloca [4 x i8], align 4
  %cur = alloca [8 x i8], align 8
  store ptr %tree, ptr %cur, align 8
  store i32 0, ptr %curdepth, align 4
  store i32 0, ptr %depth, align 4
  br label %bb1

bb1:                                              ; preds = %bb27, %bb7, %start
  %_6 = load ptr, ptr %cur, align 8
; call core::ptr::mut_ptr::<impl *mut T>::is_null
  %_5 = call zeroext i1 @"_ZN4core3ptr7mut_ptr31_$LT$impl$u20$$BP$mut$u20$T$GT$7is_null17h655a2e2591820108E"(ptr %_6) #5
  br i1 %_5, label %bb3, label %bb5

bb5:                                              ; preds = %bb25, %bb3, %bb1
  %_9 = load ptr, ptr %cur, align 8
; call core::ptr::mut_ptr::<impl *mut T>::is_null
  %_8 = call zeroext i1 @"_ZN4core3ptr7mut_ptr31_$LT$impl$u20$$BP$mut$u20$T$GT$7is_null17h655a2e2591820108E"(ptr %_9) #5
  br i1 %_8, label %bb7, label %bb8

bb3:                                              ; preds = %bb1
  %_7 = call i32 @empty() #5
  %0 = icmp eq i32 %_7, 0
  br i1 %0, label %bb5, label %bb15

bb15:                                             ; preds = %bb3
  %_0 = load i32, ptr %depth, align 4
  ret i32 %_0

bb8:                                              ; preds = %bb5
  %fresh1 = load i32, ptr %curdepth, align 4
  %_11 = load i32, ptr %curdepth, align 4
  %1 = add i32 %_11, 1
  store i32 %1, ptr %curdepth, align 4
  %_54 = load ptr, ptr %cur, align 8
  %_55 = ptrtoint ptr %_54 to i64
  %_58 = and i64 %_55, 7
  %_59 = icmp eq i64 %_58, 0
  br i1 %_59, label %bb21, label %panic

bb7:                                              ; preds = %bb5
  %_20 = load ptr, ptr %cur, align 8
; call core::ptr::mut_ptr::<impl *mut T>::is_null
  %_19 = call zeroext i1 @"_ZN4core3ptr7mut_ptr31_$LT$impl$u20$$BP$mut$u20$T$GT$7is_null17h655a2e2591820108E"(ptr %_20) #5
  br i1 %_19, label %bb13, label %bb1

bb21:                                             ; preds = %bb8
  %_60 = load ptr, ptr %cur, align 8
  %_61 = ptrtoint ptr %_60 to i64
  %_64 = icmp eq i64 %_61, 0
  %_65 = and i1 %_64, true
  %_66 = xor i1 %_65, true
  br i1 %_66, label %bb22, label %panic1

panic:                                            ; preds = %bb8
; call core::panicking::panic_misaligned_pointer_dereference
  call void @_ZN4core9panicking36panic_misaligned_pointer_dereference17hcc3cbded9382b6e5E(i64 8, i64 %_55, ptr align 8 @alloc_db4d7606cd927a81a840b7608f52bc9c) #6
  unreachable

bb22:                                             ; preds = %bb21
  %2 = load ptr, ptr %cur, align 8
  %3 = getelementptr inbounds i8, ptr %2, i64 4
  store i32 %fresh1, ptr %3, align 4
  %_13 = load ptr, ptr %cur, align 8
  call void @push(ptr %_13) #5
  %_48 = load ptr, ptr %cur, align 8
  %_49 = ptrtoint ptr %_48 to i64
  %_52 = and i64 %_49, 7
  %_53 = icmp eq i64 %_52, 0
  br i1 %_53, label %bb20, label %panic2

panic1:                                           ; preds = %bb21
; call core::panicking::panic_null_pointer_dereference
  call void @_ZN4core9panicking30panic_null_pointer_dereference17hf718fcc86a223baaE(ptr align 8 @alloc_db4d7606cd927a81a840b7608f52bc9c) #6
  unreachable

bb20:                                             ; preds = %bb22
  %_67 = load ptr, ptr %cur, align 8
  %_68 = ptrtoint ptr %_67 to i64
  %_71 = icmp eq i64 %_68, 0
  %_72 = and i1 %_71, true
  %_73 = xor i1 %_72, true
  br i1 %_73, label %bb23, label %panic3

panic2:                                           ; preds = %bb22
; call core::panicking::panic_misaligned_pointer_dereference
  call void @_ZN4core9panicking36panic_misaligned_pointer_dereference17hcc3cbded9382b6e5E(i64 8, i64 %_49, ptr align 8 @alloc_5ca9e62fc1e17ed7e8e214ac1585f1ac) #6
  unreachable

bb23:                                             ; preds = %bb20
  %4 = load ptr, ptr %cur, align 8
  %5 = getelementptr inbounds i8, ptr %4, i64 4
  %_15 = load i32, ptr %5, align 4
  %_16 = load i32, ptr %depth, align 4
  %_14 = icmp sgt i32 %_15, %_16
  br i1 %_14, label %bb10, label %bb11

panic3:                                           ; preds = %bb20
; call core::panicking::panic_null_pointer_dereference
  call void @_ZN4core9panicking30panic_null_pointer_dereference17hf718fcc86a223baaE(ptr align 8 @alloc_5ca9e62fc1e17ed7e8e214ac1585f1ac) #6
  unreachable

bb11:                                             ; preds = %bb24, %bb23
  %_36 = load ptr, ptr %cur, align 8
  %_37 = ptrtoint ptr %_36 to i64
  %_40 = and i64 %_37, 7
  %_41 = icmp eq i64 %_40, 0
  br i1 %_41, label %bb18, label %panic6

bb10:                                             ; preds = %bb23
  %_42 = load ptr, ptr %cur, align 8
  %_43 = ptrtoint ptr %_42 to i64
  %_46 = and i64 %_43, 7
  %_47 = icmp eq i64 %_46, 0
  br i1 %_47, label %bb19, label %panic4

bb19:                                             ; preds = %bb10
  %_74 = load ptr, ptr %cur, align 8
  %_75 = ptrtoint ptr %_74 to i64
  %_78 = icmp eq i64 %_75, 0
  %_79 = and i1 %_78, true
  %_80 = xor i1 %_79, true
  br i1 %_80, label %bb24, label %panic5

panic4:                                           ; preds = %bb10
; call core::panicking::panic_misaligned_pointer_dereference
  call void @_ZN4core9panicking36panic_misaligned_pointer_dereference17hcc3cbded9382b6e5E(i64 8, i64 %_43, ptr align 8 @alloc_d7634a2dc8c3c52458dd62286c2deb4b) #6
  unreachable

bb24:                                             ; preds = %bb19
  %6 = load ptr, ptr %cur, align 8
  %7 = getelementptr inbounds i8, ptr %6, i64 4
  %_17 = load i32, ptr %7, align 4
  store i32 %_17, ptr %depth, align 4
  br label %bb11

panic5:                                           ; preds = %bb19
; call core::panicking::panic_null_pointer_dereference
  call void @_ZN4core9panicking30panic_null_pointer_dereference17hf718fcc86a223baaE(ptr align 8 @alloc_d7634a2dc8c3c52458dd62286c2deb4b) #6
  unreachable

bb18:                                             ; preds = %bb11
  %_81 = load ptr, ptr %cur, align 8
  %_82 = ptrtoint ptr %_81 to i64
  %_85 = icmp eq i64 %_82, 0
  %_86 = and i1 %_85, true
  %_87 = xor i1 %_86, true
  br i1 %_87, label %bb25, label %panic7

panic6:                                           ; preds = %bb11
; call core::panicking::panic_misaligned_pointer_dereference
  call void @_ZN4core9panicking36panic_misaligned_pointer_dereference17hcc3cbded9382b6e5E(i64 8, i64 %_37, ptr align 8 @alloc_9ea3d517f7855741afb3ef42cf7a1385) #6
  unreachable

bb25:                                             ; preds = %bb18
  %8 = load ptr, ptr %cur, align 8
  %9 = getelementptr inbounds i8, ptr %8, i64 8
  %_18 = load ptr, ptr %9, align 8
  store ptr %_18, ptr %cur, align 8
  br label %bb5

panic7:                                           ; preds = %bb18
; call core::panicking::panic_null_pointer_dereference
  call void @_ZN4core9panicking30panic_null_pointer_dereference17hf718fcc86a223baaE(ptr align 8 @alloc_9ea3d517f7855741afb3ef42cf7a1385) #6
  unreachable

bb13:                                             ; preds = %bb7
  %_21 = call ptr @pop() #5
  store ptr %_21, ptr %cur, align 8
  %_30 = load ptr, ptr %cur, align 8
  %_31 = ptrtoint ptr %_30 to i64
  %_34 = and i64 %_31, 7
  %_35 = icmp eq i64 %_34, 0
  br i1 %_35, label %bb17, label %panic8

bb17:                                             ; preds = %bb13
  %_88 = load ptr, ptr %cur, align 8
  %_89 = ptrtoint ptr %_88 to i64
  %_92 = icmp eq i64 %_89, 0
  %_93 = and i1 %_92, true
  %_94 = xor i1 %_93, true
  br i1 %_94, label %bb26, label %panic9

panic8:                                           ; preds = %bb13
; call core::panicking::panic_misaligned_pointer_dereference
  call void @_ZN4core9panicking36panic_misaligned_pointer_dereference17hcc3cbded9382b6e5E(i64 8, i64 %_31, ptr align 8 @alloc_9e26390110a9fe3724997bf16ac2df84) #6
  unreachable

bb26:                                             ; preds = %bb17
  %10 = load ptr, ptr %cur, align 8
  %11 = getelementptr inbounds i8, ptr %10, i64 4
  %_22 = load i32, ptr %11, align 4
  %12 = add i32 %_22, 1
  store i32 %12, ptr %curdepth, align 4
  %_24 = load ptr, ptr %cur, align 8
  %_25 = ptrtoint ptr %_24 to i64
  %_28 = and i64 %_25, 7
  %_29 = icmp eq i64 %_28, 0
  br i1 %_29, label %bb16, label %panic10

panic9:                                           ; preds = %bb17
; call core::panicking::panic_null_pointer_dereference
  call void @_ZN4core9panicking30panic_null_pointer_dereference17hf718fcc86a223baaE(ptr align 8 @alloc_9e26390110a9fe3724997bf16ac2df84) #6
  unreachable

bb16:                                             ; preds = %bb26
  %_95 = load ptr, ptr %cur, align 8
  %_96 = ptrtoint ptr %_95 to i64
  %_99 = icmp eq i64 %_96, 0
  %_100 = and i1 %_99, true
  %_101 = xor i1 %_100, true
  br i1 %_101, label %bb27, label %panic11

panic10:                                          ; preds = %bb26
; call core::panicking::panic_misaligned_pointer_dereference
  call void @_ZN4core9panicking36panic_misaligned_pointer_dereference17hcc3cbded9382b6e5E(i64 8, i64 %_25, ptr align 8 @alloc_8a15a7387ec8196140b6b0100d90557f) #6
  unreachable

bb27:                                             ; preds = %bb16
  %13 = load ptr, ptr %cur, align 8
  %14 = getelementptr inbounds i8, ptr %13, i64 16
  %_23 = load ptr, ptr %14, align 8
  store ptr %_23, ptr %cur, align 8
  br label %bb1

panic11:                                          ; preds = %bb16
; call core::panicking::panic_null_pointer_dereference
  call void @_ZN4core9panicking30panic_null_pointer_dereference17hf718fcc86a223baaE(ptr align 8 @alloc_8a15a7387ec8196140b6b0100d90557f) #6
  unreachable
}

; Function Attrs: nounwind nonlazybind
define i32 @qempty() unnamed_addr #1 {
start:
  %_22 = icmp eq i64 ptrtoint (ptr @head to i64), 0
  %_23 = and i1 %_22, true
  %_24 = xor i1 %_23, true
  br i1 %_24, label %bb3, label %panic

bb3:                                              ; preds = %start
  %_2 = load i32, ptr @head, align 4
  %_29 = icmp eq i64 ptrtoint (ptr @rear to i64), 0
  %_30 = and i1 %_29, true
  %_31 = xor i1 %_30, true
  br i1 %_31, label %bb4, label %panic1

panic:                                            ; preds = %start
; call core::panicking::panic_null_pointer_dereference
  call void @_ZN4core9panicking30panic_null_pointer_dereference17hf718fcc86a223baaE(ptr align 8 @alloc_0882f91a599619b9fd464d5e2869844d) #6
  unreachable

bb4:                                              ; preds = %bb3
  %_4 = load i32, ptr @rear, align 4
  %_1 = icmp eq i32 %_2, %_4
  %_0 = zext i1 %_1 to i32
  ret i32 %_0

panic1:                                           ; preds = %bb3
; call core::panicking::panic_null_pointer_dereference
  call void @_ZN4core9panicking30panic_null_pointer_dereference17hf718fcc86a223baaE(ptr align 8 @alloc_3a86206865b41f75deb03b7e17362bc6) #6
  unreachable
}

; Function Attrs: nounwind nonlazybind
define i32 @qfull() unnamed_addr #1 {
start:
  %_29 = icmp eq i64 ptrtoint (ptr @rear to i64), 0
  %_30 = and i1 %_29, true
  %_31 = xor i1 %_30, true
  br i1 %_31, label %bb5, label %panic

bb5:                                              ; preds = %start
  %_4 = load i32, ptr @rear, align 4
  %_3 = add i32 %_4, 1
  %_9 = icmp eq i32 %_3, -2147483648
  %_10 = and i1 false, %_9
  br i1 %_10, label %panic1, label %bb2

panic:                                            ; preds = %start
; call core::panicking::panic_null_pointer_dereference
  call void @_ZN4core9panicking30panic_null_pointer_dereference17hf718fcc86a223baaE(ptr align 8 @alloc_2f6cf15279033a4b4c1bbdc81017239c) #6
  unreachable

bb2:                                              ; preds = %bb5
  %_2 = srem i32 %_3, 100
  %_36 = icmp eq i64 ptrtoint (ptr @head to i64), 0
  %_37 = and i1 %_36, true
  %_38 = xor i1 %_37, true
  br i1 %_38, label %bb6, label %panic2

panic1:                                           ; preds = %bb5
; call core::panicking::panic_const::panic_const_rem_overflow
  call void @_ZN4core9panicking11panic_const24panic_const_rem_overflow17h799fde26ff2294a6E(ptr align 8 @alloc_7ed355707147a2ae12a104f88a7d5cda) #6
  unreachable

bb6:                                              ; preds = %bb2
  %_11 = load i32, ptr @head, align 4
  %_1 = icmp eq i32 %_2, %_11
  %_0 = zext i1 %_1 to i32
  ret i32 %_0

panic2:                                           ; preds = %bb2
; call core::panicking::panic_null_pointer_dereference
  call void @_ZN4core9panicking30panic_null_pointer_dereference17hf718fcc86a223baaE(ptr align 8 @alloc_692856fc57fa019d53bf550f89dfb5c0) #6
  unreachable
}

; Function Attrs: nounwind nonlazybind
define void @enqueue(ptr %item) unnamed_addr #1 {
start:
  %_2 = call i32 @qfull() #5
  %0 = icmp eq i32 %_2, 0
  br i1 %0, label %bb3, label %bb2

bb3:                                              ; preds = %start
  %_50 = icmp eq i64 ptrtoint (ptr @rear to i64), 0
  %_51 = and i1 %_50, true
  %_52 = xor i1 %_51, true
  br i1 %_52, label %bb12, label %panic

bb2:                                              ; preds = %start
  %_3 = call i32 (ptr, ...) @printf(ptr @alloc_9d742cb45c4b2acb51b1774092d4bf53) #5
  br label %bb7

bb12:                                             ; preds = %bb3
  %_10 = load i32, ptr @rear, align 4
  %_9 = sext i32 %_10 to i64
  %_12 = icmp ult i64 %_9, 100
  br i1 %_12, label %bb4, label %panic1

panic:                                            ; preds = %bb3
; call core::panicking::panic_null_pointer_dereference
  call void @_ZN4core9panicking30panic_null_pointer_dereference17hf718fcc86a223baaE(ptr align 8 @alloc_bb2283afc8d334dfbec6b1ce37b24fa1) #6
  unreachable

bb4:                                              ; preds = %bb12
  %_57 = icmp eq i64 ptrtoint (ptr @queue to i64), 0
  %_58 = and i1 %_57, true
  %_59 = xor i1 %_58, true
  br i1 %_59, label %bb13, label %panic2

panic1:                                           ; preds = %bb12
; call core::panicking::panic_bounds_check
  call void @_ZN4core9panicking18panic_bounds_check17h27d1e4f0cb1112dfE(i64 %_9, i64 100, ptr align 8 @alloc_7d8d58b36d2b2d423935116080665165) #6
  unreachable

bb13:                                             ; preds = %bb4
  %1 = getelementptr inbounds nuw ptr, ptr @queue, i64 %_9
  store ptr %item, ptr %1, align 8
  %_64 = icmp eq i64 ptrtoint (ptr @rear to i64), 0
  %_65 = and i1 %_64, true
  %_66 = xor i1 %_65, true
  br i1 %_66, label %bb14, label %panic3

panic2:                                           ; preds = %bb4
; call core::panicking::panic_null_pointer_dereference
  call void @_ZN4core9panicking30panic_null_pointer_dereference17hf718fcc86a223baaE(ptr align 8 @alloc_7d8d58b36d2b2d423935116080665165) #6
  unreachable

bb14:                                             ; preds = %bb13
  %_14 = load i32, ptr @rear, align 4
  %_13 = add i32 %_14, 1
  %_19 = icmp eq i32 %_13, -2147483648
  %_20 = and i1 false, %_19
  br i1 %_20, label %panic4, label %bb6

panic3:                                           ; preds = %bb13
; call core::panicking::panic_null_pointer_dereference
  call void @_ZN4core9panicking30panic_null_pointer_dereference17hf718fcc86a223baaE(ptr align 8 @alloc_9860fb69fecd049fe02a8887b8fca456) #6
  unreachable

bb6:                                              ; preds = %bb14
  %_71 = icmp eq i64 ptrtoint (ptr @rear to i64), 0
  %_72 = and i1 %_71, true
  %_73 = xor i1 %_72, true
  br i1 %_73, label %bb15, label %panic5

panic4:                                           ; preds = %bb14
; call core::panicking::panic_const::panic_const_rem_overflow
  call void @_ZN4core9panicking11panic_const24panic_const_rem_overflow17h799fde26ff2294a6E(ptr align 8 @alloc_a675f529b481df6ed4a8d7df8a46dd0a) #6
  unreachable

bb15:                                             ; preds = %bb6
  %2 = srem i32 %_13, 100
  store i32 %2, ptr @rear, align 4
  br label %bb7

panic5:                                           ; preds = %bb6
; call core::panicking::panic_null_pointer_dereference
  call void @_ZN4core9panicking30panic_null_pointer_dereference17hf718fcc86a223baaE(ptr align 8 @alloc_3689581ac3e8ceaaaf9b37c8e542fe4a) #6
  unreachable

bb7:                                              ; preds = %bb2, %bb15
  ret void
}

; Function Attrs: nounwind nonlazybind
define ptr @dequeue() unnamed_addr #1 {
start:
  %_0 = alloca [8 x i8], align 8
  %_1 = call i32 @qempty() #5
  %0 = icmp eq i32 %_1, 0
  br i1 %0, label %bb3, label %bb2

bb3:                                              ; preds = %start
  %_45 = icmp eq i64 ptrtoint (ptr @head to i64), 0
  %_46 = and i1 %_45, true
  %_47 = xor i1 %_46, true
  br i1 %_47, label %bb12, label %panic

bb2:                                              ; preds = %start
  store ptr null, ptr %_0, align 8
  br label %bb7

bb12:                                             ; preds = %bb3
  %_5 = load i32, ptr @head, align 4
  %_4 = sext i32 %_5 to i64
  %_7 = icmp ult i64 %_4, 100
  br i1 %_7, label %bb4, label %panic1

panic:                                            ; preds = %bb3
; call core::panicking::panic_null_pointer_dereference
  call void @_ZN4core9panicking30panic_null_pointer_dereference17hf718fcc86a223baaE(ptr align 8 @alloc_1152936f1bd54fc1c1cf7be441131fac) #6
  unreachable

bb4:                                              ; preds = %bb12
  %_52 = icmp eq i64 ptrtoint (ptr @queue to i64), 0
  %_53 = and i1 %_52, true
  %_54 = xor i1 %_53, true
  br i1 %_54, label %bb13, label %panic2

panic1:                                           ; preds = %bb12
; call core::panicking::panic_bounds_check
  call void @_ZN4core9panicking18panic_bounds_check17h27d1e4f0cb1112dfE(i64 %_4, i64 100, ptr align 8 @alloc_c1dc58c22d6fbb16661607eb210b6739) #6
  unreachable

bb13:                                             ; preds = %bb4
  %1 = getelementptr inbounds nuw ptr, ptr @queue, i64 %_4
  %ret = load ptr, ptr %1, align 8
  %_59 = icmp eq i64 ptrtoint (ptr @head to i64), 0
  %_60 = and i1 %_59, true
  %_61 = xor i1 %_60, true
  br i1 %_61, label %bb14, label %panic3

panic2:                                           ; preds = %bb4
; call core::panicking::panic_null_pointer_dereference
  call void @_ZN4core9panicking30panic_null_pointer_dereference17hf718fcc86a223baaE(ptr align 8 @alloc_c1dc58c22d6fbb16661607eb210b6739) #6
  unreachable

bb14:                                             ; preds = %bb13
  %_9 = load i32, ptr @head, align 4
  %_8 = add i32 %_9, 1
  %_14 = icmp eq i32 %_8, -2147483648
  %_15 = and i1 false, %_14
  br i1 %_15, label %panic4, label %bb6

panic3:                                           ; preds = %bb13
; call core::panicking::panic_null_pointer_dereference
  call void @_ZN4core9panicking30panic_null_pointer_dereference17hf718fcc86a223baaE(ptr align 8 @alloc_2463c7572c0394f6acb85cb6dd5cc5d9) #6
  unreachable

bb6:                                              ; preds = %bb14
  %_66 = icmp eq i64 ptrtoint (ptr @head to i64), 0
  %_67 = and i1 %_66, true
  %_68 = xor i1 %_67, true
  br i1 %_68, label %bb15, label %panic5

panic4:                                           ; preds = %bb14
; call core::panicking::panic_const::panic_const_rem_overflow
  call void @_ZN4core9panicking11panic_const24panic_const_rem_overflow17h799fde26ff2294a6E(ptr align 8 @alloc_6d4ce5c5bfa01d21db76e289c9f31d60) #6
  unreachable

bb15:                                             ; preds = %bb6
  %2 = srem i32 %_8, 100
  store i32 %2, ptr @head, align 4
  store ptr %ret, ptr %_0, align 8
  br label %bb7

panic5:                                           ; preds = %bb6
; call core::panicking::panic_null_pointer_dereference
  call void @_ZN4core9panicking30panic_null_pointer_dereference17hf718fcc86a223baaE(ptr align 8 @alloc_70178eb7113c3c0b445ab205f817bb84) #6
  unreachable

bb7:                                              ; preds = %bb2, %bb15
  %3 = load ptr, ptr %_0, align 8
  ret ptr %3
}

; Function Attrs: nounwind nonlazybind
define i32 @getdepth_cuo(ptr %tree) unnamed_addr #1 {
start:
  %cur = alloca [8 x i8], align 8
  %depth = alloca [4 x i8], align 4
  %_0 = alloca [4 x i8], align 4
  store i32 0, ptr %depth, align 4
; call core::ptr::mut_ptr::<impl *mut T>::is_null
  %_3 = call zeroext i1 @"_ZN4core3ptr7mut_ptr31_$LT$impl$u20$$BP$mut$u20$T$GT$7is_null17h655a2e2591820108E"(ptr %tree) #5
  br i1 %_3, label %bb2, label %bb3

bb3:                                              ; preds = %start
  %_85 = ptrtoint ptr %tree to i64
  %_88 = and i64 %_85, 7
  %_89 = icmp eq i64 %_88, 0
  br i1 %_89, label %bb28, label %panic

bb2:                                              ; preds = %start
  %0 = load i32, ptr %depth, align 4
  store i32 %0, ptr %_0, align 4
  br label %bb17

bb28:                                             ; preds = %bb3
  %_91 = ptrtoint ptr %tree to i64
  %_94 = icmp eq i64 %_91, 0
  %_95 = and i1 %_94, true
  %_96 = xor i1 %_95, true
  br i1 %_96, label %bb29, label %panic1

panic:                                            ; preds = %bb3
; call core::panicking::panic_misaligned_pointer_dereference
  call void @_ZN4core9panicking36panic_misaligned_pointer_dereference17hcc3cbded9382b6e5E(i64 8, i64 %_85, ptr align 8 @alloc_30f342d7b0ff4f8245bb6c1eac2ee9c8) #6
  unreachable

bb29:                                             ; preds = %bb28
  %1 = getelementptr inbounds i8, ptr %tree, i64 4
  store i32 0, ptr %1, align 4
  call void @enqueue(ptr %tree) #5
  store ptr null, ptr %cur, align 8
  br label %bb5

panic1:                                           ; preds = %bb28
; call core::panicking::panic_null_pointer_dereference
  call void @_ZN4core9panicking30panic_null_pointer_dereference17hf718fcc86a223baaE(ptr align 8 @alloc_30f342d7b0ff4f8245bb6c1eac2ee9c8) #6
  unreachable

bb5:                                              ; preds = %bb39, %bb36, %bb29
  %_6 = call i32 @qempty() #5
  %2 = icmp eq i32 %_6, 0
  br i1 %2, label %bb7, label %bb16

bb7:                                              ; preds = %bb5
  %_7 = call ptr @dequeue() #5
  store ptr %_7, ptr %cur, align 8
  %_78 = load ptr, ptr %cur, align 8
  %_79 = ptrtoint ptr %_78 to i64
  %_82 = and i64 %_79, 7
  %_83 = icmp eq i64 %_82, 0
  br i1 %_83, label %bb27, label %panic2

bb16:                                             ; preds = %bb5
  %3 = load i32, ptr %depth, align 4
  store i32 %3, ptr %_0, align 4
  br label %bb17

bb27:                                             ; preds = %bb7
  %_97 = load ptr, ptr %cur, align 8
  %_98 = ptrtoint ptr %_97 to i64
  %_101 = icmp eq i64 %_98, 0
  %_102 = and i1 %_101, true
  %_103 = xor i1 %_102, true
  br i1 %_103, label %bb30, label %panic3

panic2:                                           ; preds = %bb7
; call core::panicking::panic_misaligned_pointer_dereference
  call void @_ZN4core9panicking36panic_misaligned_pointer_dereference17hcc3cbded9382b6e5E(i64 8, i64 %_79, ptr align 8 @alloc_5d06fb7b0feaa2a616f7931aa3b71f15) #6
  unreachable

bb30:                                             ; preds = %bb27
  %4 = load ptr, ptr %cur, align 8
  %5 = getelementptr inbounds i8, ptr %4, i64 4
  %_9 = load i32, ptr %5, align 4
  %_10 = load i32, ptr %depth, align 4
  %_8 = icmp sgt i32 %_9, %_10
  br i1 %_8, label %bb9, label %bb10

panic3:                                           ; preds = %bb27
; call core::panicking::panic_null_pointer_dereference
  call void @_ZN4core9panicking30panic_null_pointer_dereference17hf718fcc86a223baaE(ptr align 8 @alloc_5d06fb7b0feaa2a616f7931aa3b71f15) #6
  unreachable

bb10:                                             ; preds = %bb31, %bb30
  %_66 = load ptr, ptr %cur, align 8
  %_67 = ptrtoint ptr %_66 to i64
  %_70 = and i64 %_67, 7
  %_71 = icmp eq i64 %_70, 0
  br i1 %_71, label %bb25, label %panic6

bb9:                                              ; preds = %bb30
  %_72 = load ptr, ptr %cur, align 8
  %_73 = ptrtoint ptr %_72 to i64
  %_76 = and i64 %_73, 7
  %_77 = icmp eq i64 %_76, 0
  br i1 %_77, label %bb26, label %panic4

bb26:                                             ; preds = %bb9
  %_104 = load ptr, ptr %cur, align 8
  %_105 = ptrtoint ptr %_104 to i64
  %_108 = icmp eq i64 %_105, 0
  %_109 = and i1 %_108, true
  %_110 = xor i1 %_109, true
  br i1 %_110, label %bb31, label %panic5

panic4:                                           ; preds = %bb9
; call core::panicking::panic_misaligned_pointer_dereference
  call void @_ZN4core9panicking36panic_misaligned_pointer_dereference17hcc3cbded9382b6e5E(i64 8, i64 %_73, ptr align 8 @alloc_4b4b09a4bedc7a577dbab104a48e1ede) #6
  unreachable

bb31:                                             ; preds = %bb26
  %6 = load ptr, ptr %cur, align 8
  %7 = getelementptr inbounds i8, ptr %6, i64 4
  %_11 = load i32, ptr %7, align 4
  store i32 %_11, ptr %depth, align 4
  br label %bb10

panic5:                                           ; preds = %bb26
; call core::panicking::panic_null_pointer_dereference
  call void @_ZN4core9panicking30panic_null_pointer_dereference17hf718fcc86a223baaE(ptr align 8 @alloc_4b4b09a4bedc7a577dbab104a48e1ede) #6
  unreachable

bb25:                                             ; preds = %bb10
  %_111 = load ptr, ptr %cur, align 8
  %_112 = ptrtoint ptr %_111 to i64
  %_115 = icmp eq i64 %_112, 0
  %_116 = and i1 %_115, true
  %_117 = xor i1 %_116, true
  br i1 %_117, label %bb32, label %panic7

panic6:                                           ; preds = %bb10
; call core::panicking::panic_misaligned_pointer_dereference
  call void @_ZN4core9panicking36panic_misaligned_pointer_dereference17hcc3cbded9382b6e5E(i64 8, i64 %_67, ptr align 8 @alloc_c1d91c828c8b05842ef2eaaf842f0434) #6
  unreachable

bb32:                                             ; preds = %bb25
  %8 = load ptr, ptr %cur, align 8
  %9 = getelementptr inbounds i8, ptr %8, i64 8
  %_13 = load ptr, ptr %9, align 8
; call core::ptr::mut_ptr::<impl *mut T>::is_null
  %_12 = call zeroext i1 @"_ZN4core3ptr7mut_ptr31_$LT$impl$u20$$BP$mut$u20$T$GT$7is_null17h655a2e2591820108E"(ptr %_13) #5
  br i1 %_12, label %bb13, label %bb12

panic7:                                           ; preds = %bb25
; call core::panicking::panic_null_pointer_dereference
  call void @_ZN4core9panicking30panic_null_pointer_dereference17hf718fcc86a223baaE(ptr align 8 @alloc_c1d91c828c8b05842ef2eaaf842f0434) #6
  unreachable

bb12:                                             ; preds = %bb32
  %_60 = load ptr, ptr %cur, align 8
  %_61 = ptrtoint ptr %_60 to i64
  %_64 = and i64 %_61, 7
  %_65 = icmp eq i64 %_64, 0
  br i1 %_65, label %bb24, label %panic8

bb13:                                             ; preds = %bb35, %bb32
  %_42 = load ptr, ptr %cur, align 8
  %_43 = ptrtoint ptr %_42 to i64
  %_46 = and i64 %_43, 7
  %_47 = icmp eq i64 %_46, 0
  br i1 %_47, label %bb21, label %panic14

bb24:                                             ; preds = %bb12
  %_118 = load ptr, ptr %cur, align 8
  %_119 = ptrtoint ptr %_118 to i64
  %_122 = icmp eq i64 %_119, 0
  %_123 = and i1 %_122, true
  %_124 = xor i1 %_123, true
  br i1 %_124, label %bb33, label %panic9

panic8:                                           ; preds = %bb12
; call core::panicking::panic_misaligned_pointer_dereference
  call void @_ZN4core9panicking36panic_misaligned_pointer_dereference17hcc3cbded9382b6e5E(i64 8, i64 %_61, ptr align 8 @alloc_1af3d8862d3e2a00cfc3261e5fe0433b) #6
  unreachable

bb33:                                             ; preds = %bb24
  %10 = load ptr, ptr %cur, align 8
  %11 = getelementptr inbounds i8, ptr %10, i64 4
  %_14 = load i32, ptr %11, align 4
  %12 = load ptr, ptr %cur, align 8
  %13 = getelementptr inbounds i8, ptr %12, i64 8
  %_22 = load ptr, ptr %13, align 8
  %_55 = ptrtoint ptr %_22 to i64
  %_58 = and i64 %_55, 7
  %_59 = icmp eq i64 %_58, 0
  br i1 %_59, label %bb23, label %panic10

panic9:                                           ; preds = %bb24
; call core::panicking::panic_null_pointer_dereference
  call void @_ZN4core9panicking30panic_null_pointer_dereference17hf718fcc86a223baaE(ptr align 8 @alloc_1af3d8862d3e2a00cfc3261e5fe0433b) #6
  unreachable

bb23:                                             ; preds = %bb33
  %_126 = ptrtoint ptr %_22 to i64
  %_129 = icmp eq i64 %_126, 0
  %_130 = and i1 %_129, true
  %_131 = xor i1 %_130, true
  br i1 %_131, label %bb34, label %panic11

panic10:                                          ; preds = %bb33
; call core::panicking::panic_misaligned_pointer_dereference
  call void @_ZN4core9panicking36panic_misaligned_pointer_dereference17hcc3cbded9382b6e5E(i64 8, i64 %_55, ptr align 8 @alloc_eb3df14630061be3e3a09a7781d5efda) #6
  unreachable

bb34:                                             ; preds = %bb23
  %14 = getelementptr inbounds i8, ptr %_22, i64 4
  %15 = add i32 %_14, 1
  store i32 %15, ptr %14, align 4
  %_48 = load ptr, ptr %cur, align 8
  %_49 = ptrtoint ptr %_48 to i64
  %_52 = and i64 %_49, 7
  %_53 = icmp eq i64 %_52, 0
  br i1 %_53, label %bb22, label %panic12

panic11:                                          ; preds = %bb23
; call core::panicking::panic_null_pointer_dereference
  call void @_ZN4core9panicking30panic_null_pointer_dereference17hf718fcc86a223baaE(ptr align 8 @alloc_eb3df14630061be3e3a09a7781d5efda) #6
  unreachable

bb22:                                             ; preds = %bb34
  %_132 = load ptr, ptr %cur, align 8
  %_133 = ptrtoint ptr %_132 to i64
  %_136 = icmp eq i64 %_133, 0
  %_137 = and i1 %_136, true
  %_138 = xor i1 %_137, true
  br i1 %_138, label %bb35, label %panic13

panic12:                                          ; preds = %bb34
; call core::panicking::panic_misaligned_pointer_dereference
  call void @_ZN4core9panicking36panic_misaligned_pointer_dereference17hcc3cbded9382b6e5E(i64 8, i64 %_49, ptr align 8 @alloc_3b2c7da0ab05cc068f7dd30407049272) #6
  unreachable

bb35:                                             ; preds = %bb22
  %16 = load ptr, ptr %cur, align 8
  %17 = getelementptr inbounds i8, ptr %16, i64 8
  %_16 = load ptr, ptr %17, align 8
  call void @enqueue(ptr %_16) #5
  br label %bb13

panic13:                                          ; preds = %bb22
; call core::panicking::panic_null_pointer_dereference
  call void @_ZN4core9panicking30panic_null_pointer_dereference17hf718fcc86a223baaE(ptr align 8 @alloc_3b2c7da0ab05cc068f7dd30407049272) #6
  unreachable

bb21:                                             ; preds = %bb13
  %_139 = load ptr, ptr %cur, align 8
  %_140 = ptrtoint ptr %_139 to i64
  %_143 = icmp eq i64 %_140, 0
  %_144 = and i1 %_143, true
  %_145 = xor i1 %_144, true
  br i1 %_145, label %bb36, label %panic15

panic14:                                          ; preds = %bb13
; call core::panicking::panic_misaligned_pointer_dereference
  call void @_ZN4core9panicking36panic_misaligned_pointer_dereference17hcc3cbded9382b6e5E(i64 8, i64 %_43, ptr align 8 @alloc_7b68064b5dc9ae848c0dbe227ee85bc6) #6
  unreachable

bb36:                                             ; preds = %bb21
  %18 = load ptr, ptr %cur, align 8
  %19 = getelementptr inbounds i8, ptr %18, i64 16
  %_18 = load ptr, ptr %19, align 8
; call core::ptr::mut_ptr::<impl *mut T>::is_null
  %_17 = call zeroext i1 @"_ZN4core3ptr7mut_ptr31_$LT$impl$u20$$BP$mut$u20$T$GT$7is_null17h655a2e2591820108E"(ptr %_18) #5
  br i1 %_17, label %bb5, label %bb15

panic15:                                          ; preds = %bb21
; call core::panicking::panic_null_pointer_dereference
  call void @_ZN4core9panicking30panic_null_pointer_dereference17hf718fcc86a223baaE(ptr align 8 @alloc_7b68064b5dc9ae848c0dbe227ee85bc6) #6
  unreachable

bb15:                                             ; preds = %bb36
  %_36 = load ptr, ptr %cur, align 8
  %_37 = ptrtoint ptr %_36 to i64
  %_40 = and i64 %_37, 7
  %_41 = icmp eq i64 %_40, 0
  br i1 %_41, label %bb20, label %panic16

bb20:                                             ; preds = %bb15
  %_146 = load ptr, ptr %cur, align 8
  %_147 = ptrtoint ptr %_146 to i64
  %_150 = icmp eq i64 %_147, 0
  %_151 = and i1 %_150, true
  %_152 = xor i1 %_151, true
  br i1 %_152, label %bb37, label %panic17

panic16:                                          ; preds = %bb15
; call core::panicking::panic_misaligned_pointer_dereference
  call void @_ZN4core9panicking36panic_misaligned_pointer_dereference17hcc3cbded9382b6e5E(i64 8, i64 %_37, ptr align 8 @alloc_48971eb08ad72f37c9695810841dc9f2) #6
  unreachable

bb37:                                             ; preds = %bb20
  %20 = load ptr, ptr %cur, align 8
  %21 = getelementptr inbounds i8, ptr %20, i64 4
  %_19 = load i32, ptr %21, align 4
  %22 = load ptr, ptr %cur, align 8
  %23 = getelementptr inbounds i8, ptr %22, i64 16
  %_23 = load ptr, ptr %23, align 8
  %_31 = ptrtoint ptr %_23 to i64
  %_34 = and i64 %_31, 7
  %_35 = icmp eq i64 %_34, 0
  br i1 %_35, label %bb19, label %panic18

panic17:                                          ; preds = %bb20
; call core::panicking::panic_null_pointer_dereference
  call void @_ZN4core9panicking30panic_null_pointer_dereference17hf718fcc86a223baaE(ptr align 8 @alloc_48971eb08ad72f37c9695810841dc9f2) #6
  unreachable

bb19:                                             ; preds = %bb37
  %_154 = ptrtoint ptr %_23 to i64
  %_157 = icmp eq i64 %_154, 0
  %_158 = and i1 %_157, true
  %_159 = xor i1 %_158, true
  br i1 %_159, label %bb38, label %panic19

panic18:                                          ; preds = %bb37
; call core::panicking::panic_misaligned_pointer_dereference
  call void @_ZN4core9panicking36panic_misaligned_pointer_dereference17hcc3cbded9382b6e5E(i64 8, i64 %_31, ptr align 8 @alloc_339fa33099482739c880679cf374d431) #6
  unreachable

bb38:                                             ; preds = %bb19
  %24 = getelementptr inbounds i8, ptr %_23, i64 4
  %25 = add i32 %_19, 1
  store i32 %25, ptr %24, align 4
  %_24 = load ptr, ptr %cur, align 8
  %_25 = ptrtoint ptr %_24 to i64
  %_28 = and i64 %_25, 7
  %_29 = icmp eq i64 %_28, 0
  br i1 %_29, label %bb18, label %panic20

panic19:                                          ; preds = %bb19
; call core::panicking::panic_null_pointer_dereference
  call void @_ZN4core9panicking30panic_null_pointer_dereference17hf718fcc86a223baaE(ptr align 8 @alloc_339fa33099482739c880679cf374d431) #6
  unreachable

bb18:                                             ; preds = %bb38
  %_160 = load ptr, ptr %cur, align 8
  %_161 = ptrtoint ptr %_160 to i64
  %_164 = icmp eq i64 %_161, 0
  %_165 = and i1 %_164, true
  %_166 = xor i1 %_165, true
  br i1 %_166, label %bb39, label %panic21

panic20:                                          ; preds = %bb38
; call core::panicking::panic_misaligned_pointer_dereference
  call void @_ZN4core9panicking36panic_misaligned_pointer_dereference17hcc3cbded9382b6e5E(i64 8, i64 %_25, ptr align 8 @alloc_c88f646300f9af5677fcc4f39feda3b8) #6
  unreachable

bb39:                                             ; preds = %bb18
  %26 = load ptr, ptr %cur, align 8
  %27 = getelementptr inbounds i8, ptr %26, i64 16
  %_21 = load ptr, ptr %27, align 8
  call void @enqueue(ptr %_21) #5
  br label %bb5

panic21:                                          ; preds = %bb18
; call core::panicking::panic_null_pointer_dereference
  call void @_ZN4core9panicking30panic_null_pointer_dereference17hf718fcc86a223baaE(ptr align 8 @alloc_c88f646300f9af5677fcc4f39feda3b8) #6
  unreachable

bb17:                                             ; preds = %bb2, %bb16
  %28 = load i32, ptr %_0, align 4
  ret i32 %28
}

; Function Attrs: nounwind nonlazybind
declare ptr @malloc(i64) unnamed_addr #1

; core::panicking::panic_misaligned_pointer_dereference
; Function Attrs: cold minsize noinline noreturn nounwind nonlazybind optsize
declare void @_ZN4core9panicking36panic_misaligned_pointer_dereference17hcc3cbded9382b6e5E(i64, i64, ptr align 8) unnamed_addr #2

; core::panicking::panic_null_pointer_dereference
; Function Attrs: cold minsize noinline noreturn nounwind nonlazybind optsize
declare void @_ZN4core9panicking30panic_null_pointer_dereference17hf718fcc86a223baaE(ptr align 8) unnamed_addr #2

; Function Attrs: noreturn nounwind nonlazybind
declare void @exit(i32) unnamed_addr #3

; Function Attrs: nounwind nonlazybind
declare i32 @printf(ptr, ...) unnamed_addr #1

; core::panicking::panic_bounds_check
; Function Attrs: cold minsize noinline noreturn nounwind nonlazybind optsize
declare void @_ZN4core9panicking18panic_bounds_check17h27d1e4f0cb1112dfE(i64, i64, ptr align 8) unnamed_addr #2

; core::panicking::panic_const::panic_const_rem_overflow
; Function Attrs: cold noinline noreturn nounwind nonlazybind
declare void @_ZN4core9panicking11panic_const24panic_const_rem_overflow17h799fde26ff2294a6E(ptr align 8) unnamed_addr #4

attributes #0 = { inlinehint nounwind nonlazybind "probe-stack"="inline-asm" "target-cpu"="x86-64" }
attributes #1 = { nounwind nonlazybind "probe-stack"="inline-asm" "target-cpu"="x86-64" }
attributes #2 = { cold minsize noinline noreturn nounwind nonlazybind optsize "probe-stack"="inline-asm" "target-cpu"="x86-64" }
attributes #3 = { noreturn nounwind nonlazybind "probe-stack"="inline-asm" "target-cpu"="x86-64" }
attributes #4 = { cold noinline noreturn nounwind nonlazybind "probe-stack"="inline-asm" "target-cpu"="x86-64" }
attributes #5 = { nounwind }
attributes #6 = { noreturn nounwind }

!llvm.module.flags = !{!0, !1}
!llvm.ident = !{!2}

!0 = !{i32 8, !"PIC Level", i32 2}
!1 = !{i32 2, !"RtLibUseGOT", i32 1}
!2 = !{!"rustc version 1.88.0-nightly (0b45675cf 2025-03-31)"}
