; ModuleID = '5hl0iyha74bnluw8lto9qj8i1'
source_filename = "5hl0iyha74bnluw8lto9qj8i1"
target datalayout = "e-m:e-p270:32:32-p271:32:32-p272:64:64-i64:64-i128:128-f80:128-n8:16:32:64-S128"
target triple = "x86_64-unknown-linux-gnu"

@alloc_0ed0763d8bf93ac79247e07858374e35 = private unnamed_addr constant [210 x i8] c"unsafe precondition(s) violated: ptr::offset requires the address calculation to not overflow\0A\0AThis indicates a bug in the program. This Undefined Behavior check is optional, and cannot be relied on for safety.", align 1
@alloc_f5ffd2fd1476bab43ad89fb40c72d0c5 = private unnamed_addr constant [10 x i8] c"src/lib.rs", align 1
@alloc_05e2e2a00bc4c6ff34fd34813424c9ff = private unnamed_addr constant <{ ptr, [16 x i8] }> <{ ptr @alloc_f5ffd2fd1476bab43ad89fb40c72d0c5, [16 x i8] c"\0A\00\00\00\00\00\00\00/\00\00\00\05\00\00\00" }>, align 8
@alloc_a6c86c585b103f19fbcceab9c3144420 = private unnamed_addr constant <{ ptr, [16 x i8] }> <{ ptr @alloc_f5ffd2fd1476bab43ad89fb40c72d0c5, [16 x i8] c"\0A\00\00\00\00\00\00\000\00\00\00\05\00\00\00" }>, align 8
@alloc_39d59aa2dd3901e5785ccaa6acf59b06 = private unnamed_addr constant <{ ptr, [16 x i8] }> <{ ptr @alloc_f5ffd2fd1476bab43ad89fb40c72d0c5, [16 x i8] c"\0A\00\00\00\00\00\00\003\00\00\00\0A\00\00\00" }>, align 8
@alloc_5a8bde7173c3cbbe7ad30de7033b7ae0 = private unnamed_addr constant <{ ptr, [16 x i8] }> <{ ptr @alloc_f5ffd2fd1476bab43ad89fb40c72d0c5, [16 x i8] c"\0A\00\00\00\00\00\00\001\00\00\00\05\00\00\00" }>, align 8
@alloc_0eb1e8a3aeda52e524aaada5d465a36c = private unnamed_addr constant <{ ptr, [16 x i8] }> <{ ptr @alloc_f5ffd2fd1476bab43ad89fb40c72d0c5, [16 x i8] c"\0A\00\00\00\00\00\00\006\00\00\00\08\00\00\00" }>, align 8
@alloc_143b2744d111380641628c34d59209bd = private unnamed_addr constant <{ ptr, [16 x i8] }> <{ ptr @alloc_f5ffd2fd1476bab43ad89fb40c72d0c5, [16 x i8] c"\0A\00\00\00\00\00\00\00=\00\00\00\0D\00\00\00" }>, align 8
@alloc_d90d46462b6d905ed494501ef0bb8813 = private unnamed_addr constant <{ ptr, [16 x i8] }> <{ ptr @alloc_f5ffd2fd1476bab43ad89fb40c72d0c5, [16 x i8] c"\0A\00\00\00\00\00\00\00A\00\00\00\0C\00\00\00" }>, align 8
@alloc_b10192b1ecd76f99e78531fa22d9c967 = private unnamed_addr constant <{ ptr, [16 x i8] }> <{ ptr @alloc_f5ffd2fd1476bab43ad89fb40c72d0c5, [16 x i8] c"\0A\00\00\00\00\00\00\00E\00\00\00\0D\00\00\00" }>, align 8
@alloc_4156b461efc468b8e1d7cc4010a60ebd = private unnamed_addr constant <{ ptr, [16 x i8] }> <{ ptr @alloc_f5ffd2fd1476bab43ad89fb40c72d0c5, [16 x i8] c"\0A\00\00\00\00\00\00\00E\00\00\00\19\00\00\00" }>, align 8
@alloc_5e508f8b25e8846369e349f2be531966 = private unnamed_addr constant <{ ptr, [16 x i8] }> <{ ptr @alloc_f5ffd2fd1476bab43ad89fb40c72d0c5, [16 x i8] c"\0A\00\00\00\00\00\00\00I\00\00\00\05\00\00\00" }>, align 8
@alloc_628e37eba0fc498b7c3dd45f913fbea3 = private unnamed_addr constant <{ ptr, [16 x i8] }> <{ ptr @alloc_f5ffd2fd1476bab43ad89fb40c72d0c5, [16 x i8] c"\0A\00\00\00\00\00\00\00L\00\00\00\09\00\00\00" }>, align 8
@alloc_63ac5df6026028eb36339cd961ede247 = private unnamed_addr constant <{ ptr, [16 x i8] }> <{ ptr @alloc_f5ffd2fd1476bab43ad89fb40c72d0c5, [16 x i8] c"\0A\00\00\00\00\00\00\00M\00\00\00\0A\00\00\00" }>, align 8
@alloc_2b741aa80e9bacc62157d48afd5adfbd = private unnamed_addr constant <{ ptr, [16 x i8] }> <{ ptr @alloc_f5ffd2fd1476bab43ad89fb40c72d0c5, [16 x i8] c"\0A\00\00\00\00\00\00\00J\00\00\00\05\00\00\00" }>, align 8
@alloc_7ebff165463d26610c59f877914f7a2f = private unnamed_addr constant <{ ptr, [16 x i8] }> <{ ptr @alloc_f5ffd2fd1476bab43ad89fb40c72d0c5, [16 x i8] c"\0A\00\00\00\00\00\00\00V\00\00\00\05\00\00\00" }>, align 8
@alloc_4960c6ea03c9021371711e3e9d64602d = private unnamed_addr constant <{ ptr, [16 x i8] }> <{ ptr @alloc_f5ffd2fd1476bab43ad89fb40c72d0c5, [16 x i8] c"\0A\00\00\00\00\00\00\00W\00\00\00\06\00\00\00" }>, align 8
@alloc_e35ecca9ad6007827e4e509b4cd44ec1 = private unnamed_addr constant <{ ptr, [16 x i8] }> <{ ptr @alloc_f5ffd2fd1476bab43ad89fb40c72d0c5, [16 x i8] c"\0A\00\00\00\00\00\00\00W\00\00\00\1A\00\00\00" }>, align 8
@alloc_4dc9d9ad7a45d2b5b4b18d2f05142242 = private unnamed_addr constant <{ ptr, [16 x i8] }> <{ ptr @alloc_f5ffd2fd1476bab43ad89fb40c72d0c5, [16 x i8] c"\0A\00\00\00\00\00\00\00W\00\00\00\05\00\00\00" }>, align 8
@alloc_bc5f1064ee8790e610d299d4a7506380 = private unnamed_addr constant <{ ptr, [16 x i8] }> <{ ptr @alloc_f5ffd2fd1476bab43ad89fb40c72d0c5, [16 x i8] c"\0A\00\00\00\00\00\00\00_\00\00\00\16\00\00\00" }>, align 8
@alloc_9294931eb085197ddf7991335d7ebc78 = private unnamed_addr constant <{ ptr, [16 x i8] }> <{ ptr @alloc_f5ffd2fd1476bab43ad89fb40c72d0c5, [16 x i8] c"\0A\00\00\00\00\00\00\00`\00\00\00\14\00\00\00" }>, align 8
@alloc_9fd0d8089602b49d7240982dd95949ba = private unnamed_addr constant <{ ptr, [16 x i8] }> <{ ptr @alloc_f5ffd2fd1476bab43ad89fb40c72d0c5, [16 x i8] c"\0A\00\00\00\00\00\00\00`\00\00\00\09\00\00\00" }>, align 8
@alloc_b8a4cb267e4f54777346e8c6825bf5c9 = private unnamed_addr constant <{ ptr, [16 x i8] }> <{ ptr @alloc_f5ffd2fd1476bab43ad89fb40c72d0c5, [16 x i8] c"\0A\00\00\00\00\00\00\00a\00\00\00\11\00\00\00" }>, align 8
@alloc_f01efc2396ee466bfed48053e92378e5 = private unnamed_addr constant <{ ptr, [16 x i8] }> <{ ptr @alloc_f5ffd2fd1476bab43ad89fb40c72d0c5, [16 x i8] c"\0A\00\00\00\00\00\00\00a\00\00\00\10\00\00\00" }>, align 8
@alloc_af9944ea6fa397ba69678832a6b8b48f = private unnamed_addr constant [16 x i8] c"Stack is Empty\0A\00", align 1
@alloc_79fc254fdad79f327f75eb726ac64fb7 = private unnamed_addr constant <{ ptr, [16 x i8] }> <{ ptr @alloc_f5ffd2fd1476bab43ad89fb40c72d0c5, [16 x i8] c"\0A\00\00\00\00\00\00\00j\00\00\00\11\00\00\00" }>, align 8
@alloc_b1b42fc457feec0219a8d19aaeb03695 = private unnamed_addr constant <{ ptr, [16 x i8] }> <{ ptr @alloc_f5ffd2fd1476bab43ad89fb40c72d0c5, [16 x i8] c"\0A\00\00\00\00\00\00\00j\00\00\00%\00\00\00" }>, align 8
@alloc_48cfb30dd7f4b7feff0bd5950be6913c = private unnamed_addr constant <{ ptr, [16 x i8] }> <{ ptr @alloc_f5ffd2fd1476bab43ad89fb40c72d0c5, [16 x i8] c"\0A\00\00\00\00\00\00\00j\00\00\00\10\00\00\00" }>, align 8
@alloc_2b59a6a3da55609659daea7b91ccd9ab = private unnamed_addr constant [15 x i8] c"Stack is Empty\00", align 1
@alloc_e388ee5d31727c0c17beb126dd9d5d23 = private unnamed_addr constant <{ ptr, [16 x i8] }> <{ ptr @alloc_f5ffd2fd1476bab43ad89fb40c72d0c5, [16 x i8] c"\0A\00\00\00\00\00\00\00p\00\00\00\0D\00\00\00" }>, align 8
@alloc_f24f60c482ed8f5629e34423cbbaaabe = private unnamed_addr constant <{ ptr, [16 x i8] }> <{ ptr @alloc_f5ffd2fd1476bab43ad89fb40c72d0c5, [16 x i8] c"\0A\00\00\00\00\00\00\00q\00\00\00\12\00\00\00" }>, align 8
@alloc_e57752d72d93a08c661c993a9c587fab = private unnamed_addr constant <{ ptr, [16 x i8] }> <{ ptr @alloc_f5ffd2fd1476bab43ad89fb40c72d0c5, [16 x i8] c"\0A\00\00\00\00\00\00\00}\00\00\00\05\00\00\00" }>, align 8
@alloc_2d10d109c7752ea3dc42b94ce8ed6bb6 = private unnamed_addr constant <{ ptr, [16 x i8] }> <{ ptr @alloc_f5ffd2fd1476bab43ad89fb40c72d0c5, [16 x i8] c"\0A\00\00\00\00\00\00\00~\00\00\00\05\00\00\00" }>, align 8
@alloc_c6d53ab95f51489ff5992d25ab8a371c = private unnamed_addr constant <{ ptr, [16 x i8] }> <{ ptr @alloc_f5ffd2fd1476bab43ad89fb40c72d0c5, [16 x i8] c"\0A\00\00\00\00\00\00\00\7F\00\00\00\12\00\00\00" }>, align 8
@alloc_78d72a4cdf0453bbc786d377f6cb9ddc = private unnamed_addr constant <{ ptr, [16 x i8] }> <{ ptr @alloc_f5ffd2fd1476bab43ad89fb40c72d0c5, [16 x i8] c"\0A\00\00\00\00\00\00\00\7F\00\00\00\05\00\00\00" }>, align 8
@alloc_0a0c52c7598ebd026248b36c4f00b4c7 = private unnamed_addr constant <{ ptr, [16 x i8] }> <{ ptr @alloc_f5ffd2fd1476bab43ad89fb40c72d0c5, [16 x i8] c"\0A\00\00\00\00\00\00\00\80\00\00\00\05\00\00\00" }>, align 8
@alloc_7a32dfe14eaad90fa71c4974a21249cb = private unnamed_addr constant <{ ptr, [16 x i8] }> <{ ptr @alloc_f5ffd2fd1476bab43ad89fb40c72d0c5, [16 x i8] c"\0A\00\00\00\00\00\00\00\83\00\00\00\0A\00\00\00" }>, align 8
@alloc_7d8d58b36d2b2d423935116080665165 = private unnamed_addr constant <{ ptr, [16 x i8] }> <{ ptr @alloc_f5ffd2fd1476bab43ad89fb40c72d0c5, [16 x i8] c"\0A\00\00\00\00\00\00\00\81\00\00\00\05\00\00\00" }>, align 8
@alloc_71129d81d250ccf4597a0433a23e28ec = private unnamed_addr constant <{ ptr, [16 x i8] }> <{ ptr @alloc_f5ffd2fd1476bab43ad89fb40c72d0c5, [16 x i8] c"\0A\00\00\00\00\00\00\00\86\00\00\00\08\00\00\00" }>, align 8
@alloc_8ab490a61e5094234e20afca7467eaf8 = private unnamed_addr constant <{ ptr, [16 x i8] }> <{ ptr @alloc_f5ffd2fd1476bab43ad89fb40c72d0c5, [16 x i8] c"\0A\00\00\00\00\00\00\00\8D\00\00\00\0C\00\00\00" }>, align 8
@alloc_645f077d7f05a638230e54f4fcbdc852 = private unnamed_addr constant <{ ptr, [16 x i8] }> <{ ptr @alloc_f5ffd2fd1476bab43ad89fb40c72d0c5, [16 x i8] c"\0A\00\00\00\00\00\00\00\91\00\00\00\0D\00\00\00" }>, align 8
@alloc_581a103f18723c5e1b989a81e34b8969 = private unnamed_addr constant <{ ptr, [16 x i8] }> <{ ptr @alloc_f5ffd2fd1476bab43ad89fb40c72d0c5, [16 x i8] c"\0A\00\00\00\00\00\00\00\91\00\00\00!\00\00\00" }>, align 8
@alloc_d3774a101a971a29df215d08a15c0156 = private unnamed_addr constant <{ ptr, [16 x i8] }> <{ ptr @alloc_f5ffd2fd1476bab43ad89fb40c72d0c5, [16 x i8] c"\0A\00\00\00\00\00\00\00\91\00\00\00\0C\00\00\00" }>, align 8
@alloc_5b2af695ee4d260ec5d60c7976a90afb = private unnamed_addr constant <{ ptr, [16 x i8] }> <{ ptr @alloc_f5ffd2fd1476bab43ad89fb40c72d0c5, [16 x i8] c"\0A\00\00\00\00\00\00\00\95\00\00\00\0D\00\00\00" }>, align 8
@alloc_48838e152370903d0cd0fc8c9b5ad3d8 = private unnamed_addr constant <{ ptr, [16 x i8] }> <{ ptr @alloc_f5ffd2fd1476bab43ad89fb40c72d0c5, [16 x i8] c"\0A\00\00\00\00\00\00\00\95\00\00\00!\00\00\00" }>, align 8
@alloc_711fd4aa051b13879ff1b0e368b843a4 = private unnamed_addr constant <{ ptr, [16 x i8] }> <{ ptr @alloc_f5ffd2fd1476bab43ad89fb40c72d0c5, [16 x i8] c"\0A\00\00\00\00\00\00\00\95\00\00\00\0C\00\00\00" }>, align 8
@alloc_d3f0ce81c936d03e4f315ec6781737a9 = private unnamed_addr constant <{ ptr, [16 x i8] }> <{ ptr @alloc_f5ffd2fd1476bab43ad89fb40c72d0c5, [16 x i8] c"\0A\00\00\00\00\00\00\00\99\00\00\00\0D\00\00\00" }>, align 8
@alloc_063cc3c95637fb1971b26205bb16327b = private unnamed_addr constant <{ ptr, [16 x i8] }> <{ ptr @alloc_f5ffd2fd1476bab43ad89fb40c72d0c5, [16 x i8] c"\0A\00\00\00\00\00\00\00\9D\00\00\00\0D\00\00\00" }>, align 8
@alloc_a332bc9a21a276c35c0d31c3d4992c58 = private unnamed_addr constant <{ ptr, [16 x i8] }> <{ ptr @alloc_f5ffd2fd1476bab43ad89fb40c72d0c5, [16 x i8] c"\0A\00\00\00\00\00\00\00\9D\00\00\00\1A\00\00\00" }>, align 8
@alloc_8e2d1b02e95d82e6c2adb32b8b95d58b = private unnamed_addr constant <{ ptr, [16 x i8] }> <{ ptr @alloc_f5ffd2fd1476bab43ad89fb40c72d0c5, [16 x i8] c"\0A\00\00\00\00\00\00\00\A1\00\00\00!\00\00\00" }>, align 8
@alloc_3e0eec28b7910491c80290a4d4aaca22 = private unnamed_addr constant <{ ptr, [16 x i8] }> <{ ptr @alloc_f5ffd2fd1476bab43ad89fb40c72d0c5, [16 x i8] c"\0A\00\00\00\00\00\00\00\A2\00\00\00\15\00\00\00" }>, align 8
@alloc_a36f45cee9449e8ced34535698225438 = private unnamed_addr constant <{ ptr, [16 x i8] }> <{ ptr @alloc_f5ffd2fd1476bab43ad89fb40c72d0c5, [16 x i8] c"\0A\00\00\00\00\00\00\00\A2\00\00\00\05\00\00\00" }>, align 8
@alloc_32a72fc30d4a2ec99c1392318cc17e30 = private unnamed_addr constant <{ ptr, [16 x i8] }> <{ ptr @alloc_f5ffd2fd1476bab43ad89fb40c72d0c5, [16 x i8] c"\0A\00\00\00\00\00\00\00\A5\00\00\00\09\00\00\00" }>, align 8
@alloc_2d8a13234e5a02f83f64cf407c05c57e = private unnamed_addr constant <{ ptr, [16 x i8] }> <{ ptr @alloc_f5ffd2fd1476bab43ad89fb40c72d0c5, [16 x i8] c"\0A\00\00\00\00\00\00\00\A7\00\00\00\1B\00\00\00" }>, align 8
@alloc_3d9151624eab24158117245357fec895 = private unnamed_addr constant <{ ptr, [16 x i8] }> <{ ptr @alloc_f5ffd2fd1476bab43ad89fb40c72d0c5, [16 x i8] c"\0A\00\00\00\00\00\00\00\A3\00\00\00\05\00\00\00" }>, align 8
@alloc_395383c7eefbb481f7242f7f32147340 = private unnamed_addr constant <{ ptr, [16 x i8] }> <{ ptr @alloc_f5ffd2fd1476bab43ad89fb40c72d0c5, [16 x i8] c"\0A\00\00\00\00\00\00\00\A9\00\00\00\08\00\00\00" }>, align 8
@alloc_cb134b8acefe01c91a8fad8c729aea62 = private unnamed_addr constant <{ ptr, [16 x i8] }> <{ ptr @alloc_f5ffd2fd1476bab43ad89fb40c72d0c5, [16 x i8] c"\0A\00\00\00\00\00\00\00\AD\00\00\00\08\00\00\00" }>, align 8
@alloc_9025128f6a2e7a461b9fb929dc2c8c98 = private unnamed_addr constant <{ ptr, [16 x i8] }> <{ ptr @alloc_f5ffd2fd1476bab43ad89fb40c72d0c5, [16 x i8] c"\0A\00\00\00\00\00\00\00\AD\00\00\00\15\00\00\00" }>, align 8
@alloc_3db6df02ade1035da9ec9c2667ce7c76 = private unnamed_addr constant <{ ptr, [16 x i8] }> <{ ptr @alloc_f5ffd2fd1476bab43ad89fb40c72d0c5, [16 x i8] c"\0A\00\00\00\00\00\00\00\AF\00\00\00\13\00\00\00" }>, align 8
@alloc_6e74eda5771aaaa267e98fae2706ab2f = private unnamed_addr constant <{ ptr, [16 x i8] }> <{ ptr @alloc_f5ffd2fd1476bab43ad89fb40c72d0c5, [16 x i8] c"\0A\00\00\00\00\00\00\00\B4\00\00\00\15\00\00\00" }>, align 8
@alloc_acecb5e2416a4e38d90116cbe2adbd61 = private unnamed_addr constant <{ ptr, [16 x i8] }> <{ ptr @alloc_f5ffd2fd1476bab43ad89fb40c72d0c5, [16 x i8] c"\0A\00\00\00\00\00\00\00\B4\00\00\00\09\00\00\00" }>, align 8
@alloc_f6cf00f7cc05c1900555e28c039f209e = private unnamed_addr constant <{ ptr, [16 x i8] }> <{ ptr @alloc_f5ffd2fd1476bab43ad89fb40c72d0c5, [16 x i8] c"\0A\00\00\00\00\00\00\00\B0\00\00\00:\00\00\00" }>, align 8
@alloc_4f380cd052b472cf75d0a476e7861b14 = private unnamed_addr constant <{ ptr, [16 x i8] }> <{ ptr @alloc_f5ffd2fd1476bab43ad89fb40c72d0c5, [16 x i8] c"\0A\00\00\00\00\00\00\00\B0\00\00\009\00\00\00" }>, align 8
@alloc_d7a30cf990653ede2d01cee1dce0110d = private unnamed_addr constant <{ ptr, [16 x i8] }> <{ ptr @alloc_f5ffd2fd1476bab43ad89fb40c72d0c5, [16 x i8] c"\0A\00\00\00\00\00\00\00\B0\00\00\00\0E\00\00\00" }>, align 8
@alloc_c7135c2f9b98338fa5873bc01e1af061 = private unnamed_addr constant <{ ptr, [16 x i8] }> <{ ptr @alloc_f5ffd2fd1476bab43ad89fb40c72d0c5, [16 x i8] c"\0A\00\00\00\00\00\00\00\B0\00\00\00\0D\00\00\00" }>, align 8
@alloc_7bad7e74711098352899cacc37ae220b = private unnamed_addr constant [13 x i8] c"Memory Error\00", align 1
@alloc_4553b29c5344541642188650974ca440 = private unnamed_addr constant <{ ptr, [16 x i8] }> <{ ptr @alloc_f5ffd2fd1476bab43ad89fb40c72d0c5, [16 x i8] c"\0A\00\00\00\00\00\00\00\BC\00\00\00\12\00\00\00" }>, align 8
@alloc_4f4a37de403d2dc1988ea794b6a13a7d = private unnamed_addr constant <{ ptr, [16 x i8] }> <{ ptr @alloc_f5ffd2fd1476bab43ad89fb40c72d0c5, [16 x i8] c"\0A\00\00\00\00\00\00\00\BC\00\00\002\00\00\00" }>, align 8
@alloc_5ac406731101fde4d5fa205d84e706c0 = private unnamed_addr constant <{ ptr, [16 x i8] }> <{ ptr @alloc_f5ffd2fd1476bab43ad89fb40c72d0c5, [16 x i8] c"\0A\00\00\00\00\00\00\00\BC\00\00\00\11\00\00\00" }>, align 8
@alloc_295660d552510aca136207025db92de4 = private unnamed_addr constant <{ ptr, [16 x i8] }> <{ ptr @alloc_f5ffd2fd1476bab43ad89fb40c72d0c5, [16 x i8] c"\0A\00\00\00\00\00\00\00\BC\00\00\00\05\00\00\00" }>, align 8
@alloc_338fda92bc3bad24e70725fb859952d8 = private unnamed_addr constant <{ ptr, [16 x i8] }> <{ ptr @alloc_f5ffd2fd1476bab43ad89fb40c72d0c5, [16 x i8] c"\0A\00\00\00\00\00\00\00\BD\00\00\00\06\00\00\00" }>, align 8
@alloc_40f2349cc59f5ab12c4672246484840b = private unnamed_addr constant <{ ptr, [16 x i8] }> <{ ptr @alloc_f5ffd2fd1476bab43ad89fb40c72d0c5, [16 x i8] c"\0A\00\00\00\00\00\00\00\BD\00\00\00\1A\00\00\00" }>, align 8
@alloc_caeaa73146f8e62a1d94f321cfc045df = private unnamed_addr constant <{ ptr, [16 x i8] }> <{ ptr @alloc_f5ffd2fd1476bab43ad89fb40c72d0c5, [16 x i8] c"\0A\00\00\00\00\00\00\00\BD\00\00\00\05\00\00\00" }>, align 8
@alloc_a6013da12e53283c07d62849c24f17af = private unnamed_addr constant <{ ptr, [16 x i8] }> <{ ptr @alloc_f5ffd2fd1476bab43ad89fb40c72d0c5, [16 x i8] c"\0A\00\00\00\00\00\00\00\BE\00\00\00\08\00\00\00" }>, align 8
@alloc_7322b46aca7051f5b306103d94a585a1 = private unnamed_addr constant <{ ptr, [16 x i8] }> <{ ptr @alloc_f5ffd2fd1476bab43ad89fb40c72d0c5, [16 x i8] c"\0A\00\00\00\00\00\00\00\BF\00\00\00\16\00\00\00" }>, align 8
@alloc_ec6b776ab0f135b5b7e10b065a3c86fb = private unnamed_addr constant <{ ptr, [16 x i8] }> <{ ptr @alloc_f5ffd2fd1476bab43ad89fb40c72d0c5, [16 x i8] c"\0A\00\00\00\00\00\00\00\BF\00\00\00\09\00\00\00" }>, align 8
@alloc_147709643234c0e43fb19b8058ab450f = private unnamed_addr constant <{ ptr, [16 x i8] }> <{ ptr @alloc_f5ffd2fd1476bab43ad89fb40c72d0c5, [16 x i8] c"\0A\00\00\00\00\00\00\00\C1\00\00\00\05\00\00\00" }>, align 8
@alloc_6c8b11f06f7a3c729b268eedc00282f6 = private unnamed_addr constant <{ ptr, [16 x i8] }> <{ ptr @alloc_f5ffd2fd1476bab43ad89fb40c72d0c5, [16 x i8] c"\0A\00\00\00\00\00\00\00\CA\00\00\00\0D\00\00\00" }>, align 8
@alloc_8fbcbc63fc42ebfbbe670989501af568 = private unnamed_addr constant <{ ptr, [16 x i8] }> <{ ptr @alloc_f5ffd2fd1476bab43ad89fb40c72d0c5, [16 x i8] c"\0A\00\00\00\00\00\00\00\CA\00\00\00!\00\00\00" }>, align 8
@alloc_98f1e3f806f6f1a41762c69dbb21d162 = private unnamed_addr constant <{ ptr, [16 x i8] }> <{ ptr @alloc_f5ffd2fd1476bab43ad89fb40c72d0c5, [16 x i8] c"\0A\00\00\00\00\00\00\00\CA\00\00\00\0C\00\00\00" }>, align 8
@alloc_7df80ac586b0370039527bc69c84d912 = private unnamed_addr constant <{ ptr, [16 x i8] }> <{ ptr @alloc_f5ffd2fd1476bab43ad89fb40c72d0c5, [16 x i8] c"\0A\00\00\00\00\00\00\00\CB\00\00\00\08\00\00\00" }>, align 8
@alloc_fd6e06e949e8c39f402cbfebf6bab276 = private unnamed_addr constant <{ ptr, [16 x i8] }> <{ ptr @alloc_f5ffd2fd1476bab43ad89fb40c72d0c5, [16 x i8] c"\0A\00\00\00\00\00\00\00\CB\00\00\00\16\00\00\00" }>, align 8
@alloc_4a8b77c40ea99e870fbb4fd455f7fcf3 = private unnamed_addr constant <{ ptr, [16 x i8] }> <{ ptr @alloc_f5ffd2fd1476bab43ad89fb40c72d0c5, [16 x i8] c"\0A\00\00\00\00\00\00\00\D0\00\00\00\17\00\00\00" }>, align 8
@alloc_b76d048bb62ccb06f6d88e57357117b6 = private unnamed_addr constant <{ ptr, [16 x i8] }> <{ ptr @alloc_f5ffd2fd1476bab43ad89fb40c72d0c5, [16 x i8] c"\0A\00\00\00\00\00\00\00\D0\00\00\008\00\00\00" }>, align 8
@alloc_eb561d9f0e8d401673c65ca2cbcfe32c = private unnamed_addr constant <{ ptr, [16 x i8] }> <{ ptr @alloc_f5ffd2fd1476bab43ad89fb40c72d0c5, [16 x i8] c"\0A\00\00\00\00\00\00\00\D0\00\00\00\16\00\00\00" }>, align 8
@alloc_6fe9c8bdc5ef068249a926b13dfe760c = private unnamed_addr constant <{ ptr, [16 x i8] }> <{ ptr @alloc_f5ffd2fd1476bab43ad89fb40c72d0c5, [16 x i8] c"\0A\00\00\00\00\00\00\00\D0\00\00\00\09\00\00\00" }>, align 8
@alloc_53361c05b3903c0ef07c444cbff94b04 = private unnamed_addr constant <{ ptr, [16 x i8] }> <{ ptr @alloc_f5ffd2fd1476bab43ad89fb40c72d0c5, [16 x i8] c"\0A\00\00\00\00\00\00\00\D1\00\00\00\09\00\00\00" }>, align 8
@alloc_9445c4cd979f194ddacd7c88182bd7b2 = private unnamed_addr constant <{ ptr, [16 x i8] }> <{ ptr @alloc_f5ffd2fd1476bab43ad89fb40c72d0c5, [16 x i8] c"\0A\00\00\00\00\00\00\00\CC\00\00\00\09\00\00\00" }>, align 8
@alloc_d9555c620cf046ba4e73eaf02c9f1091 = private unnamed_addr constant <{ ptr, [16 x i8] }> <{ ptr @alloc_f5ffd2fd1476bab43ad89fb40c72d0c5, [16 x i8] c"\0A\00\00\00\00\00\00\00\CD\00\00\00\16\00\00\00" }>, align 8
@alloc_8f3d271ab51c2a70fee594208d8013c8 = private unnamed_addr constant <{ ptr, [16 x i8] }> <{ ptr @alloc_f5ffd2fd1476bab43ad89fb40c72d0c5, [16 x i8] c"\0A\00\00\00\00\00\00\00\CD\00\00\00\09\00\00\00" }>, align 8
@alloc_6159c17484314163fb0dcceaf704ac81 = private unnamed_addr constant <{ ptr, [16 x i8] }> <{ ptr @alloc_f5ffd2fd1476bab43ad89fb40c72d0c5, [16 x i8] c"\0A\00\00\00\00\00\00\00\CE\00\00\00\09\00\00\00" }>, align 8
@alloc_f277489d102d413232ce01d5c0419f31 = private unnamed_addr constant [16 x i8] c"Queue is empty\0A\00", align 1
@alloc_d844298e14d266042d4cd7096d285036 = private unnamed_addr constant <{ ptr, [16 x i8] }> <{ ptr @alloc_f5ffd2fd1476bab43ad89fb40c72d0c5, [16 x i8] c"\0A\00\00\00\00\00\00\00\D8\00\00\00\0D\00\00\00" }>, align 8
@alloc_98ce9c457ab26d39adadf8b75ee96f30 = private unnamed_addr constant <{ ptr, [16 x i8] }> <{ ptr @alloc_f5ffd2fd1476bab43ad89fb40c72d0c5, [16 x i8] c"\0A\00\00\00\00\00\00\00\D9\00\00\00\12\00\00\00" }>, align 8

; core::intrinsics::cold_path
; Function Attrs: cold nounwind nonlazybind
define internal void @_ZN4core10intrinsics9cold_path17hd4b0633591bcda94E() unnamed_addr #0 {
start:
  ret void
}

; core::ptr::mut_ptr::<impl *mut T>::offset::precondition_check
; Function Attrs: inlinehint nounwind nonlazybind
define internal void @"_ZN4core3ptr7mut_ptr31_$LT$impl$u20$$BP$mut$u20$T$GT$6offset18precondition_check17h1b4642fefff99a28E"(ptr %this, i64 %count, i64 %size) unnamed_addr #1 {
start:
  %0 = call { i64, i1 } @llvm.smul.with.overflow.i64(i64 %count, i64 %size)
  %_10.0 = extractvalue { i64, i1 } %0, 0
  %_10.1 = extractvalue { i64, i1 } %0, 1
  br i1 %_10.1, label %bb3, label %bb5

bb5:                                              ; preds = %start
  %self = ptrtoint ptr %this to i64
  %1 = call { i64, i1 } @llvm.uadd.with.overflow.i64(i64 %self, i64 %_10.0)
  %_19.0 = extractvalue { i64, i1 } %1, 0
  %_19.1 = extractvalue { i64, i1 } %1, 1
  %_17 = icmp slt i64 %_10.0, 0
  %overflow = xor i1 %_19.1, %_17
  %_4 = xor i1 %overflow, true
  br i1 %_4, label %bb1, label %bb2

bb3:                                              ; preds = %start
  br label %bb2

bb2:                                              ; preds = %bb3, %bb5
; call core::panicking::panic_nounwind
  call void @_ZN4core9panicking14panic_nounwind17h211d9ce8d63f12e7E(ptr align 1 @alloc_0ed0763d8bf93ac79247e07858374e35, i64 210) #6
  unreachable

bb1:                                              ; preds = %bb5
  ret void
}

; core::ptr::mut_ptr::<impl *mut T>::is_null
; Function Attrs: inlinehint nounwind nonlazybind
define internal zeroext i1 @"_ZN4core3ptr7mut_ptr31_$LT$impl$u20$$BP$mut$u20$T$GT$7is_null17h67a2b789b5576a04E"(ptr %self) unnamed_addr #1 {
start:
  %_3 = ptrtoint ptr %self to i64
  %_0 = icmp eq i64 %_3, 0
  ret i1 %_0
}

; core::ptr::mut_ptr::<impl *mut T>::is_null
; Function Attrs: inlinehint nounwind nonlazybind
define internal zeroext i1 @"_ZN4core3ptr7mut_ptr31_$LT$impl$u20$$BP$mut$u20$T$GT$7is_null17hcdf6909c51e39bf5E"(ptr %self) unnamed_addr #1 {
start:
  %_3 = ptrtoint ptr %self to i64
  %_0 = icmp eq i64 %_3, 0
  ret i1 %_0
}

; core::ptr::mut_ptr::<impl *mut T>::is_null
; Function Attrs: inlinehint nounwind nonlazybind
define internal zeroext i1 @"_ZN4core3ptr7mut_ptr31_$LT$impl$u20$$BP$mut$u20$T$GT$7is_null17hf09a1fae62f35c45E"(ptr %self) unnamed_addr #1 {
start:
  %_3 = ptrtoint ptr %self to i64
  %_0 = icmp eq i64 %_3, 0
  ret i1 %_0
}

; Function Attrs: nounwind nonlazybind
define ptr @createStack(i32 %capacity) unnamed_addr #2 {
start:
  %_0 = alloca [8 x i8], align 8
  %_3 = call ptr @malloc(i64 16) #7
; call core::ptr::mut_ptr::<impl *mut T>::is_null
  %_6 = call zeroext i1 @"_ZN4core3ptr7mut_ptr31_$LT$impl$u20$$BP$mut$u20$T$GT$7is_null17hcdf6909c51e39bf5E"(ptr %_3) #7
  br i1 %_6, label %bb4, label %bb5

bb5:                                              ; preds = %start
  %_40 = ptrtoint ptr %_3 to i64
  %_43 = and i64 %_40, 7
  %_44 = icmp eq i64 %_43, 0
  br i1 %_44, label %bb17, label %panic

bb4:                                              ; preds = %start
  store ptr null, ptr %_0, align 8
  br label %bb12

bb17:                                             ; preds = %bb5
  %_46 = ptrtoint ptr %_3 to i64
  %_49 = icmp eq i64 %_46, 0
  %_50 = and i1 %_49, true
  %_51 = xor i1 %_50, true
  br i1 %_51, label %bb18, label %panic1

panic:                                            ; preds = %bb5
; call core::panicking::panic_misaligned_pointer_dereference
  call void @_ZN4core9panicking36panic_misaligned_pointer_dereference17hcc3cbded9382b6e5E(i64 8, i64 %_40, ptr align 8 @alloc_05e2e2a00bc4c6ff34fd34813424c9ff) #6
  unreachable

bb18:                                             ; preds = %bb17
  %0 = getelementptr inbounds i8, ptr %_3, i64 4
  store i32 %capacity, ptr %0, align 4
  %_34 = ptrtoint ptr %_3 to i64
  %_37 = and i64 %_34, 7
  %_38 = icmp eq i64 %_37, 0
  br i1 %_38, label %bb16, label %panic2

panic1:                                           ; preds = %bb17
; call core::panicking::panic_null_pointer_dereference
  call void @_ZN4core9panicking30panic_null_pointer_dereference17hf718fcc86a223baaE(ptr align 8 @alloc_05e2e2a00bc4c6ff34fd34813424c9ff) #6
  unreachable

bb16:                                             ; preds = %bb18
  %_53 = ptrtoint ptr %_3 to i64
  %_56 = icmp eq i64 %_53, 0
  %_57 = and i1 %_56, true
  %_58 = xor i1 %_57, true
  br i1 %_58, label %bb19, label %panic3

panic2:                                           ; preds = %bb18
; call core::panicking::panic_misaligned_pointer_dereference
  call void @_ZN4core9panicking36panic_misaligned_pointer_dereference17hcc3cbded9382b6e5E(i64 8, i64 %_34, ptr align 8 @alloc_a6c86c585b103f19fbcceab9c3144420) #6
  unreachable

bb19:                                             ; preds = %bb16
  store i32 -1, ptr %_3, align 8
  %_28 = ptrtoint ptr %_3 to i64
  %_31 = and i64 %_28, 7
  %_32 = icmp eq i64 %_31, 0
  br i1 %_32, label %bb15, label %panic4

panic3:                                           ; preds = %bb16
; call core::panicking::panic_null_pointer_dereference
  call void @_ZN4core9panicking30panic_null_pointer_dereference17hf718fcc86a223baaE(ptr align 8 @alloc_a6c86c585b103f19fbcceab9c3144420) #6
  unreachable

bb15:                                             ; preds = %bb19
  %_60 = ptrtoint ptr %_3 to i64
  %_63 = icmp eq i64 %_60, 0
  %_64 = and i1 %_63, true
  %_65 = xor i1 %_64, true
  br i1 %_65, label %bb20, label %panic5

panic4:                                           ; preds = %bb19
; call core::panicking::panic_misaligned_pointer_dereference
  call void @_ZN4core9panicking36panic_misaligned_pointer_dereference17hcc3cbded9382b6e5E(i64 8, i64 %_28, ptr align 8 @alloc_39d59aa2dd3901e5785ccaa6acf59b06) #6
  unreachable

bb20:                                             ; preds = %bb15
  %1 = getelementptr inbounds i8, ptr %_3, i64 4
  %_10 = load i32, ptr %1, align 4
  %_9 = sext i32 %_10 to i64
  %_0.i = mul i64 %_9, 4
  %_7 = call ptr @malloc(i64 %_0.i) #7
  %_22 = ptrtoint ptr %_3 to i64
  %_25 = and i64 %_22, 7
  %_26 = icmp eq i64 %_25, 0
  br i1 %_26, label %bb14, label %panic6

panic5:                                           ; preds = %bb15
; call core::panicking::panic_null_pointer_dereference
  call void @_ZN4core9panicking30panic_null_pointer_dereference17hf718fcc86a223baaE(ptr align 8 @alloc_39d59aa2dd3901e5785ccaa6acf59b06) #6
  unreachable

bb14:                                             ; preds = %bb20
  %_67 = ptrtoint ptr %_3 to i64
  %_70 = icmp eq i64 %_67, 0
  %_71 = and i1 %_70, true
  %_72 = xor i1 %_71, true
  br i1 %_72, label %bb21, label %panic7

panic6:                                           ; preds = %bb20
; call core::panicking::panic_misaligned_pointer_dereference
  call void @_ZN4core9panicking36panic_misaligned_pointer_dereference17hcc3cbded9382b6e5E(i64 8, i64 %_22, ptr align 8 @alloc_5a8bde7173c3cbbe7ad30de7033b7ae0) #6
  unreachable

bb21:                                             ; preds = %bb14
  %2 = getelementptr inbounds i8, ptr %_3, i64 8
  store ptr %_7, ptr %2, align 8
  %_16 = ptrtoint ptr %_3 to i64
  %_19 = and i64 %_16, 7
  %_20 = icmp eq i64 %_19, 0
  br i1 %_20, label %bb13, label %panic8

panic7:                                           ; preds = %bb14
; call core::panicking::panic_null_pointer_dereference
  call void @_ZN4core9panicking30panic_null_pointer_dereference17hf718fcc86a223baaE(ptr align 8 @alloc_5a8bde7173c3cbbe7ad30de7033b7ae0) #6
  unreachable

bb13:                                             ; preds = %bb21
  %_74 = ptrtoint ptr %_3 to i64
  %_77 = icmp eq i64 %_74, 0
  %_78 = and i1 %_77, true
  %_79 = xor i1 %_78, true
  br i1 %_79, label %bb22, label %panic9

panic8:                                           ; preds = %bb21
; call core::panicking::panic_misaligned_pointer_dereference
  call void @_ZN4core9panicking36panic_misaligned_pointer_dereference17hcc3cbded9382b6e5E(i64 8, i64 %_16, ptr align 8 @alloc_0eb1e8a3aeda52e524aaada5d465a36c) #6
  unreachable

bb22:                                             ; preds = %bb13
  %3 = getelementptr inbounds i8, ptr %_3, i64 8
  %_14 = load ptr, ptr %3, align 8
; call core::ptr::mut_ptr::<impl *mut T>::is_null
  %_13 = call zeroext i1 @"_ZN4core3ptr7mut_ptr31_$LT$impl$u20$$BP$mut$u20$T$GT$7is_null17h67a2b789b5576a04E"(ptr %_14) #7
  br i1 %_13, label %bb10, label %bb11

panic9:                                           ; preds = %bb13
; call core::panicking::panic_null_pointer_dereference
  call void @_ZN4core9panicking30panic_null_pointer_dereference17hf718fcc86a223baaE(ptr align 8 @alloc_0eb1e8a3aeda52e524aaada5d465a36c) #6
  unreachable

bb11:                                             ; preds = %bb22
  store ptr %_3, ptr %_0, align 8
  br label %bb12

bb10:                                             ; preds = %bb22
  store ptr null, ptr %_0, align 8
  br label %bb12

bb12:                                             ; preds = %bb4, %bb10, %bb11
  %4 = load ptr, ptr %_0, align 8
  ret ptr %4
}

; Function Attrs: nounwind nonlazybind
define i32 @isEmptyStack(ptr %S) unnamed_addr #2 {
start:
  %_6 = ptrtoint ptr %S to i64
  %_9 = and i64 %_6, 7
  %_10 = icmp eq i64 %_9, 0
  br i1 %_10, label %bb1, label %panic

bb1:                                              ; preds = %start
  %_12 = ptrtoint ptr %S to i64
  %_15 = icmp eq i64 %_12, 0
  %_16 = and i1 %_15, true
  %_17 = xor i1 %_16, true
  br i1 %_17, label %bb2, label %panic1

panic:                                            ; preds = %start
; call core::panicking::panic_misaligned_pointer_dereference
  call void @_ZN4core9panicking36panic_misaligned_pointer_dereference17hcc3cbded9382b6e5E(i64 8, i64 %_6, ptr align 8 @alloc_143b2744d111380641628c34d59209bd) #6
  unreachable

bb2:                                              ; preds = %bb1
  %_3 = load i32, ptr %S, align 8
  %_2 = icmp eq i32 %_3, -1
  %_0 = zext i1 %_2 to i32
  ret i32 %_0

panic1:                                           ; preds = %bb1
; call core::panicking::panic_null_pointer_dereference
  call void @_ZN4core9panicking30panic_null_pointer_dereference17hf718fcc86a223baaE(ptr align 8 @alloc_143b2744d111380641628c34d59209bd) #6
  unreachable
}

; Function Attrs: nounwind nonlazybind
define i32 @stackSize(ptr %S) unnamed_addr #2 {
start:
  %_4 = ptrtoint ptr %S to i64
  %_7 = and i64 %_4, 7
  %_8 = icmp eq i64 %_7, 0
  br i1 %_8, label %bb1, label %panic

bb1:                                              ; preds = %start
  %_10 = ptrtoint ptr %S to i64
  %_13 = icmp eq i64 %_10, 0
  %_14 = and i1 %_13, true
  %_15 = xor i1 %_14, true
  br i1 %_15, label %bb2, label %panic1

panic:                                            ; preds = %start
; call core::panicking::panic_misaligned_pointer_dereference
  call void @_ZN4core9panicking36panic_misaligned_pointer_dereference17hcc3cbded9382b6e5E(i64 8, i64 %_4, ptr align 8 @alloc_d90d46462b6d905ed494501ef0bb8813) #6
  unreachable

bb2:                                              ; preds = %bb1
  %_2 = load i32, ptr %S, align 8
  %_0 = add i32 %_2, 1
  ret i32 %_0

panic1:                                           ; preds = %bb1
; call core::panicking::panic_null_pointer_dereference
  call void @_ZN4core9panicking30panic_null_pointer_dereference17hf718fcc86a223baaE(ptr align 8 @alloc_d90d46462b6d905ed494501ef0bb8813) #6
  unreachable
}

; Function Attrs: nounwind nonlazybind
define i32 @isFullStack(ptr %S) unnamed_addr #2 {
start:
  %_13 = ptrtoint ptr %S to i64
  %_16 = and i64 %_13, 7
  %_17 = icmp eq i64 %_16, 0
  br i1 %_17, label %bb2, label %panic

bb2:                                              ; preds = %start
  %_19 = ptrtoint ptr %S to i64
  %_22 = icmp eq i64 %_19, 0
  %_23 = and i1 %_22, true
  %_24 = xor i1 %_23, true
  br i1 %_24, label %bb3, label %panic1

panic:                                            ; preds = %start
; call core::panicking::panic_misaligned_pointer_dereference
  call void @_ZN4core9panicking36panic_misaligned_pointer_dereference17hcc3cbded9382b6e5E(i64 8, i64 %_13, ptr align 8 @alloc_b10192b1ecd76f99e78531fa22d9c967) #6
  unreachable

bb3:                                              ; preds = %bb2
  %_3 = load i32, ptr %S, align 8
  %_7 = ptrtoint ptr %S to i64
  %_10 = and i64 %_7, 7
  %_11 = icmp eq i64 %_10, 0
  br i1 %_11, label %bb1, label %panic2

panic1:                                           ; preds = %bb2
; call core::panicking::panic_null_pointer_dereference
  call void @_ZN4core9panicking30panic_null_pointer_dereference17hf718fcc86a223baaE(ptr align 8 @alloc_b10192b1ecd76f99e78531fa22d9c967) #6
  unreachable

bb1:                                              ; preds = %bb3
  %_26 = ptrtoint ptr %S to i64
  %_29 = icmp eq i64 %_26, 0
  %_30 = and i1 %_29, true
  %_31 = xor i1 %_30, true
  br i1 %_31, label %bb4, label %panic3

panic2:                                           ; preds = %bb3
; call core::panicking::panic_misaligned_pointer_dereference
  call void @_ZN4core9panicking36panic_misaligned_pointer_dereference17hcc3cbded9382b6e5E(i64 8, i64 %_7, ptr align 8 @alloc_4156b461efc468b8e1d7cc4010a60ebd) #6
  unreachable

bb4:                                              ; preds = %bb1
  %0 = getelementptr inbounds i8, ptr %S, i64 4
  %_5 = load i32, ptr %0, align 4
  %_4 = sub i32 %_5, 1
  %_2 = icmp eq i32 %_3, %_4
  %_0 = zext i1 %_2 to i32
  ret i32 %_0

panic3:                                           ; preds = %bb1
; call core::panicking::panic_null_pointer_dereference
  call void @_ZN4core9panicking30panic_null_pointer_dereference17hf718fcc86a223baaE(ptr align 8 @alloc_4156b461efc468b8e1d7cc4010a60ebd) #6
  unreachable
}

; Function Attrs: nounwind nonlazybind
define void @doubleStack(ptr %S) unnamed_addr #2 {
start:
  %_35 = ptrtoint ptr %S to i64
  %_38 = and i64 %_35, 7
  %_39 = icmp eq i64 %_38, 0
  br i1 %_39, label %bb8, label %panic

bb8:                                              ; preds = %start
  %_29 = ptrtoint ptr %S to i64
  %_32 = and i64 %_29, 7
  %_33 = icmp eq i64 %_32, 0
  br i1 %_33, label %bb7, label %panic1

panic:                                            ; preds = %start
; call core::panicking::panic_misaligned_pointer_dereference
  call void @_ZN4core9panicking36panic_misaligned_pointer_dereference17hcc3cbded9382b6e5E(i64 8, i64 %_35, ptr align 8 @alloc_5e508f8b25e8846369e349f2be531966) #6
  unreachable

bb7:                                              ; preds = %bb8
  %_48 = ptrtoint ptr %S to i64
  %_51 = icmp eq i64 %_48, 0
  %_52 = and i1 %_51, true
  %_53 = xor i1 %_52, true
  br i1 %_53, label %bb10, label %panic2

panic1:                                           ; preds = %bb8
; call core::panicking::panic_misaligned_pointer_dereference
  call void @_ZN4core9panicking36panic_misaligned_pointer_dereference17hcc3cbded9382b6e5E(i64 8, i64 %_29, ptr align 8 @alloc_5e508f8b25e8846369e349f2be531966) #6
  unreachable

bb10:                                             ; preds = %bb7
  %_41 = ptrtoint ptr %S to i64
  %_44 = icmp eq i64 %_41, 0
  %_45 = and i1 %_44, true
  %_46 = xor i1 %_45, true
  br i1 %_46, label %bb9, label %panic3

panic2:                                           ; preds = %bb7
; call core::panicking::panic_null_pointer_dereference
  call void @_ZN4core9panicking30panic_null_pointer_dereference17hf718fcc86a223baaE(ptr align 8 @alloc_5e508f8b25e8846369e349f2be531966) #6
  unreachable

bb9:                                              ; preds = %bb10
  %0 = getelementptr inbounds i8, ptr %S, i64 4
  %1 = getelementptr inbounds i8, ptr %S, i64 4
  %2 = load i32, ptr %1, align 4
  %3 = mul i32 %2, 2
  store i32 %3, ptr %0, align 4
  %_23 = ptrtoint ptr %S to i64
  %_26 = and i64 %_23, 7
  %_27 = icmp eq i64 %_26, 0
  br i1 %_27, label %bb6, label %panic4

panic3:                                           ; preds = %bb10
; call core::panicking::panic_null_pointer_dereference
  call void @_ZN4core9panicking30panic_null_pointer_dereference17hf718fcc86a223baaE(ptr align 8 @alloc_5e508f8b25e8846369e349f2be531966) #6
  unreachable

bb6:                                              ; preds = %bb9
  %_55 = ptrtoint ptr %S to i64
  %_58 = icmp eq i64 %_55, 0
  %_59 = and i1 %_58, true
  %_60 = xor i1 %_59, true
  br i1 %_60, label %bb11, label %panic5

panic4:                                           ; preds = %bb9
; call core::panicking::panic_misaligned_pointer_dereference
  call void @_ZN4core9panicking36panic_misaligned_pointer_dereference17hcc3cbded9382b6e5E(i64 8, i64 %_23, ptr align 8 @alloc_628e37eba0fc498b7c3dd45f913fbea3) #6
  unreachable

bb11:                                             ; preds = %bb6
  %4 = getelementptr inbounds i8, ptr %S, i64 8
  %_4 = load ptr, ptr %4, align 8
  %_17 = ptrtoint ptr %S to i64
  %_20 = and i64 %_17, 7
  %_21 = icmp eq i64 %_20, 0
  br i1 %_21, label %bb5, label %panic6

panic5:                                           ; preds = %bb6
; call core::panicking::panic_null_pointer_dereference
  call void @_ZN4core9panicking30panic_null_pointer_dereference17hf718fcc86a223baaE(ptr align 8 @alloc_628e37eba0fc498b7c3dd45f913fbea3) #6
  unreachable

bb5:                                              ; preds = %bb11
  %_62 = ptrtoint ptr %S to i64
  %_65 = icmp eq i64 %_62, 0
  %_66 = and i1 %_65, true
  %_67 = xor i1 %_66, true
  br i1 %_67, label %bb12, label %panic7

panic6:                                           ; preds = %bb11
; call core::panicking::panic_misaligned_pointer_dereference
  call void @_ZN4core9panicking36panic_misaligned_pointer_dereference17hcc3cbded9382b6e5E(i64 8, i64 %_17, ptr align 8 @alloc_63ac5df6026028eb36339cd961ede247) #6
  unreachable

bb12:                                             ; preds = %bb5
  %5 = getelementptr inbounds i8, ptr %S, i64 4
  %_7 = load i32, ptr %5, align 4
  %_6 = sext i32 %_7 to i64
  %_0.i = mul i64 %_6, 4
  %_2 = call ptr @realloc(ptr %_4, i64 %_0.i) #7
  %_11 = ptrtoint ptr %S to i64
  %_14 = and i64 %_11, 7
  %_15 = icmp eq i64 %_14, 0
  br i1 %_15, label %bb4, label %panic8

panic7:                                           ; preds = %bb5
; call core::panicking::panic_null_pointer_dereference
  call void @_ZN4core9panicking30panic_null_pointer_dereference17hf718fcc86a223baaE(ptr align 8 @alloc_63ac5df6026028eb36339cd961ede247) #6
  unreachable

bb4:                                              ; preds = %bb12
  %_69 = ptrtoint ptr %S to i64
  %_72 = icmp eq i64 %_69, 0
  %_73 = and i1 %_72, true
  %_74 = xor i1 %_73, true
  br i1 %_74, label %bb13, label %panic9

panic8:                                           ; preds = %bb12
; call core::panicking::panic_misaligned_pointer_dereference
  call void @_ZN4core9panicking36panic_misaligned_pointer_dereference17hcc3cbded9382b6e5E(i64 8, i64 %_11, ptr align 8 @alloc_2b741aa80e9bacc62157d48afd5adfbd) #6
  unreachable

bb13:                                             ; preds = %bb4
  %6 = getelementptr inbounds i8, ptr %S, i64 8
  store ptr %_2, ptr %6, align 8
  ret void

panic9:                                           ; preds = %bb4
; call core::panicking::panic_null_pointer_dereference
  call void @_ZN4core9panicking30panic_null_pointer_dereference17hf718fcc86a223baaE(ptr align 8 @alloc_2b741aa80e9bacc62157d48afd5adfbd) #6
  unreachable
}

; Function Attrs: nounwind nonlazybind
define void @push(ptr %S, i32 %data) unnamed_addr #2 {
start:
  %_3 = call i32 @isEmptyStack(ptr %S) #7
  %0 = icmp eq i32 %_3, 0
  br i1 %0, label %bb3, label %bb2

bb3:                                              ; preds = %bb2, %start
  %_34 = ptrtoint ptr %S to i64
  %_37 = and i64 %_34, 7
  %_38 = icmp eq i64 %_37, 0
  br i1 %_38, label %bb9, label %panic

bb2:                                              ; preds = %start
  call void @doubleStack(ptr %S) #7
  br label %bb3

bb9:                                              ; preds = %bb3
  %_28 = ptrtoint ptr %S to i64
  %_31 = and i64 %_28, 7
  %_32 = icmp eq i64 %_31, 0
  br i1 %_32, label %bb8, label %panic1

panic:                                            ; preds = %bb3
; call core::panicking::panic_misaligned_pointer_dereference
  call void @_ZN4core9panicking36panic_misaligned_pointer_dereference17hcc3cbded9382b6e5E(i64 8, i64 %_34, ptr align 8 @alloc_7ebff165463d26610c59f877914f7a2f) #6
  unreachable

bb8:                                              ; preds = %bb9
  %_47 = ptrtoint ptr %S to i64
  %_50 = icmp eq i64 %_47, 0
  %_51 = and i1 %_50, true
  %_52 = xor i1 %_51, true
  br i1 %_52, label %bb11, label %panic2

panic1:                                           ; preds = %bb9
; call core::panicking::panic_misaligned_pointer_dereference
  call void @_ZN4core9panicking36panic_misaligned_pointer_dereference17hcc3cbded9382b6e5E(i64 8, i64 %_28, ptr align 8 @alloc_7ebff165463d26610c59f877914f7a2f) #6
  unreachable

bb11:                                             ; preds = %bb8
  %_40 = ptrtoint ptr %S to i64
  %_43 = icmp eq i64 %_40, 0
  %_44 = and i1 %_43, true
  %_45 = xor i1 %_44, true
  br i1 %_45, label %bb10, label %panic3

panic2:                                           ; preds = %bb8
; call core::panicking::panic_null_pointer_dereference
  call void @_ZN4core9panicking30panic_null_pointer_dereference17hf718fcc86a223baaE(ptr align 8 @alloc_7ebff165463d26610c59f877914f7a2f) #6
  unreachable

bb10:                                             ; preds = %bb11
  %1 = load i32, ptr %S, align 8
  %2 = add i32 %1, 1
  store i32 %2, ptr %S, align 8
  %_22 = ptrtoint ptr %S to i64
  %_25 = and i64 %_22, 7
  %_26 = icmp eq i64 %_25, 0
  br i1 %_26, label %bb7, label %panic4

panic3:                                           ; preds = %bb11
; call core::panicking::panic_null_pointer_dereference
  call void @_ZN4core9panicking30panic_null_pointer_dereference17hf718fcc86a223baaE(ptr align 8 @alloc_7ebff165463d26610c59f877914f7a2f) #6
  unreachable

bb7:                                              ; preds = %bb10
  %_54 = ptrtoint ptr %S to i64
  %_57 = icmp eq i64 %_54, 0
  %_58 = and i1 %_57, true
  %_59 = xor i1 %_58, true
  br i1 %_59, label %bb12, label %panic5

panic4:                                           ; preds = %bb10
; call core::panicking::panic_misaligned_pointer_dereference
  call void @_ZN4core9panicking36panic_misaligned_pointer_dereference17hcc3cbded9382b6e5E(i64 8, i64 %_22, ptr align 8 @alloc_4960c6ea03c9021371711e3e9d64602d) #6
  unreachable

bb12:                                             ; preds = %bb7
  %3 = getelementptr inbounds i8, ptr %S, i64 8
  %_6 = load ptr, ptr %3, align 8
  %_16 = ptrtoint ptr %S to i64
  %_19 = and i64 %_16, 7
  %_20 = icmp eq i64 %_19, 0
  br i1 %_20, label %bb6, label %panic6

panic5:                                           ; preds = %bb7
; call core::panicking::panic_null_pointer_dereference
  call void @_ZN4core9panicking30panic_null_pointer_dereference17hf718fcc86a223baaE(ptr align 8 @alloc_4960c6ea03c9021371711e3e9d64602d) #6
  unreachable

bb6:                                              ; preds = %bb12
  %_61 = ptrtoint ptr %S to i64
  %_64 = icmp eq i64 %_61, 0
  %_65 = and i1 %_64, true
  %_66 = xor i1 %_65, true
  br i1 %_66, label %bb13, label %panic7

panic6:                                           ; preds = %bb12
; call core::panicking::panic_misaligned_pointer_dereference
  call void @_ZN4core9panicking36panic_misaligned_pointer_dereference17hcc3cbded9382b6e5E(i64 8, i64 %_16, ptr align 8 @alloc_e35ecca9ad6007827e4e509b4cd44ec1) #6
  unreachable

bb13:                                             ; preds = %bb6
  %_8 = load i32, ptr %S, align 8
  %_7 = sext i32 %_8 to i64
; call core::ptr::mut_ptr::<impl *mut T>::offset::precondition_check
  call void @"_ZN4core3ptr7mut_ptr31_$LT$impl$u20$$BP$mut$u20$T$GT$6offset18precondition_check17h1b4642fefff99a28E"(ptr %_6, i64 %_7, i64 4) #7
  %_0.i = getelementptr inbounds i32, ptr %_6, i64 %_7
  %_10 = ptrtoint ptr %_0.i to i64
  %_13 = and i64 %_10, 3
  %_14 = icmp eq i64 %_13, 0
  br i1 %_14, label %bb5, label %panic8

panic7:                                           ; preds = %bb6
; call core::panicking::panic_null_pointer_dereference
  call void @_ZN4core9panicking30panic_null_pointer_dereference17hf718fcc86a223baaE(ptr align 8 @alloc_e35ecca9ad6007827e4e509b4cd44ec1) #6
  unreachable

bb5:                                              ; preds = %bb13
  %_68 = ptrtoint ptr %_0.i to i64
  %_71 = icmp eq i64 %_68, 0
  %_72 = and i1 %_71, true
  %_73 = xor i1 %_72, true
  br i1 %_73, label %bb14, label %panic9

panic8:                                           ; preds = %bb13
; call core::panicking::panic_misaligned_pointer_dereference
  call void @_ZN4core9panicking36panic_misaligned_pointer_dereference17hcc3cbded9382b6e5E(i64 4, i64 %_10, ptr align 8 @alloc_4dc9d9ad7a45d2b5b4b18d2f05142242) #6
  unreachable

bb14:                                             ; preds = %bb5
  store i32 %data, ptr %_0.i, align 4
  ret void

panic9:                                           ; preds = %bb5
; call core::panicking::panic_null_pointer_dereference
  call void @_ZN4core9panicking30panic_null_pointer_dereference17hf718fcc86a223baaE(ptr align 8 @alloc_4dc9d9ad7a45d2b5b4b18d2f05142242) #6
  unreachable
}

; Function Attrs: nounwind nonlazybind
define i32 @pop(ptr %S) unnamed_addr #2 {
start:
  %_0 = alloca [4 x i8], align 4
  %_2 = call i32 @isEmptyStack(ptr %S) #7
  %0 = icmp eq i32 %_2, 0
  br i1 %0, label %bb4, label %bb2

bb4:                                              ; preds = %start
  %_39 = ptrtoint ptr %S to i64
  %_42 = and i64 %_39, 7
  %_43 = icmp eq i64 %_42, 0
  br i1 %_43, label %bb11, label %panic

bb2:                                              ; preds = %start
  %_3 = call i32 (ptr, ...) @printf(ptr @alloc_af9944ea6fa397ba69678832a6b8b48f) #7
  store i32 -2147483648, ptr %_0, align 4
  br label %bb6

bb11:                                             ; preds = %bb4
  %_45 = ptrtoint ptr %S to i64
  %_48 = icmp eq i64 %_45, 0
  %_49 = and i1 %_48, true
  %_50 = xor i1 %_49, true
  br i1 %_50, label %bb12, label %panic1

panic:                                            ; preds = %bb4
; call core::panicking::panic_misaligned_pointer_dereference
  call void @_ZN4core9panicking36panic_misaligned_pointer_dereference17hcc3cbded9382b6e5E(i64 8, i64 %_39, ptr align 8 @alloc_bc5f1064ee8790e610d299d4a7506380) #6
  unreachable

bb12:                                             ; preds = %bb11
  %fresh0 = load i32, ptr %S, align 8
  %_33 = ptrtoint ptr %S to i64
  %_36 = and i64 %_33, 7
  %_37 = icmp eq i64 %_36, 0
  br i1 %_37, label %bb10, label %panic2

panic1:                                           ; preds = %bb11
; call core::panicking::panic_null_pointer_dereference
  call void @_ZN4core9panicking30panic_null_pointer_dereference17hf718fcc86a223baaE(ptr align 8 @alloc_bc5f1064ee8790e610d299d4a7506380) #6
  unreachable

bb10:                                             ; preds = %bb12
  %_52 = ptrtoint ptr %S to i64
  %_55 = icmp eq i64 %_52, 0
  %_56 = and i1 %_55, true
  %_57 = xor i1 %_56, true
  br i1 %_57, label %bb13, label %panic3

panic2:                                           ; preds = %bb12
; call core::panicking::panic_misaligned_pointer_dereference
  call void @_ZN4core9panicking36panic_misaligned_pointer_dereference17hcc3cbded9382b6e5E(i64 8, i64 %_33, ptr align 8 @alloc_9294931eb085197ddf7991335d7ebc78) #6
  unreachable

bb13:                                             ; preds = %bb10
  %_10 = load i32, ptr %S, align 8
  %_27 = ptrtoint ptr %S to i64
  %_30 = and i64 %_27, 7
  %_31 = icmp eq i64 %_30, 0
  br i1 %_31, label %bb9, label %panic4

panic3:                                           ; preds = %bb10
; call core::panicking::panic_null_pointer_dereference
  call void @_ZN4core9panicking30panic_null_pointer_dereference17hf718fcc86a223baaE(ptr align 8 @alloc_9294931eb085197ddf7991335d7ebc78) #6
  unreachable

bb9:                                              ; preds = %bb13
  %_59 = ptrtoint ptr %S to i64
  %_62 = icmp eq i64 %_59, 0
  %_63 = and i1 %_62, true
  %_64 = xor i1 %_63, true
  br i1 %_64, label %bb14, label %panic5

panic4:                                           ; preds = %bb13
; call core::panicking::panic_misaligned_pointer_dereference
  call void @_ZN4core9panicking36panic_misaligned_pointer_dereference17hcc3cbded9382b6e5E(i64 8, i64 %_27, ptr align 8 @alloc_9fd0d8089602b49d7240982dd95949ba) #6
  unreachable

bb14:                                             ; preds = %bb9
  %1 = sub i32 %_10, 1
  store i32 %1, ptr %S, align 8
  %_21 = ptrtoint ptr %S to i64
  %_24 = and i64 %_21, 7
  %_25 = icmp eq i64 %_24, 0
  br i1 %_25, label %bb8, label %panic6

panic5:                                           ; preds = %bb9
; call core::panicking::panic_null_pointer_dereference
  call void @_ZN4core9panicking30panic_null_pointer_dereference17hf718fcc86a223baaE(ptr align 8 @alloc_9fd0d8089602b49d7240982dd95949ba) #6
  unreachable

bb8:                                              ; preds = %bb14
  %_66 = ptrtoint ptr %S to i64
  %_69 = icmp eq i64 %_66, 0
  %_70 = and i1 %_69, true
  %_71 = xor i1 %_70, true
  br i1 %_71, label %bb15, label %panic7

panic6:                                           ; preds = %bb14
; call core::panicking::panic_misaligned_pointer_dereference
  call void @_ZN4core9panicking36panic_misaligned_pointer_dereference17hcc3cbded9382b6e5E(i64 8, i64 %_21, ptr align 8 @alloc_b8a4cb267e4f54777346e8c6825bf5c9) #6
  unreachable

bb15:                                             ; preds = %bb8
  %2 = getelementptr inbounds i8, ptr %S, i64 8
  %_12 = load ptr, ptr %2, align 8
  %_13 = sext i32 %fresh0 to i64
; call core::ptr::mut_ptr::<impl *mut T>::offset::precondition_check
  call void @"_ZN4core3ptr7mut_ptr31_$LT$impl$u20$$BP$mut$u20$T$GT$6offset18precondition_check17h1b4642fefff99a28E"(ptr %_12, i64 %_13, i64 4) #7
  %_0.i = getelementptr inbounds i32, ptr %_12, i64 %_13
  %_15 = ptrtoint ptr %_0.i to i64
  %_18 = and i64 %_15, 3
  %_19 = icmp eq i64 %_18, 0
  br i1 %_19, label %bb7, label %panic8

panic7:                                           ; preds = %bb8
; call core::panicking::panic_null_pointer_dereference
  call void @_ZN4core9panicking30panic_null_pointer_dereference17hf718fcc86a223baaE(ptr align 8 @alloc_b8a4cb267e4f54777346e8c6825bf5c9) #6
  unreachable

bb7:                                              ; preds = %bb15
  %_73 = ptrtoint ptr %_0.i to i64
  %_76 = icmp eq i64 %_73, 0
  %_77 = and i1 %_76, true
  %_78 = xor i1 %_77, true
  br i1 %_78, label %bb16, label %panic9

panic8:                                           ; preds = %bb15
; call core::panicking::panic_misaligned_pointer_dereference
  call void @_ZN4core9panicking36panic_misaligned_pointer_dereference17hcc3cbded9382b6e5E(i64 4, i64 %_15, ptr align 8 @alloc_f01efc2396ee466bfed48053e92378e5) #6
  unreachable

bb16:                                             ; preds = %bb7
  %3 = load i32, ptr %_0.i, align 4
  store i32 %3, ptr %_0, align 4
  br label %bb6

panic9:                                           ; preds = %bb7
; call core::panicking::panic_null_pointer_dereference
  call void @_ZN4core9panicking30panic_null_pointer_dereference17hf718fcc86a223baaE(ptr align 8 @alloc_f01efc2396ee466bfed48053e92378e5) #6
  unreachable

bb6:                                              ; preds = %bb2, %bb16
  %4 = load i32, ptr %_0, align 4
  ret i32 %4
}

; Function Attrs: nounwind nonlazybind
define i32 @peek(ptr %S) unnamed_addr #2 {
start:
  %_0 = alloca [4 x i8], align 4
  %_2 = call i32 @isEmptyStack(ptr %S) #7
  %0 = icmp eq i32 %_2, 0
  br i1 %0, label %bb4, label %bb2

bb4:                                              ; preds = %start
  %_26 = ptrtoint ptr %S to i64
  %_29 = and i64 %_26, 7
  %_30 = icmp eq i64 %_29, 0
  br i1 %_30, label %bb9, label %panic

bb2:                                              ; preds = %start
  %_3 = call i32 (ptr, ...) @printf(ptr @alloc_2b59a6a3da55609659daea7b91ccd9ab) #7
  store i32 -2147483648, ptr %_0, align 4
  br label %bb6

bb9:                                              ; preds = %bb4
  %_32 = ptrtoint ptr %S to i64
  %_35 = icmp eq i64 %_32, 0
  %_36 = and i1 %_35, true
  %_37 = xor i1 %_36, true
  br i1 %_37, label %bb10, label %panic1

panic:                                            ; preds = %bb4
; call core::panicking::panic_misaligned_pointer_dereference
  call void @_ZN4core9panicking36panic_misaligned_pointer_dereference17hcc3cbded9382b6e5E(i64 8, i64 %_26, ptr align 8 @alloc_79fc254fdad79f327f75eb726ac64fb7) #6
  unreachable

bb10:                                             ; preds = %bb9
  %1 = getelementptr inbounds i8, ptr %S, i64 8
  %_10 = load ptr, ptr %1, align 8
  %_20 = ptrtoint ptr %S to i64
  %_23 = and i64 %_20, 7
  %_24 = icmp eq i64 %_23, 0
  br i1 %_24, label %bb8, label %panic2

panic1:                                           ; preds = %bb9
; call core::panicking::panic_null_pointer_dereference
  call void @_ZN4core9panicking30panic_null_pointer_dereference17hf718fcc86a223baaE(ptr align 8 @alloc_79fc254fdad79f327f75eb726ac64fb7) #6
  unreachable

bb8:                                              ; preds = %bb10
  %_39 = ptrtoint ptr %S to i64
  %_42 = icmp eq i64 %_39, 0
  %_43 = and i1 %_42, true
  %_44 = xor i1 %_43, true
  br i1 %_44, label %bb11, label %panic3

panic2:                                           ; preds = %bb10
; call core::panicking::panic_misaligned_pointer_dereference
  call void @_ZN4core9panicking36panic_misaligned_pointer_dereference17hcc3cbded9382b6e5E(i64 8, i64 %_20, ptr align 8 @alloc_b1b42fc457feec0219a8d19aaeb03695) #6
  unreachable

bb11:                                             ; preds = %bb8
  %_12 = load i32, ptr %S, align 8
  %_11 = sext i32 %_12 to i64
; call core::ptr::mut_ptr::<impl *mut T>::offset::precondition_check
  call void @"_ZN4core3ptr7mut_ptr31_$LT$impl$u20$$BP$mut$u20$T$GT$6offset18precondition_check17h1b4642fefff99a28E"(ptr %_10, i64 %_11, i64 4) #7
  %_0.i = getelementptr inbounds i32, ptr %_10, i64 %_11
  %_14 = ptrtoint ptr %_0.i to i64
  %_17 = and i64 %_14, 3
  %_18 = icmp eq i64 %_17, 0
  br i1 %_18, label %bb7, label %panic4

panic3:                                           ; preds = %bb8
; call core::panicking::panic_null_pointer_dereference
  call void @_ZN4core9panicking30panic_null_pointer_dereference17hf718fcc86a223baaE(ptr align 8 @alloc_b1b42fc457feec0219a8d19aaeb03695) #6
  unreachable

bb7:                                              ; preds = %bb11
  %_46 = ptrtoint ptr %_0.i to i64
  %_49 = icmp eq i64 %_46, 0
  %_50 = and i1 %_49, true
  %_51 = xor i1 %_50, true
  br i1 %_51, label %bb12, label %panic5

panic4:                                           ; preds = %bb11
; call core::panicking::panic_misaligned_pointer_dereference
  call void @_ZN4core9panicking36panic_misaligned_pointer_dereference17hcc3cbded9382b6e5E(i64 4, i64 %_14, ptr align 8 @alloc_48cfb30dd7f4b7feff0bd5950be6913c) #6
  unreachable

bb12:                                             ; preds = %bb7
  %2 = load i32, ptr %_0.i, align 4
  store i32 %2, ptr %_0, align 4
  br label %bb6

panic5:                                           ; preds = %bb7
; call core::panicking::panic_null_pointer_dereference
  call void @_ZN4core9panicking30panic_null_pointer_dereference17hf718fcc86a223baaE(ptr align 8 @alloc_48cfb30dd7f4b7feff0bd5950be6913c) #6
  unreachable

bb6:                                              ; preds = %bb2, %bb12
  %3 = load i32, ptr %_0, align 4
  ret i32 %3
}

; Function Attrs: nounwind nonlazybind
define void @deleteStack(ptr %S) unnamed_addr #2 {
start:
; call core::ptr::mut_ptr::<impl *mut T>::is_null
  %_2 = call zeroext i1 @"_ZN4core3ptr7mut_ptr31_$LT$impl$u20$$BP$mut$u20$T$GT$7is_null17hcdf6909c51e39bf5E"(ptr %S) #7
  br i1 %_2, label %bb6, label %bb2

bb2:                                              ; preds = %start
  %_17 = ptrtoint ptr %S to i64
  %_20 = and i64 %_17, 7
  %_21 = icmp eq i64 %_20, 0
  br i1 %_21, label %bb8, label %panic

bb6:                                              ; preds = %bb5, %start
  ret void

bb8:                                              ; preds = %bb2
  %_23 = ptrtoint ptr %S to i64
  %_26 = icmp eq i64 %_23, 0
  %_27 = and i1 %_26, true
  %_28 = xor i1 %_27, true
  br i1 %_28, label %bb9, label %panic1

panic:                                            ; preds = %bb2
; call core::panicking::panic_misaligned_pointer_dereference
  call void @_ZN4core9panicking36panic_misaligned_pointer_dereference17hcc3cbded9382b6e5E(i64 8, i64 %_17, ptr align 8 @alloc_e388ee5d31727c0c17beb126dd9d5d23) #6
  unreachable

bb9:                                              ; preds = %bb8
  %0 = getelementptr inbounds i8, ptr %S, i64 8
  %_4 = load ptr, ptr %0, align 8
; call core::ptr::mut_ptr::<impl *mut T>::is_null
  %_3 = call zeroext i1 @"_ZN4core3ptr7mut_ptr31_$LT$impl$u20$$BP$mut$u20$T$GT$7is_null17h67a2b789b5576a04E"(ptr %_4) #7
  br i1 %_3, label %bb5, label %bb4

panic1:                                           ; preds = %bb8
; call core::panicking::panic_null_pointer_dereference
  call void @_ZN4core9panicking30panic_null_pointer_dereference17hf718fcc86a223baaE(ptr align 8 @alloc_e388ee5d31727c0c17beb126dd9d5d23) #6
  unreachable

bb4:                                              ; preds = %bb9
  %_11 = ptrtoint ptr %S to i64
  %_14 = and i64 %_11, 7
  %_15 = icmp eq i64 %_14, 0
  br i1 %_15, label %bb7, label %panic2

bb5:                                              ; preds = %bb10, %bb9
  call void @free(ptr %S) #7
  br label %bb6

bb7:                                              ; preds = %bb4
  %_30 = ptrtoint ptr %S to i64
  %_33 = icmp eq i64 %_30, 0
  %_34 = and i1 %_33, true
  %_35 = xor i1 %_34, true
  br i1 %_35, label %bb10, label %panic3

panic2:                                           ; preds = %bb4
; call core::panicking::panic_misaligned_pointer_dereference
  call void @_ZN4core9panicking36panic_misaligned_pointer_dereference17hcc3cbded9382b6e5E(i64 8, i64 %_11, ptr align 8 @alloc_f24f60c482ed8f5629e34423cbbaaabe) #6
  unreachable

bb10:                                             ; preds = %bb7
  %1 = getelementptr inbounds i8, ptr %S, i64 8
  %_7 = load ptr, ptr %1, align 8
  call void @free(ptr %_7) #7
  br label %bb5

panic3:                                           ; preds = %bb7
; call core::panicking::panic_null_pointer_dereference
  call void @_ZN4core9panicking30panic_null_pointer_dereference17hf718fcc86a223baaE(ptr align 8 @alloc_f24f60c482ed8f5629e34423cbbaaabe) #6
  unreachable
}

; Function Attrs: nounwind nonlazybind
define ptr @createQueue(i32 %capacity) unnamed_addr #2 {
start:
  %_0 = alloca [8 x i8], align 8
  %_3 = call ptr @malloc(i64 24) #7
; call core::ptr::mut_ptr::<impl *mut T>::is_null
  %_6 = call zeroext i1 @"_ZN4core3ptr7mut_ptr31_$LT$impl$u20$$BP$mut$u20$T$GT$7is_null17hf09a1fae62f35c45E"(ptr %_3) #7
  br i1 %_6, label %bb4, label %bb5

bb5:                                              ; preds = %start
  %_59 = ptrtoint ptr %_3 to i64
  %_62 = and i64 %_59, 7
  %_63 = icmp eq i64 %_62, 0
  br i1 %_63, label %bb20, label %panic

bb4:                                              ; preds = %start
  store ptr null, ptr %_0, align 8
  br label %bb12

bb20:                                             ; preds = %bb5
  %_65 = ptrtoint ptr %_3 to i64
  %_68 = icmp eq i64 %_65, 0
  %_69 = and i1 %_68, true
  %_70 = xor i1 %_69, true
  br i1 %_70, label %bb21, label %panic1

panic:                                            ; preds = %bb5
; call core::panicking::panic_misaligned_pointer_dereference
  call void @_ZN4core9panicking36panic_misaligned_pointer_dereference17hcc3cbded9382b6e5E(i64 8, i64 %_59, ptr align 8 @alloc_e57752d72d93a08c661c993a9c587fab) #6
  unreachable

bb21:                                             ; preds = %bb20
  %0 = getelementptr inbounds i8, ptr %_3, i64 8
  store i32 %capacity, ptr %0, align 8
  %_53 = ptrtoint ptr %_3 to i64
  %_56 = and i64 %_53, 7
  %_57 = icmp eq i64 %_56, 0
  br i1 %_57, label %bb19, label %panic2

panic1:                                           ; preds = %bb20
; call core::panicking::panic_null_pointer_dereference
  call void @_ZN4core9panicking30panic_null_pointer_dereference17hf718fcc86a223baaE(ptr align 8 @alloc_e57752d72d93a08c661c993a9c587fab) #6
  unreachable

bb19:                                             ; preds = %bb21
  %_72 = ptrtoint ptr %_3 to i64
  %_75 = icmp eq i64 %_72, 0
  %_76 = and i1 %_75, true
  %_77 = xor i1 %_76, true
  br i1 %_77, label %bb22, label %panic3

panic2:                                           ; preds = %bb21
; call core::panicking::panic_misaligned_pointer_dereference
  call void @_ZN4core9panicking36panic_misaligned_pointer_dereference17hcc3cbded9382b6e5E(i64 8, i64 %_53, ptr align 8 @alloc_2d10d109c7752ea3dc42b94ce8ed6bb6) #6
  unreachable

bb22:                                             ; preds = %bb19
  %1 = getelementptr inbounds i8, ptr %_3, i64 4
  store i32 -1, ptr %1, align 4
  %_47 = ptrtoint ptr %_3 to i64
  %_50 = and i64 %_47, 7
  %_51 = icmp eq i64 %_50, 0
  br i1 %_51, label %bb18, label %panic4

panic3:                                           ; preds = %bb19
; call core::panicking::panic_null_pointer_dereference
  call void @_ZN4core9panicking30panic_null_pointer_dereference17hf718fcc86a223baaE(ptr align 8 @alloc_2d10d109c7752ea3dc42b94ce8ed6bb6) #6
  unreachable

bb18:                                             ; preds = %bb22
  %_79 = ptrtoint ptr %_3 to i64
  %_82 = icmp eq i64 %_79, 0
  %_83 = and i1 %_82, true
  %_84 = xor i1 %_83, true
  br i1 %_84, label %bb23, label %panic5

panic4:                                           ; preds = %bb22
; call core::panicking::panic_misaligned_pointer_dereference
  call void @_ZN4core9panicking36panic_misaligned_pointer_dereference17hcc3cbded9382b6e5E(i64 8, i64 %_47, ptr align 8 @alloc_c6d53ab95f51489ff5992d25ab8a371c) #6
  unreachable

bb23:                                             ; preds = %bb18
  %2 = getelementptr inbounds i8, ptr %_3, i64 4
  %_7 = load i32, ptr %2, align 4
  %_41 = ptrtoint ptr %_3 to i64
  %_44 = and i64 %_41, 7
  %_45 = icmp eq i64 %_44, 0
  br i1 %_45, label %bb17, label %panic6

panic5:                                           ; preds = %bb18
; call core::panicking::panic_null_pointer_dereference
  call void @_ZN4core9panicking30panic_null_pointer_dereference17hf718fcc86a223baaE(ptr align 8 @alloc_c6d53ab95f51489ff5992d25ab8a371c) #6
  unreachable

bb17:                                             ; preds = %bb23
  %_86 = ptrtoint ptr %_3 to i64
  %_89 = icmp eq i64 %_86, 0
  %_90 = and i1 %_89, true
  %_91 = xor i1 %_90, true
  br i1 %_91, label %bb24, label %panic7

panic6:                                           ; preds = %bb23
; call core::panicking::panic_misaligned_pointer_dereference
  call void @_ZN4core9panicking36panic_misaligned_pointer_dereference17hcc3cbded9382b6e5E(i64 8, i64 %_41, ptr align 8 @alloc_78d72a4cdf0453bbc786d377f6cb9ddc) #6
  unreachable

bb24:                                             ; preds = %bb17
  store i32 %_7, ptr %_3, align 8
  %_35 = ptrtoint ptr %_3 to i64
  %_38 = and i64 %_35, 7
  %_39 = icmp eq i64 %_38, 0
  br i1 %_39, label %bb16, label %panic8

panic7:                                           ; preds = %bb17
; call core::panicking::panic_null_pointer_dereference
  call void @_ZN4core9panicking30panic_null_pointer_dereference17hf718fcc86a223baaE(ptr align 8 @alloc_78d72a4cdf0453bbc786d377f6cb9ddc) #6
  unreachable

bb16:                                             ; preds = %bb24
  %_93 = ptrtoint ptr %_3 to i64
  %_96 = icmp eq i64 %_93, 0
  %_97 = and i1 %_96, true
  %_98 = xor i1 %_97, true
  br i1 %_98, label %bb25, label %panic9

panic8:                                           ; preds = %bb24
; call core::panicking::panic_misaligned_pointer_dereference
  call void @_ZN4core9panicking36panic_misaligned_pointer_dereference17hcc3cbded9382b6e5E(i64 8, i64 %_35, ptr align 8 @alloc_0a0c52c7598ebd026248b36c4f00b4c7) #6
  unreachable

bb25:                                             ; preds = %bb16
  %3 = getelementptr inbounds i8, ptr %_3, i64 12
  store i32 0, ptr %3, align 4
  %_29 = ptrtoint ptr %_3 to i64
  %_32 = and i64 %_29, 7
  %_33 = icmp eq i64 %_32, 0
  br i1 %_33, label %bb15, label %panic10

panic9:                                           ; preds = %bb16
; call core::panicking::panic_null_pointer_dereference
  call void @_ZN4core9panicking30panic_null_pointer_dereference17hf718fcc86a223baaE(ptr align 8 @alloc_0a0c52c7598ebd026248b36c4f00b4c7) #6
  unreachable

bb15:                                             ; preds = %bb25
  %_100 = ptrtoint ptr %_3 to i64
  %_103 = icmp eq i64 %_100, 0
  %_104 = and i1 %_103, true
  %_105 = xor i1 %_104, true
  br i1 %_105, label %bb26, label %panic11

panic10:                                          ; preds = %bb25
; call core::panicking::panic_misaligned_pointer_dereference
  call void @_ZN4core9panicking36panic_misaligned_pointer_dereference17hcc3cbded9382b6e5E(i64 8, i64 %_29, ptr align 8 @alloc_7a32dfe14eaad90fa71c4974a21249cb) #6
  unreachable

bb26:                                             ; preds = %bb15
  %4 = getelementptr inbounds i8, ptr %_3, i64 8
  %_11 = load i32, ptr %4, align 8
  %_10 = sext i32 %_11 to i64
  %_0.i = mul i64 %_10, 4
  %_8 = call ptr @malloc(i64 %_0.i) #7
  %_23 = ptrtoint ptr %_3 to i64
  %_26 = and i64 %_23, 7
  %_27 = icmp eq i64 %_26, 0
  br i1 %_27, label %bb14, label %panic12

panic11:                                          ; preds = %bb15
; call core::panicking::panic_null_pointer_dereference
  call void @_ZN4core9panicking30panic_null_pointer_dereference17hf718fcc86a223baaE(ptr align 8 @alloc_7a32dfe14eaad90fa71c4974a21249cb) #6
  unreachable

bb14:                                             ; preds = %bb26
  %_107 = ptrtoint ptr %_3 to i64
  %_110 = icmp eq i64 %_107, 0
  %_111 = and i1 %_110, true
  %_112 = xor i1 %_111, true
  br i1 %_112, label %bb27, label %panic13

panic12:                                          ; preds = %bb26
; call core::panicking::panic_misaligned_pointer_dereference
  call void @_ZN4core9panicking36panic_misaligned_pointer_dereference17hcc3cbded9382b6e5E(i64 8, i64 %_23, ptr align 8 @alloc_7d8d58b36d2b2d423935116080665165) #6
  unreachable

bb27:                                             ; preds = %bb14
  %5 = getelementptr inbounds i8, ptr %_3, i64 16
  store ptr %_8, ptr %5, align 8
  %_17 = ptrtoint ptr %_3 to i64
  %_20 = and i64 %_17, 7
  %_21 = icmp eq i64 %_20, 0
  br i1 %_21, label %bb13, label %panic14

panic13:                                          ; preds = %bb14
; call core::panicking::panic_null_pointer_dereference
  call void @_ZN4core9panicking30panic_null_pointer_dereference17hf718fcc86a223baaE(ptr align 8 @alloc_7d8d58b36d2b2d423935116080665165) #6
  unreachable

bb13:                                             ; preds = %bb27
  %_114 = ptrtoint ptr %_3 to i64
  %_117 = icmp eq i64 %_114, 0
  %_118 = and i1 %_117, true
  %_119 = xor i1 %_118, true
  br i1 %_119, label %bb28, label %panic15

panic14:                                          ; preds = %bb27
; call core::panicking::panic_misaligned_pointer_dereference
  call void @_ZN4core9panicking36panic_misaligned_pointer_dereference17hcc3cbded9382b6e5E(i64 8, i64 %_17, ptr align 8 @alloc_71129d81d250ccf4597a0433a23e28ec) #6
  unreachable

bb28:                                             ; preds = %bb13
  %6 = getelementptr inbounds i8, ptr %_3, i64 16
  %_15 = load ptr, ptr %6, align 8
; call core::ptr::mut_ptr::<impl *mut T>::is_null
  %_14 = call zeroext i1 @"_ZN4core3ptr7mut_ptr31_$LT$impl$u20$$BP$mut$u20$T$GT$7is_null17h67a2b789b5576a04E"(ptr %_15) #7
  br i1 %_14, label %bb10, label %bb11

panic15:                                          ; preds = %bb13
; call core::panicking::panic_null_pointer_dereference
  call void @_ZN4core9panicking30panic_null_pointer_dereference17hf718fcc86a223baaE(ptr align 8 @alloc_71129d81d250ccf4597a0433a23e28ec) #6
  unreachable

bb11:                                             ; preds = %bb28
  store ptr %_3, ptr %_0, align 8
  br label %bb12

bb10:                                             ; preds = %bb28
  store ptr null, ptr %_0, align 8
  br label %bb12

bb12:                                             ; preds = %bb4, %bb10, %bb11
  %7 = load ptr, ptr %_0, align 8
  ret ptr %7
}

; Function Attrs: nounwind nonlazybind
define i32 @queueSize(ptr %Q) unnamed_addr #2 {
start:
  %_3 = ptrtoint ptr %Q to i64
  %_6 = and i64 %_3, 7
  %_7 = icmp eq i64 %_6, 0
  br i1 %_7, label %bb1, label %panic

bb1:                                              ; preds = %start
  %_9 = ptrtoint ptr %Q to i64
  %_12 = icmp eq i64 %_9, 0
  %_13 = and i1 %_12, true
  %_14 = xor i1 %_13, true
  br i1 %_14, label %bb2, label %panic1

panic:                                            ; preds = %start
; call core::panicking::panic_misaligned_pointer_dereference
  call void @_ZN4core9panicking36panic_misaligned_pointer_dereference17hcc3cbded9382b6e5E(i64 8, i64 %_3, ptr align 8 @alloc_8ab490a61e5094234e20afca7467eaf8) #6
  unreachable

bb2:                                              ; preds = %bb1
  %0 = getelementptr inbounds i8, ptr %Q, i64 12
  %_0 = load i32, ptr %0, align 4
  ret i32 %_0

panic1:                                           ; preds = %bb1
; call core::panicking::panic_null_pointer_dereference
  call void @_ZN4core9panicking30panic_null_pointer_dereference17hf718fcc86a223baaE(ptr align 8 @alloc_8ab490a61e5094234e20afca7467eaf8) #6
  unreachable
}

; Function Attrs: nounwind nonlazybind
define i32 @frontElement(ptr %Q) unnamed_addr #2 {
start:
  %_19 = ptrtoint ptr %Q to i64
  %_22 = and i64 %_19, 7
  %_23 = icmp eq i64 %_22, 0
  br i1 %_23, label %bb4, label %panic

bb4:                                              ; preds = %start
  %_25 = ptrtoint ptr %Q to i64
  %_28 = icmp eq i64 %_25, 0
  %_29 = and i1 %_28, true
  %_30 = xor i1 %_29, true
  br i1 %_30, label %bb5, label %panic1

panic:                                            ; preds = %start
; call core::panicking::panic_misaligned_pointer_dereference
  call void @_ZN4core9panicking36panic_misaligned_pointer_dereference17hcc3cbded9382b6e5E(i64 8, i64 %_19, ptr align 8 @alloc_645f077d7f05a638230e54f4fcbdc852) #6
  unreachable

bb5:                                              ; preds = %bb4
  %0 = getelementptr inbounds i8, ptr %Q, i64 16
  %_3 = load ptr, ptr %0, align 8
  %_13 = ptrtoint ptr %Q to i64
  %_16 = and i64 %_13, 7
  %_17 = icmp eq i64 %_16, 0
  br i1 %_17, label %bb3, label %panic2

panic1:                                           ; preds = %bb4
; call core::panicking::panic_null_pointer_dereference
  call void @_ZN4core9panicking30panic_null_pointer_dereference17hf718fcc86a223baaE(ptr align 8 @alloc_645f077d7f05a638230e54f4fcbdc852) #6
  unreachable

bb3:                                              ; preds = %bb5
  %_32 = ptrtoint ptr %Q to i64
  %_35 = icmp eq i64 %_32, 0
  %_36 = and i1 %_35, true
  %_37 = xor i1 %_36, true
  br i1 %_37, label %bb6, label %panic3

panic2:                                           ; preds = %bb5
; call core::panicking::panic_misaligned_pointer_dereference
  call void @_ZN4core9panicking36panic_misaligned_pointer_dereference17hcc3cbded9382b6e5E(i64 8, i64 %_13, ptr align 8 @alloc_581a103f18723c5e1b989a81e34b8969) #6
  unreachable

bb6:                                              ; preds = %bb3
  %_5 = load i32, ptr %Q, align 8
  %_4 = sext i32 %_5 to i64
; call core::ptr::mut_ptr::<impl *mut T>::offset::precondition_check
  call void @"_ZN4core3ptr7mut_ptr31_$LT$impl$u20$$BP$mut$u20$T$GT$6offset18precondition_check17h1b4642fefff99a28E"(ptr %_3, i64 %_4, i64 4) #7
  %_0.i = getelementptr inbounds i32, ptr %_3, i64 %_4
  %_7 = ptrtoint ptr %_0.i to i64
  %_10 = and i64 %_7, 3
  %_11 = icmp eq i64 %_10, 0
  br i1 %_11, label %bb2, label %panic4

panic3:                                           ; preds = %bb3
; call core::panicking::panic_null_pointer_dereference
  call void @_ZN4core9panicking30panic_null_pointer_dereference17hf718fcc86a223baaE(ptr align 8 @alloc_581a103f18723c5e1b989a81e34b8969) #6
  unreachable

bb2:                                              ; preds = %bb6
  %_39 = ptrtoint ptr %_0.i to i64
  %_42 = icmp eq i64 %_39, 0
  %_43 = and i1 %_42, true
  %_44 = xor i1 %_43, true
  br i1 %_44, label %bb7, label %panic5

panic4:                                           ; preds = %bb6
; call core::panicking::panic_misaligned_pointer_dereference
  call void @_ZN4core9panicking36panic_misaligned_pointer_dereference17hcc3cbded9382b6e5E(i64 4, i64 %_7, ptr align 8 @alloc_d3774a101a971a29df215d08a15c0156) #6
  unreachable

bb7:                                              ; preds = %bb2
  %_0 = load i32, ptr %_0.i, align 4
  ret i32 %_0

panic5:                                           ; preds = %bb2
; call core::panicking::panic_null_pointer_dereference
  call void @_ZN4core9panicking30panic_null_pointer_dereference17hf718fcc86a223baaE(ptr align 8 @alloc_d3774a101a971a29df215d08a15c0156) #6
  unreachable
}

; Function Attrs: nounwind nonlazybind
define i32 @rearElement(ptr %Q) unnamed_addr #2 {
start:
  %_19 = ptrtoint ptr %Q to i64
  %_22 = and i64 %_19, 7
  %_23 = icmp eq i64 %_22, 0
  br i1 %_23, label %bb4, label %panic

bb4:                                              ; preds = %start
  %_25 = ptrtoint ptr %Q to i64
  %_28 = icmp eq i64 %_25, 0
  %_29 = and i1 %_28, true
  %_30 = xor i1 %_29, true
  br i1 %_30, label %bb5, label %panic1

panic:                                            ; preds = %start
; call core::panicking::panic_misaligned_pointer_dereference
  call void @_ZN4core9panicking36panic_misaligned_pointer_dereference17hcc3cbded9382b6e5E(i64 8, i64 %_19, ptr align 8 @alloc_5b2af695ee4d260ec5d60c7976a90afb) #6
  unreachable

bb5:                                              ; preds = %bb4
  %0 = getelementptr inbounds i8, ptr %Q, i64 16
  %_3 = load ptr, ptr %0, align 8
  %_13 = ptrtoint ptr %Q to i64
  %_16 = and i64 %_13, 7
  %_17 = icmp eq i64 %_16, 0
  br i1 %_17, label %bb3, label %panic2

panic1:                                           ; preds = %bb4
; call core::panicking::panic_null_pointer_dereference
  call void @_ZN4core9panicking30panic_null_pointer_dereference17hf718fcc86a223baaE(ptr align 8 @alloc_5b2af695ee4d260ec5d60c7976a90afb) #6
  unreachable

bb3:                                              ; preds = %bb5
  %_32 = ptrtoint ptr %Q to i64
  %_35 = icmp eq i64 %_32, 0
  %_36 = and i1 %_35, true
  %_37 = xor i1 %_36, true
  br i1 %_37, label %bb6, label %panic3

panic2:                                           ; preds = %bb5
; call core::panicking::panic_misaligned_pointer_dereference
  call void @_ZN4core9panicking36panic_misaligned_pointer_dereference17hcc3cbded9382b6e5E(i64 8, i64 %_13, ptr align 8 @alloc_48838e152370903d0cd0fc8c9b5ad3d8) #6
  unreachable

bb6:                                              ; preds = %bb3
  %1 = getelementptr inbounds i8, ptr %Q, i64 4
  %_5 = load i32, ptr %1, align 4
  %_4 = sext i32 %_5 to i64
; call core::ptr::mut_ptr::<impl *mut T>::offset::precondition_check
  call void @"_ZN4core3ptr7mut_ptr31_$LT$impl$u20$$BP$mut$u20$T$GT$6offset18precondition_check17h1b4642fefff99a28E"(ptr %_3, i64 %_4, i64 4) #7
  %_0.i = getelementptr inbounds i32, ptr %_3, i64 %_4
  %_7 = ptrtoint ptr %_0.i to i64
  %_10 = and i64 %_7, 3
  %_11 = icmp eq i64 %_10, 0
  br i1 %_11, label %bb2, label %panic4

panic3:                                           ; preds = %bb3
; call core::panicking::panic_null_pointer_dereference
  call void @_ZN4core9panicking30panic_null_pointer_dereference17hf718fcc86a223baaE(ptr align 8 @alloc_48838e152370903d0cd0fc8c9b5ad3d8) #6
  unreachable

bb2:                                              ; preds = %bb6
  %_39 = ptrtoint ptr %_0.i to i64
  %_42 = icmp eq i64 %_39, 0
  %_43 = and i1 %_42, true
  %_44 = xor i1 %_43, true
  br i1 %_44, label %bb7, label %panic5

panic4:                                           ; preds = %bb6
; call core::panicking::panic_misaligned_pointer_dereference
  call void @_ZN4core9panicking36panic_misaligned_pointer_dereference17hcc3cbded9382b6e5E(i64 4, i64 %_7, ptr align 8 @alloc_711fd4aa051b13879ff1b0e368b843a4) #6
  unreachable

bb7:                                              ; preds = %bb2
  %_0 = load i32, ptr %_0.i, align 4
  ret i32 %_0

panic5:                                           ; preds = %bb2
; call core::panicking::panic_null_pointer_dereference
  call void @_ZN4core9panicking30panic_null_pointer_dereference17hf718fcc86a223baaE(ptr align 8 @alloc_711fd4aa051b13879ff1b0e368b843a4) #6
  unreachable
}

; Function Attrs: nounwind nonlazybind
define i32 @isEmptyQueue(ptr %Q) unnamed_addr #2 {
start:
  %_5 = ptrtoint ptr %Q to i64
  %_8 = and i64 %_5, 7
  %_9 = icmp eq i64 %_8, 0
  br i1 %_9, label %bb1, label %panic

bb1:                                              ; preds = %start
  %_11 = ptrtoint ptr %Q to i64
  %_14 = icmp eq i64 %_11, 0
  %_15 = and i1 %_14, true
  %_16 = xor i1 %_15, true
  br i1 %_16, label %bb2, label %panic1

panic:                                            ; preds = %start
; call core::panicking::panic_misaligned_pointer_dereference
  call void @_ZN4core9panicking36panic_misaligned_pointer_dereference17hcc3cbded9382b6e5E(i64 8, i64 %_5, ptr align 8 @alloc_d3f0ce81c936d03e4f315ec6781737a9) #6
  unreachable

bb2:                                              ; preds = %bb1
  %0 = getelementptr inbounds i8, ptr %Q, i64 12
  %_3 = load i32, ptr %0, align 4
  %_2 = icmp eq i32 %_3, 0
  %_0 = zext i1 %_2 to i32
  ret i32 %_0

panic1:                                           ; preds = %bb1
; call core::panicking::panic_null_pointer_dereference
  call void @_ZN4core9panicking30panic_null_pointer_dereference17hf718fcc86a223baaE(ptr align 8 @alloc_d3f0ce81c936d03e4f315ec6781737a9) #6
  unreachable
}

; Function Attrs: nounwind nonlazybind
define i32 @isFullQueue(ptr %Q) unnamed_addr #2 {
start:
  %_12 = ptrtoint ptr %Q to i64
  %_15 = and i64 %_12, 7
  %_16 = icmp eq i64 %_15, 0
  br i1 %_16, label %bb2, label %panic

bb2:                                              ; preds = %start
  %_18 = ptrtoint ptr %Q to i64
  %_21 = icmp eq i64 %_18, 0
  %_22 = and i1 %_21, true
  %_23 = xor i1 %_22, true
  br i1 %_23, label %bb3, label %panic1

panic:                                            ; preds = %start
; call core::panicking::panic_misaligned_pointer_dereference
  call void @_ZN4core9panicking36panic_misaligned_pointer_dereference17hcc3cbded9382b6e5E(i64 8, i64 %_12, ptr align 8 @alloc_063cc3c95637fb1971b26205bb16327b) #6
  unreachable

bb3:                                              ; preds = %bb2
  %0 = getelementptr inbounds i8, ptr %Q, i64 12
  %_3 = load i32, ptr %0, align 4
  %_6 = ptrtoint ptr %Q to i64
  %_9 = and i64 %_6, 7
  %_10 = icmp eq i64 %_9, 0
  br i1 %_10, label %bb1, label %panic2

panic1:                                           ; preds = %bb2
; call core::panicking::panic_null_pointer_dereference
  call void @_ZN4core9panicking30panic_null_pointer_dereference17hf718fcc86a223baaE(ptr align 8 @alloc_063cc3c95637fb1971b26205bb16327b) #6
  unreachable

bb1:                                              ; preds = %bb3
  %_25 = ptrtoint ptr %Q to i64
  %_28 = icmp eq i64 %_25, 0
  %_29 = and i1 %_28, true
  %_30 = xor i1 %_29, true
  br i1 %_30, label %bb4, label %panic3

panic2:                                           ; preds = %bb3
; call core::panicking::panic_misaligned_pointer_dereference
  call void @_ZN4core9panicking36panic_misaligned_pointer_dereference17hcc3cbded9382b6e5E(i64 8, i64 %_6, ptr align 8 @alloc_a332bc9a21a276c35c0d31c3d4992c58) #6
  unreachable

bb4:                                              ; preds = %bb1
  %1 = getelementptr inbounds i8, ptr %Q, i64 8
  %_4 = load i32, ptr %1, align 8
  %_2 = icmp eq i32 %_3, %_4
  %_0 = zext i1 %_2 to i32
  ret i32 %_0

panic3:                                           ; preds = %bb1
; call core::panicking::panic_null_pointer_dereference
  call void @_ZN4core9panicking30panic_null_pointer_dereference17hf718fcc86a223baaE(ptr align 8 @alloc_a332bc9a21a276c35c0d31c3d4992c58) #6
  unreachable
}

; Function Attrs: nounwind nonlazybind
define void @resizeQueue(ptr %Q) unnamed_addr #2 {
start:
  %i = alloca [4 x i8], align 4
  %_128 = ptrtoint ptr %Q to i64
  %_131 = and i64 %_128, 7
  %_132 = icmp eq i64 %_131, 0
  br i1 %_132, label %bb29, label %panic

bb29:                                             ; preds = %start
  %_134 = ptrtoint ptr %Q to i64
  %_137 = icmp eq i64 %_134, 0
  %_138 = and i1 %_137, true
  %_139 = xor i1 %_138, true
  br i1 %_139, label %bb30, label %panic1

panic:                                            ; preds = %start
; call core::panicking::panic_misaligned_pointer_dereference
  call void @_ZN4core9panicking36panic_misaligned_pointer_dereference17hcc3cbded9382b6e5E(i64 8, i64 %_128, ptr align 8 @alloc_8e2d1b02e95d82e6c2adb32b8b95d58b) #6
  unreachable

bb30:                                             ; preds = %bb29
  %0 = getelementptr inbounds i8, ptr %Q, i64 8
  %size = load i32, ptr %0, align 8
  %_122 = ptrtoint ptr %Q to i64
  %_125 = and i64 %_122, 7
  %_126 = icmp eq i64 %_125, 0
  br i1 %_126, label %bb28, label %panic2

panic1:                                           ; preds = %bb29
; call core::panicking::panic_null_pointer_dereference
  call void @_ZN4core9panicking30panic_null_pointer_dereference17hf718fcc86a223baaE(ptr align 8 @alloc_8e2d1b02e95d82e6c2adb32b8b95d58b) #6
  unreachable

bb28:                                             ; preds = %bb30
  %_141 = ptrtoint ptr %Q to i64
  %_144 = icmp eq i64 %_141, 0
  %_145 = and i1 %_144, true
  %_146 = xor i1 %_145, true
  br i1 %_146, label %bb31, label %panic3

panic2:                                           ; preds = %bb30
; call core::panicking::panic_misaligned_pointer_dereference
  call void @_ZN4core9panicking36panic_misaligned_pointer_dereference17hcc3cbded9382b6e5E(i64 8, i64 %_122, ptr align 8 @alloc_3e0eec28b7910491c80290a4d4aaca22) #6
  unreachable

bb31:                                             ; preds = %bb28
  %1 = getelementptr inbounds i8, ptr %Q, i64 8
  %_3 = load i32, ptr %1, align 8
  %_116 = ptrtoint ptr %Q to i64
  %_119 = and i64 %_116, 7
  %_120 = icmp eq i64 %_119, 0
  br i1 %_120, label %bb27, label %panic4

panic3:                                           ; preds = %bb28
; call core::panicking::panic_null_pointer_dereference
  call void @_ZN4core9panicking30panic_null_pointer_dereference17hf718fcc86a223baaE(ptr align 8 @alloc_3e0eec28b7910491c80290a4d4aaca22) #6
  unreachable

bb27:                                             ; preds = %bb31
  %_148 = ptrtoint ptr %Q to i64
  %_151 = icmp eq i64 %_148, 0
  %_152 = and i1 %_151, true
  %_153 = xor i1 %_152, true
  br i1 %_153, label %bb32, label %panic5

panic4:                                           ; preds = %bb31
; call core::panicking::panic_misaligned_pointer_dereference
  call void @_ZN4core9panicking36panic_misaligned_pointer_dereference17hcc3cbded9382b6e5E(i64 8, i64 %_116, ptr align 8 @alloc_a36f45cee9449e8ced34535698225438) #6
  unreachable

bb32:                                             ; preds = %bb27
  %2 = getelementptr inbounds i8, ptr %Q, i64 8
  %3 = mul i32 %_3, 2
  store i32 %3, ptr %2, align 8
  %_110 = ptrtoint ptr %Q to i64
  %_113 = and i64 %_110, 7
  %_114 = icmp eq i64 %_113, 0
  br i1 %_114, label %bb26, label %panic6

panic5:                                           ; preds = %bb27
; call core::panicking::panic_null_pointer_dereference
  call void @_ZN4core9panicking30panic_null_pointer_dereference17hf718fcc86a223baaE(ptr align 8 @alloc_a36f45cee9449e8ced34535698225438) #6
  unreachable

bb26:                                             ; preds = %bb32
  %_155 = ptrtoint ptr %Q to i64
  %_158 = icmp eq i64 %_155, 0
  %_159 = and i1 %_158, true
  %_160 = xor i1 %_159, true
  br i1 %_160, label %bb33, label %panic7

panic6:                                           ; preds = %bb32
; call core::panicking::panic_misaligned_pointer_dereference
  call void @_ZN4core9panicking36panic_misaligned_pointer_dereference17hcc3cbded9382b6e5E(i64 8, i64 %_110, ptr align 8 @alloc_32a72fc30d4a2ec99c1392318cc17e30) #6
  unreachable

bb33:                                             ; preds = %bb26
  %4 = getelementptr inbounds i8, ptr %Q, i64 16
  %_6 = load ptr, ptr %4, align 8
  %_104 = ptrtoint ptr %Q to i64
  %_107 = and i64 %_104, 7
  %_108 = icmp eq i64 %_107, 0
  br i1 %_108, label %bb25, label %panic8

panic7:                                           ; preds = %bb26
; call core::panicking::panic_null_pointer_dereference
  call void @_ZN4core9panicking30panic_null_pointer_dereference17hf718fcc86a223baaE(ptr align 8 @alloc_32a72fc30d4a2ec99c1392318cc17e30) #6
  unreachable

bb25:                                             ; preds = %bb33
  %_162 = ptrtoint ptr %Q to i64
  %_165 = icmp eq i64 %_162, 0
  %_166 = and i1 %_165, true
  %_167 = xor i1 %_166, true
  br i1 %_167, label %bb34, label %panic9

panic8:                                           ; preds = %bb33
; call core::panicking::panic_misaligned_pointer_dereference
  call void @_ZN4core9panicking36panic_misaligned_pointer_dereference17hcc3cbded9382b6e5E(i64 8, i64 %_104, ptr align 8 @alloc_2d8a13234e5a02f83f64cf407c05c57e) #6
  unreachable

bb34:                                             ; preds = %bb25
  %5 = getelementptr inbounds i8, ptr %Q, i64 8
  %_11 = load i32, ptr %5, align 8
  %_10 = sext i32 %_11 to i64
  %_0.i = mul i64 4, %_10
  %_4 = call ptr @realloc(ptr %_6, i64 %_0.i) #7
  %_98 = ptrtoint ptr %Q to i64
  %_101 = and i64 %_98, 7
  %_102 = icmp eq i64 %_101, 0
  br i1 %_102, label %bb24, label %panic10

panic9:                                           ; preds = %bb25
; call core::panicking::panic_null_pointer_dereference
  call void @_ZN4core9panicking30panic_null_pointer_dereference17hf718fcc86a223baaE(ptr align 8 @alloc_2d8a13234e5a02f83f64cf407c05c57e) #6
  unreachable

bb24:                                             ; preds = %bb34
  %_169 = ptrtoint ptr %Q to i64
  %_172 = icmp eq i64 %_169, 0
  %_173 = and i1 %_172, true
  %_174 = xor i1 %_173, true
  br i1 %_174, label %bb35, label %panic11

panic10:                                          ; preds = %bb34
; call core::panicking::panic_misaligned_pointer_dereference
  call void @_ZN4core9panicking36panic_misaligned_pointer_dereference17hcc3cbded9382b6e5E(i64 8, i64 %_98, ptr align 8 @alloc_3d9151624eab24158117245357fec895) #6
  unreachable

bb35:                                             ; preds = %bb24
  %6 = getelementptr inbounds i8, ptr %Q, i64 16
  store ptr %_4, ptr %6, align 8
  %_92 = ptrtoint ptr %Q to i64
  %_95 = and i64 %_92, 7
  %_96 = icmp eq i64 %_95, 0
  br i1 %_96, label %bb23, label %panic12

panic11:                                          ; preds = %bb24
; call core::panicking::panic_null_pointer_dereference
  call void @_ZN4core9panicking30panic_null_pointer_dereference17hf718fcc86a223baaE(ptr align 8 @alloc_3d9151624eab24158117245357fec895) #6
  unreachable

bb23:                                             ; preds = %bb35
  %_176 = ptrtoint ptr %Q to i64
  %_179 = icmp eq i64 %_176, 0
  %_180 = and i1 %_179, true
  %_181 = xor i1 %_180, true
  br i1 %_181, label %bb36, label %panic13

panic12:                                          ; preds = %bb35
; call core::panicking::panic_misaligned_pointer_dereference
  call void @_ZN4core9panicking36panic_misaligned_pointer_dereference17hcc3cbded9382b6e5E(i64 8, i64 %_92, ptr align 8 @alloc_395383c7eefbb481f7242f7f32147340) #6
  unreachable

bb36:                                             ; preds = %bb23
  %7 = getelementptr inbounds i8, ptr %Q, i64 16
  %_13 = load ptr, ptr %7, align 8
; call core::ptr::mut_ptr::<impl *mut T>::is_null
  %_12 = call zeroext i1 @"_ZN4core3ptr7mut_ptr31_$LT$impl$u20$$BP$mut$u20$T$GT$7is_null17h67a2b789b5576a04E"(ptr %_13) #7
  br i1 %_12, label %bb5, label %bb6

panic13:                                          ; preds = %bb23
; call core::panicking::panic_null_pointer_dereference
  call void @_ZN4core9panicking30panic_null_pointer_dereference17hf718fcc86a223baaE(ptr align 8 @alloc_395383c7eefbb481f7242f7f32147340) #6
  unreachable

bb6:                                              ; preds = %bb36
  %_86 = ptrtoint ptr %Q to i64
  %_89 = and i64 %_86, 7
  %_90 = icmp eq i64 %_89, 0
  br i1 %_90, label %bb22, label %panic14

bb5:                                              ; preds = %bb36
  %_14 = call i32 (ptr, ...) @printf(ptr @alloc_7bad7e74711098352899cacc37ae220b) #7
  br label %bb13

bb22:                                             ; preds = %bb6
  %_183 = ptrtoint ptr %Q to i64
  %_186 = icmp eq i64 %_183, 0
  %_187 = and i1 %_186, true
  %_188 = xor i1 %_187, true
  br i1 %_188, label %bb37, label %panic15

panic14:                                          ; preds = %bb6
; call core::panicking::panic_misaligned_pointer_dereference
  call void @_ZN4core9panicking36panic_misaligned_pointer_dereference17hcc3cbded9382b6e5E(i64 8, i64 %_86, ptr align 8 @alloc_cb134b8acefe01c91a8fad8c729aea62) #6
  unreachable

bb37:                                             ; preds = %bb22
  %_20 = load i32, ptr %Q, align 8
  %_80 = ptrtoint ptr %Q to i64
  %_83 = and i64 %_80, 7
  %_84 = icmp eq i64 %_83, 0
  br i1 %_84, label %bb21, label %panic16

panic15:                                          ; preds = %bb22
; call core::panicking::panic_null_pointer_dereference
  call void @_ZN4core9panicking30panic_null_pointer_dereference17hf718fcc86a223baaE(ptr align 8 @alloc_cb134b8acefe01c91a8fad8c729aea62) #6
  unreachable

bb21:                                             ; preds = %bb37
  %_190 = ptrtoint ptr %Q to i64
  %_193 = icmp eq i64 %_190, 0
  %_194 = and i1 %_193, true
  %_195 = xor i1 %_194, true
  br i1 %_195, label %bb38, label %panic17

panic16:                                          ; preds = %bb37
; call core::panicking::panic_misaligned_pointer_dereference
  call void @_ZN4core9panicking36panic_misaligned_pointer_dereference17hcc3cbded9382b6e5E(i64 8, i64 %_80, ptr align 8 @alloc_9025128f6a2e7a461b9fb929dc2c8c98) #6
  unreachable

bb38:                                             ; preds = %bb21
  %8 = getelementptr inbounds i8, ptr %Q, i64 4
  %_21 = load i32, ptr %8, align 4
  %_19 = icmp sgt i32 %_20, %_21
  br i1 %_19, label %bb7, label %bb13

panic17:                                          ; preds = %bb21
; call core::panicking::panic_null_pointer_dereference
  call void @_ZN4core9panicking30panic_null_pointer_dereference17hf718fcc86a223baaE(ptr align 8 @alloc_9025128f6a2e7a461b9fb929dc2c8c98) #6
  unreachable

bb13:                                             ; preds = %bb5, %bb45, %bb38
  ret void

bb7:                                              ; preds = %bb38
  store i32 0, ptr %i, align 4
  br label %bb8

bb8:                                              ; preds = %bb43, %bb7
  %_24 = load i32, ptr %i, align 4
  %_74 = ptrtoint ptr %Q to i64
  %_77 = and i64 %_74, 7
  %_78 = icmp eq i64 %_77, 0
  br i1 %_78, label %bb20, label %panic18

bb20:                                             ; preds = %bb8
  %_197 = ptrtoint ptr %Q to i64
  %_200 = icmp eq i64 %_197, 0
  %_201 = and i1 %_200, true
  %_202 = xor i1 %_201, true
  br i1 %_202, label %bb39, label %panic19

panic18:                                          ; preds = %bb8
; call core::panicking::panic_misaligned_pointer_dereference
  call void @_ZN4core9panicking36panic_misaligned_pointer_dereference17hcc3cbded9382b6e5E(i64 8, i64 %_74, ptr align 8 @alloc_3db6df02ade1035da9ec9c2667ce7c76) #6
  unreachable

bb39:                                             ; preds = %bb20
  %_25 = load i32, ptr %Q, align 8
  %_23 = icmp slt i32 %_24, %_25
  br i1 %_23, label %bb9, label %bb12

panic19:                                          ; preds = %bb20
; call core::panicking::panic_null_pointer_dereference
  call void @_ZN4core9panicking30panic_null_pointer_dereference17hf718fcc86a223baaE(ptr align 8 @alloc_3db6df02ade1035da9ec9c2667ce7c76) #6
  unreachable

bb12:                                             ; preds = %bb39
  %_44 = ptrtoint ptr %Q to i64
  %_47 = and i64 %_44, 7
  %_48 = icmp eq i64 %_47, 0
  br i1 %_48, label %bb15, label %panic20

bb9:                                              ; preds = %bb39
  %_68 = ptrtoint ptr %Q to i64
  %_71 = and i64 %_68, 7
  %_72 = icmp eq i64 %_71, 0
  br i1 %_72, label %bb19, label %panic24

bb15:                                             ; preds = %bb12
  %_232 = ptrtoint ptr %Q to i64
  %_235 = icmp eq i64 %_232, 0
  %_236 = and i1 %_235, true
  %_237 = xor i1 %_236, true
  br i1 %_237, label %bb44, label %panic21

panic20:                                          ; preds = %bb12
; call core::panicking::panic_misaligned_pointer_dereference
  call void @_ZN4core9panicking36panic_misaligned_pointer_dereference17hcc3cbded9382b6e5E(i64 8, i64 %_44, ptr align 8 @alloc_6e74eda5771aaaa267e98fae2706ab2f) #6
  unreachable

bb44:                                             ; preds = %bb15
  %9 = getelementptr inbounds i8, ptr %Q, i64 4
  %_36 = load i32, ptr %9, align 4
  %_38 = ptrtoint ptr %Q to i64
  %_41 = and i64 %_38, 7
  %_42 = icmp eq i64 %_41, 0
  br i1 %_42, label %bb14, label %panic22

panic21:                                          ; preds = %bb15
; call core::panicking::panic_null_pointer_dereference
  call void @_ZN4core9panicking30panic_null_pointer_dereference17hf718fcc86a223baaE(ptr align 8 @alloc_6e74eda5771aaaa267e98fae2706ab2f) #6
  unreachable

bb14:                                             ; preds = %bb44
  %_239 = ptrtoint ptr %Q to i64
  %_242 = icmp eq i64 %_239, 0
  %_243 = and i1 %_242, true
  %_244 = xor i1 %_243, true
  br i1 %_244, label %bb45, label %panic23

panic22:                                          ; preds = %bb44
; call core::panicking::panic_misaligned_pointer_dereference
  call void @_ZN4core9panicking36panic_misaligned_pointer_dereference17hcc3cbded9382b6e5E(i64 8, i64 %_38, ptr align 8 @alloc_acecb5e2416a4e38d90116cbe2adbd61) #6
  unreachable

bb45:                                             ; preds = %bb14
  %10 = getelementptr inbounds i8, ptr %Q, i64 4
  %11 = add i32 %_36, %size
  store i32 %11, ptr %10, align 4
  br label %bb13

panic23:                                          ; preds = %bb14
; call core::panicking::panic_null_pointer_dereference
  call void @_ZN4core9panicking30panic_null_pointer_dereference17hf718fcc86a223baaE(ptr align 8 @alloc_acecb5e2416a4e38d90116cbe2adbd61) #6
  unreachable

bb19:                                             ; preds = %bb9
  %_204 = ptrtoint ptr %Q to i64
  %_207 = icmp eq i64 %_204, 0
  %_208 = and i1 %_207, true
  %_209 = xor i1 %_208, true
  br i1 %_209, label %bb40, label %panic25

panic24:                                          ; preds = %bb9
; call core::panicking::panic_misaligned_pointer_dereference
  call void @_ZN4core9panicking36panic_misaligned_pointer_dereference17hcc3cbded9382b6e5E(i64 8, i64 %_68, ptr align 8 @alloc_f6cf00f7cc05c1900555e28c039f209e) #6
  unreachable

bb40:                                             ; preds = %bb19
  %12 = getelementptr inbounds i8, ptr %Q, i64 16
  %_28 = load ptr, ptr %12, align 8
  %_30 = load i32, ptr %i, align 4
  %_29 = sext i32 %_30 to i64
; call core::ptr::mut_ptr::<impl *mut T>::offset::precondition_check
  call void @"_ZN4core3ptr7mut_ptr31_$LT$impl$u20$$BP$mut$u20$T$GT$6offset18precondition_check17h1b4642fefff99a28E"(ptr %_28, i64 %_29, i64 4) #7
  %_0.i33 = getelementptr inbounds i32, ptr %_28, i64 %_29
  %_62 = ptrtoint ptr %_0.i33 to i64
  %_65 = and i64 %_62, 3
  %_66 = icmp eq i64 %_65, 0
  br i1 %_66, label %bb18, label %panic26

panic25:                                          ; preds = %bb19
; call core::panicking::panic_null_pointer_dereference
  call void @_ZN4core9panicking30panic_null_pointer_dereference17hf718fcc86a223baaE(ptr align 8 @alloc_f6cf00f7cc05c1900555e28c039f209e) #6
  unreachable

bb18:                                             ; preds = %bb40
  %_211 = ptrtoint ptr %_0.i33 to i64
  %_214 = icmp eq i64 %_211, 0
  %_215 = and i1 %_214, true
  %_216 = xor i1 %_215, true
  br i1 %_216, label %bb41, label %panic27

panic26:                                          ; preds = %bb40
; call core::panicking::panic_misaligned_pointer_dereference
  call void @_ZN4core9panicking36panic_misaligned_pointer_dereference17hcc3cbded9382b6e5E(i64 4, i64 %_62, ptr align 8 @alloc_4f380cd052b472cf75d0a476e7861b14) #6
  unreachable

bb41:                                             ; preds = %bb18
  %_26 = load i32, ptr %_0.i33, align 4
  %_56 = ptrtoint ptr %Q to i64
  %_59 = and i64 %_56, 7
  %_60 = icmp eq i64 %_59, 0
  br i1 %_60, label %bb17, label %panic28

panic27:                                          ; preds = %bb18
; call core::panicking::panic_null_pointer_dereference
  call void @_ZN4core9panicking30panic_null_pointer_dereference17hf718fcc86a223baaE(ptr align 8 @alloc_4f380cd052b472cf75d0a476e7861b14) #6
  unreachable

bb17:                                             ; preds = %bb41
  %_218 = ptrtoint ptr %Q to i64
  %_221 = icmp eq i64 %_218, 0
  %_222 = and i1 %_221, true
  %_223 = xor i1 %_222, true
  br i1 %_223, label %bb42, label %panic29

panic28:                                          ; preds = %bb41
; call core::panicking::panic_misaligned_pointer_dereference
  call void @_ZN4core9panicking36panic_misaligned_pointer_dereference17hcc3cbded9382b6e5E(i64 8, i64 %_56, ptr align 8 @alloc_d7a30cf990653ede2d01cee1dce0110d) #6
  unreachable

bb42:                                             ; preds = %bb17
  %13 = getelementptr inbounds i8, ptr %Q, i64 16
  %_32 = load ptr, ptr %13, align 8
  %_35 = load i32, ptr %i, align 4
  %_34 = add i32 %_35, %size
  %_33 = sext i32 %_34 to i64
; call core::ptr::mut_ptr::<impl *mut T>::offset::precondition_check
  call void @"_ZN4core3ptr7mut_ptr31_$LT$impl$u20$$BP$mut$u20$T$GT$6offset18precondition_check17h1b4642fefff99a28E"(ptr %_32, i64 %_33, i64 4) #7
  %_0.i32 = getelementptr inbounds i32, ptr %_32, i64 %_33
  %_50 = ptrtoint ptr %_0.i32 to i64
  %_53 = and i64 %_50, 3
  %_54 = icmp eq i64 %_53, 0
  br i1 %_54, label %bb16, label %panic30

panic29:                                          ; preds = %bb17
; call core::panicking::panic_null_pointer_dereference
  call void @_ZN4core9panicking30panic_null_pointer_dereference17hf718fcc86a223baaE(ptr align 8 @alloc_d7a30cf990653ede2d01cee1dce0110d) #6
  unreachable

bb16:                                             ; preds = %bb42
  %_225 = ptrtoint ptr %_0.i32 to i64
  %_228 = icmp eq i64 %_225, 0
  %_229 = and i1 %_228, true
  %_230 = xor i1 %_229, true
  br i1 %_230, label %bb43, label %panic31

panic30:                                          ; preds = %bb42
; call core::panicking::panic_misaligned_pointer_dereference
  call void @_ZN4core9panicking36panic_misaligned_pointer_dereference17hcc3cbded9382b6e5E(i64 4, i64 %_50, ptr align 8 @alloc_c7135c2f9b98338fa5873bc01e1af061) #6
  unreachable

bb43:                                             ; preds = %bb16
  store i32 %_26, ptr %_0.i32, align 4
  %14 = load i32, ptr %i, align 4
  %15 = add i32 %14, 1
  store i32 %15, ptr %i, align 4
  br label %bb8

panic31:                                          ; preds = %bb16
; call core::panicking::panic_null_pointer_dereference
  call void @_ZN4core9panicking30panic_null_pointer_dereference17hf718fcc86a223baaE(ptr align 8 @alloc_c7135c2f9b98338fa5873bc01e1af061) #6
  unreachable
}

; Function Attrs: nounwind nonlazybind
define void @enqueue(ptr %Q, i32 %data) unnamed_addr #2 {
start:
  %_3 = call i32 @isFullQueue(ptr %Q) #7
  %0 = icmp eq i32 %_3, 0
  br i1 %0, label %bb3, label %bb2

bb3:                                              ; preds = %bb2, %start
  %_81 = ptrtoint ptr %Q to i64
  %_84 = and i64 %_81, 7
  %_85 = icmp eq i64 %_84, 0
  br i1 %_85, label %bb19, label %panic

bb2:                                              ; preds = %start
  call void @resizeQueue(ptr %Q) #7
  br label %bb3

bb19:                                             ; preds = %bb3
  %_87 = ptrtoint ptr %Q to i64
  %_90 = icmp eq i64 %_87, 0
  %_91 = and i1 %_90, true
  %_92 = xor i1 %_91, true
  br i1 %_92, label %bb20, label %panic1

panic:                                            ; preds = %bb3
; call core::panicking::panic_misaligned_pointer_dereference
  call void @_ZN4core9panicking36panic_misaligned_pointer_dereference17hcc3cbded9382b6e5E(i64 8, i64 %_81, ptr align 8 @alloc_4553b29c5344541642188650974ca440) #6
  unreachable

bb20:                                             ; preds = %bb19
  %1 = getelementptr inbounds i8, ptr %Q, i64 4
  %_6 = load i32, ptr %1, align 4
  %_5 = add i32 %_6, 1
  %_75 = ptrtoint ptr %Q to i64
  %_78 = and i64 %_75, 7
  %_79 = icmp eq i64 %_78, 0
  br i1 %_79, label %bb18, label %panic2

panic1:                                           ; preds = %bb19
; call core::panicking::panic_null_pointer_dereference
  call void @_ZN4core9panicking30panic_null_pointer_dereference17hf718fcc86a223baaE(ptr align 8 @alloc_4553b29c5344541642188650974ca440) #6
  unreachable

bb18:                                             ; preds = %bb20
  %_94 = ptrtoint ptr %Q to i64
  %_97 = icmp eq i64 %_94, 0
  %_98 = and i1 %_97, true
  %_99 = xor i1 %_98, true
  br i1 %_99, label %bb21, label %panic3

panic2:                                           ; preds = %bb20
; call core::panicking::panic_misaligned_pointer_dereference
  call void @_ZN4core9panicking36panic_misaligned_pointer_dereference17hcc3cbded9382b6e5E(i64 8, i64 %_75, ptr align 8 @alloc_4f4a37de403d2dc1988ea794b6a13a7d) #6
  unreachable

bb21:                                             ; preds = %bb18
  %2 = getelementptr inbounds i8, ptr %Q, i64 8
  %_7 = load i32, ptr %2, align 8
  %_8 = icmp eq i32 %_7, 0
  br i1 %_8, label %panic4, label %bb4

panic3:                                           ; preds = %bb18
; call core::panicking::panic_null_pointer_dereference
  call void @_ZN4core9panicking30panic_null_pointer_dereference17hf718fcc86a223baaE(ptr align 8 @alloc_4f4a37de403d2dc1988ea794b6a13a7d) #6
  unreachable

bb4:                                              ; preds = %bb21
  %_9 = icmp eq i32 %_7, -1
  %_10 = icmp eq i32 %_5, -2147483648
  %_11 = and i1 %_9, %_10
  br i1 %_11, label %panic5, label %bb5

panic4:                                           ; preds = %bb21
; call core::panicking::panic_const::panic_const_rem_by_zero
  call void @_ZN4core9panicking11panic_const23panic_const_rem_by_zero17h8cc4f221597e73ceE(ptr align 8 @alloc_5ac406731101fde4d5fa205d84e706c0) #6
  unreachable

bb5:                                              ; preds = %bb4
  %_69 = ptrtoint ptr %Q to i64
  %_72 = and i64 %_69, 7
  %_73 = icmp eq i64 %_72, 0
  br i1 %_73, label %bb17, label %panic6

panic5:                                           ; preds = %bb4
; call core::panicking::panic_const::panic_const_rem_overflow
  call void @_ZN4core9panicking11panic_const24panic_const_rem_overflow17h799fde26ff2294a6E(ptr align 8 @alloc_5ac406731101fde4d5fa205d84e706c0) #6
  unreachable

bb17:                                             ; preds = %bb5
  %_101 = ptrtoint ptr %Q to i64
  %_104 = icmp eq i64 %_101, 0
  %_105 = and i1 %_104, true
  %_106 = xor i1 %_105, true
  br i1 %_106, label %bb22, label %panic7

panic6:                                           ; preds = %bb5
; call core::panicking::panic_misaligned_pointer_dereference
  call void @_ZN4core9panicking36panic_misaligned_pointer_dereference17hcc3cbded9382b6e5E(i64 8, i64 %_69, ptr align 8 @alloc_295660d552510aca136207025db92de4) #6
  unreachable

bb22:                                             ; preds = %bb17
  %3 = getelementptr inbounds i8, ptr %Q, i64 4
  %4 = srem i32 %_5, %_7
  store i32 %4, ptr %3, align 4
  %_63 = ptrtoint ptr %Q to i64
  %_66 = and i64 %_63, 7
  %_67 = icmp eq i64 %_66, 0
  br i1 %_67, label %bb16, label %panic8

panic7:                                           ; preds = %bb17
; call core::panicking::panic_null_pointer_dereference
  call void @_ZN4core9panicking30panic_null_pointer_dereference17hf718fcc86a223baaE(ptr align 8 @alloc_295660d552510aca136207025db92de4) #6
  unreachable

bb16:                                             ; preds = %bb22
  %_108 = ptrtoint ptr %Q to i64
  %_111 = icmp eq i64 %_108, 0
  %_112 = and i1 %_111, true
  %_113 = xor i1 %_112, true
  br i1 %_113, label %bb23, label %panic9

panic8:                                           ; preds = %bb22
; call core::panicking::panic_misaligned_pointer_dereference
  call void @_ZN4core9panicking36panic_misaligned_pointer_dereference17hcc3cbded9382b6e5E(i64 8, i64 %_63, ptr align 8 @alloc_338fda92bc3bad24e70725fb859952d8) #6
  unreachable

bb23:                                             ; preds = %bb16
  %5 = getelementptr inbounds i8, ptr %Q, i64 16
  %_13 = load ptr, ptr %5, align 8
  %_57 = ptrtoint ptr %Q to i64
  %_60 = and i64 %_57, 7
  %_61 = icmp eq i64 %_60, 0
  br i1 %_61, label %bb15, label %panic10

panic9:                                           ; preds = %bb16
; call core::panicking::panic_null_pointer_dereference
  call void @_ZN4core9panicking30panic_null_pointer_dereference17hf718fcc86a223baaE(ptr align 8 @alloc_338fda92bc3bad24e70725fb859952d8) #6
  unreachable

bb15:                                             ; preds = %bb23
  %_115 = ptrtoint ptr %Q to i64
  %_118 = icmp eq i64 %_115, 0
  %_119 = and i1 %_118, true
  %_120 = xor i1 %_119, true
  br i1 %_120, label %bb24, label %panic11

panic10:                                          ; preds = %bb23
; call core::panicking::panic_misaligned_pointer_dereference
  call void @_ZN4core9panicking36panic_misaligned_pointer_dereference17hcc3cbded9382b6e5E(i64 8, i64 %_57, ptr align 8 @alloc_40f2349cc59f5ab12c4672246484840b) #6
  unreachable

bb24:                                             ; preds = %bb15
  %6 = getelementptr inbounds i8, ptr %Q, i64 4
  %_15 = load i32, ptr %6, align 4
  %_14 = sext i32 %_15 to i64
; call core::ptr::mut_ptr::<impl *mut T>::offset::precondition_check
  call void @"_ZN4core3ptr7mut_ptr31_$LT$impl$u20$$BP$mut$u20$T$GT$6offset18precondition_check17h1b4642fefff99a28E"(ptr %_13, i64 %_14, i64 4) #7
  %_0.i = getelementptr inbounds i32, ptr %_13, i64 %_14
  %_51 = ptrtoint ptr %_0.i to i64
  %_54 = and i64 %_51, 3
  %_55 = icmp eq i64 %_54, 0
  br i1 %_55, label %bb14, label %panic12

panic11:                                          ; preds = %bb15
; call core::panicking::panic_null_pointer_dereference
  call void @_ZN4core9panicking30panic_null_pointer_dereference17hf718fcc86a223baaE(ptr align 8 @alloc_40f2349cc59f5ab12c4672246484840b) #6
  unreachable

bb14:                                             ; preds = %bb24
  %_122 = ptrtoint ptr %_0.i to i64
  %_125 = icmp eq i64 %_122, 0
  %_126 = and i1 %_125, true
  %_127 = xor i1 %_126, true
  br i1 %_127, label %bb25, label %panic13

panic12:                                          ; preds = %bb24
; call core::panicking::panic_misaligned_pointer_dereference
  call void @_ZN4core9panicking36panic_misaligned_pointer_dereference17hcc3cbded9382b6e5E(i64 4, i64 %_51, ptr align 8 @alloc_caeaa73146f8e62a1d94f321cfc045df) #6
  unreachable

bb25:                                             ; preds = %bb14
  store i32 %data, ptr %_0.i, align 4
  %_45 = ptrtoint ptr %Q to i64
  %_48 = and i64 %_45, 7
  %_49 = icmp eq i64 %_48, 0
  br i1 %_49, label %bb13, label %panic14

panic13:                                          ; preds = %bb14
; call core::panicking::panic_null_pointer_dereference
  call void @_ZN4core9panicking30panic_null_pointer_dereference17hf718fcc86a223baaE(ptr align 8 @alloc_caeaa73146f8e62a1d94f321cfc045df) #6
  unreachable

bb13:                                             ; preds = %bb25
  %_129 = ptrtoint ptr %Q to i64
  %_132 = icmp eq i64 %_129, 0
  %_133 = and i1 %_132, true
  %_134 = xor i1 %_133, true
  br i1 %_134, label %bb26, label %panic15

panic14:                                          ; preds = %bb25
; call core::panicking::panic_misaligned_pointer_dereference
  call void @_ZN4core9panicking36panic_misaligned_pointer_dereference17hcc3cbded9382b6e5E(i64 8, i64 %_45, ptr align 8 @alloc_a6013da12e53283c07d62849c24f17af) #6
  unreachable

bb26:                                             ; preds = %bb13
  %_17 = load i32, ptr %Q, align 8
  %_16 = icmp eq i32 %_17, -1
  br i1 %_16, label %bb7, label %bb8

panic15:                                          ; preds = %bb13
; call core::panicking::panic_null_pointer_dereference
  call void @_ZN4core9panicking30panic_null_pointer_dereference17hf718fcc86a223baaE(ptr align 8 @alloc_a6013da12e53283c07d62849c24f17af) #6
  unreachable

bb8:                                              ; preds = %bb28, %bb26
  %_27 = ptrtoint ptr %Q to i64
  %_30 = and i64 %_27, 7
  %_31 = icmp eq i64 %_30, 0
  br i1 %_31, label %bb10, label %panic20

bb7:                                              ; preds = %bb26
  %_39 = ptrtoint ptr %Q to i64
  %_42 = and i64 %_39, 7
  %_43 = icmp eq i64 %_42, 0
  br i1 %_43, label %bb12, label %panic16

bb12:                                             ; preds = %bb7
  %_136 = ptrtoint ptr %Q to i64
  %_139 = icmp eq i64 %_136, 0
  %_140 = and i1 %_139, true
  %_141 = xor i1 %_140, true
  br i1 %_141, label %bb27, label %panic17

panic16:                                          ; preds = %bb7
; call core::panicking::panic_misaligned_pointer_dereference
  call void @_ZN4core9panicking36panic_misaligned_pointer_dereference17hcc3cbded9382b6e5E(i64 8, i64 %_39, ptr align 8 @alloc_7322b46aca7051f5b306103d94a585a1) #6
  unreachable

bb27:                                             ; preds = %bb12
  %7 = getelementptr inbounds i8, ptr %Q, i64 4
  %_19 = load i32, ptr %7, align 4
  %_33 = ptrtoint ptr %Q to i64
  %_36 = and i64 %_33, 7
  %_37 = icmp eq i64 %_36, 0
  br i1 %_37, label %bb11, label %panic18

panic17:                                          ; preds = %bb12
; call core::panicking::panic_null_pointer_dereference
  call void @_ZN4core9panicking30panic_null_pointer_dereference17hf718fcc86a223baaE(ptr align 8 @alloc_7322b46aca7051f5b306103d94a585a1) #6
  unreachable

bb11:                                             ; preds = %bb27
  %_143 = ptrtoint ptr %Q to i64
  %_146 = icmp eq i64 %_143, 0
  %_147 = and i1 %_146, true
  %_148 = xor i1 %_147, true
  br i1 %_148, label %bb28, label %panic19

panic18:                                          ; preds = %bb27
; call core::panicking::panic_misaligned_pointer_dereference
  call void @_ZN4core9panicking36panic_misaligned_pointer_dereference17hcc3cbded9382b6e5E(i64 8, i64 %_33, ptr align 8 @alloc_ec6b776ab0f135b5b7e10b065a3c86fb) #6
  unreachable

bb28:                                             ; preds = %bb11
  store i32 %_19, ptr %Q, align 8
  br label %bb8

panic19:                                          ; preds = %bb11
; call core::panicking::panic_null_pointer_dereference
  call void @_ZN4core9panicking30panic_null_pointer_dereference17hf718fcc86a223baaE(ptr align 8 @alloc_ec6b776ab0f135b5b7e10b065a3c86fb) #6
  unreachable

bb10:                                             ; preds = %bb8
  %_21 = ptrtoint ptr %Q to i64
  %_24 = and i64 %_21, 7
  %_25 = icmp eq i64 %_24, 0
  br i1 %_25, label %bb9, label %panic21

panic20:                                          ; preds = %bb8
; call core::panicking::panic_misaligned_pointer_dereference
  call void @_ZN4core9panicking36panic_misaligned_pointer_dereference17hcc3cbded9382b6e5E(i64 8, i64 %_27, ptr align 8 @alloc_147709643234c0e43fb19b8058ab450f) #6
  unreachable

bb9:                                              ; preds = %bb10
  %_157 = ptrtoint ptr %Q to i64
  %_160 = icmp eq i64 %_157, 0
  %_161 = and i1 %_160, true
  %_162 = xor i1 %_161, true
  br i1 %_162, label %bb30, label %panic22

panic21:                                          ; preds = %bb10
; call core::panicking::panic_misaligned_pointer_dereference
  call void @_ZN4core9panicking36panic_misaligned_pointer_dereference17hcc3cbded9382b6e5E(i64 8, i64 %_21, ptr align 8 @alloc_147709643234c0e43fb19b8058ab450f) #6
  unreachable

bb30:                                             ; preds = %bb9
  %_150 = ptrtoint ptr %Q to i64
  %_153 = icmp eq i64 %_150, 0
  %_154 = and i1 %_153, true
  %_155 = xor i1 %_154, true
  br i1 %_155, label %bb29, label %panic23

panic22:                                          ; preds = %bb9
; call core::panicking::panic_null_pointer_dereference
  call void @_ZN4core9panicking30panic_null_pointer_dereference17hf718fcc86a223baaE(ptr align 8 @alloc_147709643234c0e43fb19b8058ab450f) #6
  unreachable

bb29:                                             ; preds = %bb30
  %8 = getelementptr inbounds i8, ptr %Q, i64 12
  %9 = getelementptr inbounds i8, ptr %Q, i64 12
  %10 = load i32, ptr %9, align 4
  %11 = add i32 %10, 1
  store i32 %11, ptr %8, align 4
  ret void

panic23:                                          ; preds = %bb30
; call core::panicking::panic_null_pointer_dereference
  call void @_ZN4core9panicking30panic_null_pointer_dereference17hf718fcc86a223baaE(ptr align 8 @alloc_147709643234c0e43fb19b8058ab450f) #6
  unreachable
}

; Function Attrs: nounwind nonlazybind
define i32 @dequeue(ptr %Q) unnamed_addr #2 {
start:
  %data = alloca [4 x i8], align 4
  %_0 = alloca [4 x i8], align 4
  store i32 -2147483648, ptr %data, align 4
  %_4 = call i32 @isEmptyQueue(ptr %Q) #7
  %0 = icmp eq i32 %_4, 0
  br i1 %0, label %bb4, label %bb2

bb4:                                              ; preds = %start
  %_105 = ptrtoint ptr %Q to i64
  %_108 = and i64 %_105, 7
  %_109 = icmp eq i64 %_108, 0
  br i1 %_109, label %bb25, label %panic

bb2:                                              ; preds = %start
  %_5 = call i32 (ptr, ...) @printf(ptr @alloc_f277489d102d413232ce01d5c0419f31) #7
  %1 = load i32, ptr %data, align 4
  store i32 %1, ptr %_0, align 4
  br label %bb11

bb25:                                             ; preds = %bb4
  %_111 = ptrtoint ptr %Q to i64
  %_114 = icmp eq i64 %_111, 0
  %_115 = and i1 %_114, true
  %_116 = xor i1 %_115, true
  br i1 %_116, label %bb26, label %panic1

panic:                                            ; preds = %bb4
; call core::panicking::panic_misaligned_pointer_dereference
  call void @_ZN4core9panicking36panic_misaligned_pointer_dereference17hcc3cbded9382b6e5E(i64 8, i64 %_105, ptr align 8 @alloc_6c8b11f06f7a3c729b268eedc00282f6) #6
  unreachable

bb26:                                             ; preds = %bb25
  %2 = getelementptr inbounds i8, ptr %Q, i64 16
  %_12 = load ptr, ptr %2, align 8
  %_99 = ptrtoint ptr %Q to i64
  %_102 = and i64 %_99, 7
  %_103 = icmp eq i64 %_102, 0
  br i1 %_103, label %bb24, label %panic2

panic1:                                           ; preds = %bb25
; call core::panicking::panic_null_pointer_dereference
  call void @_ZN4core9panicking30panic_null_pointer_dereference17hf718fcc86a223baaE(ptr align 8 @alloc_6c8b11f06f7a3c729b268eedc00282f6) #6
  unreachable

bb24:                                             ; preds = %bb26
  %_118 = ptrtoint ptr %Q to i64
  %_121 = icmp eq i64 %_118, 0
  %_122 = and i1 %_121, true
  %_123 = xor i1 %_122, true
  br i1 %_123, label %bb27, label %panic3

panic2:                                           ; preds = %bb26
; call core::panicking::panic_misaligned_pointer_dereference
  call void @_ZN4core9panicking36panic_misaligned_pointer_dereference17hcc3cbded9382b6e5E(i64 8, i64 %_99, ptr align 8 @alloc_8fbcbc63fc42ebfbbe670989501af568) #6
  unreachable

bb27:                                             ; preds = %bb24
  %_14 = load i32, ptr %Q, align 8
  %_13 = sext i32 %_14 to i64
; call core::ptr::mut_ptr::<impl *mut T>::offset::precondition_check
  call void @"_ZN4core3ptr7mut_ptr31_$LT$impl$u20$$BP$mut$u20$T$GT$6offset18precondition_check17h1b4642fefff99a28E"(ptr %_12, i64 %_13, i64 4) #7
  %_0.i = getelementptr inbounds i32, ptr %_12, i64 %_13
  %_93 = ptrtoint ptr %_0.i to i64
  %_96 = and i64 %_93, 3
  %_97 = icmp eq i64 %_96, 0
  br i1 %_97, label %bb23, label %panic4

panic3:                                           ; preds = %bb24
; call core::panicking::panic_null_pointer_dereference
  call void @_ZN4core9panicking30panic_null_pointer_dereference17hf718fcc86a223baaE(ptr align 8 @alloc_8fbcbc63fc42ebfbbe670989501af568) #6
  unreachable

bb23:                                             ; preds = %bb27
  %_125 = ptrtoint ptr %_0.i to i64
  %_128 = icmp eq i64 %_125, 0
  %_129 = and i1 %_128, true
  %_130 = xor i1 %_129, true
  br i1 %_130, label %bb28, label %panic5

panic4:                                           ; preds = %bb27
; call core::panicking::panic_misaligned_pointer_dereference
  call void @_ZN4core9panicking36panic_misaligned_pointer_dereference17hcc3cbded9382b6e5E(i64 4, i64 %_93, ptr align 8 @alloc_98f1e3f806f6f1a41762c69dbb21d162) #6
  unreachable

bb28:                                             ; preds = %bb23
  %_10 = load i32, ptr %_0.i, align 4
  store i32 %_10, ptr %data, align 4
  %_87 = ptrtoint ptr %Q to i64
  %_90 = and i64 %_87, 7
  %_91 = icmp eq i64 %_90, 0
  br i1 %_91, label %bb22, label %panic6

panic5:                                           ; preds = %bb23
; call core::panicking::panic_null_pointer_dereference
  call void @_ZN4core9panicking30panic_null_pointer_dereference17hf718fcc86a223baaE(ptr align 8 @alloc_98f1e3f806f6f1a41762c69dbb21d162) #6
  unreachable

bb22:                                             ; preds = %bb28
  %_132 = ptrtoint ptr %Q to i64
  %_135 = icmp eq i64 %_132, 0
  %_136 = and i1 %_135, true
  %_137 = xor i1 %_136, true
  br i1 %_137, label %bb29, label %panic7

panic6:                                           ; preds = %bb28
; call core::panicking::panic_misaligned_pointer_dereference
  call void @_ZN4core9panicking36panic_misaligned_pointer_dereference17hcc3cbded9382b6e5E(i64 8, i64 %_87, ptr align 8 @alloc_7df80ac586b0370039527bc69c84d912) #6
  unreachable

bb29:                                             ; preds = %bb22
  %_16 = load i32, ptr %Q, align 8
  %_81 = ptrtoint ptr %Q to i64
  %_84 = and i64 %_81, 7
  %_85 = icmp eq i64 %_84, 0
  br i1 %_85, label %bb21, label %panic8

panic7:                                           ; preds = %bb22
; call core::panicking::panic_null_pointer_dereference
  call void @_ZN4core9panicking30panic_null_pointer_dereference17hf718fcc86a223baaE(ptr align 8 @alloc_7df80ac586b0370039527bc69c84d912) #6
  unreachable

bb21:                                             ; preds = %bb29
  %_139 = ptrtoint ptr %Q to i64
  %_142 = icmp eq i64 %_139, 0
  %_143 = and i1 %_142, true
  %_144 = xor i1 %_143, true
  br i1 %_144, label %bb30, label %panic9

panic8:                                           ; preds = %bb29
; call core::panicking::panic_misaligned_pointer_dereference
  call void @_ZN4core9panicking36panic_misaligned_pointer_dereference17hcc3cbded9382b6e5E(i64 8, i64 %_81, ptr align 8 @alloc_fd6e06e949e8c39f402cbfebf6bab276) #6
  unreachable

bb30:                                             ; preds = %bb21
  %3 = getelementptr inbounds i8, ptr %Q, i64 4
  %_17 = load i32, ptr %3, align 4
  %_15 = icmp eq i32 %_16, %_17
  br i1 %_15, label %bb6, label %bb7

panic9:                                           ; preds = %bb21
; call core::panicking::panic_null_pointer_dereference
  call void @_ZN4core9panicking30panic_null_pointer_dereference17hf718fcc86a223baaE(ptr align 8 @alloc_fd6e06e949e8c39f402cbfebf6bab276) #6
  unreachable

bb7:                                              ; preds = %bb30
  %_51 = ptrtoint ptr %Q to i64
  %_54 = and i64 %_51, 7
  %_55 = icmp eq i64 %_54, 0
  br i1 %_55, label %bb16, label %panic10

bb6:                                              ; preds = %bb30
  %_75 = ptrtoint ptr %Q to i64
  %_78 = and i64 %_75, 7
  %_79 = icmp eq i64 %_78, 0
  br i1 %_79, label %bb20, label %panic22

bb16:                                             ; preds = %bb7
  %_174 = ptrtoint ptr %Q to i64
  %_177 = icmp eq i64 %_174, 0
  %_178 = and i1 %_177, true
  %_179 = xor i1 %_178, true
  br i1 %_179, label %bb35, label %panic11

panic10:                                          ; preds = %bb7
; call core::panicking::panic_misaligned_pointer_dereference
  call void @_ZN4core9panicking36panic_misaligned_pointer_dereference17hcc3cbded9382b6e5E(i64 8, i64 %_51, ptr align 8 @alloc_4a8b77c40ea99e870fbb4fd455f7fcf3) #6
  unreachable

bb35:                                             ; preds = %bb16
  %_20 = load i32, ptr %Q, align 8
  %_19 = add i32 %_20, 1
  %_45 = ptrtoint ptr %Q to i64
  %_48 = and i64 %_45, 7
  %_49 = icmp eq i64 %_48, 0
  br i1 %_49, label %bb15, label %panic12

panic11:                                          ; preds = %bb16
; call core::panicking::panic_null_pointer_dereference
  call void @_ZN4core9panicking30panic_null_pointer_dereference17hf718fcc86a223baaE(ptr align 8 @alloc_4a8b77c40ea99e870fbb4fd455f7fcf3) #6
  unreachable

bb15:                                             ; preds = %bb35
  %_181 = ptrtoint ptr %Q to i64
  %_184 = icmp eq i64 %_181, 0
  %_185 = and i1 %_184, true
  %_186 = xor i1 %_185, true
  br i1 %_186, label %bb36, label %panic13

panic12:                                          ; preds = %bb35
; call core::panicking::panic_misaligned_pointer_dereference
  call void @_ZN4core9panicking36panic_misaligned_pointer_dereference17hcc3cbded9382b6e5E(i64 8, i64 %_45, ptr align 8 @alloc_b76d048bb62ccb06f6d88e57357117b6) #6
  unreachable

bb36:                                             ; preds = %bb15
  %4 = getelementptr inbounds i8, ptr %Q, i64 8
  %_21 = load i32, ptr %4, align 8
  %_22 = icmp eq i32 %_21, 0
  br i1 %_22, label %panic14, label %bb8

panic13:                                          ; preds = %bb15
; call core::panicking::panic_null_pointer_dereference
  call void @_ZN4core9panicking30panic_null_pointer_dereference17hf718fcc86a223baaE(ptr align 8 @alloc_b76d048bb62ccb06f6d88e57357117b6) #6
  unreachable

bb8:                                              ; preds = %bb36
  %_23 = icmp eq i32 %_21, -1
  %_24 = icmp eq i32 %_19, -2147483648
  %_25 = and i1 %_23, %_24
  br i1 %_25, label %panic15, label %bb9

panic14:                                          ; preds = %bb36
; call core::panicking::panic_const::panic_const_rem_by_zero
  call void @_ZN4core9panicking11panic_const23panic_const_rem_by_zero17h8cc4f221597e73ceE(ptr align 8 @alloc_eb561d9f0e8d401673c65ca2cbcfe32c) #6
  unreachable

bb9:                                              ; preds = %bb8
  %_39 = ptrtoint ptr %Q to i64
  %_42 = and i64 %_39, 7
  %_43 = icmp eq i64 %_42, 0
  br i1 %_43, label %bb14, label %panic16

panic15:                                          ; preds = %bb8
; call core::panicking::panic_const::panic_const_rem_overflow
  call void @_ZN4core9panicking11panic_const24panic_const_rem_overflow17h799fde26ff2294a6E(ptr align 8 @alloc_eb561d9f0e8d401673c65ca2cbcfe32c) #6
  unreachable

bb14:                                             ; preds = %bb9
  %_188 = ptrtoint ptr %Q to i64
  %_191 = icmp eq i64 %_188, 0
  %_192 = and i1 %_191, true
  %_193 = xor i1 %_192, true
  br i1 %_193, label %bb37, label %panic17

panic16:                                          ; preds = %bb9
; call core::panicking::panic_misaligned_pointer_dereference
  call void @_ZN4core9panicking36panic_misaligned_pointer_dereference17hcc3cbded9382b6e5E(i64 8, i64 %_39, ptr align 8 @alloc_6fe9c8bdc5ef068249a926b13dfe760c) #6
  unreachable

bb37:                                             ; preds = %bb14
  %5 = srem i32 %_19, %_21
  store i32 %5, ptr %Q, align 8
  %_33 = ptrtoint ptr %Q to i64
  %_36 = and i64 %_33, 7
  %_37 = icmp eq i64 %_36, 0
  br i1 %_37, label %bb13, label %panic18

panic17:                                          ; preds = %bb14
; call core::panicking::panic_null_pointer_dereference
  call void @_ZN4core9panicking30panic_null_pointer_dereference17hf718fcc86a223baaE(ptr align 8 @alloc_6fe9c8bdc5ef068249a926b13dfe760c) #6
  unreachable

bb13:                                             ; preds = %bb37
  %_27 = ptrtoint ptr %Q to i64
  %_30 = and i64 %_27, 7
  %_31 = icmp eq i64 %_30, 0
  br i1 %_31, label %bb12, label %panic19

panic18:                                          ; preds = %bb37
; call core::panicking::panic_misaligned_pointer_dereference
  call void @_ZN4core9panicking36panic_misaligned_pointer_dereference17hcc3cbded9382b6e5E(i64 8, i64 %_33, ptr align 8 @alloc_53361c05b3903c0ef07c444cbff94b04) #6
  unreachable

bb12:                                             ; preds = %bb13
  %_202 = ptrtoint ptr %Q to i64
  %_205 = icmp eq i64 %_202, 0
  %_206 = and i1 %_205, true
  %_207 = xor i1 %_206, true
  br i1 %_207, label %bb39, label %panic20

panic19:                                          ; preds = %bb13
; call core::panicking::panic_misaligned_pointer_dereference
  call void @_ZN4core9panicking36panic_misaligned_pointer_dereference17hcc3cbded9382b6e5E(i64 8, i64 %_27, ptr align 8 @alloc_53361c05b3903c0ef07c444cbff94b04) #6
  unreachable

bb39:                                             ; preds = %bb12
  %_195 = ptrtoint ptr %Q to i64
  %_198 = icmp eq i64 %_195, 0
  %_199 = and i1 %_198, true
  %_200 = xor i1 %_199, true
  br i1 %_200, label %bb38, label %panic21

panic20:                                          ; preds = %bb12
; call core::panicking::panic_null_pointer_dereference
  call void @_ZN4core9panicking30panic_null_pointer_dereference17hf718fcc86a223baaE(ptr align 8 @alloc_53361c05b3903c0ef07c444cbff94b04) #6
  unreachable

bb38:                                             ; preds = %bb39
  %6 = getelementptr inbounds i8, ptr %Q, i64 12
  %7 = getelementptr inbounds i8, ptr %Q, i64 12
  %8 = load i32, ptr %7, align 4
  %9 = sub i32 %8, 1
  store i32 %9, ptr %6, align 4
  br label %bb10

panic21:                                          ; preds = %bb39
; call core::panicking::panic_null_pointer_dereference
  call void @_ZN4core9panicking30panic_null_pointer_dereference17hf718fcc86a223baaE(ptr align 8 @alloc_53361c05b3903c0ef07c444cbff94b04) #6
  unreachable

bb10:                                             ; preds = %bb34, %bb38
  %10 = load i32, ptr %data, align 4
  store i32 %10, ptr %_0, align 4
  br label %bb11

bb20:                                             ; preds = %bb6
  %_146 = ptrtoint ptr %Q to i64
  %_149 = icmp eq i64 %_146, 0
  %_150 = and i1 %_149, true
  %_151 = xor i1 %_150, true
  br i1 %_151, label %bb31, label %panic23

panic22:                                          ; preds = %bb6
; call core::panicking::panic_misaligned_pointer_dereference
  call void @_ZN4core9panicking36panic_misaligned_pointer_dereference17hcc3cbded9382b6e5E(i64 8, i64 %_75, ptr align 8 @alloc_9445c4cd979f194ddacd7c88182bd7b2) #6
  unreachable

bb31:                                             ; preds = %bb20
  %11 = getelementptr inbounds i8, ptr %Q, i64 4
  store i32 -1, ptr %11, align 4
  %_69 = ptrtoint ptr %Q to i64
  %_72 = and i64 %_69, 7
  %_73 = icmp eq i64 %_72, 0
  br i1 %_73, label %bb19, label %panic24

panic23:                                          ; preds = %bb20
; call core::panicking::panic_null_pointer_dereference
  call void @_ZN4core9panicking30panic_null_pointer_dereference17hf718fcc86a223baaE(ptr align 8 @alloc_9445c4cd979f194ddacd7c88182bd7b2) #6
  unreachable

bb19:                                             ; preds = %bb31
  %_153 = ptrtoint ptr %Q to i64
  %_156 = icmp eq i64 %_153, 0
  %_157 = and i1 %_156, true
  %_158 = xor i1 %_157, true
  br i1 %_158, label %bb32, label %panic25

panic24:                                          ; preds = %bb31
; call core::panicking::panic_misaligned_pointer_dereference
  call void @_ZN4core9panicking36panic_misaligned_pointer_dereference17hcc3cbded9382b6e5E(i64 8, i64 %_69, ptr align 8 @alloc_d9555c620cf046ba4e73eaf02c9f1091) #6
  unreachable

bb32:                                             ; preds = %bb19
  %12 = getelementptr inbounds i8, ptr %Q, i64 4
  %_18 = load i32, ptr %12, align 4
  %_63 = ptrtoint ptr %Q to i64
  %_66 = and i64 %_63, 7
  %_67 = icmp eq i64 %_66, 0
  br i1 %_67, label %bb18, label %panic26

panic25:                                          ; preds = %bb19
; call core::panicking::panic_null_pointer_dereference
  call void @_ZN4core9panicking30panic_null_pointer_dereference17hf718fcc86a223baaE(ptr align 8 @alloc_d9555c620cf046ba4e73eaf02c9f1091) #6
  unreachable

bb18:                                             ; preds = %bb32
  %_160 = ptrtoint ptr %Q to i64
  %_163 = icmp eq i64 %_160, 0
  %_164 = and i1 %_163, true
  %_165 = xor i1 %_164, true
  br i1 %_165, label %bb33, label %panic27

panic26:                                          ; preds = %bb32
; call core::panicking::panic_misaligned_pointer_dereference
  call void @_ZN4core9panicking36panic_misaligned_pointer_dereference17hcc3cbded9382b6e5E(i64 8, i64 %_63, ptr align 8 @alloc_8f3d271ab51c2a70fee594208d8013c8) #6
  unreachable

bb33:                                             ; preds = %bb18
  store i32 %_18, ptr %Q, align 8
  %_57 = ptrtoint ptr %Q to i64
  %_60 = and i64 %_57, 7
  %_61 = icmp eq i64 %_60, 0
  br i1 %_61, label %bb17, label %panic28

panic27:                                          ; preds = %bb18
; call core::panicking::panic_null_pointer_dereference
  call void @_ZN4core9panicking30panic_null_pointer_dereference17hf718fcc86a223baaE(ptr align 8 @alloc_8f3d271ab51c2a70fee594208d8013c8) #6
  unreachable

bb17:                                             ; preds = %bb33
  %_167 = ptrtoint ptr %Q to i64
  %_170 = icmp eq i64 %_167, 0
  %_171 = and i1 %_170, true
  %_172 = xor i1 %_171, true
  br i1 %_172, label %bb34, label %panic29

panic28:                                          ; preds = %bb33
; call core::panicking::panic_misaligned_pointer_dereference
  call void @_ZN4core9panicking36panic_misaligned_pointer_dereference17hcc3cbded9382b6e5E(i64 8, i64 %_57, ptr align 8 @alloc_6159c17484314163fb0dcceaf704ac81) #6
  unreachable

bb34:                                             ; preds = %bb17
  %13 = getelementptr inbounds i8, ptr %Q, i64 12
  store i32 0, ptr %13, align 4
  br label %bb10

panic29:                                          ; preds = %bb17
; call core::panicking::panic_null_pointer_dereference
  call void @_ZN4core9panicking30panic_null_pointer_dereference17hf718fcc86a223baaE(ptr align 8 @alloc_6159c17484314163fb0dcceaf704ac81) #6
  unreachable

bb11:                                             ; preds = %bb2, %bb10
  %14 = load i32, ptr %_0, align 4
  ret i32 %14
}

; Function Attrs: nounwind nonlazybind
define void @deleteQueue(ptr %Q) unnamed_addr #2 {
start:
; call core::ptr::mut_ptr::<impl *mut T>::is_null
  %_2 = call zeroext i1 @"_ZN4core3ptr7mut_ptr31_$LT$impl$u20$$BP$mut$u20$T$GT$7is_null17hf09a1fae62f35c45E"(ptr %Q) #7
  br i1 %_2, label %bb6, label %bb2

bb2:                                              ; preds = %start
  %_17 = ptrtoint ptr %Q to i64
  %_20 = and i64 %_17, 7
  %_21 = icmp eq i64 %_20, 0
  br i1 %_21, label %bb8, label %panic

bb6:                                              ; preds = %bb5, %start
  ret void

bb8:                                              ; preds = %bb2
  %_23 = ptrtoint ptr %Q to i64
  %_26 = icmp eq i64 %_23, 0
  %_27 = and i1 %_26, true
  %_28 = xor i1 %_27, true
  br i1 %_28, label %bb9, label %panic1

panic:                                            ; preds = %bb2
; call core::panicking::panic_misaligned_pointer_dereference
  call void @_ZN4core9panicking36panic_misaligned_pointer_dereference17hcc3cbded9382b6e5E(i64 8, i64 %_17, ptr align 8 @alloc_d844298e14d266042d4cd7096d285036) #6
  unreachable

bb9:                                              ; preds = %bb8
  %0 = getelementptr inbounds i8, ptr %Q, i64 16
  %_4 = load ptr, ptr %0, align 8
; call core::ptr::mut_ptr::<impl *mut T>::is_null
  %_3 = call zeroext i1 @"_ZN4core3ptr7mut_ptr31_$LT$impl$u20$$BP$mut$u20$T$GT$7is_null17h67a2b789b5576a04E"(ptr %_4) #7
  br i1 %_3, label %bb5, label %bb4

panic1:                                           ; preds = %bb8
; call core::panicking::panic_null_pointer_dereference
  call void @_ZN4core9panicking30panic_null_pointer_dereference17hf718fcc86a223baaE(ptr align 8 @alloc_d844298e14d266042d4cd7096d285036) #6
  unreachable

bb4:                                              ; preds = %bb9
  %_11 = ptrtoint ptr %Q to i64
  %_14 = and i64 %_11, 7
  %_15 = icmp eq i64 %_14, 0
  br i1 %_15, label %bb7, label %panic2

bb5:                                              ; preds = %bb10, %bb9
  call void @free(ptr %Q) #7
  br label %bb6

bb7:                                              ; preds = %bb4
  %_30 = ptrtoint ptr %Q to i64
  %_33 = icmp eq i64 %_30, 0
  %_34 = and i1 %_33, true
  %_35 = xor i1 %_34, true
  br i1 %_35, label %bb10, label %panic3

panic2:                                           ; preds = %bb4
; call core::panicking::panic_misaligned_pointer_dereference
  call void @_ZN4core9panicking36panic_misaligned_pointer_dereference17hcc3cbded9382b6e5E(i64 8, i64 %_11, ptr align 8 @alloc_98ce9c457ab26d39adadf8b75ee96f30) #6
  unreachable

bb10:                                             ; preds = %bb7
  %1 = getelementptr inbounds i8, ptr %Q, i64 16
  %_7 = load ptr, ptr %1, align 8
  call void @free(ptr %_7) #7
  br label %bb5

panic3:                                           ; preds = %bb7
; call core::panicking::panic_null_pointer_dereference
  call void @_ZN4core9panicking30panic_null_pointer_dereference17hf718fcc86a223baaE(ptr align 8 @alloc_98ce9c457ab26d39adadf8b75ee96f30) #6
  unreachable
}

; Function Attrs: nounwind nonlazybind
define void @reverseQueue(ptr %Q) unnamed_addr #2 {
start:
  %S = call ptr @createStack(i32 5) #7
  br label %bb1

bb1:                                              ; preds = %bb3, %start
  %_3 = call i32 @isEmptyQueue(ptr %Q) #7
  %0 = icmp eq i32 %_3, 0
  br i1 %0, label %bb3, label %bb5

bb3:                                              ; preds = %bb1
  %_5 = call i32 @dequeue(ptr %Q) #7
  call void @push(ptr %S, i32 %_5) #7
  br label %bb1

bb5:                                              ; preds = %bb7, %bb1
  %_6 = call i32 @isEmptyStack(ptr %S) #7
  %1 = icmp eq i32 %_6, 0
  br i1 %1, label %bb7, label %bb9

bb7:                                              ; preds = %bb5
  %_8 = call i32 @pop(ptr %S) #7
  call void @enqueue(ptr %Q, i32 %_8) #7
  br label %bb5

bb9:                                              ; preds = %bb5
  ret void
}

; Function Attrs: nocallback nofree nosync nounwind speculatable willreturn memory(none)
declare { i64, i1 } @llvm.smul.with.overflow.i64(i64, i64) #3

; Function Attrs: nocallback nofree nosync nounwind speculatable willreturn memory(none)
declare { i64, i1 } @llvm.uadd.with.overflow.i64(i64, i64) #3

; core::panicking::panic_nounwind
; Function Attrs: cold noinline noreturn nounwind nonlazybind
declare void @_ZN4core9panicking14panic_nounwind17h211d9ce8d63f12e7E(ptr align 1, i64) unnamed_addr #4

; Function Attrs: nounwind nonlazybind
declare ptr @malloc(i64) unnamed_addr #2

; core::panicking::panic_misaligned_pointer_dereference
; Function Attrs: cold minsize noinline noreturn nounwind nonlazybind optsize
declare void @_ZN4core9panicking36panic_misaligned_pointer_dereference17hcc3cbded9382b6e5E(i64, i64, ptr align 8) unnamed_addr #5

; core::panicking::panic_null_pointer_dereference
; Function Attrs: cold minsize noinline noreturn nounwind nonlazybind optsize
declare void @_ZN4core9panicking30panic_null_pointer_dereference17hf718fcc86a223baaE(ptr align 8) unnamed_addr #5

; Function Attrs: nounwind nonlazybind
declare ptr @realloc(ptr, i64) unnamed_addr #2

; Function Attrs: nounwind nonlazybind
declare i32 @printf(ptr, ...) unnamed_addr #2

; Function Attrs: nounwind nonlazybind
declare void @free(ptr) unnamed_addr #2

; core::panicking::panic_const::panic_const_rem_by_zero
; Function Attrs: cold noinline noreturn nounwind nonlazybind
declare void @_ZN4core9panicking11panic_const23panic_const_rem_by_zero17h8cc4f221597e73ceE(ptr align 8) unnamed_addr #4

; core::panicking::panic_const::panic_const_rem_overflow
; Function Attrs: cold noinline noreturn nounwind nonlazybind
declare void @_ZN4core9panicking11panic_const24panic_const_rem_overflow17h799fde26ff2294a6E(ptr align 8) unnamed_addr #4

attributes #0 = { cold nounwind nonlazybind "probe-stack"="inline-asm" "target-cpu"="x86-64" }
attributes #1 = { inlinehint nounwind nonlazybind "probe-stack"="inline-asm" "target-cpu"="x86-64" }
attributes #2 = { nounwind nonlazybind "probe-stack"="inline-asm" "target-cpu"="x86-64" }
attributes #3 = { nocallback nofree nosync nounwind speculatable willreturn memory(none) }
attributes #4 = { cold noinline noreturn nounwind nonlazybind "probe-stack"="inline-asm" "target-cpu"="x86-64" }
attributes #5 = { cold minsize noinline noreturn nounwind nonlazybind optsize "probe-stack"="inline-asm" "target-cpu"="x86-64" }
attributes #6 = { noreturn nounwind }
attributes #7 = { nounwind }

!llvm.module.flags = !{!0, !1}
!llvm.ident = !{!2}

!0 = !{i32 8, !"PIC Level", i32 2}
!1 = !{i32 2, !"RtLibUseGOT", i32 1}
!2 = !{!"rustc version 1.88.0-nightly (0b45675cf 2025-03-31)"}
