; ModuleID = '6gc9t2ee5kijxx34wsbwowohk'
source_filename = "6gc9t2ee5kijxx34wsbwowohk"
target datalayout = "e-m:e-p270:32:32-p271:32:32-p272:64:64-i64:64-i128:128-f80:128-n8:16:32:64-S128"
target triple = "x86_64-unknown-linux-gnu"

@alloc_0ed0763d8bf93ac79247e07858374e35 = private unnamed_addr constant [210 x i8] c"unsafe precondition(s) violated: ptr::offset requires the address calculation to not overflow\0A\0AThis indicates a bug in the program. This Undefined Behavior check is optional, and cannot be relied on for safety.", align 1
@alloc_f5ffd2fd1476bab43ad89fb40c72d0c5 = private unnamed_addr constant [10 x i8] c"src/lib.rs", align 1
@alloc_b88e51dd48bed7e7836045b7d503c26f = private unnamed_addr constant <{ ptr, [16 x i8] }> <{ ptr @alloc_f5ffd2fd1476bab43ad89fb40c72d0c5, [16 x i8] c"\0A\00\00\00\00\00\00\006\00\00\00\05\00\00\00" }>, align 8
@alloc_00e94dd8e07ae97896c26b46f43cbda2 = private unnamed_addr constant <{ ptr, [16 x i8] }> <{ ptr @alloc_f5ffd2fd1476bab43ad89fb40c72d0c5, [16 x i8] c"\0A\00\00\00\00\00\00\007\00\00\00\05\00\00\00" }>, align 8
@alloc_859afd81244cfff9aced509fc6c15667 = private unnamed_addr constant <{ ptr, [16 x i8] }> <{ ptr @alloc_f5ffd2fd1476bab43ad89fb40c72d0c5, [16 x i8] c"\0A\00\00\00\00\00\00\00<\00\00\00\0D\00\00\00" }>, align 8
@alloc_143b2744d111380641628c34d59209bd = private unnamed_addr constant <{ ptr, [16 x i8] }> <{ ptr @alloc_f5ffd2fd1476bab43ad89fb40c72d0c5, [16 x i8] c"\0A\00\00\00\00\00\00\00=\00\00\00\0D\00\00\00" }>, align 8
@alloc_06f49bf38c72163b338c1bbf4e80b803 = private unnamed_addr constant <{ ptr, [16 x i8] }> <{ ptr @alloc_f5ffd2fd1476bab43ad89fb40c72d0c5, [16 x i8] c"\0A\00\00\00\00\00\00\00H\00\00\006\00\00\00" }>, align 8
@alloc_853b153dfbb154a4b9cf5a047812cc3c = private unnamed_addr constant <{ ptr, [16 x i8] }> <{ ptr @alloc_f5ffd2fd1476bab43ad89fb40c72d0c5, [16 x i8] c"\0A\00\00\00\00\00\00\00H\00\00\00\10\00\00\00" }>, align 8
@alloc_df86e900c94cc1f649585c8cd53247f2 = private unnamed_addr constant <{ ptr, [16 x i8] }> <{ ptr @alloc_f5ffd2fd1476bab43ad89fb40c72d0c5, [16 x i8] c"\0A\00\00\00\00\00\00\00H\00\00\00\05\00\00\00" }>, align 8
@alloc_00c3c8ceacd34145eac11e98c41e522a = private unnamed_addr constant <{ ptr, [16 x i8] }> <{ ptr @alloc_f5ffd2fd1476bab43ad89fb40c72d0c5, [16 x i8] c"\0A\00\00\00\00\00\00\00H\00\00\00\22\00\00\00" }>, align 8
@alloc_503c900e7c024fac3ff7d22684ec02cc = private unnamed_addr constant <{ ptr, [16 x i8] }> <{ ptr @alloc_f5ffd2fd1476bab43ad89fb40c72d0c5, [16 x i8] c"\0A\00\00\00\00\00\00\00I\00\00\006\00\00\00" }>, align 8
@alloc_9a7d429c7defc293aacb37abfea1810c = private unnamed_addr constant <{ ptr, [16 x i8] }> <{ ptr @alloc_f5ffd2fd1476bab43ad89fb40c72d0c5, [16 x i8] c"\0A\00\00\00\00\00\00\00I\00\00\00\10\00\00\00" }>, align 8
@alloc_5e508f8b25e8846369e349f2be531966 = private unnamed_addr constant <{ ptr, [16 x i8] }> <{ ptr @alloc_f5ffd2fd1476bab43ad89fb40c72d0c5, [16 x i8] c"\0A\00\00\00\00\00\00\00I\00\00\00\05\00\00\00" }>, align 8
@alloc_e1b19ba8caf0e15e394f00d66ade99d3 = private unnamed_addr constant <{ ptr, [16 x i8] }> <{ ptr @alloc_f5ffd2fd1476bab43ad89fb40c72d0c5, [16 x i8] c"\0A\00\00\00\00\00\00\00I\00\00\00\22\00\00\00" }>, align 8
@alloc_1416f708b5c78e1c6dd3a09a7e38a1a1 = private unnamed_addr constant <{ ptr, [16 x i8] }> <{ ptr @alloc_f5ffd2fd1476bab43ad89fb40c72d0c5, [16 x i8] c"\0A\00\00\00\00\00\00\00J\00\00\006\00\00\00" }>, align 8
@alloc_b566841f6ab2887509191813c809c500 = private unnamed_addr constant <{ ptr, [16 x i8] }> <{ ptr @alloc_f5ffd2fd1476bab43ad89fb40c72d0c5, [16 x i8] c"\0A\00\00\00\00\00\00\00J\00\00\00\10\00\00\00" }>, align 8
@alloc_2b741aa80e9bacc62157d48afd5adfbd = private unnamed_addr constant <{ ptr, [16 x i8] }> <{ ptr @alloc_f5ffd2fd1476bab43ad89fb40c72d0c5, [16 x i8] c"\0A\00\00\00\00\00\00\00J\00\00\00\05\00\00\00" }>, align 8
@alloc_f395d6e6b627219d0d21aa0beb72abe6 = private unnamed_addr constant <{ ptr, [16 x i8] }> <{ ptr @alloc_f5ffd2fd1476bab43ad89fb40c72d0c5, [16 x i8] c"\0A\00\00\00\00\00\00\00J\00\00\00\22\00\00\00" }>, align 8
@alloc_320fe18de09733729559dc83cb8937bd = private unnamed_addr constant <{ ptr, [16 x i8] }> <{ ptr @alloc_f5ffd2fd1476bab43ad89fb40c72d0c5, [16 x i8] c"\0A\00\00\00\00\00\00\00K\00\00\006\00\00\00" }>, align 8
@alloc_4509b9608e0303d58eaf5c5ff024cd54 = private unnamed_addr constant <{ ptr, [16 x i8] }> <{ ptr @alloc_f5ffd2fd1476bab43ad89fb40c72d0c5, [16 x i8] c"\0A\00\00\00\00\00\00\00K\00\00\00\10\00\00\00" }>, align 8
@alloc_2efa6fb076c65f88b785c700efd47dae = private unnamed_addr constant <{ ptr, [16 x i8] }> <{ ptr @alloc_f5ffd2fd1476bab43ad89fb40c72d0c5, [16 x i8] c"\0A\00\00\00\00\00\00\00K\00\00\00\05\00\00\00" }>, align 8
@alloc_f26be3c492622fd7cd955ba98140b32a = private unnamed_addr constant <{ ptr, [16 x i8] }> <{ ptr @alloc_f5ffd2fd1476bab43ad89fb40c72d0c5, [16 x i8] c"\0A\00\00\00\00\00\00\00K\00\00\00\22\00\00\00" }>, align 8
@alloc_e3c24b4ee49629dfaca98d015979b7db = private unnamed_addr constant <{ ptr, [16 x i8] }> <{ ptr @alloc_f5ffd2fd1476bab43ad89fb40c72d0c5, [16 x i8] c"\0A\00\00\00\00\00\00\00V\00\00\00\08\00\00\00" }>, align 8
@alloc_5229c754fb845d4121710ddbd43fd8a1 = private unnamed_addr constant <{ ptr, [16 x i8] }> <{ ptr @alloc_f5ffd2fd1476bab43ad89fb40c72d0c5, [16 x i8] c"\0A\00\00\00\00\00\00\00Y\00\00\00\13\00\00\00" }>, align 8
@alloc_cb3bfc090c902886f9962c39f8ea8c9b = private unnamed_addr constant [12 x i8] c"%d %d %d %d\00", align 1
@alloc_489a48bc84d2e053da66b576cb914066 = private unnamed_addr constant <{ ptr, [16 x i8] }> <{ ptr @alloc_f5ffd2fd1476bab43ad89fb40c72d0c5, [16 x i8] c"\0A\00\00\00\00\00\00\00\\\00\00\00\11\00\00\00" }>, align 8
@alloc_4fae59f8ccd68b09c36eb39b98705e1e = private unnamed_addr constant <{ ptr, [16 x i8] }> <{ ptr @alloc_f5ffd2fd1476bab43ad89fb40c72d0c5, [16 x i8] c"\0A\00\00\00\00\00\00\00]\00\00\00\11\00\00\00" }>, align 8
@alloc_505dca348bd2cf8e27af0ec399223840 = private unnamed_addr constant <{ ptr, [16 x i8] }> <{ ptr @alloc_f5ffd2fd1476bab43ad89fb40c72d0c5, [16 x i8] c"\0A\00\00\00\00\00\00\00^\00\00\00\11\00\00\00" }>, align 8
@alloc_bce2b13cdd398721617e78cd127e6d87 = private unnamed_addr constant <{ ptr, [16 x i8] }> <{ ptr @alloc_f5ffd2fd1476bab43ad89fb40c72d0c5, [16 x i8] c"\0A\00\00\00\00\00\00\00_\00\00\00\11\00\00\00" }>, align 8
@alloc_407561b11479a121bdd158a13c534a3b = private unnamed_addr constant <{ ptr, [16 x i8] }> <{ ptr @alloc_f5ffd2fd1476bab43ad89fb40c72d0c5, [16 x i8] c"\0A\00\00\00\00\00\00\00r\00\00\00\0F\00\00\00" }>, align 8
@alloc_ff203da3b0efb98db6cb29b095b46937 = private unnamed_addr constant <{ ptr, [16 x i8] }> <{ ptr @alloc_f5ffd2fd1476bab43ad89fb40c72d0c5, [16 x i8] c"\0A\00\00\00\00\00\00\00s\00\00\00\0C\00\00\00" }>, align 8
@alloc_b9fd4919d369efae790d15dc74509a6b = private unnamed_addr constant <{ ptr, [16 x i8] }> <{ ptr @alloc_f5ffd2fd1476bab43ad89fb40c72d0c5, [16 x i8] c"\0A\00\00\00\00\00\00\00t\00\00\00\10\00\00\00" }>, align 8
@alloc_247c911735269da57fe95cdc3d90731f = private unnamed_addr constant <{ ptr, [16 x i8] }> <{ ptr @alloc_f5ffd2fd1476bab43ad89fb40c72d0c5, [16 x i8] c"\0A\00\00\00\00\00\00\00v\00\00\00\17\00\00\00" }>, align 8
@alloc_17830476b848f2ad96d6edc6079129aa = private unnamed_addr constant <{ ptr, [16 x i8] }> <{ ptr @alloc_f5ffd2fd1476bab43ad89fb40c72d0c5, [16 x i8] c"\0A\00\00\00\00\00\00\00\8A\00\00\00\0F\00\00\00" }>, align 8
@alloc_c2060865273d9b869f07d91e807a15b7 = private unnamed_addr constant <{ ptr, [16 x i8] }> <{ ptr @alloc_f5ffd2fd1476bab43ad89fb40c72d0c5, [16 x i8] c"\0A\00\00\00\00\00\00\00\96\00\00\00\05\00\00\00" }>, align 8
@alloc_4ffbbd574551373046b2bd0490b394e4 = private unnamed_addr constant <{ ptr, [16 x i8] }> <{ ptr @alloc_f5ffd2fd1476bab43ad89fb40c72d0c5, [16 x i8] c"\0A\00\00\00\00\00\00\00\97\00\00\00\05\00\00\00" }>, align 8
@alloc_2db839b4d147b88485591c5637ed0c40 = private unnamed_addr constant <{ ptr, [16 x i8] }> <{ ptr @alloc_f5ffd2fd1476bab43ad89fb40c72d0c5, [16 x i8] c"\0A\00\00\00\00\00\00\00\98\00\00\00\05\00\00\00" }>, align 8
@alloc_0a46e4c4b57d7d0348e4d3e2fbb0ba8b = private unnamed_addr constant <{ ptr, [16 x i8] }> <{ ptr @alloc_f5ffd2fd1476bab43ad89fb40c72d0c5, [16 x i8] c"\0A\00\00\00\00\00\00\00\9E\00\00\00\09\00\00\00" }>, align 8
@alloc_341298e4038f64bcc851842dd1f94fc3 = private unnamed_addr constant <{ ptr, [16 x i8] }> <{ ptr @alloc_f5ffd2fd1476bab43ad89fb40c72d0c5, [16 x i8] c"\0A\00\00\00\00\00\00\00\A0\00\00\00\13\00\00\00" }>, align 8
@alloc_145b14f19af0bbf5ee5f26683e26e41d = private unnamed_addr constant <{ ptr, [16 x i8] }> <{ ptr @alloc_f5ffd2fd1476bab43ad89fb40c72d0c5, [16 x i8] c"\0A\00\00\00\00\00\00\00\A1\00\00\00\10\00\00\00" }>, align 8
@alloc_5ad32415855874c5f90ccd9d99b8fcc9 = private unnamed_addr constant <{ ptr, [16 x i8] }> <{ ptr @alloc_f5ffd2fd1476bab43ad89fb40c72d0c5, [16 x i8] c"\0A\00\00\00\00\00\00\00\A2\00\00\00\14\00\00\00" }>, align 8
@alloc_02fc3f8657657a692896d90dd59b87eb = private unnamed_addr constant <{ ptr, [16 x i8] }> <{ ptr @alloc_f5ffd2fd1476bab43ad89fb40c72d0c5, [16 x i8] c"\0A\00\00\00\00\00\00\00\A4\00\00\00\14\00\00\00" }>, align 8
@alloc_3fd120d304eaa2706f04b1bc7b4ce0cb = private unnamed_addr constant <{ ptr, [16 x i8] }> <{ ptr @alloc_f5ffd2fd1476bab43ad89fb40c72d0c5, [16 x i8] c"\0A\00\00\00\00\00\00\00\A7\00\00\00\14\00\00\00" }>, align 8
@alloc_a8f5a83592aa4bb7b08c560a3de1974d = private unnamed_addr constant <{ ptr, [16 x i8] }> <{ ptr @alloc_f5ffd2fd1476bab43ad89fb40c72d0c5, [16 x i8] c"\0A\00\00\00\00\00\00\00\A7\00\00\00/\00\00\00" }>, align 8
@alloc_14c10b38c9cbd6e0d1fb6bb35d6ac0c5 = private unnamed_addr constant <{ ptr, [16 x i8] }> <{ ptr @alloc_f5ffd2fd1476bab43ad89fb40c72d0c5, [16 x i8] c"\0A\00\00\00\00\00\00\00\A8\00\00\00\17\00\00\00" }>, align 8
@alloc_f1a60668692d155f09ae0c11282e89e3 = private unnamed_addr constant <{ ptr, [16 x i8] }> <{ ptr @alloc_f5ffd2fd1476bab43ad89fb40c72d0c5, [16 x i8] c"\0A\00\00\00\00\00\00\00\B5\00\00\00\1B\00\00\00" }>, align 8
@alloc_d9ceb18bd68d6e43eafbfe5e77dcbdf2 = private unnamed_addr constant <{ ptr, [16 x i8] }> <{ ptr @alloc_f5ffd2fd1476bab43ad89fb40c72d0c5, [16 x i8] c"\0A\00\00\00\00\00\00\00\B5\00\00\006\00\00\00" }>, align 8
@alloc_98309aad31aa24861595ee136e707c76 = private unnamed_addr constant <{ ptr, [16 x i8] }> <{ ptr @alloc_f5ffd2fd1476bab43ad89fb40c72d0c5, [16 x i8] c"\0A\00\00\00\00\00\00\00\B6\00\00\00\18\00\00\00" }>, align 8
@alloc_a6d47eeef6b04f29e1410ef554c2d5b4 = private unnamed_addr constant <{ ptr, [16 x i8] }> <{ ptr @alloc_f5ffd2fd1476bab43ad89fb40c72d0c5, [16 x i8] c"\0A\00\00\00\00\00\00\00\B7\00\00\00\18\00\00\00" }>, align 8
@alloc_ce2604fe07d1413acd5e8e691a013312 = private unnamed_addr constant <{ ptr, [16 x i8] }> <{ ptr @alloc_f5ffd2fd1476bab43ad89fb40c72d0c5, [16 x i8] c"\0A\00\00\00\00\00\00\00\B7\00\00\003\00\00\00" }>, align 8
@alloc_c8fb1f718d6b41c309e6b2bdf3e062ac = private unnamed_addr constant <{ ptr, [16 x i8] }> <{ ptr @alloc_f5ffd2fd1476bab43ad89fb40c72d0c5, [16 x i8] c"\0A\00\00\00\00\00\00\00\B8\00\00\00\1B\00\00\00" }>, align 8
@alloc_87681ee2f9026fcdbf484b702285d265 = private unnamed_addr constant <{ ptr, [16 x i8] }> <{ ptr @alloc_f5ffd2fd1476bab43ad89fb40c72d0c5, [16 x i8] c"\0A\00\00\00\00\00\00\00\BD\00\00\00\1D\00\00\00" }>, align 8
@alloc_f43af4b6d3da5ba97177245403ecee8e = private unnamed_addr constant <{ ptr, [16 x i8] }> <{ ptr @alloc_f5ffd2fd1476bab43ad89fb40c72d0c5, [16 x i8] c"\0A\00\00\00\00\00\00\00\BE\00\00\00\1B\00\00\00" }>, align 8
@alloc_759e39e1a053793936f024319dc7984d = private unnamed_addr constant <{ ptr, [16 x i8] }> <{ ptr @alloc_f5ffd2fd1476bab43ad89fb40c72d0c5, [16 x i8] c"\0A\00\00\00\00\00\00\00\BA\00\00\00\15\00\00\00" }>, align 8
@alloc_80a3549bee93b568aab9bade953aaf20 = private unnamed_addr constant <{ ptr, [16 x i8] }> <{ ptr @alloc_f5ffd2fd1476bab43ad89fb40c72d0c5, [16 x i8] c"\0A\00\00\00\00\00\00\00\BF\00\00\00\15\00\00\00" }>, align 8
@alloc_e07acb0d0ace4e6b0fe3f4c416629301 = private unnamed_addr constant <{ ptr, [16 x i8] }> <{ ptr @alloc_f5ffd2fd1476bab43ad89fb40c72d0c5, [16 x i8] c"\0A\00\00\00\00\00\00\00\AD\00\00\00\1D\00\00\00" }>, align 8
@alloc_d84ee36122004c64be02490bd45c3bdf = private unnamed_addr constant <{ ptr, [16 x i8] }> <{ ptr @alloc_f5ffd2fd1476bab43ad89fb40c72d0c5, [16 x i8] c"\0A\00\00\00\00\00\00\00\AE\00\00\00\1B\00\00\00" }>, align 8
@alloc_933c06068ab12148f2be0acaf0efb190 = private unnamed_addr constant <{ ptr, [16 x i8] }> <{ ptr @alloc_f5ffd2fd1476bab43ad89fb40c72d0c5, [16 x i8] c"\0A\00\00\00\00\00\00\00\AA\00\00\00\15\00\00\00" }>, align 8
@alloc_a2094594ca5ddceace21a23b96082331 = private unnamed_addr constant <{ ptr, [16 x i8] }> <{ ptr @alloc_f5ffd2fd1476bab43ad89fb40c72d0c5, [16 x i8] c"\0A\00\00\00\00\00\00\00\AF\00\00\00\15\00\00\00" }>, align 8
@alloc_fd5c85a665c9ef685d4e4715cc3f994d = private unnamed_addr constant <{ ptr, [16 x i8] }> <{ ptr @alloc_f5ffd2fd1476bab43ad89fb40c72d0c5, [16 x i8] c"\0A\00\00\00\00\00\00\00\B3\00\00\00\1D\00\00\00" }>, align 8
@alloc_97a175f2a3d70cf29fb9dede01aed764 = private unnamed_addr constant <{ ptr, [16 x i8] }> <{ ptr @alloc_f5ffd2fd1476bab43ad89fb40c72d0c5, [16 x i8] c"\0A\00\00\00\00\00\00\00\B4\00\00\00\1B\00\00\00" }>, align 8
@alloc_d81142645b6e6ffe5af1088ce1e8d26e = private unnamed_addr constant <{ ptr, [16 x i8] }> <{ ptr @alloc_f5ffd2fd1476bab43ad89fb40c72d0c5, [16 x i8] c"\0A\00\00\00\00\00\00\00\B0\00\00\00\15\00\00\00" }>, align 8
@alloc_374b3f3fd546c11a484ed19f7c47bbbe = private unnamed_addr constant <{ ptr, [16 x i8] }> <{ ptr @alloc_f5ffd2fd1476bab43ad89fb40c72d0c5, [16 x i8] c"\0A\00\00\00\00\00\00\00\8B\00\00\00$\00\00\00" }>, align 8
@alloc_847817f60a835e11a29d83b54122ef92 = private unnamed_addr constant <{ ptr, [16 x i8] }> <{ ptr @alloc_f5ffd2fd1476bab43ad89fb40c72d0c5, [16 x i8] c"\0A\00\00\00\00\00\00\00\8B\00\00\00\09\00\00\00" }>, align 8
@alloc_e846f27ef6722564a60b5568e47789c6 = private unnamed_addr constant <{ ptr, [16 x i8] }> <{ ptr @alloc_f5ffd2fd1476bab43ad89fb40c72d0c5, [16 x i8] c"\0A\00\00\00\00\00\00\00\8C\00\00\00$\00\00\00" }>, align 8
@alloc_51defa837211d00b128e9b5e60ecda6b = private unnamed_addr constant <{ ptr, [16 x i8] }> <{ ptr @alloc_f5ffd2fd1476bab43ad89fb40c72d0c5, [16 x i8] c"\0A\00\00\00\00\00\00\00\8C\00\00\00\09\00\00\00" }>, align 8
@alloc_8ab490a61e5094234e20afca7467eaf8 = private unnamed_addr constant <{ ptr, [16 x i8] }> <{ ptr @alloc_f5ffd2fd1476bab43ad89fb40c72d0c5, [16 x i8] c"\0A\00\00\00\00\00\00\00\8D\00\00\00\0C\00\00\00" }>, align 8
@alloc_6d1f9d876bb4fa79d54a252d895f9e60 = private unnamed_addr constant <{ ptr, [16 x i8] }> <{ ptr @alloc_f5ffd2fd1476bab43ad89fb40c72d0c5, [16 x i8] c"\0A\00\00\00\00\00\00\00\90\00\00\00\0D\00\00\00" }>, align 8
@alloc_9b3efb0ac0fcae4b8e0bff7891c4f8e6 = private unnamed_addr constant <{ ptr, [16 x i8] }> <{ ptr @alloc_f5ffd2fd1476bab43ad89fb40c72d0c5, [16 x i8] c"\0A\00\00\00\00\00\00\00\8E\00\00\00\0D\00\00\00" }>, align 8
@alloc_9cce0dc1affe2430c480bbe2ea11d9ec = private unnamed_addr constant <{ ptr, [16 x i8] }> <{ ptr @alloc_f5ffd2fd1476bab43ad89fb40c72d0c5, [16 x i8] c"\0A\00\00\00\00\00\00\00\92\00\00\00\09\00\00\00" }>, align 8

; core::intrinsics::cold_path
; Function Attrs: cold nounwind nonlazybind
define internal void @_ZN4core10intrinsics9cold_path17hf0f109720a02272aE() unnamed_addr #0 {
start:
  ret void
}

; core::ptr::mut_ptr::<impl *mut T>::offset::precondition_check
; Function Attrs: inlinehint nounwind nonlazybind
define internal void @"_ZN4core3ptr7mut_ptr31_$LT$impl$u20$$BP$mut$u20$T$GT$6offset18precondition_check17h35b02de5ef1061c5E"(ptr %this, i64 %count, i64 %size) unnamed_addr #1 {
start:
  %0 = call { i64, i1 } @llvm.smul.with.overflow.i64(i64 %count, i64 %size)
  %_10.0 = extractvalue { i64, i1 } %0, 0
  %_10.1 = extractvalue { i64, i1 } %0, 1
  br i1 %_10.1, label %bb3, label %bb5

bb5:                                              ; preds = %start
  %self = ptrtoint ptr %this to i64
  %1 = call { i64, i1 } @llvm.uadd.with.overflow.i64(i64 %self, i64 %_10.0)
  %_19.0 = extractvalue { i64, i1 } %1, 0
  %_19.1 = extractvalue { i64, i1 } %1, 1
  %_17 = icmp slt i64 %_10.0, 0
  %overflow = xor i1 %_19.1, %_17
  %_4 = xor i1 %overflow, true
  br i1 %_4, label %bb1, label %bb2

bb3:                                              ; preds = %start
  br label %bb2

bb2:                                              ; preds = %bb3, %bb5
; call core::panicking::panic_nounwind
  call void @_ZN4core9panicking14panic_nounwind17h211d9ce8d63f12e7E(ptr align 1 @alloc_0ed0763d8bf93ac79247e07858374e35, i64 210) #7
  unreachable

bb1:                                              ; preds = %bb5
  ret void
}

; Function Attrs: nounwind nonlazybind
define ptr @CreateGraph(i32 %VertexNum, i32 %EdgeNum) unnamed_addr #2 {
start:
  %w = alloca [4 x i8], align 4
  %v = alloca [4 x i8], align 4
  %Graph = alloca [8 x i8], align 8
  store ptr null, ptr %Graph, align 8
  store i32 0, ptr %v, align 4
  store i32 0, ptr %w, align 4
  %_6 = call ptr @malloc(i64 2008016) #8
  store ptr %_6, ptr %Graph, align 8
  %_43 = load ptr, ptr %Graph, align 8
  %_44 = ptrtoint ptr %_43 to i64
  %_47 = and i64 %_44, 3
  %_48 = icmp eq i64 %_47, 0
  br i1 %_48, label %bb16, label %panic

bb16:                                             ; preds = %start
  %_49 = load ptr, ptr %Graph, align 8
  %_50 = ptrtoint ptr %_49 to i64
  %_53 = icmp eq i64 %_50, 0
  %_54 = and i1 %_53, true
  %_55 = xor i1 %_54, true
  br i1 %_55, label %bb17, label %panic1

panic:                                            ; preds = %start
; call core::panicking::panic_misaligned_pointer_dereference
  call void @_ZN4core9panicking36panic_misaligned_pointer_dereference17hcc3cbded9382b6e5E(i64 4, i64 %_44, ptr align 8 @alloc_b88e51dd48bed7e7836045b7d503c26f) #7
  unreachable

bb17:                                             ; preds = %bb16
  %0 = load ptr, ptr %Graph, align 8
  store i32 %VertexNum, ptr %0, align 4
  %_37 = load ptr, ptr %Graph, align 8
  %_38 = ptrtoint ptr %_37 to i64
  %_41 = and i64 %_38, 3
  %_42 = icmp eq i64 %_41, 0
  br i1 %_42, label %bb15, label %panic2

panic1:                                           ; preds = %bb16
; call core::panicking::panic_null_pointer_dereference
  call void @_ZN4core9panicking30panic_null_pointer_dereference17hf718fcc86a223baaE(ptr align 8 @alloc_b88e51dd48bed7e7836045b7d503c26f) #7
  unreachable

bb15:                                             ; preds = %bb17
  %_56 = load ptr, ptr %Graph, align 8
  %_57 = ptrtoint ptr %_56 to i64
  %_60 = icmp eq i64 %_57, 0
  %_61 = and i1 %_60, true
  %_62 = xor i1 %_61, true
  br i1 %_62, label %bb18, label %panic3

panic2:                                           ; preds = %bb17
; call core::panicking::panic_misaligned_pointer_dereference
  call void @_ZN4core9panicking36panic_misaligned_pointer_dereference17hcc3cbded9382b6e5E(i64 4, i64 %_38, ptr align 8 @alloc_00e94dd8e07ae97896c26b46f43cbda2) #7
  unreachable

bb18:                                             ; preds = %bb15
  %1 = load ptr, ptr %Graph, align 8
  %2 = getelementptr inbounds i8, ptr %1, i64 4
  store i32 %EdgeNum, ptr %2, align 4
  store i32 0, ptr %v, align 4
  br label %bb3

panic3:                                           ; preds = %bb15
; call core::panicking::panic_null_pointer_dereference
  call void @_ZN4core9panicking30panic_null_pointer_dereference17hf718fcc86a223baaE(ptr align 8 @alloc_00e94dd8e07ae97896c26b46f43cbda2) #7
  unreachable

bb3:                                              ; preds = %bb11, %bb18
  %_10 = load i32, ptr %v, align 4
  %_9 = icmp slt i32 %_10, %VertexNum
  br i1 %_9, label %bb4, label %bb12

bb12:                                             ; preds = %bb3
  %_0 = load ptr, ptr %Graph, align 8
  ret ptr %_0

bb4:                                              ; preds = %bb3
  store i32 0, ptr %w, align 4
  br label %bb5

bb5:                                              ; preds = %bb20, %bb4
  %_12 = load i32, ptr %w, align 4
  %_11 = icmp slt i32 %_12, %VertexNum
  br i1 %_11, label %bb6, label %bb11

bb11:                                             ; preds = %bb5
  %3 = load i32, ptr %v, align 4
  %4 = add i32 %3, 1
  store i32 %4, ptr %v, align 4
  br label %bb3

bb6:                                              ; preds = %bb5
  %_14 = load i32, ptr %v, align 4
  %_13 = sext i32 %_14 to i64
  %_15 = icmp ult i64 %_13, 501
  br i1 %_15, label %bb7, label %panic4

bb7:                                              ; preds = %bb6
  %_17 = load i32, ptr %w, align 4
  %_16 = sext i32 %_17 to i64
  %_18 = icmp ult i64 %_16, 501
  br i1 %_18, label %bb8, label %panic5

panic4:                                           ; preds = %bb6
; call core::panicking::panic_bounds_check
  call void @_ZN4core9panicking18panic_bounds_check17h27d1e4f0cb1112dfE(i64 %_13, i64 501, ptr align 8 @alloc_859afd81244cfff9aced509fc6c15667) #7
  unreachable

bb8:                                              ; preds = %bb7
  %_31 = load ptr, ptr %Graph, align 8
  %_32 = ptrtoint ptr %_31 to i64
  %_35 = and i64 %_32, 3
  %_36 = icmp eq i64 %_35, 0
  br i1 %_36, label %bb14, label %panic6

panic5:                                           ; preds = %bb7
; call core::panicking::panic_bounds_check
  call void @_ZN4core9panicking18panic_bounds_check17h27d1e4f0cb1112dfE(i64 %_16, i64 501, ptr align 8 @alloc_859afd81244cfff9aced509fc6c15667) #7
  unreachable

bb14:                                             ; preds = %bb8
  %_63 = load ptr, ptr %Graph, align 8
  %_64 = ptrtoint ptr %_63 to i64
  %_67 = icmp eq i64 %_64, 0
  %_68 = and i1 %_67, true
  %_69 = xor i1 %_68, true
  br i1 %_69, label %bb19, label %panic7

panic6:                                           ; preds = %bb8
; call core::panicking::panic_misaligned_pointer_dereference
  call void @_ZN4core9panicking36panic_misaligned_pointer_dereference17hcc3cbded9382b6e5E(i64 4, i64 %_32, ptr align 8 @alloc_859afd81244cfff9aced509fc6c15667) #7
  unreachable

bb19:                                             ; preds = %bb14
  %5 = load ptr, ptr %Graph, align 8
  %6 = getelementptr inbounds i8, ptr %5, i64 8
  %7 = getelementptr inbounds nuw [501 x i32], ptr %6, i64 %_13
  %8 = getelementptr inbounds nuw i32, ptr %7, i64 %_16
  store i32 65535, ptr %8, align 4
  %_20 = load i32, ptr %v, align 4
  %_19 = sext i32 %_20 to i64
  %_21 = icmp ult i64 %_19, 501
  br i1 %_21, label %bb9, label %panic8

panic7:                                           ; preds = %bb14
; call core::panicking::panic_null_pointer_dereference
  call void @_ZN4core9panicking30panic_null_pointer_dereference17hf718fcc86a223baaE(ptr align 8 @alloc_859afd81244cfff9aced509fc6c15667) #7
  unreachable

bb9:                                              ; preds = %bb19
  %_23 = load i32, ptr %w, align 4
  %_22 = sext i32 %_23 to i64
  %_24 = icmp ult i64 %_22, 501
  br i1 %_24, label %bb10, label %panic9

panic8:                                           ; preds = %bb19
; call core::panicking::panic_bounds_check
  call void @_ZN4core9panicking18panic_bounds_check17h27d1e4f0cb1112dfE(i64 %_19, i64 501, ptr align 8 @alloc_143b2744d111380641628c34d59209bd) #7
  unreachable

bb10:                                             ; preds = %bb9
  %_25 = load ptr, ptr %Graph, align 8
  %_26 = ptrtoint ptr %_25 to i64
  %_29 = and i64 %_26, 3
  %_30 = icmp eq i64 %_29, 0
  br i1 %_30, label %bb13, label %panic10

panic9:                                           ; preds = %bb9
; call core::panicking::panic_bounds_check
  call void @_ZN4core9panicking18panic_bounds_check17h27d1e4f0cb1112dfE(i64 %_22, i64 501, ptr align 8 @alloc_143b2744d111380641628c34d59209bd) #7
  unreachable

bb13:                                             ; preds = %bb10
  %_70 = load ptr, ptr %Graph, align 8
  %_71 = ptrtoint ptr %_70 to i64
  %_74 = icmp eq i64 %_71, 0
  %_75 = and i1 %_74, true
  %_76 = xor i1 %_75, true
  br i1 %_76, label %bb20, label %panic11

panic10:                                          ; preds = %bb10
; call core::panicking::panic_misaligned_pointer_dereference
  call void @_ZN4core9panicking36panic_misaligned_pointer_dereference17hcc3cbded9382b6e5E(i64 4, i64 %_26, ptr align 8 @alloc_143b2744d111380641628c34d59209bd) #7
  unreachable

bb20:                                             ; preds = %bb13
  %9 = load ptr, ptr %Graph, align 8
  %10 = getelementptr inbounds i8, ptr %9, i64 1004012
  %11 = getelementptr inbounds nuw [501 x i32], ptr %10, i64 %_19
  %12 = getelementptr inbounds nuw i32, ptr %11, i64 %_22
  store i32 65535, ptr %12, align 4
  %13 = load i32, ptr %w, align 4
  %14 = add i32 %13, 1
  store i32 %14, ptr %w, align 4
  br label %bb5

panic11:                                          ; preds = %bb13
; call core::panicking::panic_null_pointer_dereference
  call void @_ZN4core9panicking30panic_null_pointer_dereference17hf718fcc86a223baaE(ptr align 8 @alloc_143b2744d111380641628c34d59209bd) #7
  unreachable
}

; Function Attrs: nounwind nonlazybind
define void @InsertEdge(ptr %Graph, ptr %E) unnamed_addr #2 {
start:
  %_122 = ptrtoint ptr %E to i64
  %_125 = and i64 %_122, 3
  %_126 = icmp eq i64 %_125, 0
  br i1 %_126, label %bb24, label %panic

bb24:                                             ; preds = %start
  %_128 = ptrtoint ptr %E to i64
  %_131 = icmp eq i64 %_128, 0
  %_132 = and i1 %_131, true
  %_133 = xor i1 %_132, true
  br i1 %_133, label %bb25, label %panic1

panic:                                            ; preds = %start
; call core::panicking::panic_misaligned_pointer_dereference
  call void @_ZN4core9panicking36panic_misaligned_pointer_dereference17hcc3cbded9382b6e5E(i64 4, i64 %_122, ptr align 8 @alloc_06f49bf38c72163b338c1bbf4e80b803) #7
  unreachable

bb25:                                             ; preds = %bb24
  %0 = getelementptr inbounds i8, ptr %E, i64 8
  %_3 = load i32, ptr %0, align 4
  %_116 = ptrtoint ptr %E to i64
  %_119 = and i64 %_116, 3
  %_120 = icmp eq i64 %_119, 0
  br i1 %_120, label %bb23, label %panic2

panic1:                                           ; preds = %bb24
; call core::panicking::panic_null_pointer_dereference
  call void @_ZN4core9panicking30panic_null_pointer_dereference17hf718fcc86a223baaE(ptr align 8 @alloc_06f49bf38c72163b338c1bbf4e80b803) #7
  unreachable

bb23:                                             ; preds = %bb25
  %_135 = ptrtoint ptr %E to i64
  %_138 = icmp eq i64 %_135, 0
  %_139 = and i1 %_138, true
  %_140 = xor i1 %_139, true
  br i1 %_140, label %bb26, label %panic3

panic2:                                           ; preds = %bb25
; call core::panicking::panic_misaligned_pointer_dereference
  call void @_ZN4core9panicking36panic_misaligned_pointer_dereference17hcc3cbded9382b6e5E(i64 4, i64 %_116, ptr align 8 @alloc_853b153dfbb154a4b9cf5a047812cc3c) #7
  unreachable

bb26:                                             ; preds = %bb23
  %_5 = load i32, ptr %E, align 4
  %_4 = sext i32 %_5 to i64
  %_6 = icmp ult i64 %_4, 501
  br i1 %_6, label %bb1, label %panic4

panic3:                                           ; preds = %bb23
; call core::panicking::panic_null_pointer_dereference
  call void @_ZN4core9panicking30panic_null_pointer_dereference17hf718fcc86a223baaE(ptr align 8 @alloc_853b153dfbb154a4b9cf5a047812cc3c) #7
  unreachable

bb1:                                              ; preds = %bb26
  %_110 = ptrtoint ptr %E to i64
  %_113 = and i64 %_110, 3
  %_114 = icmp eq i64 %_113, 0
  br i1 %_114, label %bb22, label %panic5

panic4:                                           ; preds = %bb26
; call core::panicking::panic_bounds_check
  call void @_ZN4core9panicking18panic_bounds_check17h27d1e4f0cb1112dfE(i64 %_4, i64 501, ptr align 8 @alloc_df86e900c94cc1f649585c8cd53247f2) #7
  unreachable

bb22:                                             ; preds = %bb1
  %_142 = ptrtoint ptr %E to i64
  %_145 = icmp eq i64 %_142, 0
  %_146 = and i1 %_145, true
  %_147 = xor i1 %_146, true
  br i1 %_147, label %bb27, label %panic6

panic5:                                           ; preds = %bb1
; call core::panicking::panic_misaligned_pointer_dereference
  call void @_ZN4core9panicking36panic_misaligned_pointer_dereference17hcc3cbded9382b6e5E(i64 4, i64 %_110, ptr align 8 @alloc_00c3c8ceacd34145eac11e98c41e522a) #7
  unreachable

bb27:                                             ; preds = %bb22
  %1 = getelementptr inbounds i8, ptr %E, i64 4
  %_8 = load i32, ptr %1, align 4
  %_7 = sext i32 %_8 to i64
  %_9 = icmp ult i64 %_7, 501
  br i1 %_9, label %bb2, label %panic7

panic6:                                           ; preds = %bb22
; call core::panicking::panic_null_pointer_dereference
  call void @_ZN4core9panicking30panic_null_pointer_dereference17hf718fcc86a223baaE(ptr align 8 @alloc_00c3c8ceacd34145eac11e98c41e522a) #7
  unreachable

bb2:                                              ; preds = %bb27
  %_104 = ptrtoint ptr %Graph to i64
  %_107 = and i64 %_104, 3
  %_108 = icmp eq i64 %_107, 0
  br i1 %_108, label %bb21, label %panic8

panic7:                                           ; preds = %bb27
; call core::panicking::panic_bounds_check
  call void @_ZN4core9panicking18panic_bounds_check17h27d1e4f0cb1112dfE(i64 %_7, i64 501, ptr align 8 @alloc_df86e900c94cc1f649585c8cd53247f2) #7
  unreachable

bb21:                                             ; preds = %bb2
  %_149 = ptrtoint ptr %Graph to i64
  %_152 = icmp eq i64 %_149, 0
  %_153 = and i1 %_152, true
  %_154 = xor i1 %_153, true
  br i1 %_154, label %bb28, label %panic9

panic8:                                           ; preds = %bb2
; call core::panicking::panic_misaligned_pointer_dereference
  call void @_ZN4core9panicking36panic_misaligned_pointer_dereference17hcc3cbded9382b6e5E(i64 4, i64 %_104, ptr align 8 @alloc_df86e900c94cc1f649585c8cd53247f2) #7
  unreachable

bb28:                                             ; preds = %bb21
  %2 = getelementptr inbounds i8, ptr %Graph, i64 8
  %3 = getelementptr inbounds nuw [501 x i32], ptr %2, i64 %_4
  %4 = getelementptr inbounds nuw i32, ptr %3, i64 %_7
  store i32 %_3, ptr %4, align 4
  %_98 = ptrtoint ptr %E to i64
  %_101 = and i64 %_98, 3
  %_102 = icmp eq i64 %_101, 0
  br i1 %_102, label %bb20, label %panic10

panic9:                                           ; preds = %bb21
; call core::panicking::panic_null_pointer_dereference
  call void @_ZN4core9panicking30panic_null_pointer_dereference17hf718fcc86a223baaE(ptr align 8 @alloc_df86e900c94cc1f649585c8cd53247f2) #7
  unreachable

bb20:                                             ; preds = %bb28
  %_156 = ptrtoint ptr %E to i64
  %_159 = icmp eq i64 %_156, 0
  %_160 = and i1 %_159, true
  %_161 = xor i1 %_160, true
  br i1 %_161, label %bb29, label %panic11

panic10:                                          ; preds = %bb28
; call core::panicking::panic_misaligned_pointer_dereference
  call void @_ZN4core9panicking36panic_misaligned_pointer_dereference17hcc3cbded9382b6e5E(i64 4, i64 %_98, ptr align 8 @alloc_503c900e7c024fac3ff7d22684ec02cc) #7
  unreachable

bb29:                                             ; preds = %bb20
  %5 = getelementptr inbounds i8, ptr %E, i64 8
  %_10 = load i32, ptr %5, align 4
  %_92 = ptrtoint ptr %E to i64
  %_95 = and i64 %_92, 3
  %_96 = icmp eq i64 %_95, 0
  br i1 %_96, label %bb19, label %panic12

panic11:                                          ; preds = %bb20
; call core::panicking::panic_null_pointer_dereference
  call void @_ZN4core9panicking30panic_null_pointer_dereference17hf718fcc86a223baaE(ptr align 8 @alloc_503c900e7c024fac3ff7d22684ec02cc) #7
  unreachable

bb19:                                             ; preds = %bb29
  %_163 = ptrtoint ptr %E to i64
  %_166 = icmp eq i64 %_163, 0
  %_167 = and i1 %_166, true
  %_168 = xor i1 %_167, true
  br i1 %_168, label %bb30, label %panic13

panic12:                                          ; preds = %bb29
; call core::panicking::panic_misaligned_pointer_dereference
  call void @_ZN4core9panicking36panic_misaligned_pointer_dereference17hcc3cbded9382b6e5E(i64 4, i64 %_92, ptr align 8 @alloc_9a7d429c7defc293aacb37abfea1810c) #7
  unreachable

bb30:                                             ; preds = %bb19
  %6 = getelementptr inbounds i8, ptr %E, i64 4
  %_12 = load i32, ptr %6, align 4
  %_11 = sext i32 %_12 to i64
  %_13 = icmp ult i64 %_11, 501
  br i1 %_13, label %bb3, label %panic14

panic13:                                          ; preds = %bb19
; call core::panicking::panic_null_pointer_dereference
  call void @_ZN4core9panicking30panic_null_pointer_dereference17hf718fcc86a223baaE(ptr align 8 @alloc_9a7d429c7defc293aacb37abfea1810c) #7
  unreachable

bb3:                                              ; preds = %bb30
  %_86 = ptrtoint ptr %E to i64
  %_89 = and i64 %_86, 3
  %_90 = icmp eq i64 %_89, 0
  br i1 %_90, label %bb18, label %panic15

panic14:                                          ; preds = %bb30
; call core::panicking::panic_bounds_check
  call void @_ZN4core9panicking18panic_bounds_check17h27d1e4f0cb1112dfE(i64 %_11, i64 501, ptr align 8 @alloc_5e508f8b25e8846369e349f2be531966) #7
  unreachable

bb18:                                             ; preds = %bb3
  %_170 = ptrtoint ptr %E to i64
  %_173 = icmp eq i64 %_170, 0
  %_174 = and i1 %_173, true
  %_175 = xor i1 %_174, true
  br i1 %_175, label %bb31, label %panic16

panic15:                                          ; preds = %bb3
; call core::panicking::panic_misaligned_pointer_dereference
  call void @_ZN4core9panicking36panic_misaligned_pointer_dereference17hcc3cbded9382b6e5E(i64 4, i64 %_86, ptr align 8 @alloc_e1b19ba8caf0e15e394f00d66ade99d3) #7
  unreachable

bb31:                                             ; preds = %bb18
  %_15 = load i32, ptr %E, align 4
  %_14 = sext i32 %_15 to i64
  %_16 = icmp ult i64 %_14, 501
  br i1 %_16, label %bb4, label %panic17

panic16:                                          ; preds = %bb18
; call core::panicking::panic_null_pointer_dereference
  call void @_ZN4core9panicking30panic_null_pointer_dereference17hf718fcc86a223baaE(ptr align 8 @alloc_e1b19ba8caf0e15e394f00d66ade99d3) #7
  unreachable

bb4:                                              ; preds = %bb31
  %_80 = ptrtoint ptr %Graph to i64
  %_83 = and i64 %_80, 3
  %_84 = icmp eq i64 %_83, 0
  br i1 %_84, label %bb17, label %panic18

panic17:                                          ; preds = %bb31
; call core::panicking::panic_bounds_check
  call void @_ZN4core9panicking18panic_bounds_check17h27d1e4f0cb1112dfE(i64 %_14, i64 501, ptr align 8 @alloc_5e508f8b25e8846369e349f2be531966) #7
  unreachable

bb17:                                             ; preds = %bb4
  %_177 = ptrtoint ptr %Graph to i64
  %_180 = icmp eq i64 %_177, 0
  %_181 = and i1 %_180, true
  %_182 = xor i1 %_181, true
  br i1 %_182, label %bb32, label %panic19

panic18:                                          ; preds = %bb4
; call core::panicking::panic_misaligned_pointer_dereference
  call void @_ZN4core9panicking36panic_misaligned_pointer_dereference17hcc3cbded9382b6e5E(i64 4, i64 %_80, ptr align 8 @alloc_5e508f8b25e8846369e349f2be531966) #7
  unreachable

bb32:                                             ; preds = %bb17
  %7 = getelementptr inbounds i8, ptr %Graph, i64 8
  %8 = getelementptr inbounds nuw [501 x i32], ptr %7, i64 %_11
  %9 = getelementptr inbounds nuw i32, ptr %8, i64 %_14
  store i32 %_10, ptr %9, align 4
  %_74 = ptrtoint ptr %E to i64
  %_77 = and i64 %_74, 3
  %_78 = icmp eq i64 %_77, 0
  br i1 %_78, label %bb16, label %panic20

panic19:                                          ; preds = %bb17
; call core::panicking::panic_null_pointer_dereference
  call void @_ZN4core9panicking30panic_null_pointer_dereference17hf718fcc86a223baaE(ptr align 8 @alloc_5e508f8b25e8846369e349f2be531966) #7
  unreachable

bb16:                                             ; preds = %bb32
  %_184 = ptrtoint ptr %E to i64
  %_187 = icmp eq i64 %_184, 0
  %_188 = and i1 %_187, true
  %_189 = xor i1 %_188, true
  br i1 %_189, label %bb33, label %panic21

panic20:                                          ; preds = %bb32
; call core::panicking::panic_misaligned_pointer_dereference
  call void @_ZN4core9panicking36panic_misaligned_pointer_dereference17hcc3cbded9382b6e5E(i64 4, i64 %_74, ptr align 8 @alloc_1416f708b5c78e1c6dd3a09a7e38a1a1) #7
  unreachable

bb33:                                             ; preds = %bb16
  %10 = getelementptr inbounds i8, ptr %E, i64 12
  %_17 = load i32, ptr %10, align 4
  %_68 = ptrtoint ptr %E to i64
  %_71 = and i64 %_68, 3
  %_72 = icmp eq i64 %_71, 0
  br i1 %_72, label %bb15, label %panic22

panic21:                                          ; preds = %bb16
; call core::panicking::panic_null_pointer_dereference
  call void @_ZN4core9panicking30panic_null_pointer_dereference17hf718fcc86a223baaE(ptr align 8 @alloc_1416f708b5c78e1c6dd3a09a7e38a1a1) #7
  unreachable

bb15:                                             ; preds = %bb33
  %_191 = ptrtoint ptr %E to i64
  %_194 = icmp eq i64 %_191, 0
  %_195 = and i1 %_194, true
  %_196 = xor i1 %_195, true
  br i1 %_196, label %bb34, label %panic23

panic22:                                          ; preds = %bb33
; call core::panicking::panic_misaligned_pointer_dereference
  call void @_ZN4core9panicking36panic_misaligned_pointer_dereference17hcc3cbded9382b6e5E(i64 4, i64 %_68, ptr align 8 @alloc_b566841f6ab2887509191813c809c500) #7
  unreachable

bb34:                                             ; preds = %bb15
  %_19 = load i32, ptr %E, align 4
  %_18 = sext i32 %_19 to i64
  %_20 = icmp ult i64 %_18, 501
  br i1 %_20, label %bb5, label %panic24

panic23:                                          ; preds = %bb15
; call core::panicking::panic_null_pointer_dereference
  call void @_ZN4core9panicking30panic_null_pointer_dereference17hf718fcc86a223baaE(ptr align 8 @alloc_b566841f6ab2887509191813c809c500) #7
  unreachable

bb5:                                              ; preds = %bb34
  %_62 = ptrtoint ptr %E to i64
  %_65 = and i64 %_62, 3
  %_66 = icmp eq i64 %_65, 0
  br i1 %_66, label %bb14, label %panic25

panic24:                                          ; preds = %bb34
; call core::panicking::panic_bounds_check
  call void @_ZN4core9panicking18panic_bounds_check17h27d1e4f0cb1112dfE(i64 %_18, i64 501, ptr align 8 @alloc_2b741aa80e9bacc62157d48afd5adfbd) #7
  unreachable

bb14:                                             ; preds = %bb5
  %_198 = ptrtoint ptr %E to i64
  %_201 = icmp eq i64 %_198, 0
  %_202 = and i1 %_201, true
  %_203 = xor i1 %_202, true
  br i1 %_203, label %bb35, label %panic26

panic25:                                          ; preds = %bb5
; call core::panicking::panic_misaligned_pointer_dereference
  call void @_ZN4core9panicking36panic_misaligned_pointer_dereference17hcc3cbded9382b6e5E(i64 4, i64 %_62, ptr align 8 @alloc_f395d6e6b627219d0d21aa0beb72abe6) #7
  unreachable

bb35:                                             ; preds = %bb14
  %11 = getelementptr inbounds i8, ptr %E, i64 4
  %_22 = load i32, ptr %11, align 4
  %_21 = sext i32 %_22 to i64
  %_23 = icmp ult i64 %_21, 501
  br i1 %_23, label %bb6, label %panic27

panic26:                                          ; preds = %bb14
; call core::panicking::panic_null_pointer_dereference
  call void @_ZN4core9panicking30panic_null_pointer_dereference17hf718fcc86a223baaE(ptr align 8 @alloc_f395d6e6b627219d0d21aa0beb72abe6) #7
  unreachable

bb6:                                              ; preds = %bb35
  %_56 = ptrtoint ptr %Graph to i64
  %_59 = and i64 %_56, 3
  %_60 = icmp eq i64 %_59, 0
  br i1 %_60, label %bb13, label %panic28

panic27:                                          ; preds = %bb35
; call core::panicking::panic_bounds_check
  call void @_ZN4core9panicking18panic_bounds_check17h27d1e4f0cb1112dfE(i64 %_21, i64 501, ptr align 8 @alloc_2b741aa80e9bacc62157d48afd5adfbd) #7
  unreachable

bb13:                                             ; preds = %bb6
  %_205 = ptrtoint ptr %Graph to i64
  %_208 = icmp eq i64 %_205, 0
  %_209 = and i1 %_208, true
  %_210 = xor i1 %_209, true
  br i1 %_210, label %bb36, label %panic29

panic28:                                          ; preds = %bb6
; call core::panicking::panic_misaligned_pointer_dereference
  call void @_ZN4core9panicking36panic_misaligned_pointer_dereference17hcc3cbded9382b6e5E(i64 4, i64 %_56, ptr align 8 @alloc_2b741aa80e9bacc62157d48afd5adfbd) #7
  unreachable

bb36:                                             ; preds = %bb13
  %12 = getelementptr inbounds i8, ptr %Graph, i64 1004012
  %13 = getelementptr inbounds nuw [501 x i32], ptr %12, i64 %_18
  %14 = getelementptr inbounds nuw i32, ptr %13, i64 %_21
  store i32 %_17, ptr %14, align 4
  %_50 = ptrtoint ptr %E to i64
  %_53 = and i64 %_50, 3
  %_54 = icmp eq i64 %_53, 0
  br i1 %_54, label %bb12, label %panic30

panic29:                                          ; preds = %bb13
; call core::panicking::panic_null_pointer_dereference
  call void @_ZN4core9panicking30panic_null_pointer_dereference17hf718fcc86a223baaE(ptr align 8 @alloc_2b741aa80e9bacc62157d48afd5adfbd) #7
  unreachable

bb12:                                             ; preds = %bb36
  %_212 = ptrtoint ptr %E to i64
  %_215 = icmp eq i64 %_212, 0
  %_216 = and i1 %_215, true
  %_217 = xor i1 %_216, true
  br i1 %_217, label %bb37, label %panic31

panic30:                                          ; preds = %bb36
; call core::panicking::panic_misaligned_pointer_dereference
  call void @_ZN4core9panicking36panic_misaligned_pointer_dereference17hcc3cbded9382b6e5E(i64 4, i64 %_50, ptr align 8 @alloc_320fe18de09733729559dc83cb8937bd) #7
  unreachable

bb37:                                             ; preds = %bb12
  %15 = getelementptr inbounds i8, ptr %E, i64 12
  %_24 = load i32, ptr %15, align 4
  %_44 = ptrtoint ptr %E to i64
  %_47 = and i64 %_44, 3
  %_48 = icmp eq i64 %_47, 0
  br i1 %_48, label %bb11, label %panic32

panic31:                                          ; preds = %bb12
; call core::panicking::panic_null_pointer_dereference
  call void @_ZN4core9panicking30panic_null_pointer_dereference17hf718fcc86a223baaE(ptr align 8 @alloc_320fe18de09733729559dc83cb8937bd) #7
  unreachable

bb11:                                             ; preds = %bb37
  %_219 = ptrtoint ptr %E to i64
  %_222 = icmp eq i64 %_219, 0
  %_223 = and i1 %_222, true
  %_224 = xor i1 %_223, true
  br i1 %_224, label %bb38, label %panic33

panic32:                                          ; preds = %bb37
; call core::panicking::panic_misaligned_pointer_dereference
  call void @_ZN4core9panicking36panic_misaligned_pointer_dereference17hcc3cbded9382b6e5E(i64 4, i64 %_44, ptr align 8 @alloc_4509b9608e0303d58eaf5c5ff024cd54) #7
  unreachable

bb38:                                             ; preds = %bb11
  %16 = getelementptr inbounds i8, ptr %E, i64 4
  %_26 = load i32, ptr %16, align 4
  %_25 = sext i32 %_26 to i64
  %_27 = icmp ult i64 %_25, 501
  br i1 %_27, label %bb7, label %panic34

panic33:                                          ; preds = %bb11
; call core::panicking::panic_null_pointer_dereference
  call void @_ZN4core9panicking30panic_null_pointer_dereference17hf718fcc86a223baaE(ptr align 8 @alloc_4509b9608e0303d58eaf5c5ff024cd54) #7
  unreachable

bb7:                                              ; preds = %bb38
  %_38 = ptrtoint ptr %E to i64
  %_41 = and i64 %_38, 3
  %_42 = icmp eq i64 %_41, 0
  br i1 %_42, label %bb10, label %panic35

panic34:                                          ; preds = %bb38
; call core::panicking::panic_bounds_check
  call void @_ZN4core9panicking18panic_bounds_check17h27d1e4f0cb1112dfE(i64 %_25, i64 501, ptr align 8 @alloc_2efa6fb076c65f88b785c700efd47dae) #7
  unreachable

bb10:                                             ; preds = %bb7
  %_226 = ptrtoint ptr %E to i64
  %_229 = icmp eq i64 %_226, 0
  %_230 = and i1 %_229, true
  %_231 = xor i1 %_230, true
  br i1 %_231, label %bb39, label %panic36

panic35:                                          ; preds = %bb7
; call core::panicking::panic_misaligned_pointer_dereference
  call void @_ZN4core9panicking36panic_misaligned_pointer_dereference17hcc3cbded9382b6e5E(i64 4, i64 %_38, ptr align 8 @alloc_f26be3c492622fd7cd955ba98140b32a) #7
  unreachable

bb39:                                             ; preds = %bb10
  %_29 = load i32, ptr %E, align 4
  %_28 = sext i32 %_29 to i64
  %_30 = icmp ult i64 %_28, 501
  br i1 %_30, label %bb8, label %panic37

panic36:                                          ; preds = %bb10
; call core::panicking::panic_null_pointer_dereference
  call void @_ZN4core9panicking30panic_null_pointer_dereference17hf718fcc86a223baaE(ptr align 8 @alloc_f26be3c492622fd7cd955ba98140b32a) #7
  unreachable

bb8:                                              ; preds = %bb39
  %_32 = ptrtoint ptr %Graph to i64
  %_35 = and i64 %_32, 3
  %_36 = icmp eq i64 %_35, 0
  br i1 %_36, label %bb9, label %panic38

panic37:                                          ; preds = %bb39
; call core::panicking::panic_bounds_check
  call void @_ZN4core9panicking18panic_bounds_check17h27d1e4f0cb1112dfE(i64 %_28, i64 501, ptr align 8 @alloc_2efa6fb076c65f88b785c700efd47dae) #7
  unreachable

bb9:                                              ; preds = %bb8
  %_233 = ptrtoint ptr %Graph to i64
  %_236 = icmp eq i64 %_233, 0
  %_237 = and i1 %_236, true
  %_238 = xor i1 %_237, true
  br i1 %_238, label %bb40, label %panic39

panic38:                                          ; preds = %bb8
; call core::panicking::panic_misaligned_pointer_dereference
  call void @_ZN4core9panicking36panic_misaligned_pointer_dereference17hcc3cbded9382b6e5E(i64 4, i64 %_32, ptr align 8 @alloc_2efa6fb076c65f88b785c700efd47dae) #7
  unreachable

bb40:                                             ; preds = %bb9
  %17 = getelementptr inbounds i8, ptr %Graph, i64 1004012
  %18 = getelementptr inbounds nuw [501 x i32], ptr %17, i64 %_25
  %19 = getelementptr inbounds nuw i32, ptr %18, i64 %_28
  store i32 %_24, ptr %19, align 4
  ret void

panic39:                                          ; preds = %bb9
; call core::panicking::panic_null_pointer_dereference
  call void @_ZN4core9panicking30panic_null_pointer_dereference17hf718fcc86a223baaE(ptr align 8 @alloc_2efa6fb076c65f88b785c700efd47dae) #7
  unreachable
}

; Function Attrs: nounwind nonlazybind
define ptr @BuildGraph(i32 %VertexNum, i32 %EdgeNum) unnamed_addr #2 {
start:
  %i = alloca [4 x i8], align 4
  %E = alloca [8 x i8], align 8
  %Graph = alloca [8 x i8], align 8
  store ptr null, ptr %Graph, align 8
  store ptr null, ptr %E, align 8
  store i32 0, ptr %i, align 4
  %_6 = call ptr @CreateGraph(i32 %VertexNum, i32 %EdgeNum) #8
  store ptr %_6, ptr %Graph, align 8
  %_36 = load ptr, ptr %Graph, align 8
  %_37 = ptrtoint ptr %_36 to i64
  %_40 = and i64 %_37, 3
  %_41 = icmp eq i64 %_40, 0
  br i1 %_41, label %bb11, label %panic

bb11:                                             ; preds = %start
  %_42 = load ptr, ptr %Graph, align 8
  %_43 = ptrtoint ptr %_42 to i64
  %_46 = icmp eq i64 %_43, 0
  %_47 = and i1 %_46, true
  %_48 = xor i1 %_47, true
  br i1 %_48, label %bb12, label %panic1

panic:                                            ; preds = %start
; call core::panicking::panic_misaligned_pointer_dereference
  call void @_ZN4core9panicking36panic_misaligned_pointer_dereference17hcc3cbded9382b6e5E(i64 4, i64 %_37, ptr align 8 @alloc_e3c24b4ee49629dfaca98d015979b7db) #7
  unreachable

bb12:                                             ; preds = %bb11
  %0 = load ptr, ptr %Graph, align 8
  %1 = getelementptr inbounds i8, ptr %0, i64 4
  %_7 = load i32, ptr %1, align 4
  %2 = icmp eq i32 %_7, 0
  br i1 %2, label %bb9, label %bb2

panic1:                                           ; preds = %bb11
; call core::panicking::panic_null_pointer_dereference
  call void @_ZN4core9panicking30panic_null_pointer_dereference17hf718fcc86a223baaE(ptr align 8 @alloc_e3c24b4ee49629dfaca98d015979b7db) #7
  unreachable

bb9:                                              ; preds = %bb13, %bb12
  %_0 = load ptr, ptr %Graph, align 8
  ret ptr %_0

bb2:                                              ; preds = %bb12
  %_8 = call ptr @malloc(i64 16) #8
  store ptr %_8, ptr %E, align 8
  store i32 0, ptr %i, align 4
  br label %bb5

bb5:                                              ; preds = %bb14, %bb2
  %_12 = load i32, ptr %i, align 4
  %_30 = load ptr, ptr %Graph, align 8
  %_31 = ptrtoint ptr %_30 to i64
  %_34 = and i64 %_31, 3
  %_35 = icmp eq i64 %_34, 0
  br i1 %_35, label %bb10, label %panic2

bb10:                                             ; preds = %bb5
  %_49 = load ptr, ptr %Graph, align 8
  %_50 = ptrtoint ptr %_49 to i64
  %_53 = icmp eq i64 %_50, 0
  %_54 = and i1 %_53, true
  %_55 = xor i1 %_54, true
  br i1 %_55, label %bb13, label %panic3

panic2:                                           ; preds = %bb5
; call core::panicking::panic_misaligned_pointer_dereference
  call void @_ZN4core9panicking36panic_misaligned_pointer_dereference17hcc3cbded9382b6e5E(i64 4, i64 %_31, ptr align 8 @alloc_5229c754fb845d4121710ddbd43fd8a1) #7
  unreachable

bb13:                                             ; preds = %bb10
  %3 = load ptr, ptr %Graph, align 8
  %4 = getelementptr inbounds i8, ptr %3, i64 4
  %_13 = load i32, ptr %4, align 4
  %_11 = icmp slt i32 %_12, %_13
  br i1 %_11, label %bb6, label %bb9

panic3:                                           ; preds = %bb10
; call core::panicking::panic_null_pointer_dereference
  call void @_ZN4core9panicking30panic_null_pointer_dereference17hf718fcc86a223baaE(ptr align 8 @alloc_5229c754fb845d4121710ddbd43fd8a1) #7
  unreachable

bb6:                                              ; preds = %bb13
  %_71 = load ptr, ptr %E, align 8
  %_72 = ptrtoint ptr %_71 to i64
  %_73 = icmp eq i64 %_72, 0
  %_74 = and i1 %_73, true
  %_75 = xor i1 %_74, true
  br i1 %_75, label %bb17, label %panic4

bb17:                                             ; preds = %bb6
  %_20 = load ptr, ptr %E, align 8
  %_66 = load ptr, ptr %E, align 8
  %_67 = ptrtoint ptr %_66 to i64
  %_68 = icmp eq i64 %_67, 0
  %_69 = and i1 %_68, true
  %_70 = xor i1 %_69, true
  br i1 %_70, label %bb16, label %panic5

panic4:                                           ; preds = %bb6
; call core::panicking::panic_null_pointer_dereference
  call void @_ZN4core9panicking30panic_null_pointer_dereference17hf718fcc86a223baaE(ptr align 8 @alloc_489a48bc84d2e053da66b576cb914066) #7
  unreachable

bb16:                                             ; preds = %bb17
  %5 = load ptr, ptr %E, align 8
  %_22 = getelementptr inbounds i8, ptr %5, i64 4
  %_61 = load ptr, ptr %E, align 8
  %_62 = ptrtoint ptr %_61 to i64
  %_63 = icmp eq i64 %_62, 0
  %_64 = and i1 %_63, true
  %_65 = xor i1 %_64, true
  br i1 %_65, label %bb15, label %panic6

panic5:                                           ; preds = %bb17
; call core::panicking::panic_null_pointer_dereference
  call void @_ZN4core9panicking30panic_null_pointer_dereference17hf718fcc86a223baaE(ptr align 8 @alloc_4fae59f8ccd68b09c36eb39b98705e1e) #7
  unreachable

bb15:                                             ; preds = %bb16
  %6 = load ptr, ptr %E, align 8
  %_24 = getelementptr inbounds i8, ptr %6, i64 8
  %_56 = load ptr, ptr %E, align 8
  %_57 = ptrtoint ptr %_56 to i64
  %_58 = icmp eq i64 %_57, 0
  %_59 = and i1 %_58, true
  %_60 = xor i1 %_59, true
  br i1 %_60, label %bb14, label %panic7

panic6:                                           ; preds = %bb16
; call core::panicking::panic_null_pointer_dereference
  call void @_ZN4core9panicking30panic_null_pointer_dereference17hf718fcc86a223baaE(ptr align 8 @alloc_505dca348bd2cf8e27af0ec399223840) #7
  unreachable

bb14:                                             ; preds = %bb15
  %7 = load ptr, ptr %E, align 8
  %_26 = getelementptr inbounds i8, ptr %7, i64 12
  %_14 = call i32 (ptr, ...) @scanf(ptr @alloc_cb3bfc090c902886f9962c39f8ea8c9b, ptr %_20, ptr %_22, ptr %_24, ptr %_26) #8
  %_28 = load ptr, ptr %Graph, align 8
  %_29 = load ptr, ptr %E, align 8
  call void @InsertEdge(ptr %_28, ptr %_29) #8
  %8 = load i32, ptr %i, align 4
  %9 = add i32 %8, 1
  store i32 %9, ptr %i, align 4
  br label %bb5

panic7:                                           ; preds = %bb15
; call core::panicking::panic_null_pointer_dereference
  call void @_ZN4core9panicking30panic_null_pointer_dereference17hf718fcc86a223baaE(ptr align 8 @alloc_bce2b13cdd398721617e78cd127e6d87) #7
  unreachable
}

; Function Attrs: nounwind nonlazybind
define i32 @FindMinDist(ptr %Graph, ptr %dist, ptr %collected) unnamed_addr #2 {
start:
  %MinDist = alloca [4 x i8], align 4
  %V = alloca [4 x i8], align 4
  %MinV = alloca [4 x i8], align 4
  %_0 = alloca [4 x i8], align 4
  store i32 0, ptr %MinV, align 4
  store i32 0, ptr %V, align 4
  store i32 65535, ptr %MinDist, align 4
  store i32 0, ptr %V, align 4
  br label %bb1

bb1:                                              ; preds = %bb8, %start
  %_8 = load i32, ptr %V, align 4
  %_46 = ptrtoint ptr %Graph to i64
  %_49 = and i64 %_46, 3
  %_50 = icmp eq i64 %_49, 0
  br i1 %_50, label %bb16, label %panic

bb16:                                             ; preds = %bb1
  %_52 = ptrtoint ptr %Graph to i64
  %_55 = icmp eq i64 %_52, 0
  %_56 = and i1 %_55, true
  %_57 = xor i1 %_56, true
  br i1 %_57, label %bb17, label %panic1

panic:                                            ; preds = %bb1
; call core::panicking::panic_misaligned_pointer_dereference
  call void @_ZN4core9panicking36panic_misaligned_pointer_dereference17hcc3cbded9382b6e5E(i64 4, i64 %_46, ptr align 8 @alloc_407561b11479a121bdd158a13c534a3b) #7
  unreachable

bb17:                                             ; preds = %bb16
  %_9 = load i32, ptr %Graph, align 4
  %_7 = icmp slt i32 %_8, %_9
  br i1 %_7, label %bb2, label %bb9

panic1:                                           ; preds = %bb16
; call core::panicking::panic_null_pointer_dereference
  call void @_ZN4core9panicking30panic_null_pointer_dereference17hf718fcc86a223baaE(ptr align 8 @alloc_407561b11479a121bdd158a13c534a3b) #7
  unreachable

bb9:                                              ; preds = %bb17
  %_26 = load i32, ptr %MinDist, align 4
  %_25 = icmp slt i32 %_26, 65535
  br i1 %_25, label %bb10, label %bb11

bb2:                                              ; preds = %bb17
  %_13 = load i32, ptr %V, align 4
  %_12 = sext i32 %_13 to i64
; call core::ptr::mut_ptr::<impl *mut T>::offset::precondition_check
  call void @"_ZN4core3ptr7mut_ptr31_$LT$impl$u20$$BP$mut$u20$T$GT$6offset18precondition_check17h35b02de5ef1061c5E"(ptr %collected, i64 %_12, i64 4) #8
  %_0.i9 = getelementptr inbounds i32, ptr %collected, i64 %_12
  %_40 = ptrtoint ptr %_0.i9 to i64
  %_43 = and i64 %_40, 3
  %_44 = icmp eq i64 %_43, 0
  br i1 %_44, label %bb15, label %panic2

bb11:                                             ; preds = %bb9
  store i32 999, ptr %_0, align 4
  br label %bb12

bb10:                                             ; preds = %bb9
  %0 = load i32, ptr %MinV, align 4
  store i32 %0, ptr %_0, align 4
  br label %bb12

bb12:                                             ; preds = %bb10, %bb11
  %1 = load i32, ptr %_0, align 4
  ret i32 %1

bb15:                                             ; preds = %bb2
  %_59 = ptrtoint ptr %_0.i9 to i64
  %_62 = icmp eq i64 %_59, 0
  %_63 = and i1 %_62, true
  %_64 = xor i1 %_63, true
  br i1 %_64, label %bb18, label %panic3

panic2:                                           ; preds = %bb2
; call core::panicking::panic_misaligned_pointer_dereference
  call void @_ZN4core9panicking36panic_misaligned_pointer_dereference17hcc3cbded9382b6e5E(i64 4, i64 %_40, ptr align 8 @alloc_ff203da3b0efb98db6cb29b095b46937) #7
  unreachable

bb18:                                             ; preds = %bb15
  %_10 = load i32, ptr %_0.i9, align 4
  %2 = icmp eq i32 %_10, 0
  br i1 %2, label %bb4, label %bb8

panic3:                                           ; preds = %bb15
; call core::panicking::panic_null_pointer_dereference
  call void @_ZN4core9panicking30panic_null_pointer_dereference17hf718fcc86a223baaE(ptr align 8 @alloc_ff203da3b0efb98db6cb29b095b46937) #7
  unreachable

bb4:                                              ; preds = %bb18
  %_18 = load i32, ptr %V, align 4
  %_17 = sext i32 %_18 to i64
; call core::ptr::mut_ptr::<impl *mut T>::offset::precondition_check
  call void @"_ZN4core3ptr7mut_ptr31_$LT$impl$u20$$BP$mut$u20$T$GT$6offset18precondition_check17h35b02de5ef1061c5E"(ptr %dist, i64 %_17, i64 4) #8
  %_0.i8 = getelementptr inbounds i32, ptr %dist, i64 %_17
  %_34 = ptrtoint ptr %_0.i8 to i64
  %_37 = and i64 %_34, 3
  %_38 = icmp eq i64 %_37, 0
  br i1 %_38, label %bb14, label %panic4

bb8:                                              ; preds = %bb20, %bb19, %bb18
  %3 = load i32, ptr %V, align 4
  %4 = add i32 %3, 1
  store i32 %4, ptr %V, align 4
  br label %bb1

bb14:                                             ; preds = %bb4
  %_66 = ptrtoint ptr %_0.i8 to i64
  %_69 = icmp eq i64 %_66, 0
  %_70 = and i1 %_69, true
  %_71 = xor i1 %_70, true
  br i1 %_71, label %bb19, label %panic5

panic4:                                           ; preds = %bb4
; call core::panicking::panic_misaligned_pointer_dereference
  call void @_ZN4core9panicking36panic_misaligned_pointer_dereference17hcc3cbded9382b6e5E(i64 4, i64 %_34, ptr align 8 @alloc_b9fd4919d369efae790d15dc74509a6b) #7
  unreachable

bb19:                                             ; preds = %bb14
  %_15 = load i32, ptr %_0.i8, align 4
  %_19 = load i32, ptr %MinDist, align 4
  %_14 = icmp slt i32 %_15, %_19
  br i1 %_14, label %bb6, label %bb8

panic5:                                           ; preds = %bb14
; call core::panicking::panic_null_pointer_dereference
  call void @_ZN4core9panicking30panic_null_pointer_dereference17hf718fcc86a223baaE(ptr align 8 @alloc_b9fd4919d369efae790d15dc74509a6b) #7
  unreachable

bb6:                                              ; preds = %bb19
  %_23 = load i32, ptr %V, align 4
  %_22 = sext i32 %_23 to i64
; call core::ptr::mut_ptr::<impl *mut T>::offset::precondition_check
  call void @"_ZN4core3ptr7mut_ptr31_$LT$impl$u20$$BP$mut$u20$T$GT$6offset18precondition_check17h35b02de5ef1061c5E"(ptr %dist, i64 %_22, i64 4) #8
  %_0.i = getelementptr inbounds i32, ptr %dist, i64 %_22
  %_28 = ptrtoint ptr %_0.i to i64
  %_31 = and i64 %_28, 3
  %_32 = icmp eq i64 %_31, 0
  br i1 %_32, label %bb13, label %panic6

bb13:                                             ; preds = %bb6
  %_73 = ptrtoint ptr %_0.i to i64
  %_76 = icmp eq i64 %_73, 0
  %_77 = and i1 %_76, true
  %_78 = xor i1 %_77, true
  br i1 %_78, label %bb20, label %panic7

panic6:                                           ; preds = %bb6
; call core::panicking::panic_misaligned_pointer_dereference
  call void @_ZN4core9panicking36panic_misaligned_pointer_dereference17hcc3cbded9382b6e5E(i64 4, i64 %_28, ptr align 8 @alloc_247c911735269da57fe95cdc3d90731f) #7
  unreachable

bb20:                                             ; preds = %bb13
  %_20 = load i32, ptr %_0.i, align 4
  store i32 %_20, ptr %MinDist, align 4
  %_24 = load i32, ptr %V, align 4
  store i32 %_24, ptr %MinV, align 4
  br label %bb8

panic7:                                           ; preds = %bb13
; call core::panicking::panic_null_pointer_dereference
  call void @_ZN4core9panicking30panic_null_pointer_dereference17hf718fcc86a223baaE(ptr align 8 @alloc_247c911735269da57fe95cdc3d90731f) #7
  unreachable
}

; Function Attrs: nounwind nonlazybind
define zeroext i1 @Dijkstra(ptr %Graph, ptr %dist, ptr %cost, ptr %path, i32 %S) unnamed_addr #2 {
start:
  %W = alloca [4 x i8], align 4
  %V = alloca [4 x i8], align 4
  %collected = alloca [2004 x i8], align 4
  %_0 = alloca [1 x i8], align 1
  call void @llvm.memset.p0.i64(ptr align 4 %collected, i8 0, i64 2004, i1 false)
  store i32 0, ptr %V, align 4
  store i32 0, ptr %W, align 4
  store i32 0, ptr %V, align 4
  br label %bb1

bb1:                                              ; preds = %bb15, %start
  %_10 = load i32, ptr %V, align 4
  %_375 = ptrtoint ptr %Graph to i64
  %_378 = and i64 %_375, 3
  %_379 = icmp eq i64 %_378, 0
  br i1 %_379, label %bb101, label %panic

bb101:                                            ; preds = %bb1
  %_381 = ptrtoint ptr %Graph to i64
  %_384 = icmp eq i64 %_381, 0
  %_385 = and i1 %_384, true
  %_386 = xor i1 %_385, true
  br i1 %_386, label %bb102, label %panic1

panic:                                            ; preds = %bb1
; call core::panicking::panic_misaligned_pointer_dereference
  call void @_ZN4core9panicking36panic_misaligned_pointer_dereference17hcc3cbded9382b6e5E(i64 4, i64 %_375, ptr align 8 @alloc_17830476b848f2ad96d6edc6079129aa) #7
  unreachable

bb102:                                            ; preds = %bb101
  %_11 = load i32, ptr %Graph, align 4
  %_9 = icmp slt i32 %_10, %_11
  br i1 %_9, label %bb2, label %bb16

panic1:                                           ; preds = %bb101
; call core::panicking::panic_null_pointer_dereference
  call void @_ZN4core9panicking30panic_null_pointer_dereference17hf718fcc86a223baaE(ptr align 8 @alloc_17830476b848f2ad96d6edc6079129aa) #7
  unreachable

bb16:                                             ; preds = %bb102
  %_45 = sext i32 %S to i64
; call core::ptr::mut_ptr::<impl *mut T>::offset::precondition_check
  call void @"_ZN4core3ptr7mut_ptr31_$LT$impl$u20$$BP$mut$u20$T$GT$6offset18precondition_check17h35b02de5ef1061c5E"(ptr %dist, i64 %_45, i64 4) #8
  %_0.i109 = getelementptr inbounds i32, ptr %dist, i64 %_45
  %_327 = ptrtoint ptr %_0.i109 to i64
  %_330 = and i64 %_327, 3
  %_331 = icmp eq i64 %_330, 0
  br i1 %_331, label %bb93, label %panic2

bb2:                                              ; preds = %bb102
  %_13 = sext i32 %S to i64
  %_14 = icmp ult i64 %_13, 501
  br i1 %_14, label %bb3, label %panic71

bb93:                                             ; preds = %bb16
  %_437 = ptrtoint ptr %_0.i109 to i64
  %_440 = icmp eq i64 %_437, 0
  %_441 = and i1 %_440, true
  %_442 = xor i1 %_441, true
  br i1 %_442, label %bb110, label %panic3

panic2:                                           ; preds = %bb16
; call core::panicking::panic_misaligned_pointer_dereference
  call void @_ZN4core9panicking36panic_misaligned_pointer_dereference17hcc3cbded9382b6e5E(i64 4, i64 %_327, ptr align 8 @alloc_c2060865273d9b869f07d91e807a15b7) #7
  unreachable

bb110:                                            ; preds = %bb93
  store i32 0, ptr %_0.i109, align 4
  %_47 = sext i32 %S to i64
; call core::ptr::mut_ptr::<impl *mut T>::offset::precondition_check
  call void @"_ZN4core3ptr7mut_ptr31_$LT$impl$u20$$BP$mut$u20$T$GT$6offset18precondition_check17h35b02de5ef1061c5E"(ptr %cost, i64 %_47, i64 4) #8
  %_0.i108 = getelementptr inbounds i32, ptr %cost, i64 %_47
  %_321 = ptrtoint ptr %_0.i108 to i64
  %_324 = and i64 %_321, 3
  %_325 = icmp eq i64 %_324, 0
  br i1 %_325, label %bb92, label %panic4

panic3:                                           ; preds = %bb93
; call core::panicking::panic_null_pointer_dereference
  call void @_ZN4core9panicking30panic_null_pointer_dereference17hf718fcc86a223baaE(ptr align 8 @alloc_c2060865273d9b869f07d91e807a15b7) #7
  unreachable

bb92:                                             ; preds = %bb110
  %_444 = ptrtoint ptr %_0.i108 to i64
  %_447 = icmp eq i64 %_444, 0
  %_448 = and i1 %_447, true
  %_449 = xor i1 %_448, true
  br i1 %_449, label %bb111, label %panic5

panic4:                                           ; preds = %bb110
; call core::panicking::panic_misaligned_pointer_dereference
  call void @_ZN4core9panicking36panic_misaligned_pointer_dereference17hcc3cbded9382b6e5E(i64 4, i64 %_321, ptr align 8 @alloc_4ffbbd574551373046b2bd0490b394e4) #7
  unreachable

bb111:                                            ; preds = %bb92
  store i32 0, ptr %_0.i108, align 4
  %_48 = sext i32 %S to i64
  %_49 = icmp ult i64 %_48, 501
  br i1 %_49, label %bb19, label %panic6

panic5:                                           ; preds = %bb92
; call core::panicking::panic_null_pointer_dereference
  call void @_ZN4core9panicking30panic_null_pointer_dereference17hf718fcc86a223baaE(ptr align 8 @alloc_4ffbbd574551373046b2bd0490b394e4) #7
  unreachable

bb19:                                             ; preds = %bb111
  %0 = getelementptr inbounds nuw i32, ptr %collected, i64 %_48
  store i32 1, ptr %0, align 4
  br label %bb20

panic6:                                           ; preds = %bb111
; call core::panicking::panic_bounds_check
  call void @_ZN4core9panicking18panic_bounds_check17h27d1e4f0cb1112dfE(i64 %_48, i64 501, ptr align 8 @alloc_2db839b4d147b88485591c5637ed0c40) #7
  unreachable

bb20:                                             ; preds = %bb112, %bb19
  %_50 = call i32 @FindMinDist(ptr %Graph, ptr %dist, ptr %collected) #8
  store i32 %_50, ptr %V, align 4
  %_54 = load i32, ptr %V, align 4
  %1 = icmp eq i32 %_54, 999
  br i1 %1, label %bb23, label %bb24

bb23:                                             ; preds = %bb20
  store i8 1, ptr %_0, align 1
  br label %bb68

bb24:                                             ; preds = %bb20
  %_56 = load i32, ptr %V, align 4
  %_55 = sext i32 %_56 to i64
  %_57 = icmp ult i64 %_55, 501
  br i1 %_57, label %bb25, label %panic7

bb68:                                             ; preds = %bb35, %bb23
  %2 = load i8, ptr %_0, align 1
  %3 = trunc nuw i8 %2 to i1
  ret i1 %3

bb25:                                             ; preds = %bb24
  %4 = getelementptr inbounds nuw i32, ptr %collected, i64 %_55
  store i32 1, ptr %4, align 4
  store i32 0, ptr %W, align 4
  br label %bb26

panic7:                                           ; preds = %bb24
; call core::panicking::panic_bounds_check
  call void @_ZN4core9panicking18panic_bounds_check17h27d1e4f0cb1112dfE(i64 %_55, i64 501, ptr align 8 @alloc_0a46e4c4b57d7d0348e4d3e2fbb0ba8b) #7
  unreachable

bb26:                                             ; preds = %bb67, %bb25
  %_59 = load i32, ptr %W, align 4
  %_315 = ptrtoint ptr %Graph to i64
  %_318 = and i64 %_315, 3
  %_319 = icmp eq i64 %_318, 0
  br i1 %_319, label %bb91, label %panic8

bb91:                                             ; preds = %bb26
  %_451 = ptrtoint ptr %Graph to i64
  %_454 = icmp eq i64 %_451, 0
  %_455 = and i1 %_454, true
  %_456 = xor i1 %_455, true
  br i1 %_456, label %bb112, label %panic9

panic8:                                           ; preds = %bb26
; call core::panicking::panic_misaligned_pointer_dereference
  call void @_ZN4core9panicking36panic_misaligned_pointer_dereference17hcc3cbded9382b6e5E(i64 4, i64 %_315, ptr align 8 @alloc_341298e4038f64bcc851842dd1f94fc3) #7
  unreachable

bb112:                                            ; preds = %bb91
  %_60 = load i32, ptr %Graph, align 4
  %_58 = icmp slt i32 %_59, %_60
  br i1 %_58, label %bb27, label %bb20

panic9:                                           ; preds = %bb91
; call core::panicking::panic_null_pointer_dereference
  call void @_ZN4core9panicking30panic_null_pointer_dereference17hf718fcc86a223baaE(ptr align 8 @alloc_341298e4038f64bcc851842dd1f94fc3) #7
  unreachable

bb27:                                             ; preds = %bb112
  %_63 = load i32, ptr %W, align 4
  %_62 = sext i32 %_63 to i64
  %_64 = icmp ult i64 %_62, 501
  br i1 %_64, label %bb28, label %panic10

bb28:                                             ; preds = %bb27
  %5 = getelementptr inbounds nuw i32, ptr %collected, i64 %_62
  %_61 = load i32, ptr %5, align 4
  %6 = icmp eq i32 %_61, 0
  br i1 %6, label %bb29, label %bb67

panic10:                                          ; preds = %bb27
; call core::panicking::panic_bounds_check
  call void @_ZN4core9panicking18panic_bounds_check17h27d1e4f0cb1112dfE(i64 %_62, i64 501, ptr align 8 @alloc_145b14f19af0bbf5ee5f26683e26e41d) #7
  unreachable

bb29:                                             ; preds = %bb28
  %_68 = load i32, ptr %V, align 4
  %_67 = sext i32 %_68 to i64
  %_69 = icmp ult i64 %_67, 501
  br i1 %_69, label %bb30, label %panic11

bb67:                                             ; preds = %bb124, %bb134, %bb130, %bb127, %bb113, %bb28
  %7 = load i32, ptr %W, align 4
  %8 = add i32 %7, 1
  store i32 %8, ptr %W, align 4
  br label %bb26

bb30:                                             ; preds = %bb29
  %_71 = load i32, ptr %W, align 4
  %_70 = sext i32 %_71 to i64
  %_72 = icmp ult i64 %_70, 501
  br i1 %_72, label %bb31, label %panic12

panic11:                                          ; preds = %bb29
; call core::panicking::panic_bounds_check
  call void @_ZN4core9panicking18panic_bounds_check17h27d1e4f0cb1112dfE(i64 %_67, i64 501, ptr align 8 @alloc_5ad32415855874c5f90ccd9d99b8fcc9) #7
  unreachable

bb31:                                             ; preds = %bb30
  %_309 = ptrtoint ptr %Graph to i64
  %_312 = and i64 %_309, 3
  %_313 = icmp eq i64 %_312, 0
  br i1 %_313, label %bb90, label %panic13

panic12:                                          ; preds = %bb30
; call core::panicking::panic_bounds_check
  call void @_ZN4core9panicking18panic_bounds_check17h27d1e4f0cb1112dfE(i64 %_70, i64 501, ptr align 8 @alloc_5ad32415855874c5f90ccd9d99b8fcc9) #7
  unreachable

bb90:                                             ; preds = %bb31
  %_458 = ptrtoint ptr %Graph to i64
  %_461 = icmp eq i64 %_458, 0
  %_462 = and i1 %_461, true
  %_463 = xor i1 %_462, true
  br i1 %_463, label %bb113, label %panic14

panic13:                                          ; preds = %bb31
; call core::panicking::panic_misaligned_pointer_dereference
  call void @_ZN4core9panicking36panic_misaligned_pointer_dereference17hcc3cbded9382b6e5E(i64 4, i64 %_309, ptr align 8 @alloc_5ad32415855874c5f90ccd9d99b8fcc9) #7
  unreachable

bb113:                                            ; preds = %bb90
  %9 = getelementptr inbounds i8, ptr %Graph, i64 8
  %10 = getelementptr inbounds nuw [501 x i32], ptr %9, i64 %_67
  %11 = getelementptr inbounds nuw i32, ptr %10, i64 %_70
  %_66 = load i32, ptr %11, align 4
  %_65 = icmp slt i32 %_66, 65535
  br i1 %_65, label %bb32, label %bb67

panic14:                                          ; preds = %bb90
; call core::panicking::panic_null_pointer_dereference
  call void @_ZN4core9panicking30panic_null_pointer_dereference17hf718fcc86a223baaE(ptr align 8 @alloc_5ad32415855874c5f90ccd9d99b8fcc9) #7
  unreachable

bb32:                                             ; preds = %bb113
  %_76 = load i32, ptr %V, align 4
  %_75 = sext i32 %_76 to i64
  %_77 = icmp ult i64 %_75, 501
  br i1 %_77, label %bb33, label %panic15

bb33:                                             ; preds = %bb32
  %_79 = load i32, ptr %W, align 4
  %_78 = sext i32 %_79 to i64
  %_80 = icmp ult i64 %_78, 501
  br i1 %_80, label %bb34, label %panic16

panic15:                                          ; preds = %bb32
; call core::panicking::panic_bounds_check
  call void @_ZN4core9panicking18panic_bounds_check17h27d1e4f0cb1112dfE(i64 %_75, i64 501, ptr align 8 @alloc_02fc3f8657657a692896d90dd59b87eb) #7
  unreachable

bb34:                                             ; preds = %bb33
  %_303 = ptrtoint ptr %Graph to i64
  %_306 = and i64 %_303, 3
  %_307 = icmp eq i64 %_306, 0
  br i1 %_307, label %bb89, label %panic17

panic16:                                          ; preds = %bb33
; call core::panicking::panic_bounds_check
  call void @_ZN4core9panicking18panic_bounds_check17h27d1e4f0cb1112dfE(i64 %_78, i64 501, ptr align 8 @alloc_02fc3f8657657a692896d90dd59b87eb) #7
  unreachable

bb89:                                             ; preds = %bb34
  %_465 = ptrtoint ptr %Graph to i64
  %_468 = icmp eq i64 %_465, 0
  %_469 = and i1 %_468, true
  %_470 = xor i1 %_469, true
  br i1 %_470, label %bb114, label %panic18

panic17:                                          ; preds = %bb34
; call core::panicking::panic_misaligned_pointer_dereference
  call void @_ZN4core9panicking36panic_misaligned_pointer_dereference17hcc3cbded9382b6e5E(i64 4, i64 %_303, ptr align 8 @alloc_02fc3f8657657a692896d90dd59b87eb) #7
  unreachable

bb114:                                            ; preds = %bb89
  %12 = getelementptr inbounds i8, ptr %Graph, i64 8
  %13 = getelementptr inbounds nuw [501 x i32], ptr %12, i64 %_75
  %14 = getelementptr inbounds nuw i32, ptr %13, i64 %_78
  %_74 = load i32, ptr %14, align 4
  %_73 = icmp slt i32 %_74, 0
  br i1 %_73, label %bb35, label %bb36

panic18:                                          ; preds = %bb89
; call core::panicking::panic_null_pointer_dereference
  call void @_ZN4core9panicking30panic_null_pointer_dereference17hf718fcc86a223baaE(ptr align 8 @alloc_02fc3f8657657a692896d90dd59b87eb) #7
  unreachable

bb36:                                             ; preds = %bb114
  %_86 = load i32, ptr %V, align 4
  %_85 = sext i32 %_86 to i64
; call core::ptr::mut_ptr::<impl *mut T>::offset::precondition_check
  call void @"_ZN4core3ptr7mut_ptr31_$LT$impl$u20$$BP$mut$u20$T$GT$6offset18precondition_check17h35b02de5ef1061c5E"(ptr %dist, i64 %_85, i64 4) #8
  %_0.i107 = getelementptr inbounds i32, ptr %dist, i64 %_85
  %_297 = ptrtoint ptr %_0.i107 to i64
  %_300 = and i64 %_297, 3
  %_301 = icmp eq i64 %_300, 0
  br i1 %_301, label %bb88, label %panic19

bb35:                                             ; preds = %bb114
  store i8 0, ptr %_0, align 1
  br label %bb68

bb88:                                             ; preds = %bb36
  %_472 = ptrtoint ptr %_0.i107 to i64
  %_475 = icmp eq i64 %_472, 0
  %_476 = and i1 %_475, true
  %_477 = xor i1 %_476, true
  br i1 %_477, label %bb115, label %panic20

panic19:                                          ; preds = %bb36
; call core::panicking::panic_misaligned_pointer_dereference
  call void @_ZN4core9panicking36panic_misaligned_pointer_dereference17hcc3cbded9382b6e5E(i64 4, i64 %_297, ptr align 8 @alloc_3fd120d304eaa2706f04b1bc7b4ce0cb) #7
  unreachable

bb115:                                            ; preds = %bb88
  %_83 = load i32, ptr %_0.i107, align 4
  %_89 = load i32, ptr %V, align 4
  %_88 = sext i32 %_89 to i64
  %_90 = icmp ult i64 %_88, 501
  br i1 %_90, label %bb38, label %panic21

panic20:                                          ; preds = %bb88
; call core::panicking::panic_null_pointer_dereference
  call void @_ZN4core9panicking30panic_null_pointer_dereference17hf718fcc86a223baaE(ptr align 8 @alloc_3fd120d304eaa2706f04b1bc7b4ce0cb) #7
  unreachable

bb38:                                             ; preds = %bb115
  %_92 = load i32, ptr %W, align 4
  %_91 = sext i32 %_92 to i64
  %_93 = icmp ult i64 %_91, 501
  br i1 %_93, label %bb39, label %panic22

panic21:                                          ; preds = %bb115
; call core::panicking::panic_bounds_check
  call void @_ZN4core9panicking18panic_bounds_check17h27d1e4f0cb1112dfE(i64 %_88, i64 501, ptr align 8 @alloc_a8f5a83592aa4bb7b08c560a3de1974d) #7
  unreachable

bb39:                                             ; preds = %bb38
  %_291 = ptrtoint ptr %Graph to i64
  %_294 = and i64 %_291, 3
  %_295 = icmp eq i64 %_294, 0
  br i1 %_295, label %bb87, label %panic23

panic22:                                          ; preds = %bb38
; call core::panicking::panic_bounds_check
  call void @_ZN4core9panicking18panic_bounds_check17h27d1e4f0cb1112dfE(i64 %_91, i64 501, ptr align 8 @alloc_a8f5a83592aa4bb7b08c560a3de1974d) #7
  unreachable

bb87:                                             ; preds = %bb39
  %_479 = ptrtoint ptr %Graph to i64
  %_482 = icmp eq i64 %_479, 0
  %_483 = and i1 %_482, true
  %_484 = xor i1 %_483, true
  br i1 %_484, label %bb116, label %panic24

panic23:                                          ; preds = %bb39
; call core::panicking::panic_misaligned_pointer_dereference
  call void @_ZN4core9panicking36panic_misaligned_pointer_dereference17hcc3cbded9382b6e5E(i64 4, i64 %_291, ptr align 8 @alloc_a8f5a83592aa4bb7b08c560a3de1974d) #7
  unreachable

bb116:                                            ; preds = %bb87
  %15 = getelementptr inbounds i8, ptr %Graph, i64 8
  %16 = getelementptr inbounds nuw [501 x i32], ptr %15, i64 %_88
  %17 = getelementptr inbounds nuw i32, ptr %16, i64 %_91
  %_87 = load i32, ptr %17, align 4
  %_82 = add i32 %_83, %_87
  %_97 = load i32, ptr %W, align 4
  %_96 = sext i32 %_97 to i64
; call core::ptr::mut_ptr::<impl *mut T>::offset::precondition_check
  call void @"_ZN4core3ptr7mut_ptr31_$LT$impl$u20$$BP$mut$u20$T$GT$6offset18precondition_check17h35b02de5ef1061c5E"(ptr %dist, i64 %_96, i64 4) #8
  %_0.i106 = getelementptr inbounds i32, ptr %dist, i64 %_96
  %_285 = ptrtoint ptr %_0.i106 to i64
  %_288 = and i64 %_285, 3
  %_289 = icmp eq i64 %_288, 0
  br i1 %_289, label %bb86, label %panic25

panic24:                                          ; preds = %bb87
; call core::panicking::panic_null_pointer_dereference
  call void @_ZN4core9panicking30panic_null_pointer_dereference17hf718fcc86a223baaE(ptr align 8 @alloc_a8f5a83592aa4bb7b08c560a3de1974d) #7
  unreachable

bb86:                                             ; preds = %bb116
  %_486 = ptrtoint ptr %_0.i106 to i64
  %_489 = icmp eq i64 %_486, 0
  %_490 = and i1 %_489, true
  %_491 = xor i1 %_490, true
  br i1 %_491, label %bb117, label %panic26

panic25:                                          ; preds = %bb116
; call core::panicking::panic_misaligned_pointer_dereference
  call void @_ZN4core9panicking36panic_misaligned_pointer_dereference17hcc3cbded9382b6e5E(i64 4, i64 %_285, ptr align 8 @alloc_14c10b38c9cbd6e0d1fb6bb35d6ac0c5) #7
  unreachable

bb117:                                            ; preds = %bb86
  %_94 = load i32, ptr %_0.i106, align 4
  %_81 = icmp slt i32 %_82, %_94
  br i1 %_81, label %bb41, label %bb51

panic26:                                          ; preds = %bb86
; call core::panicking::panic_null_pointer_dereference
  call void @_ZN4core9panicking30panic_null_pointer_dereference17hf718fcc86a223baaE(ptr align 8 @alloc_14c10b38c9cbd6e0d1fb6bb35d6ac0c5) #7
  unreachable

bb51:                                             ; preds = %bb117
  %_135 = load i32, ptr %V, align 4
  %_134 = sext i32 %_135 to i64
; call core::ptr::mut_ptr::<impl *mut T>::offset::precondition_check
  call void @"_ZN4core3ptr7mut_ptr31_$LT$impl$u20$$BP$mut$u20$T$GT$6offset18precondition_check17h35b02de5ef1061c5E"(ptr %dist, i64 %_134, i64 4) #8
  %_0.i105 = getelementptr inbounds i32, ptr %dist, i64 %_134
  %_237 = ptrtoint ptr %_0.i105 to i64
  %_240 = and i64 %_237, 3
  %_241 = icmp eq i64 %_240, 0
  br i1 %_241, label %bb78, label %panic27

bb41:                                             ; preds = %bb117
  %_101 = load i32, ptr %V, align 4
  %_100 = sext i32 %_101 to i64
; call core::ptr::mut_ptr::<impl *mut T>::offset::precondition_check
  call void @"_ZN4core3ptr7mut_ptr31_$LT$impl$u20$$BP$mut$u20$T$GT$6offset18precondition_check17h35b02de5ef1061c5E"(ptr %dist, i64 %_100, i64 4) #8
  %_0.i98 = getelementptr inbounds i32, ptr %dist, i64 %_100
  %_279 = ptrtoint ptr %_0.i98 to i64
  %_282 = and i64 %_279, 3
  %_283 = icmp eq i64 %_282, 0
  br i1 %_283, label %bb85, label %panic53

bb78:                                             ; preds = %bb51
  %_542 = ptrtoint ptr %_0.i105 to i64
  %_545 = icmp eq i64 %_542, 0
  %_546 = and i1 %_545, true
  %_547 = xor i1 %_546, true
  br i1 %_547, label %bb125, label %panic28

panic27:                                          ; preds = %bb51
; call core::panicking::panic_misaligned_pointer_dereference
  call void @_ZN4core9panicking36panic_misaligned_pointer_dereference17hcc3cbded9382b6e5E(i64 4, i64 %_237, ptr align 8 @alloc_f1a60668692d155f09ae0c11282e89e3) #7
  unreachable

bb125:                                            ; preds = %bb78
  %_132 = load i32, ptr %_0.i105, align 4
  %_138 = load i32, ptr %V, align 4
  %_137 = sext i32 %_138 to i64
  %_139 = icmp ult i64 %_137, 501
  br i1 %_139, label %bb53, label %panic29

panic28:                                          ; preds = %bb78
; call core::panicking::panic_null_pointer_dereference
  call void @_ZN4core9panicking30panic_null_pointer_dereference17hf718fcc86a223baaE(ptr align 8 @alloc_f1a60668692d155f09ae0c11282e89e3) #7
  unreachable

bb53:                                             ; preds = %bb125
  %_141 = load i32, ptr %W, align 4
  %_140 = sext i32 %_141 to i64
  %_142 = icmp ult i64 %_140, 501
  br i1 %_142, label %bb54, label %panic30

panic29:                                          ; preds = %bb125
; call core::panicking::panic_bounds_check
  call void @_ZN4core9panicking18panic_bounds_check17h27d1e4f0cb1112dfE(i64 %_137, i64 501, ptr align 8 @alloc_d9ceb18bd68d6e43eafbfe5e77dcbdf2) #7
  unreachable

bb54:                                             ; preds = %bb53
  %_231 = ptrtoint ptr %Graph to i64
  %_234 = and i64 %_231, 3
  %_235 = icmp eq i64 %_234, 0
  br i1 %_235, label %bb77, label %panic31

panic30:                                          ; preds = %bb53
; call core::panicking::panic_bounds_check
  call void @_ZN4core9panicking18panic_bounds_check17h27d1e4f0cb1112dfE(i64 %_140, i64 501, ptr align 8 @alloc_d9ceb18bd68d6e43eafbfe5e77dcbdf2) #7
  unreachable

bb77:                                             ; preds = %bb54
  %_549 = ptrtoint ptr %Graph to i64
  %_552 = icmp eq i64 %_549, 0
  %_553 = and i1 %_552, true
  %_554 = xor i1 %_553, true
  br i1 %_554, label %bb126, label %panic32

panic31:                                          ; preds = %bb54
; call core::panicking::panic_misaligned_pointer_dereference
  call void @_ZN4core9panicking36panic_misaligned_pointer_dereference17hcc3cbded9382b6e5E(i64 4, i64 %_231, ptr align 8 @alloc_d9ceb18bd68d6e43eafbfe5e77dcbdf2) #7
  unreachable

bb126:                                            ; preds = %bb77
  %18 = getelementptr inbounds i8, ptr %Graph, i64 8
  %19 = getelementptr inbounds nuw [501 x i32], ptr %18, i64 %_137
  %20 = getelementptr inbounds nuw i32, ptr %19, i64 %_140
  %_136 = load i32, ptr %20, align 4
  %_131 = add i32 %_132, %_136
  %_146 = load i32, ptr %W, align 4
  %_145 = sext i32 %_146 to i64
; call core::ptr::mut_ptr::<impl *mut T>::offset::precondition_check
  call void @"_ZN4core3ptr7mut_ptr31_$LT$impl$u20$$BP$mut$u20$T$GT$6offset18precondition_check17h35b02de5ef1061c5E"(ptr %dist, i64 %_145, i64 4) #8
  %_0.i104 = getelementptr inbounds i32, ptr %dist, i64 %_145
  %_225 = ptrtoint ptr %_0.i104 to i64
  %_228 = and i64 %_225, 3
  %_229 = icmp eq i64 %_228, 0
  br i1 %_229, label %bb76, label %panic33

panic32:                                          ; preds = %bb77
; call core::panicking::panic_null_pointer_dereference
  call void @_ZN4core9panicking30panic_null_pointer_dereference17hf718fcc86a223baaE(ptr align 8 @alloc_d9ceb18bd68d6e43eafbfe5e77dcbdf2) #7
  unreachable

bb76:                                             ; preds = %bb126
  %_556 = ptrtoint ptr %_0.i104 to i64
  %_559 = icmp eq i64 %_556, 0
  %_560 = and i1 %_559, true
  %_561 = xor i1 %_560, true
  br i1 %_561, label %bb127, label %panic34

panic33:                                          ; preds = %bb126
; call core::panicking::panic_misaligned_pointer_dereference
  call void @_ZN4core9panicking36panic_misaligned_pointer_dereference17hcc3cbded9382b6e5E(i64 4, i64 %_225, ptr align 8 @alloc_98309aad31aa24861595ee136e707c76) #7
  unreachable

bb127:                                            ; preds = %bb76
  %_143 = load i32, ptr %_0.i104, align 4
  %_130 = icmp eq i32 %_131, %_143
  br i1 %_130, label %bb56, label %bb67

panic34:                                          ; preds = %bb76
; call core::panicking::panic_null_pointer_dereference
  call void @_ZN4core9panicking30panic_null_pointer_dereference17hf718fcc86a223baaE(ptr align 8 @alloc_98309aad31aa24861595ee136e707c76) #7
  unreachable

bb56:                                             ; preds = %bb127
  %_152 = load i32, ptr %V, align 4
  %_151 = sext i32 %_152 to i64
; call core::ptr::mut_ptr::<impl *mut T>::offset::precondition_check
  call void @"_ZN4core3ptr7mut_ptr31_$LT$impl$u20$$BP$mut$u20$T$GT$6offset18precondition_check17h35b02de5ef1061c5E"(ptr %cost, i64 %_151, i64 4) #8
  %_0.i103 = getelementptr inbounds i32, ptr %cost, i64 %_151
  %_219 = ptrtoint ptr %_0.i103 to i64
  %_222 = and i64 %_219, 3
  %_223 = icmp eq i64 %_222, 0
  br i1 %_223, label %bb75, label %panic35

bb75:                                             ; preds = %bb56
  %_563 = ptrtoint ptr %_0.i103 to i64
  %_566 = icmp eq i64 %_563, 0
  %_567 = and i1 %_566, true
  %_568 = xor i1 %_567, true
  br i1 %_568, label %bb128, label %panic36

panic35:                                          ; preds = %bb56
; call core::panicking::panic_misaligned_pointer_dereference
  call void @_ZN4core9panicking36panic_misaligned_pointer_dereference17hcc3cbded9382b6e5E(i64 4, i64 %_219, ptr align 8 @alloc_a6d47eeef6b04f29e1410ef554c2d5b4) #7
  unreachable

bb128:                                            ; preds = %bb75
  %_149 = load i32, ptr %_0.i103, align 4
  %_155 = load i32, ptr %V, align 4
  %_154 = sext i32 %_155 to i64
  %_156 = icmp ult i64 %_154, 501
  br i1 %_156, label %bb58, label %panic37

panic36:                                          ; preds = %bb75
; call core::panicking::panic_null_pointer_dereference
  call void @_ZN4core9panicking30panic_null_pointer_dereference17hf718fcc86a223baaE(ptr align 8 @alloc_a6d47eeef6b04f29e1410ef554c2d5b4) #7
  unreachable

bb58:                                             ; preds = %bb128
  %_158 = load i32, ptr %W, align 4
  %_157 = sext i32 %_158 to i64
  %_159 = icmp ult i64 %_157, 501
  br i1 %_159, label %bb59, label %panic38

panic37:                                          ; preds = %bb128
; call core::panicking::panic_bounds_check
  call void @_ZN4core9panicking18panic_bounds_check17h27d1e4f0cb1112dfE(i64 %_154, i64 501, ptr align 8 @alloc_ce2604fe07d1413acd5e8e691a013312) #7
  unreachable

bb59:                                             ; preds = %bb58
  %_213 = ptrtoint ptr %Graph to i64
  %_216 = and i64 %_213, 3
  %_217 = icmp eq i64 %_216, 0
  br i1 %_217, label %bb74, label %panic39

panic38:                                          ; preds = %bb58
; call core::panicking::panic_bounds_check
  call void @_ZN4core9panicking18panic_bounds_check17h27d1e4f0cb1112dfE(i64 %_157, i64 501, ptr align 8 @alloc_ce2604fe07d1413acd5e8e691a013312) #7
  unreachable

bb74:                                             ; preds = %bb59
  %_570 = ptrtoint ptr %Graph to i64
  %_573 = icmp eq i64 %_570, 0
  %_574 = and i1 %_573, true
  %_575 = xor i1 %_574, true
  br i1 %_575, label %bb129, label %panic40

panic39:                                          ; preds = %bb59
; call core::panicking::panic_misaligned_pointer_dereference
  call void @_ZN4core9panicking36panic_misaligned_pointer_dereference17hcc3cbded9382b6e5E(i64 4, i64 %_213, ptr align 8 @alloc_ce2604fe07d1413acd5e8e691a013312) #7
  unreachable

bb129:                                            ; preds = %bb74
  %21 = getelementptr inbounds i8, ptr %Graph, i64 1004012
  %22 = getelementptr inbounds nuw [501 x i32], ptr %21, i64 %_154
  %23 = getelementptr inbounds nuw i32, ptr %22, i64 %_157
  %_153 = load i32, ptr %23, align 4
  %_148 = add i32 %_149, %_153
  %_163 = load i32, ptr %W, align 4
  %_162 = sext i32 %_163 to i64
; call core::ptr::mut_ptr::<impl *mut T>::offset::precondition_check
  call void @"_ZN4core3ptr7mut_ptr31_$LT$impl$u20$$BP$mut$u20$T$GT$6offset18precondition_check17h35b02de5ef1061c5E"(ptr %cost, i64 %_162, i64 4) #8
  %_0.i102 = getelementptr inbounds i32, ptr %cost, i64 %_162
  %_207 = ptrtoint ptr %_0.i102 to i64
  %_210 = and i64 %_207, 3
  %_211 = icmp eq i64 %_210, 0
  br i1 %_211, label %bb73, label %panic41

panic40:                                          ; preds = %bb74
; call core::panicking::panic_null_pointer_dereference
  call void @_ZN4core9panicking30panic_null_pointer_dereference17hf718fcc86a223baaE(ptr align 8 @alloc_ce2604fe07d1413acd5e8e691a013312) #7
  unreachable

bb73:                                             ; preds = %bb129
  %_577 = ptrtoint ptr %_0.i102 to i64
  %_580 = icmp eq i64 %_577, 0
  %_581 = and i1 %_580, true
  %_582 = xor i1 %_581, true
  br i1 %_582, label %bb130, label %panic42

panic41:                                          ; preds = %bb129
; call core::panicking::panic_misaligned_pointer_dereference
  call void @_ZN4core9panicking36panic_misaligned_pointer_dereference17hcc3cbded9382b6e5E(i64 4, i64 %_207, ptr align 8 @alloc_c8fb1f718d6b41c309e6b2bdf3e062ac) #7
  unreachable

bb130:                                            ; preds = %bb73
  %_160 = load i32, ptr %_0.i102, align 4
  %_147 = icmp slt i32 %_148, %_160
  br i1 %_147, label %bb61, label %bb67

panic42:                                          ; preds = %bb73
; call core::panicking::panic_null_pointer_dereference
  call void @_ZN4core9panicking30panic_null_pointer_dereference17hf718fcc86a223baaE(ptr align 8 @alloc_c8fb1f718d6b41c309e6b2bdf3e062ac) #7
  unreachable

bb61:                                             ; preds = %bb130
  %_167 = load i32, ptr %V, align 4
  %_166 = sext i32 %_167 to i64
; call core::ptr::mut_ptr::<impl *mut T>::offset::precondition_check
  call void @"_ZN4core3ptr7mut_ptr31_$LT$impl$u20$$BP$mut$u20$T$GT$6offset18precondition_check17h35b02de5ef1061c5E"(ptr %cost, i64 %_166, i64 4) #8
  %_0.i101 = getelementptr inbounds i32, ptr %cost, i64 %_166
  %_201 = ptrtoint ptr %_0.i101 to i64
  %_204 = and i64 %_201, 3
  %_205 = icmp eq i64 %_204, 0
  br i1 %_205, label %bb72, label %panic43

bb72:                                             ; preds = %bb61
  %_584 = ptrtoint ptr %_0.i101 to i64
  %_587 = icmp eq i64 %_584, 0
  %_588 = and i1 %_587, true
  %_589 = xor i1 %_588, true
  br i1 %_589, label %bb131, label %panic44

panic43:                                          ; preds = %bb61
; call core::panicking::panic_misaligned_pointer_dereference
  call void @_ZN4core9panicking36panic_misaligned_pointer_dereference17hcc3cbded9382b6e5E(i64 4, i64 %_201, ptr align 8 @alloc_87681ee2f9026fcdbf484b702285d265) #7
  unreachable

bb131:                                            ; preds = %bb72
  %_164 = load i32, ptr %_0.i101, align 4
  %_170 = load i32, ptr %V, align 4
  %_169 = sext i32 %_170 to i64
  %_171 = icmp ult i64 %_169, 501
  br i1 %_171, label %bb63, label %panic45

panic44:                                          ; preds = %bb72
; call core::panicking::panic_null_pointer_dereference
  call void @_ZN4core9panicking30panic_null_pointer_dereference17hf718fcc86a223baaE(ptr align 8 @alloc_87681ee2f9026fcdbf484b702285d265) #7
  unreachable

bb63:                                             ; preds = %bb131
  %_173 = load i32, ptr %W, align 4
  %_172 = sext i32 %_173 to i64
  %_174 = icmp ult i64 %_172, 501
  br i1 %_174, label %bb64, label %panic46

panic45:                                          ; preds = %bb131
; call core::panicking::panic_bounds_check
  call void @_ZN4core9panicking18panic_bounds_check17h27d1e4f0cb1112dfE(i64 %_169, i64 501, ptr align 8 @alloc_f43af4b6d3da5ba97177245403ecee8e) #7
  unreachable

bb64:                                             ; preds = %bb63
  %_195 = ptrtoint ptr %Graph to i64
  %_198 = and i64 %_195, 3
  %_199 = icmp eq i64 %_198, 0
  br i1 %_199, label %bb71, label %panic47

panic46:                                          ; preds = %bb63
; call core::panicking::panic_bounds_check
  call void @_ZN4core9panicking18panic_bounds_check17h27d1e4f0cb1112dfE(i64 %_172, i64 501, ptr align 8 @alloc_f43af4b6d3da5ba97177245403ecee8e) #7
  unreachable

bb71:                                             ; preds = %bb64
  %_591 = ptrtoint ptr %Graph to i64
  %_594 = icmp eq i64 %_591, 0
  %_595 = and i1 %_594, true
  %_596 = xor i1 %_595, true
  br i1 %_596, label %bb132, label %panic48

panic47:                                          ; preds = %bb64
; call core::panicking::panic_misaligned_pointer_dereference
  call void @_ZN4core9panicking36panic_misaligned_pointer_dereference17hcc3cbded9382b6e5E(i64 4, i64 %_195, ptr align 8 @alloc_f43af4b6d3da5ba97177245403ecee8e) #7
  unreachable

bb132:                                            ; preds = %bb71
  %24 = getelementptr inbounds i8, ptr %Graph, i64 1004012
  %25 = getelementptr inbounds nuw [501 x i32], ptr %24, i64 %_169
  %26 = getelementptr inbounds nuw i32, ptr %25, i64 %_172
  %_168 = load i32, ptr %26, align 4
  %_177 = load i32, ptr %W, align 4
  %_176 = sext i32 %_177 to i64
; call core::ptr::mut_ptr::<impl *mut T>::offset::precondition_check
  call void @"_ZN4core3ptr7mut_ptr31_$LT$impl$u20$$BP$mut$u20$T$GT$6offset18precondition_check17h35b02de5ef1061c5E"(ptr %cost, i64 %_176, i64 4) #8
  %_0.i100 = getelementptr inbounds i32, ptr %cost, i64 %_176
  %_189 = ptrtoint ptr %_0.i100 to i64
  %_192 = and i64 %_189, 3
  %_193 = icmp eq i64 %_192, 0
  br i1 %_193, label %bb70, label %panic49

panic48:                                          ; preds = %bb71
; call core::panicking::panic_null_pointer_dereference
  call void @_ZN4core9panicking30panic_null_pointer_dereference17hf718fcc86a223baaE(ptr align 8 @alloc_f43af4b6d3da5ba97177245403ecee8e) #7
  unreachable

bb70:                                             ; preds = %bb132
  %_598 = ptrtoint ptr %_0.i100 to i64
  %_601 = icmp eq i64 %_598, 0
  %_602 = and i1 %_601, true
  %_603 = xor i1 %_602, true
  br i1 %_603, label %bb133, label %panic50

panic49:                                          ; preds = %bb132
; call core::panicking::panic_misaligned_pointer_dereference
  call void @_ZN4core9panicking36panic_misaligned_pointer_dereference17hcc3cbded9382b6e5E(i64 4, i64 %_189, ptr align 8 @alloc_759e39e1a053793936f024319dc7984d) #7
  unreachable

bb133:                                            ; preds = %bb70
  %27 = add i32 %_164, %_168
  store i32 %27, ptr %_0.i100, align 4
  %_178 = load i32, ptr %V, align 4
  %_181 = load i32, ptr %W, align 4
  %_180 = sext i32 %_181 to i64
; call core::ptr::mut_ptr::<impl *mut T>::offset::precondition_check
  call void @"_ZN4core3ptr7mut_ptr31_$LT$impl$u20$$BP$mut$u20$T$GT$6offset18precondition_check17h35b02de5ef1061c5E"(ptr %path, i64 %_180, i64 4) #8
  %_0.i99 = getelementptr inbounds i32, ptr %path, i64 %_180
  %_183 = ptrtoint ptr %_0.i99 to i64
  %_186 = and i64 %_183, 3
  %_187 = icmp eq i64 %_186, 0
  br i1 %_187, label %bb69, label %panic51

panic50:                                          ; preds = %bb70
; call core::panicking::panic_null_pointer_dereference
  call void @_ZN4core9panicking30panic_null_pointer_dereference17hf718fcc86a223baaE(ptr align 8 @alloc_759e39e1a053793936f024319dc7984d) #7
  unreachable

bb69:                                             ; preds = %bb133
  %_605 = ptrtoint ptr %_0.i99 to i64
  %_608 = icmp eq i64 %_605, 0
  %_609 = and i1 %_608, true
  %_610 = xor i1 %_609, true
  br i1 %_610, label %bb134, label %panic52

panic51:                                          ; preds = %bb133
; call core::panicking::panic_misaligned_pointer_dereference
  call void @_ZN4core9panicking36panic_misaligned_pointer_dereference17hcc3cbded9382b6e5E(i64 4, i64 %_183, ptr align 8 @alloc_80a3549bee93b568aab9bade953aaf20) #7
  unreachable

bb134:                                            ; preds = %bb69
  store i32 %_178, ptr %_0.i99, align 4
  br label %bb67

panic52:                                          ; preds = %bb69
; call core::panicking::panic_null_pointer_dereference
  call void @_ZN4core9panicking30panic_null_pointer_dereference17hf718fcc86a223baaE(ptr align 8 @alloc_80a3549bee93b568aab9bade953aaf20) #7
  unreachable

bb85:                                             ; preds = %bb41
  %_493 = ptrtoint ptr %_0.i98 to i64
  %_496 = icmp eq i64 %_493, 0
  %_497 = and i1 %_496, true
  %_498 = xor i1 %_497, true
  br i1 %_498, label %bb118, label %panic54

panic53:                                          ; preds = %bb41
; call core::panicking::panic_misaligned_pointer_dereference
  call void @_ZN4core9panicking36panic_misaligned_pointer_dereference17hcc3cbded9382b6e5E(i64 4, i64 %_279, ptr align 8 @alloc_e07acb0d0ace4e6b0fe3f4c416629301) #7
  unreachable

bb118:                                            ; preds = %bb85
  %_98 = load i32, ptr %_0.i98, align 4
  %_104 = load i32, ptr %V, align 4
  %_103 = sext i32 %_104 to i64
  %_105 = icmp ult i64 %_103, 501
  br i1 %_105, label %bb43, label %panic55

panic54:                                          ; preds = %bb85
; call core::panicking::panic_null_pointer_dereference
  call void @_ZN4core9panicking30panic_null_pointer_dereference17hf718fcc86a223baaE(ptr align 8 @alloc_e07acb0d0ace4e6b0fe3f4c416629301) #7
  unreachable

bb43:                                             ; preds = %bb118
  %_107 = load i32, ptr %W, align 4
  %_106 = sext i32 %_107 to i64
  %_108 = icmp ult i64 %_106, 501
  br i1 %_108, label %bb44, label %panic56

panic55:                                          ; preds = %bb118
; call core::panicking::panic_bounds_check
  call void @_ZN4core9panicking18panic_bounds_check17h27d1e4f0cb1112dfE(i64 %_103, i64 501, ptr align 8 @alloc_d84ee36122004c64be02490bd45c3bdf) #7
  unreachable

bb44:                                             ; preds = %bb43
  %_273 = ptrtoint ptr %Graph to i64
  %_276 = and i64 %_273, 3
  %_277 = icmp eq i64 %_276, 0
  br i1 %_277, label %bb84, label %panic57

panic56:                                          ; preds = %bb43
; call core::panicking::panic_bounds_check
  call void @_ZN4core9panicking18panic_bounds_check17h27d1e4f0cb1112dfE(i64 %_106, i64 501, ptr align 8 @alloc_d84ee36122004c64be02490bd45c3bdf) #7
  unreachable

bb84:                                             ; preds = %bb44
  %_500 = ptrtoint ptr %Graph to i64
  %_503 = icmp eq i64 %_500, 0
  %_504 = and i1 %_503, true
  %_505 = xor i1 %_504, true
  br i1 %_505, label %bb119, label %panic58

panic57:                                          ; preds = %bb44
; call core::panicking::panic_misaligned_pointer_dereference
  call void @_ZN4core9panicking36panic_misaligned_pointer_dereference17hcc3cbded9382b6e5E(i64 4, i64 %_273, ptr align 8 @alloc_d84ee36122004c64be02490bd45c3bdf) #7
  unreachable

bb119:                                            ; preds = %bb84
  %28 = getelementptr inbounds i8, ptr %Graph, i64 8
  %29 = getelementptr inbounds nuw [501 x i32], ptr %28, i64 %_103
  %30 = getelementptr inbounds nuw i32, ptr %29, i64 %_106
  %_102 = load i32, ptr %30, align 4
  %_111 = load i32, ptr %W, align 4
  %_110 = sext i32 %_111 to i64
; call core::ptr::mut_ptr::<impl *mut T>::offset::precondition_check
  call void @"_ZN4core3ptr7mut_ptr31_$LT$impl$u20$$BP$mut$u20$T$GT$6offset18precondition_check17h35b02de5ef1061c5E"(ptr %dist, i64 %_110, i64 4) #8
  %_0.i97 = getelementptr inbounds i32, ptr %dist, i64 %_110
  %_267 = ptrtoint ptr %_0.i97 to i64
  %_270 = and i64 %_267, 3
  %_271 = icmp eq i64 %_270, 0
  br i1 %_271, label %bb83, label %panic59

panic58:                                          ; preds = %bb84
; call core::panicking::panic_null_pointer_dereference
  call void @_ZN4core9panicking30panic_null_pointer_dereference17hf718fcc86a223baaE(ptr align 8 @alloc_d84ee36122004c64be02490bd45c3bdf) #7
  unreachable

bb83:                                             ; preds = %bb119
  %_507 = ptrtoint ptr %_0.i97 to i64
  %_510 = icmp eq i64 %_507, 0
  %_511 = and i1 %_510, true
  %_512 = xor i1 %_511, true
  br i1 %_512, label %bb120, label %panic60

panic59:                                          ; preds = %bb119
; call core::panicking::panic_misaligned_pointer_dereference
  call void @_ZN4core9panicking36panic_misaligned_pointer_dereference17hcc3cbded9382b6e5E(i64 4, i64 %_267, ptr align 8 @alloc_933c06068ab12148f2be0acaf0efb190) #7
  unreachable

bb120:                                            ; preds = %bb83
  %31 = add i32 %_98, %_102
  store i32 %31, ptr %_0.i97, align 4
  %_112 = load i32, ptr %V, align 4
  %_115 = load i32, ptr %W, align 4
  %_114 = sext i32 %_115 to i64
; call core::ptr::mut_ptr::<impl *mut T>::offset::precondition_check
  call void @"_ZN4core3ptr7mut_ptr31_$LT$impl$u20$$BP$mut$u20$T$GT$6offset18precondition_check17h35b02de5ef1061c5E"(ptr %path, i64 %_114, i64 4) #8
  %_0.i96 = getelementptr inbounds i32, ptr %path, i64 %_114
  %_261 = ptrtoint ptr %_0.i96 to i64
  %_264 = and i64 %_261, 3
  %_265 = icmp eq i64 %_264, 0
  br i1 %_265, label %bb82, label %panic61

panic60:                                          ; preds = %bb83
; call core::panicking::panic_null_pointer_dereference
  call void @_ZN4core9panicking30panic_null_pointer_dereference17hf718fcc86a223baaE(ptr align 8 @alloc_933c06068ab12148f2be0acaf0efb190) #7
  unreachable

bb82:                                             ; preds = %bb120
  %_514 = ptrtoint ptr %_0.i96 to i64
  %_517 = icmp eq i64 %_514, 0
  %_518 = and i1 %_517, true
  %_519 = xor i1 %_518, true
  br i1 %_519, label %bb121, label %panic62

panic61:                                          ; preds = %bb120
; call core::panicking::panic_misaligned_pointer_dereference
  call void @_ZN4core9panicking36panic_misaligned_pointer_dereference17hcc3cbded9382b6e5E(i64 4, i64 %_261, ptr align 8 @alloc_a2094594ca5ddceace21a23b96082331) #7
  unreachable

bb121:                                            ; preds = %bb82
  store i32 %_112, ptr %_0.i96, align 4
  %_119 = load i32, ptr %V, align 4
  %_118 = sext i32 %_119 to i64
; call core::ptr::mut_ptr::<impl *mut T>::offset::precondition_check
  call void @"_ZN4core3ptr7mut_ptr31_$LT$impl$u20$$BP$mut$u20$T$GT$6offset18precondition_check17h35b02de5ef1061c5E"(ptr %cost, i64 %_118, i64 4) #8
  %_0.i95 = getelementptr inbounds i32, ptr %cost, i64 %_118
  %_255 = ptrtoint ptr %_0.i95 to i64
  %_258 = and i64 %_255, 3
  %_259 = icmp eq i64 %_258, 0
  br i1 %_259, label %bb81, label %panic63

panic62:                                          ; preds = %bb82
; call core::panicking::panic_null_pointer_dereference
  call void @_ZN4core9panicking30panic_null_pointer_dereference17hf718fcc86a223baaE(ptr align 8 @alloc_a2094594ca5ddceace21a23b96082331) #7
  unreachable

bb81:                                             ; preds = %bb121
  %_521 = ptrtoint ptr %_0.i95 to i64
  %_524 = icmp eq i64 %_521, 0
  %_525 = and i1 %_524, true
  %_526 = xor i1 %_525, true
  br i1 %_526, label %bb122, label %panic64

panic63:                                          ; preds = %bb121
; call core::panicking::panic_misaligned_pointer_dereference
  call void @_ZN4core9panicking36panic_misaligned_pointer_dereference17hcc3cbded9382b6e5E(i64 4, i64 %_255, ptr align 8 @alloc_fd5c85a665c9ef685d4e4715cc3f994d) #7
  unreachable

bb122:                                            ; preds = %bb81
  %_116 = load i32, ptr %_0.i95, align 4
  %_122 = load i32, ptr %V, align 4
  %_121 = sext i32 %_122 to i64
  %_123 = icmp ult i64 %_121, 501
  br i1 %_123, label %bb48, label %panic65

panic64:                                          ; preds = %bb81
; call core::panicking::panic_null_pointer_dereference
  call void @_ZN4core9panicking30panic_null_pointer_dereference17hf718fcc86a223baaE(ptr align 8 @alloc_fd5c85a665c9ef685d4e4715cc3f994d) #7
  unreachable

bb48:                                             ; preds = %bb122
  %_125 = load i32, ptr %W, align 4
  %_124 = sext i32 %_125 to i64
  %_126 = icmp ult i64 %_124, 501
  br i1 %_126, label %bb49, label %panic66

panic65:                                          ; preds = %bb122
; call core::panicking::panic_bounds_check
  call void @_ZN4core9panicking18panic_bounds_check17h27d1e4f0cb1112dfE(i64 %_121, i64 501, ptr align 8 @alloc_97a175f2a3d70cf29fb9dede01aed764) #7
  unreachable

bb49:                                             ; preds = %bb48
  %_249 = ptrtoint ptr %Graph to i64
  %_252 = and i64 %_249, 3
  %_253 = icmp eq i64 %_252, 0
  br i1 %_253, label %bb80, label %panic67

panic66:                                          ; preds = %bb48
; call core::panicking::panic_bounds_check
  call void @_ZN4core9panicking18panic_bounds_check17h27d1e4f0cb1112dfE(i64 %_124, i64 501, ptr align 8 @alloc_97a175f2a3d70cf29fb9dede01aed764) #7
  unreachable

bb80:                                             ; preds = %bb49
  %_528 = ptrtoint ptr %Graph to i64
  %_531 = icmp eq i64 %_528, 0
  %_532 = and i1 %_531, true
  %_533 = xor i1 %_532, true
  br i1 %_533, label %bb123, label %panic68

panic67:                                          ; preds = %bb49
; call core::panicking::panic_misaligned_pointer_dereference
  call void @_ZN4core9panicking36panic_misaligned_pointer_dereference17hcc3cbded9382b6e5E(i64 4, i64 %_249, ptr align 8 @alloc_97a175f2a3d70cf29fb9dede01aed764) #7
  unreachable

bb123:                                            ; preds = %bb80
  %32 = getelementptr inbounds i8, ptr %Graph, i64 1004012
  %33 = getelementptr inbounds nuw [501 x i32], ptr %32, i64 %_121
  %34 = getelementptr inbounds nuw i32, ptr %33, i64 %_124
  %_120 = load i32, ptr %34, align 4
  %_129 = load i32, ptr %W, align 4
  %_128 = sext i32 %_129 to i64
; call core::ptr::mut_ptr::<impl *mut T>::offset::precondition_check
  call void @"_ZN4core3ptr7mut_ptr31_$LT$impl$u20$$BP$mut$u20$T$GT$6offset18precondition_check17h35b02de5ef1061c5E"(ptr %cost, i64 %_128, i64 4) #8
  %_0.i94 = getelementptr inbounds i32, ptr %cost, i64 %_128
  %_243 = ptrtoint ptr %_0.i94 to i64
  %_246 = and i64 %_243, 3
  %_247 = icmp eq i64 %_246, 0
  br i1 %_247, label %bb79, label %panic69

panic68:                                          ; preds = %bb80
; call core::panicking::panic_null_pointer_dereference
  call void @_ZN4core9panicking30panic_null_pointer_dereference17hf718fcc86a223baaE(ptr align 8 @alloc_97a175f2a3d70cf29fb9dede01aed764) #7
  unreachable

bb79:                                             ; preds = %bb123
  %_535 = ptrtoint ptr %_0.i94 to i64
  %_538 = icmp eq i64 %_535, 0
  %_539 = and i1 %_538, true
  %_540 = xor i1 %_539, true
  br i1 %_540, label %bb124, label %panic70

panic69:                                          ; preds = %bb123
; call core::panicking::panic_misaligned_pointer_dereference
  call void @_ZN4core9panicking36panic_misaligned_pointer_dereference17hcc3cbded9382b6e5E(i64 4, i64 %_243, ptr align 8 @alloc_d81142645b6e6ffe5af1088ce1e8d26e) #7
  unreachable

bb124:                                            ; preds = %bb79
  %35 = add i32 %_116, %_120
  store i32 %35, ptr %_0.i94, align 4
  br label %bb67

panic70:                                          ; preds = %bb79
; call core::panicking::panic_null_pointer_dereference
  call void @_ZN4core9panicking30panic_null_pointer_dereference17hf718fcc86a223baaE(ptr align 8 @alloc_d81142645b6e6ffe5af1088ce1e8d26e) #7
  unreachable

bb3:                                              ; preds = %bb2
  %_16 = load i32, ptr %V, align 4
  %_15 = sext i32 %_16 to i64
  %_17 = icmp ult i64 %_15, 501
  br i1 %_17, label %bb4, label %panic72

panic71:                                          ; preds = %bb2
; call core::panicking::panic_bounds_check
  call void @_ZN4core9panicking18panic_bounds_check17h27d1e4f0cb1112dfE(i64 %_13, i64 501, ptr align 8 @alloc_374b3f3fd546c11a484ed19f7c47bbbe) #7
  unreachable

bb4:                                              ; preds = %bb3
  %_369 = ptrtoint ptr %Graph to i64
  %_372 = and i64 %_369, 3
  %_373 = icmp eq i64 %_372, 0
  br i1 %_373, label %bb100, label %panic73

panic72:                                          ; preds = %bb3
; call core::panicking::panic_bounds_check
  call void @_ZN4core9panicking18panic_bounds_check17h27d1e4f0cb1112dfE(i64 %_15, i64 501, ptr align 8 @alloc_374b3f3fd546c11a484ed19f7c47bbbe) #7
  unreachable

bb100:                                            ; preds = %bb4
  %_388 = ptrtoint ptr %Graph to i64
  %_391 = icmp eq i64 %_388, 0
  %_392 = and i1 %_391, true
  %_393 = xor i1 %_392, true
  br i1 %_393, label %bb103, label %panic74

panic73:                                          ; preds = %bb4
; call core::panicking::panic_misaligned_pointer_dereference
  call void @_ZN4core9panicking36panic_misaligned_pointer_dereference17hcc3cbded9382b6e5E(i64 4, i64 %_369, ptr align 8 @alloc_374b3f3fd546c11a484ed19f7c47bbbe) #7
  unreachable

bb103:                                            ; preds = %bb100
  %36 = getelementptr inbounds i8, ptr %Graph, i64 8
  %37 = getelementptr inbounds nuw [501 x i32], ptr %36, i64 %_13
  %38 = getelementptr inbounds nuw i32, ptr %37, i64 %_15
  %_12 = load i32, ptr %38, align 4
  %_20 = load i32, ptr %V, align 4
  %_19 = sext i32 %_20 to i64
; call core::ptr::mut_ptr::<impl *mut T>::offset::precondition_check
  call void @"_ZN4core3ptr7mut_ptr31_$LT$impl$u20$$BP$mut$u20$T$GT$6offset18precondition_check17h35b02de5ef1061c5E"(ptr %dist, i64 %_19, i64 4) #8
  %_0.i93 = getelementptr inbounds i32, ptr %dist, i64 %_19
  %_363 = ptrtoint ptr %_0.i93 to i64
  %_366 = and i64 %_363, 3
  %_367 = icmp eq i64 %_366, 0
  br i1 %_367, label %bb99, label %panic75

panic74:                                          ; preds = %bb100
; call core::panicking::panic_null_pointer_dereference
  call void @_ZN4core9panicking30panic_null_pointer_dereference17hf718fcc86a223baaE(ptr align 8 @alloc_374b3f3fd546c11a484ed19f7c47bbbe) #7
  unreachable

bb99:                                             ; preds = %bb103
  %_395 = ptrtoint ptr %_0.i93 to i64
  %_398 = icmp eq i64 %_395, 0
  %_399 = and i1 %_398, true
  %_400 = xor i1 %_399, true
  br i1 %_400, label %bb104, label %panic76

panic75:                                          ; preds = %bb103
; call core::panicking::panic_misaligned_pointer_dereference
  call void @_ZN4core9panicking36panic_misaligned_pointer_dereference17hcc3cbded9382b6e5E(i64 4, i64 %_363, ptr align 8 @alloc_847817f60a835e11a29d83b54122ef92) #7
  unreachable

bb104:                                            ; preds = %bb99
  store i32 %_12, ptr %_0.i93, align 4
  %_22 = sext i32 %S to i64
  %_23 = icmp ult i64 %_22, 501
  br i1 %_23, label %bb6, label %panic77

panic76:                                          ; preds = %bb99
; call core::panicking::panic_null_pointer_dereference
  call void @_ZN4core9panicking30panic_null_pointer_dereference17hf718fcc86a223baaE(ptr align 8 @alloc_847817f60a835e11a29d83b54122ef92) #7
  unreachable

bb6:                                              ; preds = %bb104
  %_25 = load i32, ptr %V, align 4
  %_24 = sext i32 %_25 to i64
  %_26 = icmp ult i64 %_24, 501
  br i1 %_26, label %bb7, label %panic78

panic77:                                          ; preds = %bb104
; call core::panicking::panic_bounds_check
  call void @_ZN4core9panicking18panic_bounds_check17h27d1e4f0cb1112dfE(i64 %_22, i64 501, ptr align 8 @alloc_e846f27ef6722564a60b5568e47789c6) #7
  unreachable

bb7:                                              ; preds = %bb6
  %_357 = ptrtoint ptr %Graph to i64
  %_360 = and i64 %_357, 3
  %_361 = icmp eq i64 %_360, 0
  br i1 %_361, label %bb98, label %panic79

panic78:                                          ; preds = %bb6
; call core::panicking::panic_bounds_check
  call void @_ZN4core9panicking18panic_bounds_check17h27d1e4f0cb1112dfE(i64 %_24, i64 501, ptr align 8 @alloc_e846f27ef6722564a60b5568e47789c6) #7
  unreachable

bb98:                                             ; preds = %bb7
  %_402 = ptrtoint ptr %Graph to i64
  %_405 = icmp eq i64 %_402, 0
  %_406 = and i1 %_405, true
  %_407 = xor i1 %_406, true
  br i1 %_407, label %bb105, label %panic80

panic79:                                          ; preds = %bb7
; call core::panicking::panic_misaligned_pointer_dereference
  call void @_ZN4core9panicking36panic_misaligned_pointer_dereference17hcc3cbded9382b6e5E(i64 4, i64 %_357, ptr align 8 @alloc_e846f27ef6722564a60b5568e47789c6) #7
  unreachable

bb105:                                            ; preds = %bb98
  %39 = getelementptr inbounds i8, ptr %Graph, i64 1004012
  %40 = getelementptr inbounds nuw [501 x i32], ptr %39, i64 %_22
  %41 = getelementptr inbounds nuw i32, ptr %40, i64 %_24
  %_21 = load i32, ptr %41, align 4
  %_29 = load i32, ptr %V, align 4
  %_28 = sext i32 %_29 to i64
; call core::ptr::mut_ptr::<impl *mut T>::offset::precondition_check
  call void @"_ZN4core3ptr7mut_ptr31_$LT$impl$u20$$BP$mut$u20$T$GT$6offset18precondition_check17h35b02de5ef1061c5E"(ptr %cost, i64 %_28, i64 4) #8
  %_0.i92 = getelementptr inbounds i32, ptr %cost, i64 %_28
  %_351 = ptrtoint ptr %_0.i92 to i64
  %_354 = and i64 %_351, 3
  %_355 = icmp eq i64 %_354, 0
  br i1 %_355, label %bb97, label %panic81

panic80:                                          ; preds = %bb98
; call core::panicking::panic_null_pointer_dereference
  call void @_ZN4core9panicking30panic_null_pointer_dereference17hf718fcc86a223baaE(ptr align 8 @alloc_e846f27ef6722564a60b5568e47789c6) #7
  unreachable

bb97:                                             ; preds = %bb105
  %_409 = ptrtoint ptr %_0.i92 to i64
  %_412 = icmp eq i64 %_409, 0
  %_413 = and i1 %_412, true
  %_414 = xor i1 %_413, true
  br i1 %_414, label %bb106, label %panic82

panic81:                                          ; preds = %bb105
; call core::panicking::panic_misaligned_pointer_dereference
  call void @_ZN4core9panicking36panic_misaligned_pointer_dereference17hcc3cbded9382b6e5E(i64 4, i64 %_351, ptr align 8 @alloc_51defa837211d00b128e9b5e60ecda6b) #7
  unreachable

bb106:                                            ; preds = %bb97
  store i32 %_21, ptr %_0.i92, align 4
  %_34 = load i32, ptr %V, align 4
  %_33 = sext i32 %_34 to i64
; call core::ptr::mut_ptr::<impl *mut T>::offset::precondition_check
  call void @"_ZN4core3ptr7mut_ptr31_$LT$impl$u20$$BP$mut$u20$T$GT$6offset18precondition_check17h35b02de5ef1061c5E"(ptr %dist, i64 %_33, i64 4) #8
  %_0.i91 = getelementptr inbounds i32, ptr %dist, i64 %_33
  %_345 = ptrtoint ptr %_0.i91 to i64
  %_348 = and i64 %_345, 3
  %_349 = icmp eq i64 %_348, 0
  br i1 %_349, label %bb96, label %panic83

panic82:                                          ; preds = %bb97
; call core::panicking::panic_null_pointer_dereference
  call void @_ZN4core9panicking30panic_null_pointer_dereference17hf718fcc86a223baaE(ptr align 8 @alloc_51defa837211d00b128e9b5e60ecda6b) #7
  unreachable

bb96:                                             ; preds = %bb106
  %_416 = ptrtoint ptr %_0.i91 to i64
  %_419 = icmp eq i64 %_416, 0
  %_420 = and i1 %_419, true
  %_421 = xor i1 %_420, true
  br i1 %_421, label %bb107, label %panic84

panic83:                                          ; preds = %bb106
; call core::panicking::panic_misaligned_pointer_dereference
  call void @_ZN4core9panicking36panic_misaligned_pointer_dereference17hcc3cbded9382b6e5E(i64 4, i64 %_345, ptr align 8 @alloc_8ab490a61e5094234e20afca7467eaf8) #7
  unreachable

bb107:                                            ; preds = %bb96
  %_31 = load i32, ptr %_0.i91, align 4
  %_30 = icmp slt i32 %_31, 65535
  br i1 %_30, label %bb10, label %bb12

panic84:                                          ; preds = %bb96
; call core::panicking::panic_null_pointer_dereference
  call void @_ZN4core9panicking30panic_null_pointer_dereference17hf718fcc86a223baaE(ptr align 8 @alloc_8ab490a61e5094234e20afca7467eaf8) #7
  unreachable

bb12:                                             ; preds = %bb107
  %_40 = load i32, ptr %V, align 4
  %_39 = sext i32 %_40 to i64
; call core::ptr::mut_ptr::<impl *mut T>::offset::precondition_check
  call void @"_ZN4core3ptr7mut_ptr31_$LT$impl$u20$$BP$mut$u20$T$GT$6offset18precondition_check17h35b02de5ef1061c5E"(ptr %path, i64 %_39, i64 4) #8
  %_0.i90 = getelementptr inbounds i32, ptr %path, i64 %_39
  %_333 = ptrtoint ptr %_0.i90 to i64
  %_336 = and i64 %_333, 3
  %_337 = icmp eq i64 %_336, 0
  br i1 %_337, label %bb94, label %panic85

bb10:                                             ; preds = %bb107
  %_37 = load i32, ptr %V, align 4
  %_36 = sext i32 %_37 to i64
; call core::ptr::mut_ptr::<impl *mut T>::offset::precondition_check
  call void @"_ZN4core3ptr7mut_ptr31_$LT$impl$u20$$BP$mut$u20$T$GT$6offset18precondition_check17h35b02de5ef1061c5E"(ptr %path, i64 %_36, i64 4) #8
  %_0.i = getelementptr inbounds i32, ptr %path, i64 %_36
  %_339 = ptrtoint ptr %_0.i to i64
  %_342 = and i64 %_339, 3
  %_343 = icmp eq i64 %_342, 0
  br i1 %_343, label %bb95, label %panic87

bb94:                                             ; preds = %bb12
  %_430 = ptrtoint ptr %_0.i90 to i64
  %_433 = icmp eq i64 %_430, 0
  %_434 = and i1 %_433, true
  %_435 = xor i1 %_434, true
  br i1 %_435, label %bb109, label %panic86

panic85:                                          ; preds = %bb12
; call core::panicking::panic_misaligned_pointer_dereference
  call void @_ZN4core9panicking36panic_misaligned_pointer_dereference17hcc3cbded9382b6e5E(i64 4, i64 %_333, ptr align 8 @alloc_6d1f9d876bb4fa79d54a252d895f9e60) #7
  unreachable

bb109:                                            ; preds = %bb94
  store i32 -1, ptr %_0.i90, align 4
  br label %bb14

panic86:                                          ; preds = %bb94
; call core::panicking::panic_null_pointer_dereference
  call void @_ZN4core9panicking30panic_null_pointer_dereference17hf718fcc86a223baaE(ptr align 8 @alloc_6d1f9d876bb4fa79d54a252d895f9e60) #7
  unreachable

bb14:                                             ; preds = %bb108, %bb109
  %_42 = load i32, ptr %V, align 4
  %_41 = sext i32 %_42 to i64
  %_43 = icmp ult i64 %_41, 501
  br i1 %_43, label %bb15, label %panic89

bb95:                                             ; preds = %bb10
  %_423 = ptrtoint ptr %_0.i to i64
  %_426 = icmp eq i64 %_423, 0
  %_427 = and i1 %_426, true
  %_428 = xor i1 %_427, true
  br i1 %_428, label %bb108, label %panic88

panic87:                                          ; preds = %bb10
; call core::panicking::panic_misaligned_pointer_dereference
  call void @_ZN4core9panicking36panic_misaligned_pointer_dereference17hcc3cbded9382b6e5E(i64 4, i64 %_339, ptr align 8 @alloc_9b3efb0ac0fcae4b8e0bff7891c4f8e6) #7
  unreachable

bb108:                                            ; preds = %bb95
  store i32 %S, ptr %_0.i, align 4
  br label %bb14

panic88:                                          ; preds = %bb95
; call core::panicking::panic_null_pointer_dereference
  call void @_ZN4core9panicking30panic_null_pointer_dereference17hf718fcc86a223baaE(ptr align 8 @alloc_9b3efb0ac0fcae4b8e0bff7891c4f8e6) #7
  unreachable

bb15:                                             ; preds = %bb14
  %42 = getelementptr inbounds nuw i32, ptr %collected, i64 %_41
  store i32 0, ptr %42, align 4
  %43 = load i32, ptr %V, align 4
  %44 = add i32 %43, 1
  store i32 %44, ptr %V, align 4
  br label %bb1

panic89:                                          ; preds = %bb14
; call core::panicking::panic_bounds_check
  call void @_ZN4core9panicking18panic_bounds_check17h27d1e4f0cb1112dfE(i64 %_41, i64 501, ptr align 8 @alloc_9cce0dc1affe2430c480bbe2ea11d9ec) #7
  unreachable
}

; Function Attrs: nocallback nofree nosync nounwind speculatable willreturn memory(none)
declare { i64, i1 } @llvm.smul.with.overflow.i64(i64, i64) #3

; Function Attrs: nocallback nofree nosync nounwind speculatable willreturn memory(none)
declare { i64, i1 } @llvm.uadd.with.overflow.i64(i64, i64) #3

; core::panicking::panic_nounwind
; Function Attrs: cold noinline noreturn nounwind nonlazybind
declare void @_ZN4core9panicking14panic_nounwind17h211d9ce8d63f12e7E(ptr align 1, i64) unnamed_addr #4

; Function Attrs: nounwind nonlazybind
declare ptr @malloc(i64) unnamed_addr #2

; core::panicking::panic_misaligned_pointer_dereference
; Function Attrs: cold minsize noinline noreturn nounwind nonlazybind optsize
declare void @_ZN4core9panicking36panic_misaligned_pointer_dereference17hcc3cbded9382b6e5E(i64, i64, ptr align 8) unnamed_addr #5

; core::panicking::panic_null_pointer_dereference
; Function Attrs: cold minsize noinline noreturn nounwind nonlazybind optsize
declare void @_ZN4core9panicking30panic_null_pointer_dereference17hf718fcc86a223baaE(ptr align 8) unnamed_addr #5

; core::panicking::panic_bounds_check
; Function Attrs: cold minsize noinline noreturn nounwind nonlazybind optsize
declare void @_ZN4core9panicking18panic_bounds_check17h27d1e4f0cb1112dfE(i64, i64, ptr align 8) unnamed_addr #5

; Function Attrs: nounwind nonlazybind
declare i32 @scanf(ptr, ...) unnamed_addr #2

; Function Attrs: nocallback nofree nounwind willreturn memory(argmem: write)
declare void @llvm.memset.p0.i64(ptr nocapture writeonly, i8, i64, i1 immarg) #6

attributes #0 = { cold nounwind nonlazybind "probe-stack"="inline-asm" "target-cpu"="x86-64" }
attributes #1 = { inlinehint nounwind nonlazybind "probe-stack"="inline-asm" "target-cpu"="x86-64" }
attributes #2 = { nounwind nonlazybind "probe-stack"="inline-asm" "target-cpu"="x86-64" }
attributes #3 = { nocallback nofree nosync nounwind speculatable willreturn memory(none) }
attributes #4 = { cold noinline noreturn nounwind nonlazybind "probe-stack"="inline-asm" "target-cpu"="x86-64" }
attributes #5 = { cold minsize noinline noreturn nounwind nonlazybind optsize "probe-stack"="inline-asm" "target-cpu"="x86-64" }
attributes #6 = { nocallback nofree nounwind willreturn memory(argmem: write) }
attributes #7 = { noreturn nounwind }
attributes #8 = { nounwind }

!llvm.module.flags = !{!0, !1}
!llvm.ident = !{!2}

!0 = !{i32 8, !"PIC Level", i32 2}
!1 = !{i32 2, !"RtLibUseGOT", i32 1}
!2 = !{!"rustc version 1.88.0-nightly (0b45675cf 2025-03-31)"}
