; ModuleID = '0bb1uejsabuta2xgng0cvwtje'
source_filename = "0bb1uejsabuta2xgng0cvwtje"
target datalayout = "e-m:e-p270:32:32-p271:32:32-p272:64:64-i64:64-i128:128-f80:128-n8:16:32:64-S128"
target triple = "x86_64-unknown-linux-gnu"

@alloc_0ed0763d8bf93ac79247e07858374e35 = private unnamed_addr constant [210 x i8] c"unsafe precondition(s) violated: ptr::offset requires the address calculation to not overflow\0A\0AThis indicates a bug in the program. This Undefined Behavior check is optional, and cannot be relied on for safety.", align 1
@alloc_f5ffd2fd1476bab43ad89fb40c72d0c5 = private unnamed_addr constant [10 x i8] c"src/lib.rs", align 1
@alloc_8f7644f62fa7ff35be219ed2d80b2b4b = private unnamed_addr constant <{ ptr, [16 x i8] }> <{ ptr @alloc_f5ffd2fd1476bab43ad89fb40c72d0c5, [16 x i8] c"\0A\00\00\00\00\00\00\00+\00\00\00\10\00\00\00" }>, align 8
@alloc_a5ea249d7fcc32dcac23d09d54863489 = private unnamed_addr constant <{ ptr, [16 x i8] }> <{ ptr @alloc_f5ffd2fd1476bab43ad89fb40c72d0c5, [16 x i8] c"\0A\00\00\00\00\00\00\00,\00\00\00\14\00\00\00" }>, align 8
@alloc_8dd000a9785e5de9568db77141ae1469 = private unnamed_addr constant <{ ptr, [16 x i8] }> <{ ptr @alloc_f5ffd2fd1476bab43ad89fb40c72d0c5, [16 x i8] c"\0A\00\00\00\00\00\00\00F\00\00\00\22\00\00\00" }>, align 8
@alloc_bf5dfb4d7285c31b1f5b7878a2814726 = private unnamed_addr constant <{ ptr, [16 x i8] }> <{ ptr @alloc_f5ffd2fd1476bab43ad89fb40c72d0c5, [16 x i8] c"\0A\00\00\00\00\00\00\00C\00\00\00\0D\00\00\00" }>, align 8
@alloc_f3588b28b94f0809fcc8d717033d3e48 = private unnamed_addr constant [2 x i8] c"\0A\00", align 1
@alloc_b929c71616281bfd1be2bd4038d3ddf1 = private unnamed_addr constant [4 x i8] c"%d \00", align 1
@alloc_4db75c967427a2b0c33df6cd1601c252 = private unnamed_addr constant <{ ptr, [16 x i8] }> <{ ptr @alloc_f5ffd2fd1476bab43ad89fb40c72d0c5, [16 x i8] c"\0A\00\00\00\00\00\00\00X\00\00\00\11\00\00\00" }>, align 8
@alloc_aa3ab9ea1aa8d3786259a5dbd56385e3 = private unnamed_addr constant <{ ptr, [16 x i8] }> <{ ptr @alloc_f5ffd2fd1476bab43ad89fb40c72d0c5, [16 x i8] c"\0A\00\00\00\00\00\00\00k\00\00\00\1A\00\00\00" }>, align 8
@alloc_538476e1631fc806db3175eb01980700 = private unnamed_addr constant <{ ptr, [16 x i8] }> <{ ptr @alloc_f5ffd2fd1476bab43ad89fb40c72d0c5, [16 x i8] c"\0A\00\00\00\00\00\00\00h\00\00\00\05\00\00\00" }>, align 8
@alloc_fdd5048d75195a5f8c3f35c7fc1eeaa0 = private unnamed_addr constant <{ ptr, [16 x i8] }> <{ ptr @alloc_f5ffd2fd1476bab43ad89fb40c72d0c5, [16 x i8] c"\0A\00\00\00\00\00\00\00l\00\00\00\05\00\00\00" }>, align 8
@alloc_1231378436286de472db2cb2147fb1fe = private unnamed_addr constant <{ ptr, [16 x i8] }> <{ ptr @alloc_f5ffd2fd1476bab43ad89fb40c72d0c5, [16 x i8] c"\0A\00\00\00\00\00\00\00w\00\00\00\1A\00\00\00" }>, align 8
@alloc_19fcaf815a6a6ee4b973cfb983e5063d = private unnamed_addr constant <{ ptr, [16 x i8] }> <{ ptr @alloc_f5ffd2fd1476bab43ad89fb40c72d0c5, [16 x i8] c"\0A\00\00\00\00\00\00\00t\00\00\00\05\00\00\00" }>, align 8
@alloc_82ebe0b2887610993564a06c073564b8 = private unnamed_addr constant <{ ptr, [16 x i8] }> <{ ptr @alloc_f5ffd2fd1476bab43ad89fb40c72d0c5, [16 x i8] c"\0A\00\00\00\00\00\00\00x\00\00\00\05\00\00\00" }>, align 8
@alloc_a2888a25def4730a555bd957f9b8a2fc = private unnamed_addr constant <{ ptr, [16 x i8] }> <{ ptr @alloc_f5ffd2fd1476bab43ad89fb40c72d0c5, [16 x i8] c"\0A\00\00\00\00\00\00\00\83\00\00\00\1A\00\00\00" }>, align 8
@alloc_0a0c52c7598ebd026248b36c4f00b4c7 = private unnamed_addr constant <{ ptr, [16 x i8] }> <{ ptr @alloc_f5ffd2fd1476bab43ad89fb40c72d0c5, [16 x i8] c"\0A\00\00\00\00\00\00\00\80\00\00\00\05\00\00\00" }>, align 8
@alloc_4c915bac303742f1dcbead2acc9529f0 = private unnamed_addr constant <{ ptr, [16 x i8] }> <{ ptr @alloc_f5ffd2fd1476bab43ad89fb40c72d0c5, [16 x i8] c"\0A\00\00\00\00\00\00\00\84\00\00\00\05\00\00\00" }>, align 8
@alloc_22ff9b87e88d7d4a41ac0701a70a1767 = private unnamed_addr constant <{ ptr, [16 x i8] }> <{ ptr @alloc_f5ffd2fd1476bab43ad89fb40c72d0c5, [16 x i8] c"\0A\00\00\00\00\00\00\00\8F\00\00\00\1A\00\00\00" }>, align 8
@alloc_bf87fb36211e17508a1eccd1ab80b734 = private unnamed_addr constant <{ ptr, [16 x i8] }> <{ ptr @alloc_f5ffd2fd1476bab43ad89fb40c72d0c5, [16 x i8] c"\0A\00\00\00\00\00\00\00\8C\00\00\00\05\00\00\00" }>, align 8
@alloc_cfb0380af96fcc257f59b04d0cb4fc70 = private unnamed_addr constant <{ ptr, [16 x i8] }> <{ ptr @alloc_f5ffd2fd1476bab43ad89fb40c72d0c5, [16 x i8] c"\0A\00\00\00\00\00\00\00\90\00\00\00\05\00\00\00" }>, align 8
@alloc_2b3a53455716e677f2761e1daef4b3d8 = private unnamed_addr constant <{ ptr, [16 x i8] }> <{ ptr @alloc_f5ffd2fd1476bab43ad89fb40c72d0c5, [16 x i8] c"\0A\00\00\00\00\00\00\00\9E\00\00\00\12\00\00\00" }>, align 8
@alloc_e0a494f77887ff40060bbdd73faab045 = private unnamed_addr constant <{ ptr, [16 x i8] }> <{ ptr @alloc_f5ffd2fd1476bab43ad89fb40c72d0c5, [16 x i8] c"\0A\00\00\00\00\00\00\00\9F\00\00\00\14\00\00\00" }>, align 8
@alloc_5bae34df4377a9b70f0d5a613febf56b = private unnamed_addr constant <{ ptr, [16 x i8] }> <{ ptr @alloc_f5ffd2fd1476bab43ad89fb40c72d0c5, [16 x i8] c"\0A\00\00\00\00\00\00\00\A0\00\00\00\18\00\00\00" }>, align 8
@stack = global [80000 x i8] zeroinitializer, align 8
@sp = global [4 x i8] c"\FF\FF\FF\FF", align 4
@alloc_ab86c8f6a6b652fd93739bb1556d653e = private unnamed_addr constant <{ ptr, [16 x i8] }> <{ ptr @alloc_f5ffd2fd1476bab43ad89fb40c72d0c5, [16 x i8] c"\0A\00\00\00\00\00\00\00\B4\00\00\00\05\00\00\00" }>, align 8
@alloc_ad0b6e470531aa0f794a23ee1161517c = private unnamed_addr constant <{ ptr, [16 x i8] }> <{ ptr @alloc_f5ffd2fd1476bab43ad89fb40c72d0c5, [16 x i8] c"\0A\00\00\00\00\00\00\00\B5\00\00\00\0B\00\00\00" }>, align 8
@alloc_c3edc0ffc4aa51f1633091e8f18b4b70 = private unnamed_addr constant <{ ptr, [16 x i8] }> <{ ptr @alloc_f5ffd2fd1476bab43ad89fb40c72d0c5, [16 x i8] c"\0A\00\00\00\00\00\00\00\B5\00\00\00\05\00\00\00" }>, align 8
@alloc_a2d177aa56af8f2406c0aef4042be3f2 = private unnamed_addr constant <{ ptr, [16 x i8] }> <{ ptr @alloc_f5ffd2fd1476bab43ad89fb40c72d0c5, [16 x i8] c"\0A\00\00\00\00\00\00\00\B9\00\00\00\12\00\00\00" }>, align 8
@alloc_15952ca07e84a5b5be1df0f62b4cf3be = private unnamed_addr constant <{ ptr, [16 x i8] }> <{ ptr @alloc_f5ffd2fd1476bab43ad89fb40c72d0c5, [16 x i8] c"\0A\00\00\00\00\00\00\00\BA\00\00\00\0A\00\00\00" }>, align 8
@alloc_be509998ec94cff816014bdf68a99c50 = private unnamed_addr constant <{ ptr, [16 x i8] }> <{ ptr @alloc_f5ffd2fd1476bab43ad89fb40c72d0c5, [16 x i8] c"\0A\00\00\00\00\00\00\00\BA\00\00\00\05\00\00\00" }>, align 8
@alloc_1d4ab4c41618764edd72215cd7cce0a1 = private unnamed_addr constant <{ ptr, [16 x i8] }> <{ ptr @alloc_f5ffd2fd1476bab43ad89fb40c72d0c5, [16 x i8] c"\0A\00\00\00\00\00\00\00\BB\00\00\00\0C\00\00\00" }>, align 8
@alloc_4b7096b99014abfa45ea96a4fcefc608 = private unnamed_addr constant <{ ptr, [16 x i8] }> <{ ptr @alloc_f5ffd2fd1476bab43ad89fb40c72d0c5, [16 x i8] c"\0A\00\00\00\00\00\00\00\BF\00\00\00\12\00\00\00" }>, align 8
@alloc_51df26870d1bd0a228d9d2b4290cd406 = private unnamed_addr constant <{ ptr, [16 x i8] }> <{ ptr @alloc_f5ffd2fd1476bab43ad89fb40c72d0c5, [16 x i8] c"\0A\00\00\00\00\00\00\00\BF\00\00\00\0C\00\00\00" }>, align 8
@alloc_6ea8c559af74901b4324d1f3b6147f81 = private unnamed_addr constant <{ ptr, [16 x i8] }> <{ ptr @alloc_f5ffd2fd1476bab43ad89fb40c72d0c5, [16 x i8] c"\0A\00\00\00\00\00\00\00\C3\00\00\00\0D\00\00\00" }>, align 8
@alloc_6e625836162496ab534400c4c1bca834 = private unnamed_addr constant <{ ptr, [16 x i8] }> <{ ptr @alloc_f5ffd2fd1476bab43ad89fb40c72d0c5, [16 x i8] c"\0A\00\00\00\00\00\00\00\C8\00\00\00\16\00\00\00" }>, align 8
@alloc_0255bdacfc758ed5f7f5c39e96c93d62 = private unnamed_addr constant [3 x i8] c"^\0A\00", align 1
@alloc_301352ecea7e75f4610b4366827bcba7 = private unnamed_addr constant <{ ptr, [16 x i8] }> <{ ptr @alloc_f5ffd2fd1476bab43ad89fb40c72d0c5, [16 x i8] c"\0A\00\00\00\00\00\00\00\CC\00\00\00\10\00\00\00" }>, align 8
@alloc_324cf5fdd0b425484c4f3c7b0521fa41 = private unnamed_addr constant <{ ptr, [16 x i8] }> <{ ptr @alloc_f5ffd2fd1476bab43ad89fb40c72d0c5, [16 x i8] c"\0A\00\00\00\00\00\00\00\D6\00\00\00\17\00\00\00" }>, align 8
@alloc_5a7fe70796cd78bf10264e5e1b69cf7b = private unnamed_addr constant <{ ptr, [16 x i8] }> <{ ptr @alloc_f5ffd2fd1476bab43ad89fb40c72d0c5, [16 x i8] c"\0A\00\00\00\00\00\00\00\D9\00\00\00\10\00\00\00" }>, align 8
@alloc_ed44176eda5efdbc5f9b519075184915 = private unnamed_addr constant <{ ptr, [16 x i8] }> <{ ptr @alloc_f5ffd2fd1476bab43ad89fb40c72d0c5, [16 x i8] c"\0A\00\00\00\00\00\00\00\E4\00\00\00\11\00\00\00" }>, align 8
@alloc_1a962316a3c103cae71c68961ac82b12 = private unnamed_addr constant <{ ptr, [16 x i8] }> <{ ptr @alloc_f5ffd2fd1476bab43ad89fb40c72d0c5, [16 x i8] c"\0A\00\00\00\00\00\00\00\E7\00\00\00\10\00\00\00" }>, align 8
@alloc_3c4bb9bf1e53c0e4c7f9ad0d18f18e1b = private unnamed_addr constant <{ ptr, [16 x i8] }> <{ ptr @alloc_f5ffd2fd1476bab43ad89fb40c72d0c5, [16 x i8] c"\0A\00\00\00\00\00\00\00\E7\00\00\005\00\00\00" }>, align 8
@alloc_00d24b8434f2a407fe75e661b2960337 = private unnamed_addr constant <{ ptr, [16 x i8] }> <{ ptr @alloc_f5ffd2fd1476bab43ad89fb40c72d0c5, [16 x i8] c"\0A\00\00\00\00\00\00\00\EE\00\00\00\0D\00\00\00" }>, align 8
@alloc_1f5eaa04ebab4222c82f2ba40e76688e = private unnamed_addr constant <{ ptr, [16 x i8] }> <{ ptr @alloc_f5ffd2fd1476bab43ad89fb40c72d0c5, [16 x i8] c"\0A\00\00\00\00\00\00\00\E9\00\00\00\11\00\00\00" }>, align 8
@alloc_608e1152433db6ed3d6617698603cc75 = private unnamed_addr constant <{ ptr, [16 x i8] }> <{ ptr @alloc_f5ffd2fd1476bab43ad89fb40c72d0c5, [16 x i8] c"\0A\00\00\00\00\00\00\00\EA\00\00\00\17\00\00\00" }>, align 8
@alloc_54ddf0acad81274a7b9d823ad049c391 = private unnamed_addr constant <{ ptr, [16 x i8] }> <{ ptr @alloc_f5ffd2fd1476bab43ad89fb40c72d0c5, [16 x i8] c"\0A\00\00\00\00\00\00\00\FE\00\00\00\05\00\00\00" }>, align 8
@alloc_c8cc2df52981d2a9b75471c6bf72d51b = private unnamed_addr constant <{ ptr, [16 x i8] }> <{ ptr @alloc_f5ffd2fd1476bab43ad89fb40c72d0c5, [16 x i8] c"\0A\00\00\00\00\00\00\00\FF\00\00\00\05\00\00\00" }>, align 8
@alloc_b39ae4bc7fa37121cdc0008d3af6fe1e = private unnamed_addr constant <{ ptr, [16 x i8] }> <{ ptr @alloc_f5ffd2fd1476bab43ad89fb40c72d0c5, [16 x i8] c"\0A\00\00\00\00\00\00\00\00\01\00\00\05\00\00\00" }>, align 8
@alloc_7341ac8080bf6154e71aa5bdbd897a5a = private unnamed_addr constant <{ ptr, [16 x i8] }> <{ ptr @alloc_f5ffd2fd1476bab43ad89fb40c72d0c5, [16 x i8] c"\0A\00\00\00\00\00\00\00\01\01\00\00\05\00\00\00" }>, align 8
@alloc_7430142f99ce00d1543516b5cf578b0a = private unnamed_addr constant <{ ptr, [16 x i8] }> <{ ptr @alloc_f5ffd2fd1476bab43ad89fb40c72d0c5, [16 x i8] c"\0A\00\00\00\00\00\00\00\02\01\00\00\15\00\00\00" }>, align 8
@alloc_5d00082c93225ae742ad072b1e1acedc = private unnamed_addr constant <{ ptr, [16 x i8] }> <{ ptr @alloc_f5ffd2fd1476bab43ad89fb40c72d0c5, [16 x i8] c"\0A\00\00\00\00\00\00\00\0D\01\00\00\16\00\00\00" }>, align 8
@alloc_f0ab6e394b2ea1f44611667b5c4b430a = private unnamed_addr constant [14 x i8] c"************\0A\00", align 1
@alloc_b6bd082785974fa791c1084330576c12 = private unnamed_addr constant <{ ptr, [16 x i8] }> <{ ptr @alloc_f5ffd2fd1476bab43ad89fb40c72d0c5, [16 x i8] c"\0A\00\00\00\00\00\00\00\0F\01\00\00\17\00\00\00" }>, align 8
@alloc_1da76292d9b8d3e39f50e5ec61160702 = private unnamed_addr constant <{ ptr, [16 x i8] }> <{ ptr @alloc_f5ffd2fd1476bab43ad89fb40c72d0c5, [16 x i8] c"\0A\00\00\00\00\00\00\00\15\01\00\00\17\00\00\00" }>, align 8
@alloc_30e487783cc051ae6c6e5940280db142 = private unnamed_addr constant <{ ptr, [16 x i8] }> <{ ptr @alloc_f5ffd2fd1476bab43ad89fb40c72d0c5, [16 x i8] c"\0A\00\00\00\00\00\00\00\16\01\00\00\10\00\00\00" }>, align 8
@alloc_f940b7bb00c57c9b5c96f263fd663468 = private unnamed_addr constant <{ ptr, [16 x i8] }> <{ ptr @alloc_f5ffd2fd1476bab43ad89fb40c72d0c5, [16 x i8] c"\0A\00\00\00\00\00\00\00\17\01\00\00/\00\00\00" }>, align 8
@alloc_f693f1d3353f7434776f3781a89b989c = private unnamed_addr constant <{ ptr, [16 x i8] }> <{ ptr @alloc_f5ffd2fd1476bab43ad89fb40c72d0c5, [16 x i8] c"\0A\00\00\00\00\00\00\00\17\01\00\00A\00\00\00" }>, align 8
@alloc_832087a8266839c71cc3fcc750474ee7 = private unnamed_addr constant <{ ptr, [16 x i8] }> <{ ptr @alloc_f5ffd2fd1476bab43ad89fb40c72d0c5, [16 x i8] c"\0A\00\00\00\00\00\00\00\1B\01\00\005\00\00\00" }>, align 8
@alloc_d4f6cdd71e2cca5ee3b2985a4b69d460 = private unnamed_addr constant <{ ptr, [16 x i8] }> <{ ptr @alloc_f5ffd2fd1476bab43ad89fb40c72d0c5, [16 x i8] c"\0A\00\00\00\00\00\00\00\1C\01\00\00!\00\00\00" }>, align 8
@alloc_28acad51cebd6c34c0b281fc4395d7b2 = private unnamed_addr constant <{ ptr, [16 x i8] }> <{ ptr @alloc_f5ffd2fd1476bab43ad89fb40c72d0c5, [16 x i8] c"\0A\00\00\00\00\00\00\00\1C\01\00\00\15\00\00\00" }>, align 8
@alloc_6a7172de8cb5dfeb86e0804dc784f74d = private unnamed_addr constant <{ ptr, [16 x i8] }> <{ ptr @alloc_f5ffd2fd1476bab43ad89fb40c72d0c5, [16 x i8] c"\0A\00\00\00\00\00\00\00\1D\01\00\00!\00\00\00" }>, align 8
@alloc_c2c874d065b6bcbb5b8c77db5cecd67f = private unnamed_addr constant <{ ptr, [16 x i8] }> <{ ptr @alloc_f5ffd2fd1476bab43ad89fb40c72d0c5, [16 x i8] c"\0A\00\00\00\00\00\00\00\1D\01\00\00\15\00\00\00" }>, align 8
@alloc_cdb40b261b9850b1bf6b33fce78a3c1d = private unnamed_addr constant <{ ptr, [16 x i8] }> <{ ptr @alloc_f5ffd2fd1476bab43ad89fb40c72d0c5, [16 x i8] c"\0A\00\00\00\00\00\00\00\1E\01\00\00\15\00\00\00" }>, align 8
@alloc_6c316852aad98171845729166b3440df = private unnamed_addr constant <{ ptr, [16 x i8] }> <{ ptr @alloc_f5ffd2fd1476bab43ad89fb40c72d0c5, [16 x i8] c"\0A\00\00\00\00\00\00\00\1F\01\00\00:\00\00\00" }>, align 8
@alloc_4b16eca462f81ca44745a58a1ae1bbb5 = private unnamed_addr constant <{ ptr, [16 x i8] }> <{ ptr @alloc_f5ffd2fd1476bab43ad89fb40c72d0c5, [16 x i8] c"\0A\00\00\00\00\00\00\00\1F\01\00\00\15\00\00\00" }>, align 8
@alloc_c9ac52e909550e4d97428abec8fb05e1 = private unnamed_addr constant <{ ptr, [16 x i8] }> <{ ptr @alloc_f5ffd2fd1476bab43ad89fb40c72d0c5, [16 x i8] c"\0A\00\00\00\00\00\00\00\22\01\00\00\15\00\00\00" }>, align 8
@alloc_d60fd6e8ab9d56c46b89a7591992b384 = private unnamed_addr constant <{ ptr, [16 x i8] }> <{ ptr @alloc_f5ffd2fd1476bab43ad89fb40c72d0c5, [16 x i8] c"\0A\00\00\00\00\00\00\00%\01\00\00\17\00\00\00" }>, align 8
@alloc_d9095c06edcbe4e319cbb64bd4b78abe = private unnamed_addr constant <{ ptr, [16 x i8] }> <{ ptr @alloc_f5ffd2fd1476bab43ad89fb40c72d0c5, [16 x i8] c"\0A\00\00\00\00\00\00\00&\01\00\00\10\00\00\00" }>, align 8
@alloc_cc3cf05568711605197cafc81e72fe18 = private unnamed_addr constant <{ ptr, [16 x i8] }> <{ ptr @alloc_f5ffd2fd1476bab43ad89fb40c72d0c5, [16 x i8] c"\0A\00\00\00\00\00\00\00'\01\00\001\00\00\00" }>, align 8
@alloc_2b876283c9a0d7aff662ff106a6b6988 = private unnamed_addr constant <{ ptr, [16 x i8] }> <{ ptr @alloc_f5ffd2fd1476bab43ad89fb40c72d0c5, [16 x i8] c"\0A\00\00\00\00\00\00\00'\01\00\00C\00\00\00" }>, align 8
@alloc_9aa3d4cb771be2d39038c33513ef6310 = private unnamed_addr constant <{ ptr, [16 x i8] }> <{ ptr @alloc_f5ffd2fd1476bab43ad89fb40c72d0c5, [16 x i8] c"\0A\00\00\00\00\00\00\00+\01\00\005\00\00\00" }>, align 8
@alloc_e5d903a08e663b025ffd98a1dab04759 = private unnamed_addr constant <{ ptr, [16 x i8] }> <{ ptr @alloc_f5ffd2fd1476bab43ad89fb40c72d0c5, [16 x i8] c"\0A\00\00\00\00\00\00\00,\01\00\00!\00\00\00" }>, align 8
@alloc_c4c50338748051f90a6b56cf922c1dc2 = private unnamed_addr constant <{ ptr, [16 x i8] }> <{ ptr @alloc_f5ffd2fd1476bab43ad89fb40c72d0c5, [16 x i8] c"\0A\00\00\00\00\00\00\00,\01\00\00\15\00\00\00" }>, align 8
@alloc_2cd33d44ffdeed4c349ded3515f702a9 = private unnamed_addr constant <{ ptr, [16 x i8] }> <{ ptr @alloc_f5ffd2fd1476bab43ad89fb40c72d0c5, [16 x i8] c"\0A\00\00\00\00\00\00\00-\01\00\00!\00\00\00" }>, align 8
@alloc_282424d3e417984d5632be44dc90d8ce = private unnamed_addr constant <{ ptr, [16 x i8] }> <{ ptr @alloc_f5ffd2fd1476bab43ad89fb40c72d0c5, [16 x i8] c"\0A\00\00\00\00\00\00\00-\01\00\00\15\00\00\00" }>, align 8
@alloc_8addf7c3aa38fa267796f65e2ca14ff5 = private unnamed_addr constant <{ ptr, [16 x i8] }> <{ ptr @alloc_f5ffd2fd1476bab43ad89fb40c72d0c5, [16 x i8] c"\0A\00\00\00\00\00\00\00.\01\00\00\15\00\00\00" }>, align 8
@alloc_ac81e13d288ae09fdf3cf637b21631b1 = private unnamed_addr constant <{ ptr, [16 x i8] }> <{ ptr @alloc_f5ffd2fd1476bab43ad89fb40c72d0c5, [16 x i8] c"\0A\00\00\00\00\00\00\00/\01\00\00:\00\00\00" }>, align 8
@alloc_3e066056ea767308aede3e9cb48ad7b3 = private unnamed_addr constant <{ ptr, [16 x i8] }> <{ ptr @alloc_f5ffd2fd1476bab43ad89fb40c72d0c5, [16 x i8] c"\0A\00\00\00\00\00\00\00/\01\00\00\15\00\00\00" }>, align 8
@alloc_b579447ad999bce7eef4aa24f927a427 = private unnamed_addr constant <{ ptr, [16 x i8] }> <{ ptr @alloc_f5ffd2fd1476bab43ad89fb40c72d0c5, [16 x i8] c"\0A\00\00\00\00\00\00\002\01\00\00\15\00\00\00" }>, align 8
@alloc_5fe4896d01d8e69972ab52d92f987f46 = private unnamed_addr constant <{ ptr, [16 x i8] }> <{ ptr @alloc_f5ffd2fd1476bab43ad89fb40c72d0c5, [16 x i8] c"\0A\00\00\00\00\00\00\005\01\00\00\17\00\00\00" }>, align 8
@alloc_9d6040cd87989ea0802fda5e88af97e8 = private unnamed_addr constant <{ ptr, [16 x i8] }> <{ ptr @alloc_f5ffd2fd1476bab43ad89fb40c72d0c5, [16 x i8] c"\0A\00\00\00\00\00\00\006\01\00\00\10\00\00\00" }>, align 8
@alloc_73109bda468d131e4b0b27d596cd2878 = private unnamed_addr constant <{ ptr, [16 x i8] }> <{ ptr @alloc_f5ffd2fd1476bab43ad89fb40c72d0c5, [16 x i8] c"\0A\00\00\00\00\00\00\007\01\00\001\00\00\00" }>, align 8
@alloc_d225201696afb468dcd5aef4b0ac0151 = private unnamed_addr constant <{ ptr, [16 x i8] }> <{ ptr @alloc_f5ffd2fd1476bab43ad89fb40c72d0c5, [16 x i8] c"\0A\00\00\00\00\00\00\007\01\00\00C\00\00\00" }>, align 8
@alloc_077e7351e23e49002e9dc167906547e1 = private unnamed_addr constant <{ ptr, [16 x i8] }> <{ ptr @alloc_f5ffd2fd1476bab43ad89fb40c72d0c5, [16 x i8] c"\0A\00\00\00\00\00\00\00;\01\00\005\00\00\00" }>, align 8
@alloc_b918b13a2c9c3707509f734b70a1bc11 = private unnamed_addr constant <{ ptr, [16 x i8] }> <{ ptr @alloc_f5ffd2fd1476bab43ad89fb40c72d0c5, [16 x i8] c"\0A\00\00\00\00\00\00\00<\01\00\00!\00\00\00" }>, align 8
@alloc_66bf85de1a19ee76f6ff5508e2b3836f = private unnamed_addr constant <{ ptr, [16 x i8] }> <{ ptr @alloc_f5ffd2fd1476bab43ad89fb40c72d0c5, [16 x i8] c"\0A\00\00\00\00\00\00\00<\01\00\00\15\00\00\00" }>, align 8
@alloc_0b16f70a4343cc3f2074fab9fd223d05 = private unnamed_addr constant <{ ptr, [16 x i8] }> <{ ptr @alloc_f5ffd2fd1476bab43ad89fb40c72d0c5, [16 x i8] c"\0A\00\00\00\00\00\00\00=\01\00\00!\00\00\00" }>, align 8
@alloc_3bb3417701aa7c88907ca2dedc01e708 = private unnamed_addr constant <{ ptr, [16 x i8] }> <{ ptr @alloc_f5ffd2fd1476bab43ad89fb40c72d0c5, [16 x i8] c"\0A\00\00\00\00\00\00\00=\01\00\00\15\00\00\00" }>, align 8
@alloc_4772ffd383426c319f26a5b8c3848ec0 = private unnamed_addr constant <{ ptr, [16 x i8] }> <{ ptr @alloc_f5ffd2fd1476bab43ad89fb40c72d0c5, [16 x i8] c"\0A\00\00\00\00\00\00\00>\01\00\00\15\00\00\00" }>, align 8
@alloc_248eb7e1a776a3693f7e2382bab09414 = private unnamed_addr constant <{ ptr, [16 x i8] }> <{ ptr @alloc_f5ffd2fd1476bab43ad89fb40c72d0c5, [16 x i8] c"\0A\00\00\00\00\00\00\00?\01\00\00:\00\00\00" }>, align 8
@alloc_bbbc5f7a5fdd72dfe154679653387770 = private unnamed_addr constant <{ ptr, [16 x i8] }> <{ ptr @alloc_f5ffd2fd1476bab43ad89fb40c72d0c5, [16 x i8] c"\0A\00\00\00\00\00\00\00?\01\00\00\15\00\00\00" }>, align 8
@alloc_3a4411533c569f5ee6576ad5a3d39bb1 = private unnamed_addr constant <{ ptr, [16 x i8] }> <{ ptr @alloc_f5ffd2fd1476bab43ad89fb40c72d0c5, [16 x i8] c"\0A\00\00\00\00\00\00\00B\01\00\00\15\00\00\00" }>, align 8
@alloc_e36fa06f7fb82ed505f13e9d7a507c3d = private unnamed_addr constant <{ ptr, [16 x i8] }> <{ ptr @alloc_f5ffd2fd1476bab43ad89fb40c72d0c5, [16 x i8] c"\0A\00\00\00\00\00\00\00E\01\00\00\17\00\00\00" }>, align 8
@alloc_5902c039832cac159ed391792eb5023c = private unnamed_addr constant <{ ptr, [16 x i8] }> <{ ptr @alloc_f5ffd2fd1476bab43ad89fb40c72d0c5, [16 x i8] c"\0A\00\00\00\00\00\00\00F\01\00\00\10\00\00\00" }>, align 8
@alloc_35bed37eae30137d4eb6698100e10c8a = private unnamed_addr constant <{ ptr, [16 x i8] }> <{ ptr @alloc_f5ffd2fd1476bab43ad89fb40c72d0c5, [16 x i8] c"\0A\00\00\00\00\00\00\00G\01\00\002\00\00\00" }>, align 8
@alloc_b7dc6fa67022eef8f119bacc1b576a2a = private unnamed_addr constant <{ ptr, [16 x i8] }> <{ ptr @alloc_f5ffd2fd1476bab43ad89fb40c72d0c5, [16 x i8] c"\0A\00\00\00\00\00\00\00G\01\00\00D\00\00\00" }>, align 8
@alloc_fa82d0fd4b51c676bebe6b7ddacbcd47 = private unnamed_addr constant <{ ptr, [16 x i8] }> <{ ptr @alloc_f5ffd2fd1476bab43ad89fb40c72d0c5, [16 x i8] c"\0A\00\00\00\00\00\00\00K\01\00\005\00\00\00" }>, align 8
@alloc_217aaa4bfc3c687ce165b7ef6f010974 = private unnamed_addr constant <{ ptr, [16 x i8] }> <{ ptr @alloc_f5ffd2fd1476bab43ad89fb40c72d0c5, [16 x i8] c"\0A\00\00\00\00\00\00\00L\01\00\00!\00\00\00" }>, align 8
@alloc_92c6043b574c7fea8018a9dbc4d61e4a = private unnamed_addr constant <{ ptr, [16 x i8] }> <{ ptr @alloc_f5ffd2fd1476bab43ad89fb40c72d0c5, [16 x i8] c"\0A\00\00\00\00\00\00\00L\01\00\00\15\00\00\00" }>, align 8
@alloc_0f126e1bf1f500ad1dfcc833cd6f8e31 = private unnamed_addr constant <{ ptr, [16 x i8] }> <{ ptr @alloc_f5ffd2fd1476bab43ad89fb40c72d0c5, [16 x i8] c"\0A\00\00\00\00\00\00\00M\01\00\00!\00\00\00" }>, align 8
@alloc_cca858b7dce5cedb3cc3a28eb222fd0b = private unnamed_addr constant <{ ptr, [16 x i8] }> <{ ptr @alloc_f5ffd2fd1476bab43ad89fb40c72d0c5, [16 x i8] c"\0A\00\00\00\00\00\00\00M\01\00\00\15\00\00\00" }>, align 8
@alloc_460d493134e598d7c43c94c01d2e143f = private unnamed_addr constant <{ ptr, [16 x i8] }> <{ ptr @alloc_f5ffd2fd1476bab43ad89fb40c72d0c5, [16 x i8] c"\0A\00\00\00\00\00\00\00N\01\00\00\15\00\00\00" }>, align 8
@alloc_30f2f22928aff20d2e20c9f34e2dfb2f = private unnamed_addr constant <{ ptr, [16 x i8] }> <{ ptr @alloc_f5ffd2fd1476bab43ad89fb40c72d0c5, [16 x i8] c"\0A\00\00\00\00\00\00\00O\01\00\00:\00\00\00" }>, align 8
@alloc_96285d21c42ff7c80367b1686de656c0 = private unnamed_addr constant <{ ptr, [16 x i8] }> <{ ptr @alloc_f5ffd2fd1476bab43ad89fb40c72d0c5, [16 x i8] c"\0A\00\00\00\00\00\00\00O\01\00\00\15\00\00\00" }>, align 8
@alloc_c6947b191deaced8ac899d48bf5831b9 = private unnamed_addr constant <{ ptr, [16 x i8] }> <{ ptr @alloc_f5ffd2fd1476bab43ad89fb40c72d0c5, [16 x i8] c"\0A\00\00\00\00\00\00\00R\01\00\00\15\00\00\00" }>, align 8
@alloc_3cbf27c285f143576354eaf4a934b539 = private unnamed_addr constant <{ ptr, [16 x i8] }> <{ ptr @alloc_f5ffd2fd1476bab43ad89fb40c72d0c5, [16 x i8] c"\0A\00\00\00\00\00\00\00W\01\00\00\16\00\00\00" }>, align 8

; core::intrinsics::cold_path
; Function Attrs: cold nounwind nonlazybind
define internal void @_ZN4core10intrinsics9cold_path17h5ba3972cfc8ae71aE() unnamed_addr #0 {
start:
  ret void
}

; core::ptr::mut_ptr::<impl *mut T>::offset::precondition_check
; Function Attrs: inlinehint nounwind nonlazybind
define internal void @"_ZN4core3ptr7mut_ptr31_$LT$impl$u20$$BP$mut$u20$T$GT$6offset18precondition_check17h7d1a86dc0234b46dE"(ptr %this, i64 %count, i64 %size) unnamed_addr #1 {
start:
  %0 = call { i64, i1 } @llvm.smul.with.overflow.i64(i64 %count, i64 %size)
  %_10.0 = extractvalue { i64, i1 } %0, 0
  %_10.1 = extractvalue { i64, i1 } %0, 1
  br i1 %_10.1, label %bb3, label %bb5

bb5:                                              ; preds = %start
  %self = ptrtoint ptr %this to i64
  %1 = call { i64, i1 } @llvm.uadd.with.overflow.i64(i64 %self, i64 %_10.0)
  %_19.0 = extractvalue { i64, i1 } %1, 0
  %_19.1 = extractvalue { i64, i1 } %1, 1
  %_17 = icmp slt i64 %_10.0, 0
  %overflow = xor i1 %_19.1, %_17
  %_4 = xor i1 %overflow, true
  br i1 %_4, label %bb1, label %bb2

bb3:                                              ; preds = %start
  br label %bb2

bb2:                                              ; preds = %bb3, %bb5
; call core::panicking::panic_nounwind
  call void @_ZN4core9panicking14panic_nounwind17h211d9ce8d63f12e7E(ptr align 1 @alloc_0ed0763d8bf93ac79247e07858374e35, i64 210) #8
  unreachable

bb1:                                              ; preds = %bb5
  ret void
}

; core::ptr::mut_ptr::<impl *mut T>::is_null
; Function Attrs: inlinehint nounwind nonlazybind
define internal zeroext i1 @"_ZN4core3ptr7mut_ptr31_$LT$impl$u20$$BP$mut$u20$T$GT$7is_null17h6bca475e76dc3164E"(ptr %self) unnamed_addr #1 {
start:
  %_3 = ptrtoint ptr %self to i64
  %_0 = icmp eq i64 %_3, 0
  ret i1 %_0
}

; Function Attrs: nounwind nonlazybind
define i32 @cube_equal(ptr %m1, ptr %m2) unnamed_addr #2 {
start:
  %ok = alloca [4 x i8], align 4
  %j = alloca [4 x i8], align 4
  %i = alloca [4 x i8], align 4
  store i32 0, ptr %i, align 4
  store i32 0, ptr %j, align 4
  store i32 1, ptr %ok, align 4
  store i32 0, ptr %i, align 4
  br label %bb1

bb1:                                              ; preds = %bb13, %start
  %_7 = load i32, ptr %i, align 4
  %_6 = icmp slt i32 %_7, 3
  br i1 %_6, label %bb2, label %bb14

bb14:                                             ; preds = %bb2, %bb1
  %_0 = load i32, ptr %ok, align 4
  ret i32 %_0

bb2:                                              ; preds = %bb1
  %_8 = load i32, ptr %ok, align 4
  %0 = icmp eq i32 %_8, 0
  br i1 %0, label %bb14, label %bb3

bb3:                                              ; preds = %bb2
  store i32 0, ptr %j, align 4
  br label %bb4

bb4:                                              ; preds = %bb12, %bb3
  %_10 = load i32, ptr %j, align 4
  %_9 = icmp slt i32 %_10, 3
  br i1 %_9, label %bb5, label %bb13

bb13:                                             ; preds = %bb5, %bb4
  %1 = load i32, ptr %i, align 4
  %2 = add i32 %1, 1
  store i32 %2, ptr %i, align 4
  br label %bb1

bb5:                                              ; preds = %bb4
  %_11 = load i32, ptr %ok, align 4
  %3 = icmp eq i32 %_11, 0
  br i1 %3, label %bb13, label %bb6

bb6:                                              ; preds = %bb5
  %_16 = load i32, ptr %i, align 4
  %_15 = sext i32 %_16 to i64
; call core::ptr::mut_ptr::<impl *mut T>::offset::precondition_check
  call void @"_ZN4core3ptr7mut_ptr31_$LT$impl$u20$$BP$mut$u20$T$GT$6offset18precondition_check17h7d1a86dc0234b46dE"(ptr %m1, i64 %_15, i64 12) #9
  %_0.i6 = getelementptr inbounds [3 x i32], ptr %m1, i64 %_15
  %_18 = load i32, ptr %j, align 4
  %_17 = sext i32 %_18 to i64
  %_19 = icmp ult i64 %_17, 3
  br i1 %_19, label %bb8, label %panic

bb8:                                              ; preds = %bb6
  %_34 = ptrtoint ptr %_0.i6 to i64
  %_37 = and i64 %_34, 3
  %_38 = icmp eq i64 %_37, 0
  br i1 %_38, label %bb16, label %panic1

panic:                                            ; preds = %bb6
; call core::panicking::panic_bounds_check
  call void @_ZN4core9panicking18panic_bounds_check17h27d1e4f0cb1112dfE(i64 %_17, i64 3, ptr align 8 @alloc_8f7644f62fa7ff35be219ed2d80b2b4b) #8
  unreachable

bb16:                                             ; preds = %bb8
  %_40 = ptrtoint ptr %_0.i6 to i64
  %_43 = icmp eq i64 %_40, 0
  %_44 = and i1 %_43, true
  %_45 = xor i1 %_44, true
  br i1 %_45, label %bb17, label %panic2

panic1:                                           ; preds = %bb8
; call core::panicking::panic_misaligned_pointer_dereference
  call void @_ZN4core9panicking36panic_misaligned_pointer_dereference17hcc3cbded9382b6e5E(i64 4, i64 %_34, ptr align 8 @alloc_8f7644f62fa7ff35be219ed2d80b2b4b) #8
  unreachable

bb17:                                             ; preds = %bb16
  %4 = getelementptr inbounds nuw i32, ptr %_0.i6, i64 %_17
  %_13 = load i32, ptr %4, align 4
  %_23 = load i32, ptr %i, align 4
  %_22 = sext i32 %_23 to i64
; call core::ptr::mut_ptr::<impl *mut T>::offset::precondition_check
  call void @"_ZN4core3ptr7mut_ptr31_$LT$impl$u20$$BP$mut$u20$T$GT$6offset18precondition_check17h7d1a86dc0234b46dE"(ptr %m2, i64 %_22, i64 12) #9
  %_0.i = getelementptr inbounds [3 x i32], ptr %m2, i64 %_22
  %_25 = load i32, ptr %j, align 4
  %_24 = sext i32 %_25 to i64
  %_26 = icmp ult i64 %_24, 3
  br i1 %_26, label %bb10, label %panic3

panic2:                                           ; preds = %bb16
; call core::panicking::panic_null_pointer_dereference
  call void @_ZN4core9panicking30panic_null_pointer_dereference17hf718fcc86a223baaE(ptr align 8 @alloc_8f7644f62fa7ff35be219ed2d80b2b4b) #8
  unreachable

bb10:                                             ; preds = %bb17
  %_28 = ptrtoint ptr %_0.i to i64
  %_31 = and i64 %_28, 3
  %_32 = icmp eq i64 %_31, 0
  br i1 %_32, label %bb15, label %panic4

panic3:                                           ; preds = %bb17
; call core::panicking::panic_bounds_check
  call void @_ZN4core9panicking18panic_bounds_check17h27d1e4f0cb1112dfE(i64 %_24, i64 3, ptr align 8 @alloc_a5ea249d7fcc32dcac23d09d54863489) #8
  unreachable

bb15:                                             ; preds = %bb10
  %_47 = ptrtoint ptr %_0.i to i64
  %_50 = icmp eq i64 %_47, 0
  %_51 = and i1 %_50, true
  %_52 = xor i1 %_51, true
  br i1 %_52, label %bb18, label %panic5

panic4:                                           ; preds = %bb10
; call core::panicking::panic_misaligned_pointer_dereference
  call void @_ZN4core9panicking36panic_misaligned_pointer_dereference17hcc3cbded9382b6e5E(i64 4, i64 %_28, ptr align 8 @alloc_a5ea249d7fcc32dcac23d09d54863489) #8
  unreachable

bb18:                                             ; preds = %bb15
  %5 = getelementptr inbounds nuw i32, ptr %_0.i, i64 %_24
  %_20 = load i32, ptr %5, align 4
  %_12 = icmp ne i32 %_13, %_20
  br i1 %_12, label %bb11, label %bb12

panic5:                                           ; preds = %bb15
; call core::panicking::panic_null_pointer_dereference
  call void @_ZN4core9panicking30panic_null_pointer_dereference17hf718fcc86a223baaE(ptr align 8 @alloc_a5ea249d7fcc32dcac23d09d54863489) #8
  unreachable

bb12:                                             ; preds = %bb11, %bb18
  %6 = load i32, ptr %j, align 4
  %7 = add i32 %6, 1
  store i32 %7, ptr %j, align 4
  br label %bb4

bb11:                                             ; preds = %bb18
  store i32 0, ptr %ok, align 4
  br label %bb12
}

; Function Attrs: nounwind nonlazybind
define void @cube_copy(ptr %source, ptr %dest) unnamed_addr #2 {
start:
  %j = alloca [4 x i8], align 4
  %i = alloca [4 x i8], align 4
  store i32 0, ptr %i, align 4
  store i32 0, ptr %j, align 4
  store i32 0, ptr %i, align 4
  br label %bb1

bb1:                                              ; preds = %bb9, %start
  %_6 = load i32, ptr %i, align 4
  %_5 = icmp slt i32 %_6, 3
  br i1 %_5, label %bb2, label %bb10

bb10:                                             ; preds = %bb1
  ret void

bb2:                                              ; preds = %bb1
  store i32 0, ptr %j, align 4
  br label %bb3

bb3:                                              ; preds = %bb14, %bb2
  %_8 = load i32, ptr %j, align 4
  %_7 = icmp slt i32 %_8, 3
  br i1 %_7, label %bb4, label %bb9

bb9:                                              ; preds = %bb3
  %0 = load i32, ptr %i, align 4
  %1 = add i32 %0, 1
  store i32 %1, ptr %i, align 4
  br label %bb1

bb4:                                              ; preds = %bb3
  %_12 = load i32, ptr %i, align 4
  %_11 = sext i32 %_12 to i64
; call core::ptr::mut_ptr::<impl *mut T>::offset::precondition_check
  call void @"_ZN4core3ptr7mut_ptr31_$LT$impl$u20$$BP$mut$u20$T$GT$6offset18precondition_check17h7d1a86dc0234b46dE"(ptr %source, i64 %_11, i64 12) #9
  %_0.i6 = getelementptr inbounds [3 x i32], ptr %source, i64 %_11
  %_14 = load i32, ptr %j, align 4
  %_13 = sext i32 %_14 to i64
  %_15 = icmp ult i64 %_13, 3
  br i1 %_15, label %bb6, label %panic

bb6:                                              ; preds = %bb4
  %_29 = ptrtoint ptr %_0.i6 to i64
  %_32 = and i64 %_29, 3
  %_33 = icmp eq i64 %_32, 0
  br i1 %_33, label %bb12, label %panic1

panic:                                            ; preds = %bb4
; call core::panicking::panic_bounds_check
  call void @_ZN4core9panicking18panic_bounds_check17h27d1e4f0cb1112dfE(i64 %_13, i64 3, ptr align 8 @alloc_8dd000a9785e5de9568db77141ae1469) #8
  unreachable

bb12:                                             ; preds = %bb6
  %_35 = ptrtoint ptr %_0.i6 to i64
  %_38 = icmp eq i64 %_35, 0
  %_39 = and i1 %_38, true
  %_40 = xor i1 %_39, true
  br i1 %_40, label %bb13, label %panic2

panic1:                                           ; preds = %bb6
; call core::panicking::panic_misaligned_pointer_dereference
  call void @_ZN4core9panicking36panic_misaligned_pointer_dereference17hcc3cbded9382b6e5E(i64 4, i64 %_29, ptr align 8 @alloc_8dd000a9785e5de9568db77141ae1469) #8
  unreachable

bb13:                                             ; preds = %bb12
  %2 = getelementptr inbounds nuw i32, ptr %_0.i6, i64 %_13
  %_9 = load i32, ptr %2, align 4
  %_18 = load i32, ptr %i, align 4
  %_17 = sext i32 %_18 to i64
; call core::ptr::mut_ptr::<impl *mut T>::offset::precondition_check
  call void @"_ZN4core3ptr7mut_ptr31_$LT$impl$u20$$BP$mut$u20$T$GT$6offset18precondition_check17h7d1a86dc0234b46dE"(ptr %dest, i64 %_17, i64 12) #9
  %_0.i = getelementptr inbounds [3 x i32], ptr %dest, i64 %_17
  %_20 = load i32, ptr %j, align 4
  %_19 = sext i32 %_20 to i64
  %_21 = icmp ult i64 %_19, 3
  br i1 %_21, label %bb8, label %panic3

panic2:                                           ; preds = %bb12
; call core::panicking::panic_null_pointer_dereference
  call void @_ZN4core9panicking30panic_null_pointer_dereference17hf718fcc86a223baaE(ptr align 8 @alloc_8dd000a9785e5de9568db77141ae1469) #8
  unreachable

bb8:                                              ; preds = %bb13
  %_23 = ptrtoint ptr %_0.i to i64
  %_26 = and i64 %_23, 3
  %_27 = icmp eq i64 %_26, 0
  br i1 %_27, label %bb11, label %panic4

panic3:                                           ; preds = %bb13
; call core::panicking::panic_bounds_check
  call void @_ZN4core9panicking18panic_bounds_check17h27d1e4f0cb1112dfE(i64 %_19, i64 3, ptr align 8 @alloc_bf5dfb4d7285c31b1f5b7878a2814726) #8
  unreachable

bb11:                                             ; preds = %bb8
  %_42 = ptrtoint ptr %_0.i to i64
  %_45 = icmp eq i64 %_42, 0
  %_46 = and i1 %_45, true
  %_47 = xor i1 %_46, true
  br i1 %_47, label %bb14, label %panic5

panic4:                                           ; preds = %bb8
; call core::panicking::panic_misaligned_pointer_dereference
  call void @_ZN4core9panicking36panic_misaligned_pointer_dereference17hcc3cbded9382b6e5E(i64 4, i64 %_23, ptr align 8 @alloc_bf5dfb4d7285c31b1f5b7878a2814726) #8
  unreachable

bb14:                                             ; preds = %bb11
  %3 = getelementptr inbounds nuw i32, ptr %_0.i, i64 %_19
  store i32 %_9, ptr %3, align 4
  %4 = load i32, ptr %j, align 4
  %5 = add i32 %4, 1
  store i32 %5, ptr %j, align 4
  br label %bb3

panic5:                                           ; preds = %bb11
; call core::panicking::panic_null_pointer_dereference
  call void @_ZN4core9panicking30panic_null_pointer_dereference17hf718fcc86a223baaE(ptr align 8 @alloc_bf5dfb4d7285c31b1f5b7878a2814726) #8
  unreachable
}

; Function Attrs: nounwind nonlazybind
define void @cube_display(ptr %m) unnamed_addr #2 {
start:
  %j = alloca [4 x i8], align 4
  %i = alloca [4 x i8], align 4
  store i32 0, ptr %i, align 4
  store i32 0, ptr %j, align 4
  store i32 0, ptr %i, align 4
  br label %bb1

bb1:                                              ; preds = %bb8, %start
  %_5 = load i32, ptr %i, align 4
  %_4 = icmp slt i32 %_5, 3
  br i1 %_4, label %bb2, label %bb10

bb10:                                             ; preds = %bb1
  ret void

bb2:                                              ; preds = %bb1
  store i32 0, ptr %j, align 4
  br label %bb3

bb3:                                              ; preds = %bb12, %bb2
  %_7 = load i32, ptr %j, align 4
  %_6 = icmp slt i32 %_7, 3
  br i1 %_6, label %bb4, label %bb8

bb8:                                              ; preds = %bb3
  %_20 = call i32 (ptr, ...) @printf(ptr @alloc_f3588b28b94f0809fcc8d717033d3e48) #9
  %0 = load i32, ptr %i, align 4
  %1 = add i32 %0, 1
  store i32 %1, ptr %i, align 4
  br label %bb1

bb4:                                              ; preds = %bb3
  %_16 = load i32, ptr %i, align 4
  %_15 = sext i32 %_16 to i64
; call core::ptr::mut_ptr::<impl *mut T>::offset::precondition_check
  call void @"_ZN4core3ptr7mut_ptr31_$LT$impl$u20$$BP$mut$u20$T$GT$6offset18precondition_check17h7d1a86dc0234b46dE"(ptr %m, i64 %_15, i64 12) #9
  %_0.i = getelementptr inbounds [3 x i32], ptr %m, i64 %_15
  %_18 = load i32, ptr %j, align 4
  %_17 = sext i32 %_18 to i64
  %_19 = icmp ult i64 %_17, 3
  br i1 %_19, label %bb6, label %panic

bb6:                                              ; preds = %bb4
  %_26 = ptrtoint ptr %_0.i to i64
  %_29 = and i64 %_26, 3
  %_30 = icmp eq i64 %_29, 0
  br i1 %_30, label %bb11, label %panic1

panic:                                            ; preds = %bb4
; call core::panicking::panic_bounds_check
  call void @_ZN4core9panicking18panic_bounds_check17h27d1e4f0cb1112dfE(i64 %_17, i64 3, ptr align 8 @alloc_4db75c967427a2b0c33df6cd1601c252) #8
  unreachable

bb11:                                             ; preds = %bb6
  %_32 = ptrtoint ptr %_0.i to i64
  %_35 = icmp eq i64 %_32, 0
  %_36 = and i1 %_35, true
  %_37 = xor i1 %_36, true
  br i1 %_37, label %bb12, label %panic2

panic1:                                           ; preds = %bb6
; call core::panicking::panic_misaligned_pointer_dereference
  call void @_ZN4core9panicking36panic_misaligned_pointer_dereference17hcc3cbded9382b6e5E(i64 4, i64 %_26, ptr align 8 @alloc_4db75c967427a2b0c33df6cd1601c252) #8
  unreachable

bb12:                                             ; preds = %bb11
  %2 = getelementptr inbounds nuw i32, ptr %_0.i, i64 %_17
  %_13 = load i32, ptr %2, align 4
  %_8 = call i32 (ptr, ...) @printf(ptr @alloc_b929c71616281bfd1be2bd4038d3ddf1, i32 %_13) #9
  %3 = load i32, ptr %j, align 4
  %4 = add i32 %3, 1
  store i32 %4, ptr %j, align 4
  br label %bb3

panic2:                                           ; preds = %bb11
; call core::panicking::panic_null_pointer_dereference
  call void @_ZN4core9panicking30panic_null_pointer_dereference17hf718fcc86a223baaE(ptr align 8 @alloc_4db75c967427a2b0c33df6cd1601c252) #8
  unreachable
}

; Function Attrs: nounwind nonlazybind
define void @move_up(ptr %m, i32 %x, i32 %y) unnamed_addr #2 {
start:
  %_7 = sub i32 %x, 1
  %_6 = sext i32 %_7 to i64
; call core::ptr::mut_ptr::<impl *mut T>::offset::precondition_check
  call void @"_ZN4core3ptr7mut_ptr31_$LT$impl$u20$$BP$mut$u20$T$GT$6offset18precondition_check17h7d1a86dc0234b46dE"(ptr %m, i64 %_6, i64 12) #9
  %_0.i10 = getelementptr inbounds [3 x i32], ptr %m, i64 %_6
  %_8 = sext i32 %y to i64
  %_9 = icmp ult i64 %_8, 3
  br i1 %_9, label %bb2, label %panic

bb2:                                              ; preds = %start
  %_32 = ptrtoint ptr %_0.i10 to i64
  %_35 = and i64 %_32, 3
  %_36 = icmp eq i64 %_35, 0
  br i1 %_36, label %bb9, label %panic1

panic:                                            ; preds = %start
; call core::panicking::panic_bounds_check
  call void @_ZN4core9panicking18panic_bounds_check17h27d1e4f0cb1112dfE(i64 %_8, i64 3, ptr align 8 @alloc_aa3ab9ea1aa8d3786259a5dbd56385e3) #8
  unreachable

bb9:                                              ; preds = %bb2
  %_38 = ptrtoint ptr %_0.i10 to i64
  %_41 = icmp eq i64 %_38, 0
  %_42 = and i1 %_41, true
  %_43 = xor i1 %_42, true
  br i1 %_43, label %bb10, label %panic2

panic1:                                           ; preds = %bb2
; call core::panicking::panic_misaligned_pointer_dereference
  call void @_ZN4core9panicking36panic_misaligned_pointer_dereference17hcc3cbded9382b6e5E(i64 4, i64 %_32, ptr align 8 @alloc_aa3ab9ea1aa8d3786259a5dbd56385e3) #8
  unreachable

bb10:                                             ; preds = %bb9
  %0 = getelementptr inbounds nuw i32, ptr %_0.i10, i64 %_8
  %_4 = load i32, ptr %0, align 4
  %_11 = sext i32 %x to i64
; call core::ptr::mut_ptr::<impl *mut T>::offset::precondition_check
  call void @"_ZN4core3ptr7mut_ptr31_$LT$impl$u20$$BP$mut$u20$T$GT$6offset18precondition_check17h7d1a86dc0234b46dE"(ptr %m, i64 %_11, i64 12) #9
  %_0.i9 = getelementptr inbounds [3 x i32], ptr %m, i64 %_11
  %_12 = sext i32 %y to i64
  %_13 = icmp ult i64 %_12, 3
  br i1 %_13, label %bb4, label %panic3

panic2:                                           ; preds = %bb9
; call core::panicking::panic_null_pointer_dereference
  call void @_ZN4core9panicking30panic_null_pointer_dereference17hf718fcc86a223baaE(ptr align 8 @alloc_aa3ab9ea1aa8d3786259a5dbd56385e3) #8
  unreachable

bb4:                                              ; preds = %bb10
  %_26 = ptrtoint ptr %_0.i9 to i64
  %_29 = and i64 %_26, 3
  %_30 = icmp eq i64 %_29, 0
  br i1 %_30, label %bb8, label %panic4

panic3:                                           ; preds = %bb10
; call core::panicking::panic_bounds_check
  call void @_ZN4core9panicking18panic_bounds_check17h27d1e4f0cb1112dfE(i64 %_12, i64 3, ptr align 8 @alloc_538476e1631fc806db3175eb01980700) #8
  unreachable

bb8:                                              ; preds = %bb4
  %_45 = ptrtoint ptr %_0.i9 to i64
  %_48 = icmp eq i64 %_45, 0
  %_49 = and i1 %_48, true
  %_50 = xor i1 %_49, true
  br i1 %_50, label %bb11, label %panic5

panic4:                                           ; preds = %bb4
; call core::panicking::panic_misaligned_pointer_dereference
  call void @_ZN4core9panicking36panic_misaligned_pointer_dereference17hcc3cbded9382b6e5E(i64 4, i64 %_26, ptr align 8 @alloc_538476e1631fc806db3175eb01980700) #8
  unreachable

bb11:                                             ; preds = %bb8
  %1 = getelementptr inbounds nuw i32, ptr %_0.i9, i64 %_12
  store i32 %_4, ptr %1, align 4
  %_16 = sub i32 %x, 1
  %_15 = sext i32 %_16 to i64
; call core::ptr::mut_ptr::<impl *mut T>::offset::precondition_check
  call void @"_ZN4core3ptr7mut_ptr31_$LT$impl$u20$$BP$mut$u20$T$GT$6offset18precondition_check17h7d1a86dc0234b46dE"(ptr %m, i64 %_15, i64 12) #9
  %_0.i = getelementptr inbounds [3 x i32], ptr %m, i64 %_15
  %_17 = sext i32 %y to i64
  %_18 = icmp ult i64 %_17, 3
  br i1 %_18, label %bb6, label %panic6

panic5:                                           ; preds = %bb8
; call core::panicking::panic_null_pointer_dereference
  call void @_ZN4core9panicking30panic_null_pointer_dereference17hf718fcc86a223baaE(ptr align 8 @alloc_538476e1631fc806db3175eb01980700) #8
  unreachable

bb6:                                              ; preds = %bb11
  %_20 = ptrtoint ptr %_0.i to i64
  %_23 = and i64 %_20, 3
  %_24 = icmp eq i64 %_23, 0
  br i1 %_24, label %bb7, label %panic7

panic6:                                           ; preds = %bb11
; call core::panicking::panic_bounds_check
  call void @_ZN4core9panicking18panic_bounds_check17h27d1e4f0cb1112dfE(i64 %_17, i64 3, ptr align 8 @alloc_fdd5048d75195a5f8c3f35c7fc1eeaa0) #8
  unreachable

bb7:                                              ; preds = %bb6
  %_52 = ptrtoint ptr %_0.i to i64
  %_55 = icmp eq i64 %_52, 0
  %_56 = and i1 %_55, true
  %_57 = xor i1 %_56, true
  br i1 %_57, label %bb12, label %panic8

panic7:                                           ; preds = %bb6
; call core::panicking::panic_misaligned_pointer_dereference
  call void @_ZN4core9panicking36panic_misaligned_pointer_dereference17hcc3cbded9382b6e5E(i64 4, i64 %_20, ptr align 8 @alloc_fdd5048d75195a5f8c3f35c7fc1eeaa0) #8
  unreachable

bb12:                                             ; preds = %bb7
  %2 = getelementptr inbounds nuw i32, ptr %_0.i, i64 %_17
  store i32 -1, ptr %2, align 4
  ret void

panic8:                                           ; preds = %bb7
; call core::panicking::panic_null_pointer_dereference
  call void @_ZN4core9panicking30panic_null_pointer_dereference17hf718fcc86a223baaE(ptr align 8 @alloc_fdd5048d75195a5f8c3f35c7fc1eeaa0) #8
  unreachable
}

; Function Attrs: nounwind nonlazybind
define void @move_down(ptr %m, i32 %x, i32 %y) unnamed_addr #2 {
start:
  %_7 = add i32 %x, 1
  %_6 = sext i32 %_7 to i64
; call core::ptr::mut_ptr::<impl *mut T>::offset::precondition_check
  call void @"_ZN4core3ptr7mut_ptr31_$LT$impl$u20$$BP$mut$u20$T$GT$6offset18precondition_check17h7d1a86dc0234b46dE"(ptr %m, i64 %_6, i64 12) #9
  %_0.i10 = getelementptr inbounds [3 x i32], ptr %m, i64 %_6
  %_8 = sext i32 %y to i64
  %_9 = icmp ult i64 %_8, 3
  br i1 %_9, label %bb2, label %panic

bb2:                                              ; preds = %start
  %_32 = ptrtoint ptr %_0.i10 to i64
  %_35 = and i64 %_32, 3
  %_36 = icmp eq i64 %_35, 0
  br i1 %_36, label %bb9, label %panic1

panic:                                            ; preds = %start
; call core::panicking::panic_bounds_check
  call void @_ZN4core9panicking18panic_bounds_check17h27d1e4f0cb1112dfE(i64 %_8, i64 3, ptr align 8 @alloc_1231378436286de472db2cb2147fb1fe) #8
  unreachable

bb9:                                              ; preds = %bb2
  %_38 = ptrtoint ptr %_0.i10 to i64
  %_41 = icmp eq i64 %_38, 0
  %_42 = and i1 %_41, true
  %_43 = xor i1 %_42, true
  br i1 %_43, label %bb10, label %panic2

panic1:                                           ; preds = %bb2
; call core::panicking::panic_misaligned_pointer_dereference
  call void @_ZN4core9panicking36panic_misaligned_pointer_dereference17hcc3cbded9382b6e5E(i64 4, i64 %_32, ptr align 8 @alloc_1231378436286de472db2cb2147fb1fe) #8
  unreachable

bb10:                                             ; preds = %bb9
  %0 = getelementptr inbounds nuw i32, ptr %_0.i10, i64 %_8
  %_4 = load i32, ptr %0, align 4
  %_11 = sext i32 %x to i64
; call core::ptr::mut_ptr::<impl *mut T>::offset::precondition_check
  call void @"_ZN4core3ptr7mut_ptr31_$LT$impl$u20$$BP$mut$u20$T$GT$6offset18precondition_check17h7d1a86dc0234b46dE"(ptr %m, i64 %_11, i64 12) #9
  %_0.i9 = getelementptr inbounds [3 x i32], ptr %m, i64 %_11
  %_12 = sext i32 %y to i64
  %_13 = icmp ult i64 %_12, 3
  br i1 %_13, label %bb4, label %panic3

panic2:                                           ; preds = %bb9
; call core::panicking::panic_null_pointer_dereference
  call void @_ZN4core9panicking30panic_null_pointer_dereference17hf718fcc86a223baaE(ptr align 8 @alloc_1231378436286de472db2cb2147fb1fe) #8
  unreachable

bb4:                                              ; preds = %bb10
  %_26 = ptrtoint ptr %_0.i9 to i64
  %_29 = and i64 %_26, 3
  %_30 = icmp eq i64 %_29, 0
  br i1 %_30, label %bb8, label %panic4

panic3:                                           ; preds = %bb10
; call core::panicking::panic_bounds_check
  call void @_ZN4core9panicking18panic_bounds_check17h27d1e4f0cb1112dfE(i64 %_12, i64 3, ptr align 8 @alloc_19fcaf815a6a6ee4b973cfb983e5063d) #8
  unreachable

bb8:                                              ; preds = %bb4
  %_45 = ptrtoint ptr %_0.i9 to i64
  %_48 = icmp eq i64 %_45, 0
  %_49 = and i1 %_48, true
  %_50 = xor i1 %_49, true
  br i1 %_50, label %bb11, label %panic5

panic4:                                           ; preds = %bb4
; call core::panicking::panic_misaligned_pointer_dereference
  call void @_ZN4core9panicking36panic_misaligned_pointer_dereference17hcc3cbded9382b6e5E(i64 4, i64 %_26, ptr align 8 @alloc_19fcaf815a6a6ee4b973cfb983e5063d) #8
  unreachable

bb11:                                             ; preds = %bb8
  %1 = getelementptr inbounds nuw i32, ptr %_0.i9, i64 %_12
  store i32 %_4, ptr %1, align 4
  %_16 = add i32 %x, 1
  %_15 = sext i32 %_16 to i64
; call core::ptr::mut_ptr::<impl *mut T>::offset::precondition_check
  call void @"_ZN4core3ptr7mut_ptr31_$LT$impl$u20$$BP$mut$u20$T$GT$6offset18precondition_check17h7d1a86dc0234b46dE"(ptr %m, i64 %_15, i64 12) #9
  %_0.i = getelementptr inbounds [3 x i32], ptr %m, i64 %_15
  %_17 = sext i32 %y to i64
  %_18 = icmp ult i64 %_17, 3
  br i1 %_18, label %bb6, label %panic6

panic5:                                           ; preds = %bb8
; call core::panicking::panic_null_pointer_dereference
  call void @_ZN4core9panicking30panic_null_pointer_dereference17hf718fcc86a223baaE(ptr align 8 @alloc_19fcaf815a6a6ee4b973cfb983e5063d) #8
  unreachable

bb6:                                              ; preds = %bb11
  %_20 = ptrtoint ptr %_0.i to i64
  %_23 = and i64 %_20, 3
  %_24 = icmp eq i64 %_23, 0
  br i1 %_24, label %bb7, label %panic7

panic6:                                           ; preds = %bb11
; call core::panicking::panic_bounds_check
  call void @_ZN4core9panicking18panic_bounds_check17h27d1e4f0cb1112dfE(i64 %_17, i64 3, ptr align 8 @alloc_82ebe0b2887610993564a06c073564b8) #8
  unreachable

bb7:                                              ; preds = %bb6
  %_52 = ptrtoint ptr %_0.i to i64
  %_55 = icmp eq i64 %_52, 0
  %_56 = and i1 %_55, true
  %_57 = xor i1 %_56, true
  br i1 %_57, label %bb12, label %panic8

panic7:                                           ; preds = %bb6
; call core::panicking::panic_misaligned_pointer_dereference
  call void @_ZN4core9panicking36panic_misaligned_pointer_dereference17hcc3cbded9382b6e5E(i64 4, i64 %_20, ptr align 8 @alloc_82ebe0b2887610993564a06c073564b8) #8
  unreachable

bb12:                                             ; preds = %bb7
  %2 = getelementptr inbounds nuw i32, ptr %_0.i, i64 %_17
  store i32 -1, ptr %2, align 4
  ret void

panic8:                                           ; preds = %bb7
; call core::panicking::panic_null_pointer_dereference
  call void @_ZN4core9panicking30panic_null_pointer_dereference17hf718fcc86a223baaE(ptr align 8 @alloc_82ebe0b2887610993564a06c073564b8) #8
  unreachable
}

; Function Attrs: nounwind nonlazybind
define void @move_left(ptr %m, i32 %x, i32 %y) unnamed_addr #2 {
start:
  %_6 = sext i32 %x to i64
; call core::ptr::mut_ptr::<impl *mut T>::offset::precondition_check
  call void @"_ZN4core3ptr7mut_ptr31_$LT$impl$u20$$BP$mut$u20$T$GT$6offset18precondition_check17h7d1a86dc0234b46dE"(ptr %m, i64 %_6, i64 12) #9
  %_0.i10 = getelementptr inbounds [3 x i32], ptr %m, i64 %_6
  %_8 = sub i32 %y, 1
  %_7 = sext i32 %_8 to i64
  %_9 = icmp ult i64 %_7, 3
  br i1 %_9, label %bb2, label %panic

bb2:                                              ; preds = %start
  %_32 = ptrtoint ptr %_0.i10 to i64
  %_35 = and i64 %_32, 3
  %_36 = icmp eq i64 %_35, 0
  br i1 %_36, label %bb9, label %panic1

panic:                                            ; preds = %start
; call core::panicking::panic_bounds_check
  call void @_ZN4core9panicking18panic_bounds_check17h27d1e4f0cb1112dfE(i64 %_7, i64 3, ptr align 8 @alloc_a2888a25def4730a555bd957f9b8a2fc) #8
  unreachable

bb9:                                              ; preds = %bb2
  %_38 = ptrtoint ptr %_0.i10 to i64
  %_41 = icmp eq i64 %_38, 0
  %_42 = and i1 %_41, true
  %_43 = xor i1 %_42, true
  br i1 %_43, label %bb10, label %panic2

panic1:                                           ; preds = %bb2
; call core::panicking::panic_misaligned_pointer_dereference
  call void @_ZN4core9panicking36panic_misaligned_pointer_dereference17hcc3cbded9382b6e5E(i64 4, i64 %_32, ptr align 8 @alloc_a2888a25def4730a555bd957f9b8a2fc) #8
  unreachable

bb10:                                             ; preds = %bb9
  %0 = getelementptr inbounds nuw i32, ptr %_0.i10, i64 %_7
  %_4 = load i32, ptr %0, align 4
  %_11 = sext i32 %x to i64
; call core::ptr::mut_ptr::<impl *mut T>::offset::precondition_check
  call void @"_ZN4core3ptr7mut_ptr31_$LT$impl$u20$$BP$mut$u20$T$GT$6offset18precondition_check17h7d1a86dc0234b46dE"(ptr %m, i64 %_11, i64 12) #9
  %_0.i9 = getelementptr inbounds [3 x i32], ptr %m, i64 %_11
  %_12 = sext i32 %y to i64
  %_13 = icmp ult i64 %_12, 3
  br i1 %_13, label %bb4, label %panic3

panic2:                                           ; preds = %bb9
; call core::panicking::panic_null_pointer_dereference
  call void @_ZN4core9panicking30panic_null_pointer_dereference17hf718fcc86a223baaE(ptr align 8 @alloc_a2888a25def4730a555bd957f9b8a2fc) #8
  unreachable

bb4:                                              ; preds = %bb10
  %_26 = ptrtoint ptr %_0.i9 to i64
  %_29 = and i64 %_26, 3
  %_30 = icmp eq i64 %_29, 0
  br i1 %_30, label %bb8, label %panic4

panic3:                                           ; preds = %bb10
; call core::panicking::panic_bounds_check
  call void @_ZN4core9panicking18panic_bounds_check17h27d1e4f0cb1112dfE(i64 %_12, i64 3, ptr align 8 @alloc_0a0c52c7598ebd026248b36c4f00b4c7) #8
  unreachable

bb8:                                              ; preds = %bb4
  %_45 = ptrtoint ptr %_0.i9 to i64
  %_48 = icmp eq i64 %_45, 0
  %_49 = and i1 %_48, true
  %_50 = xor i1 %_49, true
  br i1 %_50, label %bb11, label %panic5

panic4:                                           ; preds = %bb4
; call core::panicking::panic_misaligned_pointer_dereference
  call void @_ZN4core9panicking36panic_misaligned_pointer_dereference17hcc3cbded9382b6e5E(i64 4, i64 %_26, ptr align 8 @alloc_0a0c52c7598ebd026248b36c4f00b4c7) #8
  unreachable

bb11:                                             ; preds = %bb8
  %1 = getelementptr inbounds nuw i32, ptr %_0.i9, i64 %_12
  store i32 %_4, ptr %1, align 4
  %_15 = sext i32 %x to i64
; call core::ptr::mut_ptr::<impl *mut T>::offset::precondition_check
  call void @"_ZN4core3ptr7mut_ptr31_$LT$impl$u20$$BP$mut$u20$T$GT$6offset18precondition_check17h7d1a86dc0234b46dE"(ptr %m, i64 %_15, i64 12) #9
  %_0.i = getelementptr inbounds [3 x i32], ptr %m, i64 %_15
  %_17 = sub i32 %y, 1
  %_16 = sext i32 %_17 to i64
  %_18 = icmp ult i64 %_16, 3
  br i1 %_18, label %bb6, label %panic6

panic5:                                           ; preds = %bb8
; call core::panicking::panic_null_pointer_dereference
  call void @_ZN4core9panicking30panic_null_pointer_dereference17hf718fcc86a223baaE(ptr align 8 @alloc_0a0c52c7598ebd026248b36c4f00b4c7) #8
  unreachable

bb6:                                              ; preds = %bb11
  %_20 = ptrtoint ptr %_0.i to i64
  %_23 = and i64 %_20, 3
  %_24 = icmp eq i64 %_23, 0
  br i1 %_24, label %bb7, label %panic7

panic6:                                           ; preds = %bb11
; call core::panicking::panic_bounds_check
  call void @_ZN4core9panicking18panic_bounds_check17h27d1e4f0cb1112dfE(i64 %_16, i64 3, ptr align 8 @alloc_4c915bac303742f1dcbead2acc9529f0) #8
  unreachable

bb7:                                              ; preds = %bb6
  %_52 = ptrtoint ptr %_0.i to i64
  %_55 = icmp eq i64 %_52, 0
  %_56 = and i1 %_55, true
  %_57 = xor i1 %_56, true
  br i1 %_57, label %bb12, label %panic8

panic7:                                           ; preds = %bb6
; call core::panicking::panic_misaligned_pointer_dereference
  call void @_ZN4core9panicking36panic_misaligned_pointer_dereference17hcc3cbded9382b6e5E(i64 4, i64 %_20, ptr align 8 @alloc_4c915bac303742f1dcbead2acc9529f0) #8
  unreachable

bb12:                                             ; preds = %bb7
  %2 = getelementptr inbounds nuw i32, ptr %_0.i, i64 %_16
  store i32 -1, ptr %2, align 4
  ret void

panic8:                                           ; preds = %bb7
; call core::panicking::panic_null_pointer_dereference
  call void @_ZN4core9panicking30panic_null_pointer_dereference17hf718fcc86a223baaE(ptr align 8 @alloc_4c915bac303742f1dcbead2acc9529f0) #8
  unreachable
}

; Function Attrs: nounwind nonlazybind
define void @move_right(ptr %m, i32 %x, i32 %y) unnamed_addr #2 {
start:
  %_6 = sext i32 %x to i64
; call core::ptr::mut_ptr::<impl *mut T>::offset::precondition_check
  call void @"_ZN4core3ptr7mut_ptr31_$LT$impl$u20$$BP$mut$u20$T$GT$6offset18precondition_check17h7d1a86dc0234b46dE"(ptr %m, i64 %_6, i64 12) #9
  %_0.i10 = getelementptr inbounds [3 x i32], ptr %m, i64 %_6
  %_8 = add i32 %y, 1
  %_7 = sext i32 %_8 to i64
  %_9 = icmp ult i64 %_7, 3
  br i1 %_9, label %bb2, label %panic

bb2:                                              ; preds = %start
  %_32 = ptrtoint ptr %_0.i10 to i64
  %_35 = and i64 %_32, 3
  %_36 = icmp eq i64 %_35, 0
  br i1 %_36, label %bb9, label %panic1

panic:                                            ; preds = %start
; call core::panicking::panic_bounds_check
  call void @_ZN4core9panicking18panic_bounds_check17h27d1e4f0cb1112dfE(i64 %_7, i64 3, ptr align 8 @alloc_22ff9b87e88d7d4a41ac0701a70a1767) #8
  unreachable

bb9:                                              ; preds = %bb2
  %_38 = ptrtoint ptr %_0.i10 to i64
  %_41 = icmp eq i64 %_38, 0
  %_42 = and i1 %_41, true
  %_43 = xor i1 %_42, true
  br i1 %_43, label %bb10, label %panic2

panic1:                                           ; preds = %bb2
; call core::panicking::panic_misaligned_pointer_dereference
  call void @_ZN4core9panicking36panic_misaligned_pointer_dereference17hcc3cbded9382b6e5E(i64 4, i64 %_32, ptr align 8 @alloc_22ff9b87e88d7d4a41ac0701a70a1767) #8
  unreachable

bb10:                                             ; preds = %bb9
  %0 = getelementptr inbounds nuw i32, ptr %_0.i10, i64 %_7
  %_4 = load i32, ptr %0, align 4
  %_11 = sext i32 %x to i64
; call core::ptr::mut_ptr::<impl *mut T>::offset::precondition_check
  call void @"_ZN4core3ptr7mut_ptr31_$LT$impl$u20$$BP$mut$u20$T$GT$6offset18precondition_check17h7d1a86dc0234b46dE"(ptr %m, i64 %_11, i64 12) #9
  %_0.i9 = getelementptr inbounds [3 x i32], ptr %m, i64 %_11
  %_12 = sext i32 %y to i64
  %_13 = icmp ult i64 %_12, 3
  br i1 %_13, label %bb4, label %panic3

panic2:                                           ; preds = %bb9
; call core::panicking::panic_null_pointer_dereference
  call void @_ZN4core9panicking30panic_null_pointer_dereference17hf718fcc86a223baaE(ptr align 8 @alloc_22ff9b87e88d7d4a41ac0701a70a1767) #8
  unreachable

bb4:                                              ; preds = %bb10
  %_26 = ptrtoint ptr %_0.i9 to i64
  %_29 = and i64 %_26, 3
  %_30 = icmp eq i64 %_29, 0
  br i1 %_30, label %bb8, label %panic4

panic3:                                           ; preds = %bb10
; call core::panicking::panic_bounds_check
  call void @_ZN4core9panicking18panic_bounds_check17h27d1e4f0cb1112dfE(i64 %_12, i64 3, ptr align 8 @alloc_bf87fb36211e17508a1eccd1ab80b734) #8
  unreachable

bb8:                                              ; preds = %bb4
  %_45 = ptrtoint ptr %_0.i9 to i64
  %_48 = icmp eq i64 %_45, 0
  %_49 = and i1 %_48, true
  %_50 = xor i1 %_49, true
  br i1 %_50, label %bb11, label %panic5

panic4:                                           ; preds = %bb4
; call core::panicking::panic_misaligned_pointer_dereference
  call void @_ZN4core9panicking36panic_misaligned_pointer_dereference17hcc3cbded9382b6e5E(i64 4, i64 %_26, ptr align 8 @alloc_bf87fb36211e17508a1eccd1ab80b734) #8
  unreachable

bb11:                                             ; preds = %bb8
  %1 = getelementptr inbounds nuw i32, ptr %_0.i9, i64 %_12
  store i32 %_4, ptr %1, align 4
  %_15 = sext i32 %x to i64
; call core::ptr::mut_ptr::<impl *mut T>::offset::precondition_check
  call void @"_ZN4core3ptr7mut_ptr31_$LT$impl$u20$$BP$mut$u20$T$GT$6offset18precondition_check17h7d1a86dc0234b46dE"(ptr %m, i64 %_15, i64 12) #9
  %_0.i = getelementptr inbounds [3 x i32], ptr %m, i64 %_15
  %_17 = add i32 %y, 1
  %_16 = sext i32 %_17 to i64
  %_18 = icmp ult i64 %_16, 3
  br i1 %_18, label %bb6, label %panic6

panic5:                                           ; preds = %bb8
; call core::panicking::panic_null_pointer_dereference
  call void @_ZN4core9panicking30panic_null_pointer_dereference17hf718fcc86a223baaE(ptr align 8 @alloc_bf87fb36211e17508a1eccd1ab80b734) #8
  unreachable

bb6:                                              ; preds = %bb11
  %_20 = ptrtoint ptr %_0.i to i64
  %_23 = and i64 %_20, 3
  %_24 = icmp eq i64 %_23, 0
  br i1 %_24, label %bb7, label %panic7

panic6:                                           ; preds = %bb11
; call core::panicking::panic_bounds_check
  call void @_ZN4core9panicking18panic_bounds_check17h27d1e4f0cb1112dfE(i64 %_16, i64 3, ptr align 8 @alloc_cfb0380af96fcc257f59b04d0cb4fc70) #8
  unreachable

bb7:                                              ; preds = %bb6
  %_52 = ptrtoint ptr %_0.i to i64
  %_55 = icmp eq i64 %_52, 0
  %_56 = and i1 %_55, true
  %_57 = xor i1 %_56, true
  br i1 %_57, label %bb12, label %panic8

panic7:                                           ; preds = %bb6
; call core::panicking::panic_misaligned_pointer_dereference
  call void @_ZN4core9panicking36panic_misaligned_pointer_dereference17hcc3cbded9382b6e5E(i64 4, i64 %_20, ptr align 8 @alloc_cfb0380af96fcc257f59b04d0cb4fc70) #8
  unreachable

bb12:                                             ; preds = %bb7
  %2 = getelementptr inbounds nuw i32, ptr %_0.i, i64 %_16
  store i32 -1, ptr %2, align 4
  ret void

panic8:                                           ; preds = %bb7
; call core::panicking::panic_null_pointer_dereference
  call void @_ZN4core9panicking30panic_null_pointer_dereference17hf718fcc86a223baaE(ptr align 8 @alloc_cfb0380af96fcc257f59b04d0cb4fc70) #8
  unreachable
}

; Function Attrs: nounwind nonlazybind
define i32 @calc_weight(ptr %target, ptr %m) unnamed_addr #2 {
start:
  %j = alloca [4 x i8], align 4
  %i = alloca [4 x i8], align 4
  %weight = alloca [4 x i8], align 4
  store i32 0, ptr %weight, align 4
  store i32 0, ptr %i, align 4
  store i32 0, ptr %j, align 4
  store i32 0, ptr %i, align 4
  br label %bb1

bb1:                                              ; preds = %bb14, %start
  %_7 = load i32, ptr %i, align 4
  %_6 = icmp slt i32 %_7, 3
  br i1 %_6, label %bb2, label %bb15

bb15:                                             ; preds = %bb1
  %_0 = load i32, ptr %weight, align 4
  ret i32 %_0

bb2:                                              ; preds = %bb1
  store i32 0, ptr %j, align 4
  br label %bb3

bb3:                                              ; preds = %bb13, %bb2
  %_9 = load i32, ptr %j, align 4
  %_8 = icmp slt i32 %_9, 3
  br i1 %_8, label %bb4, label %bb14

bb14:                                             ; preds = %bb3
  %0 = load i32, ptr %i, align 4
  %1 = add i32 %0, 1
  store i32 %1, ptr %i, align 4
  br label %bb1

bb4:                                              ; preds = %bb3
  %_14 = load i32, ptr %i, align 4
  %_13 = sext i32 %_14 to i64
; call core::ptr::mut_ptr::<impl *mut T>::offset::precondition_check
  call void @"_ZN4core3ptr7mut_ptr31_$LT$impl$u20$$BP$mut$u20$T$GT$6offset18precondition_check17h7d1a86dc0234b46dE"(ptr %m, i64 %_13, i64 12) #9
  %_0.i10 = getelementptr inbounds [3 x i32], ptr %m, i64 %_13
  %_16 = load i32, ptr %j, align 4
  %_15 = sext i32 %_16 to i64
  %_17 = icmp ult i64 %_15, 3
  br i1 %_17, label %bb6, label %panic

bb6:                                              ; preds = %bb4
  %_47 = ptrtoint ptr %_0.i10 to i64
  %_50 = and i64 %_47, 3
  %_51 = icmp eq i64 %_50, 0
  br i1 %_51, label %bb18, label %panic1

panic:                                            ; preds = %bb4
; call core::panicking::panic_bounds_check
  call void @_ZN4core9panicking18panic_bounds_check17h27d1e4f0cb1112dfE(i64 %_15, i64 3, ptr align 8 @alloc_2b3a53455716e677f2761e1daef4b3d8) #8
  unreachable

bb18:                                             ; preds = %bb6
  %_53 = ptrtoint ptr %_0.i10 to i64
  %_56 = icmp eq i64 %_53, 0
  %_57 = and i1 %_56, true
  %_58 = xor i1 %_57, true
  br i1 %_58, label %bb19, label %panic2

panic1:                                           ; preds = %bb6
; call core::panicking::panic_misaligned_pointer_dereference
  call void @_ZN4core9panicking36panic_misaligned_pointer_dereference17hcc3cbded9382b6e5E(i64 4, i64 %_47, ptr align 8 @alloc_2b3a53455716e677f2761e1daef4b3d8) #8
  unreachable

bb19:                                             ; preds = %bb18
  %2 = getelementptr inbounds nuw i32, ptr %_0.i10, i64 %_15
  %_11 = load i32, ptr %2, align 4
  %_10 = icmp eq i32 %_11, -1
  br i1 %_10, label %bb13, label %bb7

panic2:                                           ; preds = %bb18
; call core::panicking::panic_null_pointer_dereference
  call void @_ZN4core9panicking30panic_null_pointer_dereference17hf718fcc86a223baaE(ptr align 8 @alloc_2b3a53455716e677f2761e1daef4b3d8) #8
  unreachable

bb7:                                              ; preds = %bb19
  %_23 = load i32, ptr %i, align 4
  %_22 = sext i32 %_23 to i64
; call core::ptr::mut_ptr::<impl *mut T>::offset::precondition_check
  call void @"_ZN4core3ptr7mut_ptr31_$LT$impl$u20$$BP$mut$u20$T$GT$6offset18precondition_check17h7d1a86dc0234b46dE"(ptr %m, i64 %_22, i64 12) #9
  %_0.i9 = getelementptr inbounds [3 x i32], ptr %m, i64 %_22
  %_25 = load i32, ptr %j, align 4
  %_24 = sext i32 %_25 to i64
  %_26 = icmp ult i64 %_24, 3
  br i1 %_26, label %bb9, label %panic3

bb13:                                             ; preds = %bb12, %bb21, %bb19
  %3 = load i32, ptr %j, align 4
  %4 = add i32 %3, 1
  store i32 %4, ptr %j, align 4
  br label %bb3

bb9:                                              ; preds = %bb7
  %_41 = ptrtoint ptr %_0.i9 to i64
  %_44 = and i64 %_41, 3
  %_45 = icmp eq i64 %_44, 0
  br i1 %_45, label %bb17, label %panic4

panic3:                                           ; preds = %bb7
; call core::panicking::panic_bounds_check
  call void @_ZN4core9panicking18panic_bounds_check17h27d1e4f0cb1112dfE(i64 %_24, i64 3, ptr align 8 @alloc_e0a494f77887ff40060bbdd73faab045) #8
  unreachable

bb17:                                             ; preds = %bb9
  %_60 = ptrtoint ptr %_0.i9 to i64
  %_63 = icmp eq i64 %_60, 0
  %_64 = and i1 %_63, true
  %_65 = xor i1 %_64, true
  br i1 %_65, label %bb20, label %panic5

panic4:                                           ; preds = %bb9
; call core::panicking::panic_misaligned_pointer_dereference
  call void @_ZN4core9panicking36panic_misaligned_pointer_dereference17hcc3cbded9382b6e5E(i64 4, i64 %_41, ptr align 8 @alloc_e0a494f77887ff40060bbdd73faab045) #8
  unreachable

bb20:                                             ; preds = %bb17
  %5 = getelementptr inbounds nuw i32, ptr %_0.i9, i64 %_24
  %_20 = load i32, ptr %5, align 4
  %_30 = load i32, ptr %i, align 4
  %_29 = sext i32 %_30 to i64
; call core::ptr::mut_ptr::<impl *mut T>::offset::precondition_check
  call void @"_ZN4core3ptr7mut_ptr31_$LT$impl$u20$$BP$mut$u20$T$GT$6offset18precondition_check17h7d1a86dc0234b46dE"(ptr %target, i64 %_29, i64 12) #9
  %_0.i = getelementptr inbounds [3 x i32], ptr %target, i64 %_29
  %_32 = load i32, ptr %j, align 4
  %_31 = sext i32 %_32 to i64
  %_33 = icmp ult i64 %_31, 3
  br i1 %_33, label %bb11, label %panic6

panic5:                                           ; preds = %bb17
; call core::panicking::panic_null_pointer_dereference
  call void @_ZN4core9panicking30panic_null_pointer_dereference17hf718fcc86a223baaE(ptr align 8 @alloc_e0a494f77887ff40060bbdd73faab045) #8
  unreachable

bb11:                                             ; preds = %bb20
  %_35 = ptrtoint ptr %_0.i to i64
  %_38 = and i64 %_35, 3
  %_39 = icmp eq i64 %_38, 0
  br i1 %_39, label %bb16, label %panic7

panic6:                                           ; preds = %bb20
; call core::panicking::panic_bounds_check
  call void @_ZN4core9panicking18panic_bounds_check17h27d1e4f0cb1112dfE(i64 %_31, i64 3, ptr align 8 @alloc_5bae34df4377a9b70f0d5a613febf56b) #8
  unreachable

bb16:                                             ; preds = %bb11
  %_67 = ptrtoint ptr %_0.i to i64
  %_70 = icmp eq i64 %_67, 0
  %_71 = and i1 %_70, true
  %_72 = xor i1 %_71, true
  br i1 %_72, label %bb21, label %panic8

panic7:                                           ; preds = %bb11
; call core::panicking::panic_misaligned_pointer_dereference
  call void @_ZN4core9panicking36panic_misaligned_pointer_dereference17hcc3cbded9382b6e5E(i64 4, i64 %_35, ptr align 8 @alloc_5bae34df4377a9b70f0d5a613febf56b) #8
  unreachable

bb21:                                             ; preds = %bb16
  %6 = getelementptr inbounds nuw i32, ptr %_0.i, i64 %_31
  %_27 = load i32, ptr %6, align 4
  %_19 = icmp ne i32 %_20, %_27
  br i1 %_19, label %bb12, label %bb13

panic8:                                           ; preds = %bb16
; call core::panicking::panic_null_pointer_dereference
  call void @_ZN4core9panicking30panic_null_pointer_dereference17hf718fcc86a223baaE(ptr align 8 @alloc_5bae34df4377a9b70f0d5a613febf56b) #8
  unreachable

bb12:                                             ; preds = %bb21
  %7 = load i32, ptr %weight, align 4
  %8 = add i32 %7, 1
  store i32 %8, ptr %weight, align 4
  br label %bb13
}

; Function Attrs: nounwind nonlazybind
define void @push(ptr %item) unnamed_addr #2 {
start:
  %_43 = icmp eq i64 ptrtoint (ptr @sp to i64), 0
  %_44 = and i1 %_43, true
  %_45 = xor i1 %_44, true
  br i1 %_45, label %bb7, label %panic

bb7:                                              ; preds = %start
  %_36 = icmp eq i64 ptrtoint (ptr @sp to i64), 0
  %_37 = and i1 %_36, true
  %_38 = xor i1 %_37, true
  br i1 %_38, label %bb6, label %panic1

panic:                                            ; preds = %start
; call core::panicking::panic_null_pointer_dereference
  call void @_ZN4core9panicking30panic_null_pointer_dereference17hf718fcc86a223baaE(ptr align 8 @alloc_ab86c8f6a6b652fd93739bb1556d653e) #8
  unreachable

bb6:                                              ; preds = %bb7
  %0 = load i32, ptr @sp, align 4
  %1 = add i32 %0, 1
  store i32 %1, ptr @sp, align 4
  %_50 = icmp eq i64 ptrtoint (ptr @sp to i64), 0
  %_51 = and i1 %_50, true
  %_52 = xor i1 %_51, true
  br i1 %_52, label %bb8, label %panic2

panic1:                                           ; preds = %bb7
; call core::panicking::panic_null_pointer_dereference
  call void @_ZN4core9panicking30panic_null_pointer_dereference17hf718fcc86a223baaE(ptr align 8 @alloc_ab86c8f6a6b652fd93739bb1556d653e) #8
  unreachable

bb8:                                              ; preds = %bb6
  %_5 = load i32, ptr @sp, align 4
  %_4 = sext i32 %_5 to i64
  %_7 = icmp ult i64 %_4, 10000
  br i1 %_7, label %bb1, label %panic3

panic2:                                           ; preds = %bb6
; call core::panicking::panic_null_pointer_dereference
  call void @_ZN4core9panicking30panic_null_pointer_dereference17hf718fcc86a223baaE(ptr align 8 @alloc_ad0b6e470531aa0f794a23ee1161517c) #8
  unreachable

bb1:                                              ; preds = %bb8
  %_57 = icmp eq i64 ptrtoint (ptr @stack to i64), 0
  %_58 = and i1 %_57, true
  %_59 = xor i1 %_58, true
  br i1 %_59, label %bb9, label %panic4

panic3:                                           ; preds = %bb8
; call core::panicking::panic_bounds_check
  call void @_ZN4core9panicking18panic_bounds_check17h27d1e4f0cb1112dfE(i64 %_4, i64 10000, ptr align 8 @alloc_c3edc0ffc4aa51f1633091e8f18b4b70) #8
  unreachable

bb9:                                              ; preds = %bb1
  %2 = getelementptr inbounds nuw ptr, ptr @stack, i64 %_4
  store ptr %item, ptr %2, align 8
  ret void

panic4:                                           ; preds = %bb1
; call core::panicking::panic_null_pointer_dereference
  call void @_ZN4core9panicking30panic_null_pointer_dereference17hf718fcc86a223baaE(ptr align 8 @alloc_c3edc0ffc4aa51f1633091e8f18b4b70) #8
  unreachable
}

; Function Attrs: nounwind nonlazybind
define ptr @pop() unnamed_addr #2 {
start:
  %_37 = icmp eq i64 ptrtoint (ptr @sp to i64), 0
  %_38 = and i1 %_37, true
  %_39 = xor i1 %_38, true
  br i1 %_39, label %bb6, label %panic

bb6:                                              ; preds = %start
  %fresh0 = load i32, ptr @sp, align 4
  %_44 = icmp eq i64 ptrtoint (ptr @sp to i64), 0
  %_45 = and i1 %_44, true
  %_46 = xor i1 %_45, true
  br i1 %_46, label %bb7, label %panic1

panic:                                            ; preds = %start
; call core::panicking::panic_null_pointer_dereference
  call void @_ZN4core9panicking30panic_null_pointer_dereference17hf718fcc86a223baaE(ptr align 8 @alloc_a2d177aa56af8f2406c0aef4042be3f2) #8
  unreachable

bb7:                                              ; preds = %bb6
  %_3 = load i32, ptr @sp, align 4
  %_51 = icmp eq i64 ptrtoint (ptr @sp to i64), 0
  %_52 = and i1 %_51, true
  %_53 = xor i1 %_52, true
  br i1 %_53, label %bb8, label %panic2

panic1:                                           ; preds = %bb6
; call core::panicking::panic_null_pointer_dereference
  call void @_ZN4core9panicking30panic_null_pointer_dereference17hf718fcc86a223baaE(ptr align 8 @alloc_15952ca07e84a5b5be1df0f62b4cf3be) #8
  unreachable

bb8:                                              ; preds = %bb7
  %0 = sub i32 %_3, 1
  store i32 %0, ptr @sp, align 4
  %_7 = sext i32 %fresh0 to i64
  %_8 = icmp ult i64 %_7, 10000
  br i1 %_8, label %bb1, label %panic3

panic2:                                           ; preds = %bb7
; call core::panicking::panic_null_pointer_dereference
  call void @_ZN4core9panicking30panic_null_pointer_dereference17hf718fcc86a223baaE(ptr align 8 @alloc_be509998ec94cff816014bdf68a99c50) #8
  unreachable

bb1:                                              ; preds = %bb8
  %_58 = icmp eq i64 ptrtoint (ptr @stack to i64), 0
  %_59 = and i1 %_58, true
  %_60 = xor i1 %_59, true
  br i1 %_60, label %bb9, label %panic4

panic3:                                           ; preds = %bb8
; call core::panicking::panic_bounds_check
  call void @_ZN4core9panicking18panic_bounds_check17h27d1e4f0cb1112dfE(i64 %_7, i64 10000, ptr align 8 @alloc_1d4ab4c41618764edd72215cd7cce0a1) #8
  unreachable

bb9:                                              ; preds = %bb1
  %1 = getelementptr inbounds nuw ptr, ptr @stack, i64 %_7
  %_0 = load ptr, ptr %1, align 8
  ret ptr %_0

panic4:                                           ; preds = %bb1
; call core::panicking::panic_null_pointer_dereference
  call void @_ZN4core9panicking30panic_null_pointer_dereference17hf718fcc86a223baaE(ptr align 8 @alloc_1d4ab4c41618764edd72215cd7cce0a1) #8
  unreachable
}

; Function Attrs: nounwind nonlazybind
define ptr @top() unnamed_addr #2 {
start:
  %_22 = icmp eq i64 ptrtoint (ptr @sp to i64), 0
  %_23 = and i1 %_22, true
  %_24 = xor i1 %_23, true
  br i1 %_24, label %bb4, label %panic

bb4:                                              ; preds = %start
  %_3 = load i32, ptr @sp, align 4
  %_2 = sext i32 %_3 to i64
  %_5 = icmp ult i64 %_2, 10000
  br i1 %_5, label %bb1, label %panic1

panic:                                            ; preds = %start
; call core::panicking::panic_null_pointer_dereference
  call void @_ZN4core9panicking30panic_null_pointer_dereference17hf718fcc86a223baaE(ptr align 8 @alloc_4b7096b99014abfa45ea96a4fcefc608) #8
  unreachable

bb1:                                              ; preds = %bb4
  %_29 = icmp eq i64 ptrtoint (ptr @stack to i64), 0
  %_30 = and i1 %_29, true
  %_31 = xor i1 %_30, true
  br i1 %_31, label %bb5, label %panic2

panic1:                                           ; preds = %bb4
; call core::panicking::panic_bounds_check
  call void @_ZN4core9panicking18panic_bounds_check17h27d1e4f0cb1112dfE(i64 %_2, i64 10000, ptr align 8 @alloc_51df26870d1bd0a228d9d2b4290cd406) #8
  unreachable

bb5:                                              ; preds = %bb1
  %0 = getelementptr inbounds nuw ptr, ptr @stack, i64 %_2
  %_0 = load ptr, ptr %0, align 8
  ret ptr %_0

panic2:                                           ; preds = %bb1
; call core::panicking::panic_null_pointer_dereference
  call void @_ZN4core9panicking30panic_null_pointer_dereference17hf718fcc86a223baaE(ptr align 8 @alloc_51df26870d1bd0a228d9d2b4290cd406) #8
  unreachable
}

; Function Attrs: nounwind nonlazybind
define i32 @empty() unnamed_addr #2 {
start:
  %_15 = icmp eq i64 ptrtoint (ptr @sp to i64), 0
  %_16 = and i1 %_15, true
  %_17 = xor i1 %_16, true
  br i1 %_17, label %bb2, label %panic

bb2:                                              ; preds = %start
  %_2 = load i32, ptr @sp, align 4
  %_1 = icmp eq i32 %_2, -1
  %_0 = zext i1 %_1 to i32
  ret i32 %_0

panic:                                            ; preds = %start
; call core::panicking::panic_null_pointer_dereference
  call void @_ZN4core9panicking30panic_null_pointer_dereference17hf718fcc86a223baaE(ptr align 8 @alloc_6ea8c559af74901b4324d1f3b6147f81) #8
  unreachable
}

; Function Attrs: nounwind nonlazybind
define void @displayoutcome(ptr %0) unnamed_addr #2 {
start:
  %node = alloca [8 x i8], align 8
  store ptr %0, ptr %node, align 8
  br label %bb1

bb1:                                              ; preds = %bb11, %start
  %_3 = load ptr, ptr %node, align 8
; call core::ptr::mut_ptr::<impl *mut T>::is_null
  %_2 = call zeroext i1 @"_ZN4core3ptr7mut_ptr31_$LT$impl$u20$$BP$mut$u20$T$GT$7is_null17h6bca475e76dc3164E"(ptr %_3) #9
  br i1 %_2, label %bb3, label %bb4

bb4:                                              ; preds = %bb1
  %_37 = load ptr, ptr %node, align 8
  %_38 = ptrtoint ptr %_37 to i64
  %_39 = icmp eq i64 %_38, 0
  %_40 = and i1 %_39, true
  %_41 = xor i1 %_40, true
  br i1 %_41, label %bb12, label %panic

bb3:                                              ; preds = %bb1
  ret void

bb12:                                             ; preds = %bb4
  %_7 = load ptr, ptr %node, align 8
  call void @cube_display(ptr %_7) #9
  %_8 = call i32 (ptr, ...) @printf(ptr @alloc_0255bdacfc758ed5f7f5c39e96c93d62) #9
  %_13 = call i32 (ptr, ...) @printf(ptr @alloc_0255bdacfc758ed5f7f5c39e96c93d62) #9
  %_18 = call i32 (ptr, ...) @printf(ptr @alloc_0255bdacfc758ed5f7f5c39e96c93d62) #9
  %_24 = load ptr, ptr %node, align 8
  %_25 = ptrtoint ptr %_24 to i64
  %_28 = and i64 %_25, 7
  %_29 = icmp eq i64 %_28, 0
  br i1 %_29, label %bb10, label %panic1

panic:                                            ; preds = %bb4
; call core::panicking::panic_null_pointer_dereference
  call void @_ZN4core9panicking30panic_null_pointer_dereference17hf718fcc86a223baaE(ptr align 8 @alloc_6e625836162496ab534400c4c1bca834) #8
  unreachable

bb10:                                             ; preds = %bb12
  %_30 = load ptr, ptr %node, align 8
  %_31 = ptrtoint ptr %_30 to i64
  %_34 = icmp eq i64 %_31, 0
  %_35 = and i1 %_34, true
  %_36 = xor i1 %_35, true
  br i1 %_36, label %bb11, label %panic2

panic1:                                           ; preds = %bb12
; call core::panicking::panic_misaligned_pointer_dereference
  call void @_ZN4core9panicking36panic_misaligned_pointer_dereference17hcc3cbded9382b6e5E(i64 8, i64 %_25, ptr align 8 @alloc_301352ecea7e75f4610b4366827bcba7) #8
  unreachable

bb11:                                             ; preds = %bb10
  %1 = load ptr, ptr %node, align 8
  %2 = getelementptr inbounds i8, ptr %1, i64 48
  %_23 = load ptr, ptr %2, align 8
  store ptr %_23, ptr %node, align 8
  br label %bb1

panic2:                                           ; preds = %bb10
; call core::panicking::panic_null_pointer_dereference
  call void @_ZN4core9panicking30panic_null_pointer_dereference17hf718fcc86a223baaE(ptr align 8 @alloc_301352ecea7e75f4610b4366827bcba7) #8
  unreachable
}

; Function Attrs: nounwind nonlazybind
define i32 @inme(ptr %0, ptr %m) unnamed_addr #2 {
start:
  %ok = alloca [4 x i8], align 4
  %node = alloca [8 x i8], align 8
  store ptr %0, ptr %node, align 8
  store i32 0, ptr %ok, align 4
  br label %bb1

bb1:                                              ; preds = %bb11, %start
  %_5 = load ptr, ptr %node, align 8
; call core::ptr::mut_ptr::<impl *mut T>::is_null
  %_4 = call zeroext i1 @"_ZN4core3ptr7mut_ptr31_$LT$impl$u20$$BP$mut$u20$T$GT$7is_null17h6bca475e76dc3164E"(ptr %_5) #9
  br i1 %_4, label %bb9, label %bb3

bb3:                                              ; preds = %bb1
  %_6 = load i32, ptr %ok, align 4
  %1 = icmp eq i32 %_6, 0
  br i1 %1, label %bb4, label %bb9

bb9:                                              ; preds = %bb3, %bb1
  %_0 = load i32, ptr %ok, align 4
  ret i32 %_0

bb4:                                              ; preds = %bb3
  %_25 = load ptr, ptr %node, align 8
  %_26 = ptrtoint ptr %_25 to i64
  %_27 = icmp eq i64 %_26, 0
  %_28 = and i1 %_27, true
  %_29 = xor i1 %_28, true
  br i1 %_29, label %bb12, label %panic

bb12:                                             ; preds = %bb4
  %_10 = load ptr, ptr %node, align 8
  %_7 = call i32 @cube_equal(ptr %_10, ptr %m) #9
  %2 = icmp eq i32 %_7, 0
  br i1 %2, label %bb8, label %bb7

panic:                                            ; preds = %bb4
; call core::panicking::panic_null_pointer_dereference
  call void @_ZN4core9panicking30panic_null_pointer_dereference17hf718fcc86a223baaE(ptr align 8 @alloc_324cf5fdd0b425484c4f3c7b0521fa41) #8
  unreachable

bb8:                                              ; preds = %bb7, %bb12
  %_12 = load ptr, ptr %node, align 8
  %_13 = ptrtoint ptr %_12 to i64
  %_16 = and i64 %_13, 7
  %_17 = icmp eq i64 %_16, 0
  br i1 %_17, label %bb10, label %panic1

bb7:                                              ; preds = %bb12
  store i32 1, ptr %ok, align 4
  br label %bb8

bb10:                                             ; preds = %bb8
  %_18 = load ptr, ptr %node, align 8
  %_19 = ptrtoint ptr %_18 to i64
  %_22 = icmp eq i64 %_19, 0
  %_23 = and i1 %_22, true
  %_24 = xor i1 %_23, true
  br i1 %_24, label %bb11, label %panic2

panic1:                                           ; preds = %bb8
; call core::panicking::panic_misaligned_pointer_dereference
  call void @_ZN4core9panicking36panic_misaligned_pointer_dereference17hcc3cbded9382b6e5E(i64 8, i64 %_13, ptr align 8 @alloc_5a7fe70796cd78bf10264e5e1b69cf7b) #8
  unreachable

bb11:                                             ; preds = %bb10
  %3 = load ptr, ptr %node, align 8
  %4 = getelementptr inbounds i8, ptr %3, i64 48
  %_11 = load ptr, ptr %4, align 8
  store ptr %_11, ptr %node, align 8
  br label %bb1

panic2:                                           ; preds = %bb10
; call core::panicking::panic_null_pointer_dereference
  call void @_ZN4core9panicking30panic_null_pointer_dereference17hf718fcc86a223baaE(ptr align 8 @alloc_5a7fe70796cd78bf10264e5e1b69cf7b) #8
  unreachable
}

; Function Attrs: nounwind nonlazybind
define void @insertsort(ptr %data, i32 %size) unnamed_addr #2 {
start:
  %pivot = alloca [8 x i8], align 8
  %j = alloca [4 x i8], align 4
  %i = alloca [4 x i8], align 4
  store i32 0, ptr %i, align 4
  store i32 0, ptr %j, align 4
  store ptr null, ptr %pivot, align 8
  store i32 1, ptr %i, align 4
  br label %bb1

bb1:                                              ; preds = %bb21, %start
  %_7 = load i32, ptr %i, align 4
  %_6 = icmp slt i32 %_7, %size
  br i1 %_6, label %bb2, label %bb12

bb12:                                             ; preds = %bb1
  ret void

bb2:                                              ; preds = %bb1
  %_11 = load i32, ptr %i, align 4
  %_10 = sext i32 %_11 to i64
; call core::ptr::mut_ptr::<impl *mut T>::offset::precondition_check
  call void @"_ZN4core3ptr7mut_ptr31_$LT$impl$u20$$BP$mut$u20$T$GT$6offset18precondition_check17h7d1a86dc0234b46dE"(ptr %data, i64 %_10, i64 8) #9
  %_0.i13 = getelementptr inbounds ptr, ptr %data, i64 %_10
  %_56 = ptrtoint ptr %_0.i13 to i64
  %_59 = and i64 %_56, 7
  %_60 = icmp eq i64 %_59, 0
  br i1 %_60, label %bb16, label %panic

bb16:                                             ; preds = %bb2
  %_62 = ptrtoint ptr %_0.i13 to i64
  %_65 = icmp eq i64 %_62, 0
  %_66 = and i1 %_65, true
  %_67 = xor i1 %_66, true
  br i1 %_67, label %bb17, label %panic1

panic:                                            ; preds = %bb2
; call core::panicking::panic_misaligned_pointer_dereference
  call void @_ZN4core9panicking36panic_misaligned_pointer_dereference17hcc3cbded9382b6e5E(i64 8, i64 %_56, ptr align 8 @alloc_ed44176eda5efdbc5f9b519075184915) #8
  unreachable

bb17:                                             ; preds = %bb16
  %_8 = load ptr, ptr %_0.i13, align 8
  store ptr %_8, ptr %pivot, align 8
  %_12 = load i32, ptr %i, align 4
  %0 = sub i32 %_12, 1
  store i32 %0, ptr %j, align 4
  br label %bb4

panic1:                                           ; preds = %bb16
; call core::panicking::panic_null_pointer_dereference
  call void @_ZN4core9panicking30panic_null_pointer_dereference17hf718fcc86a223baaE(ptr align 8 @alloc_ed44176eda5efdbc5f9b519075184915) #8
  unreachable

bb4:                                              ; preds = %bb20, %bb17
  %_14 = load i32, ptr %j, align 4
  %_13 = icmp sge i32 %_14, 0
  br i1 %_13, label %bb5, label %bb10

bb10:                                             ; preds = %bb19, %bb4
  %_34 = load i32, ptr %j, align 4
  %_33 = add i32 %_34, 1
  %_32 = sext i32 %_33 to i64
; call core::ptr::mut_ptr::<impl *mut T>::offset::precondition_check
  call void @"_ZN4core3ptr7mut_ptr31_$LT$impl$u20$$BP$mut$u20$T$GT$6offset18precondition_check17h7d1a86dc0234b46dE"(ptr %data, i64 %_32, i64 8) #9
  %_0.i11 = getelementptr inbounds ptr, ptr %data, i64 %_32
  %_90 = ptrtoint ptr %_0.i11 to i64
  %_91 = icmp eq i64 %_90, 0
  %_92 = and i1 %_91, true
  %_93 = xor i1 %_92, true
  br i1 %_93, label %bb21, label %panic6

bb5:                                              ; preds = %bb4
  %_19 = load i32, ptr %j, align 4
  %_18 = sext i32 %_19 to i64
; call core::ptr::mut_ptr::<impl *mut T>::offset::precondition_check
  call void @"_ZN4core3ptr7mut_ptr31_$LT$impl$u20$$BP$mut$u20$T$GT$6offset18precondition_check17h7d1a86dc0234b46dE"(ptr %data, i64 %_18, i64 8) #9
  %_0.i12 = getelementptr inbounds ptr, ptr %data, i64 %_18
  %_36 = load ptr, ptr %_0.i12, align 8
  %_50 = ptrtoint ptr %_36 to i64
  %_53 = and i64 %_50, 7
  %_54 = icmp eq i64 %_53, 0
  br i1 %_54, label %bb15, label %panic2

bb15:                                             ; preds = %bb5
  %_69 = ptrtoint ptr %_36 to i64
  %_72 = icmp eq i64 %_69, 0
  %_73 = and i1 %_72, true
  %_74 = xor i1 %_73, true
  br i1 %_74, label %bb18, label %panic3

panic2:                                           ; preds = %bb5
; call core::panicking::panic_misaligned_pointer_dereference
  call void @_ZN4core9panicking36panic_misaligned_pointer_dereference17hcc3cbded9382b6e5E(i64 8, i64 %_50, ptr align 8 @alloc_1a962316a3c103cae71c68961ac82b12) #8
  unreachable

bb18:                                             ; preds = %bb15
  %1 = getelementptr inbounds i8, ptr %_36, i64 44
  %_16 = load i32, ptr %1, align 4
  %_43 = load ptr, ptr %pivot, align 8
  %_44 = ptrtoint ptr %_43 to i64
  %_47 = and i64 %_44, 7
  %_48 = icmp eq i64 %_47, 0
  br i1 %_48, label %bb14, label %panic4

panic3:                                           ; preds = %bb15
; call core::panicking::panic_null_pointer_dereference
  call void @_ZN4core9panicking30panic_null_pointer_dereference17hf718fcc86a223baaE(ptr align 8 @alloc_1a962316a3c103cae71c68961ac82b12) #8
  unreachable

bb14:                                             ; preds = %bb18
  %_75 = load ptr, ptr %pivot, align 8
  %_76 = ptrtoint ptr %_75 to i64
  %_79 = icmp eq i64 %_76, 0
  %_80 = and i1 %_79, true
  %_81 = xor i1 %_80, true
  br i1 %_81, label %bb19, label %panic5

panic4:                                           ; preds = %bb18
; call core::panicking::panic_misaligned_pointer_dereference
  call void @_ZN4core9panicking36panic_misaligned_pointer_dereference17hcc3cbded9382b6e5E(i64 8, i64 %_44, ptr align 8 @alloc_3c4bb9bf1e53c0e4c7f9ad0d18f18e1b) #8
  unreachable

bb19:                                             ; preds = %bb14
  %2 = load ptr, ptr %pivot, align 8
  %3 = getelementptr inbounds i8, ptr %2, i64 44
  %_20 = load i32, ptr %3, align 4
  %_15 = icmp slt i32 %_16, %_20
  br i1 %_15, label %bb7, label %bb10

panic5:                                           ; preds = %bb14
; call core::panicking::panic_null_pointer_dereference
  call void @_ZN4core9panicking30panic_null_pointer_dereference17hf718fcc86a223baaE(ptr align 8 @alloc_3c4bb9bf1e53c0e4c7f9ad0d18f18e1b) #8
  unreachable

bb7:                                              ; preds = %bb19
  %_25 = load i32, ptr %j, align 4
  %_24 = add i32 %_25, 1
  %_23 = sext i32 %_24 to i64
; call core::ptr::mut_ptr::<impl *mut T>::offset::precondition_check
  call void @"_ZN4core3ptr7mut_ptr31_$LT$impl$u20$$BP$mut$u20$T$GT$6offset18precondition_check17h7d1a86dc0234b46dE"(ptr %data, i64 %_23, i64 8) #9
  %_0.i10 = getelementptr inbounds ptr, ptr %data, i64 %_23
  %_95 = ptrtoint ptr %_0.i10 to i64
  %_96 = icmp eq i64 %_95, 0
  %_97 = and i1 %_96, true
  %_98 = xor i1 %_97, true
  br i1 %_98, label %bb22, label %panic7

bb21:                                             ; preds = %bb10
  %_35 = load ptr, ptr %pivot, align 8
  store ptr %_35, ptr %_0.i11, align 8
  %4 = load i32, ptr %i, align 4
  %5 = add i32 %4, 1
  store i32 %5, ptr %i, align 4
  br label %bb1

panic6:                                           ; preds = %bb10
; call core::panicking::panic_null_pointer_dereference
  call void @_ZN4core9panicking30panic_null_pointer_dereference17hf718fcc86a223baaE(ptr align 8 @alloc_00d24b8434f2a407fe75e661b2960337) #8
  unreachable

bb22:                                             ; preds = %bb7
  %_29 = load i32, ptr %j, align 4
  %_28 = sext i32 %_29 to i64
; call core::ptr::mut_ptr::<impl *mut T>::offset::precondition_check
  call void @"_ZN4core3ptr7mut_ptr31_$LT$impl$u20$$BP$mut$u20$T$GT$6offset18precondition_check17h7d1a86dc0234b46dE"(ptr %data, i64 %_28, i64 8) #9
  %_0.i = getelementptr inbounds ptr, ptr %data, i64 %_28
  %_38 = ptrtoint ptr %_0.i to i64
  %_41 = and i64 %_38, 7
  %_42 = icmp eq i64 %_41, 0
  br i1 %_42, label %bb13, label %panic8

panic7:                                           ; preds = %bb7
; call core::panicking::panic_null_pointer_dereference
  call void @_ZN4core9panicking30panic_null_pointer_dereference17hf718fcc86a223baaE(ptr align 8 @alloc_1f5eaa04ebab4222c82f2ba40e76688e) #8
  unreachable

bb13:                                             ; preds = %bb22
  %_83 = ptrtoint ptr %_0.i to i64
  %_86 = icmp eq i64 %_83, 0
  %_87 = and i1 %_86, true
  %_88 = xor i1 %_87, true
  br i1 %_88, label %bb20, label %panic9

panic8:                                           ; preds = %bb22
; call core::panicking::panic_misaligned_pointer_dereference
  call void @_ZN4core9panicking36panic_misaligned_pointer_dereference17hcc3cbded9382b6e5E(i64 8, i64 %_38, ptr align 8 @alloc_608e1152433db6ed3d6617698603cc75) #8
  unreachable

bb20:                                             ; preds = %bb13
  %_26 = load ptr, ptr %_0.i, align 8
  store ptr %_26, ptr %_0.i10, align 8
  %6 = load i32, ptr %j, align 4
  %7 = sub i32 %6, 1
  store i32 %7, ptr %j, align 4
  br label %bb4

panic9:                                           ; preds = %bb13
; call core::panicking::panic_null_pointer_dereference
  call void @_ZN4core9panicking30panic_null_pointer_dereference17hf718fcc86a223baaE(ptr align 8 @alloc_608e1152433db6ed3d6617698603cc75) #8
  unreachable
}

; Function Attrs: nounwind nonlazybind
define void @hillclimbing(ptr %cube, i32 %x, i32 %y, ptr %target) unnamed_addr #2 {
start:
  %i = alloca [4 x i8], align 4
  %nodesszie = alloca [4 x i8], align 4
  %nodes = alloca [32 x i8], align 8
  %counter = alloca [4 x i8], align 4
  %_18 = alloca [12 x i8], align 4
  %tmpcube = alloca [36 x i8], align 4
  %node = alloca [8 x i8], align 8
  %currentnode = alloca [8 x i8], align 8
  %_6 = call ptr @malloc(i64 56) #9
  store ptr %_6, ptr %currentnode, align 8
  %_454 = load ptr, ptr %currentnode, align 8
  %_455 = ptrtoint ptr %_454 to i64
  %_458 = and i64 %_455, 7
  %_459 = icmp eq i64 %_458, 0
  br i1 %_459, label %bb135, label %panic

bb135:                                            ; preds = %start
  %_460 = load ptr, ptr %currentnode, align 8
  %_461 = ptrtoint ptr %_460 to i64
  %_464 = icmp eq i64 %_461, 0
  %_465 = and i1 %_464, true
  %_466 = xor i1 %_465, true
  br i1 %_466, label %bb136, label %panic1

panic:                                            ; preds = %start
; call core::panicking::panic_misaligned_pointer_dereference
  call void @_ZN4core9panicking36panic_misaligned_pointer_dereference17hcc3cbded9382b6e5E(i64 8, i64 %_455, ptr align 8 @alloc_54ddf0acad81274a7b9d823ad049c391) #8
  unreachable

bb136:                                            ; preds = %bb135
  %0 = load ptr, ptr %currentnode, align 8
  %1 = getelementptr inbounds i8, ptr %0, i64 36
  store i32 %x, ptr %1, align 4
  %_448 = load ptr, ptr %currentnode, align 8
  %_449 = ptrtoint ptr %_448 to i64
  %_452 = and i64 %_449, 7
  %_453 = icmp eq i64 %_452, 0
  br i1 %_453, label %bb134, label %panic2

panic1:                                           ; preds = %bb135
; call core::panicking::panic_null_pointer_dereference
  call void @_ZN4core9panicking30panic_null_pointer_dereference17hf718fcc86a223baaE(ptr align 8 @alloc_54ddf0acad81274a7b9d823ad049c391) #8
  unreachable

bb134:                                            ; preds = %bb136
  %_467 = load ptr, ptr %currentnode, align 8
  %_468 = ptrtoint ptr %_467 to i64
  %_471 = icmp eq i64 %_468, 0
  %_472 = and i1 %_471, true
  %_473 = xor i1 %_472, true
  br i1 %_473, label %bb137, label %panic3

panic2:                                           ; preds = %bb136
; call core::panicking::panic_misaligned_pointer_dereference
  call void @_ZN4core9panicking36panic_misaligned_pointer_dereference17hcc3cbded9382b6e5E(i64 8, i64 %_449, ptr align 8 @alloc_c8cc2df52981d2a9b75471c6bf72d51b) #8
  unreachable

bb137:                                            ; preds = %bb134
  %2 = load ptr, ptr %currentnode, align 8
  %3 = getelementptr inbounds i8, ptr %2, i64 40
  store i32 %y, ptr %3, align 8
  %_442 = load ptr, ptr %currentnode, align 8
  %_443 = ptrtoint ptr %_442 to i64
  %_446 = and i64 %_443, 7
  %_447 = icmp eq i64 %_446, 0
  br i1 %_447, label %bb133, label %panic4

panic3:                                           ; preds = %bb134
; call core::panicking::panic_null_pointer_dereference
  call void @_ZN4core9panicking30panic_null_pointer_dereference17hf718fcc86a223baaE(ptr align 8 @alloc_c8cc2df52981d2a9b75471c6bf72d51b) #8
  unreachable

bb133:                                            ; preds = %bb137
  %_474 = load ptr, ptr %currentnode, align 8
  %_475 = ptrtoint ptr %_474 to i64
  %_478 = icmp eq i64 %_475, 0
  %_479 = and i1 %_478, true
  %_480 = xor i1 %_479, true
  br i1 %_480, label %bb138, label %panic5

panic4:                                           ; preds = %bb137
; call core::panicking::panic_misaligned_pointer_dereference
  call void @_ZN4core9panicking36panic_misaligned_pointer_dereference17hcc3cbded9382b6e5E(i64 8, i64 %_443, ptr align 8 @alloc_b39ae4bc7fa37121cdc0008d3af6fe1e) #8
  unreachable

bb138:                                            ; preds = %bb133
  %4 = load ptr, ptr %currentnode, align 8
  %5 = getelementptr inbounds i8, ptr %4, i64 48
  store ptr null, ptr %5, align 8
  %_9 = call i32 @calc_weight(ptr %target, ptr %cube) #9
  %_436 = load ptr, ptr %currentnode, align 8
  %_437 = ptrtoint ptr %_436 to i64
  %_440 = and i64 %_437, 7
  %_441 = icmp eq i64 %_440, 0
  br i1 %_441, label %bb132, label %panic6

panic5:                                           ; preds = %bb133
; call core::panicking::panic_null_pointer_dereference
  call void @_ZN4core9panicking30panic_null_pointer_dereference17hf718fcc86a223baaE(ptr align 8 @alloc_b39ae4bc7fa37121cdc0008d3af6fe1e) #8
  unreachable

bb132:                                            ; preds = %bb138
  %_486 = load ptr, ptr %currentnode, align 8
  %_487 = ptrtoint ptr %_486 to i64
  %_490 = icmp eq i64 %_487, 0
  %_491 = and i1 %_490, true
  %_492 = xor i1 %_491, true
  br i1 %_492, label %bb140, label %panic7

panic6:                                           ; preds = %bb138
; call core::panicking::panic_misaligned_pointer_dereference
  call void @_ZN4core9panicking36panic_misaligned_pointer_dereference17hcc3cbded9382b6e5E(i64 8, i64 %_437, ptr align 8 @alloc_7341ac8080bf6154e71aa5bdbd897a5a) #8
  unreachable

bb140:                                            ; preds = %bb132
  %6 = load ptr, ptr %currentnode, align 8
  %7 = getelementptr inbounds i8, ptr %6, i64 44
  store i32 %_9, ptr %7, align 4
  %_481 = load ptr, ptr %currentnode, align 8
  %_482 = ptrtoint ptr %_481 to i64
  %_483 = icmp eq i64 %_482, 0
  %_484 = and i1 %_483, true
  %_485 = xor i1 %_484, true
  br i1 %_485, label %bb139, label %panic8

panic7:                                           ; preds = %bb132
; call core::panicking::panic_null_pointer_dereference
  call void @_ZN4core9panicking30panic_null_pointer_dereference17hf718fcc86a223baaE(ptr align 8 @alloc_7341ac8080bf6154e71aa5bdbd897a5a) #8
  unreachable

bb139:                                            ; preds = %bb140
  %_13 = load ptr, ptr %currentnode, align 8
  call void @cube_copy(ptr %cube, ptr %_13) #9
  %_15 = load ptr, ptr %currentnode, align 8
  call void @push(ptr %_15) #9
  store ptr null, ptr %node, align 8
  call void @llvm.memset.p0.i64(ptr align 4 %_18, i8 0, i64 12, i1 false)
  br label %repeat_loop_header

panic8:                                           ; preds = %bb140
; call core::panicking::panic_null_pointer_dereference
  call void @_ZN4core9panicking30panic_null_pointer_dereference17hf718fcc86a223baaE(ptr align 8 @alloc_7430142f99ce00d1543516b5cf578b0a) #8
  unreachable

repeat_loop_header:                               ; preds = %repeat_loop_body, %bb139
  %8 = phi i64 [ 0, %bb139 ], [ %11, %repeat_loop_body ]
  %9 = icmp ult i64 %8, 3
  br i1 %9, label %repeat_loop_body, label %repeat_loop_next

repeat_loop_body:                                 ; preds = %repeat_loop_header
  %10 = getelementptr inbounds nuw [3 x i32], ptr %tmpcube, i64 %8
  call void @llvm.memcpy.p0.p0.i64(ptr align 4 %10, ptr align 4 %_18, i64 12, i1 false)
  %11 = add nuw i64 %8, 1
  br label %repeat_loop_header

repeat_loop_next:                                 ; preds = %repeat_loop_header
  store i32 0, ptr %counter, align 4
  br label %repeat_loop_header9

repeat_loop_header9:                              ; preds = %repeat_loop_body10, %repeat_loop_next
  %12 = phi i64 [ 0, %repeat_loop_next ], [ %15, %repeat_loop_body10 ]
  %13 = icmp ult i64 %12, 4
  br i1 %13, label %repeat_loop_body10, label %repeat_loop_next11

repeat_loop_body10:                               ; preds = %repeat_loop_header9
  %14 = getelementptr inbounds nuw ptr, ptr %nodes, i64 %12
  store ptr null, ptr %14, align 8
  %15 = add nuw i64 %12, 1
  br label %repeat_loop_header9

repeat_loop_next11:                               ; preds = %repeat_loop_header9
  store i32 0, ptr %nodesszie, align 4
  store i32 0, ptr %i, align 4
  br label %bb7

bb7:                                              ; preds = %bb91, %repeat_loop_next11
  %_24 = call i32 @empty() #9
  %16 = icmp eq i32 %_24, 0
  br i1 %16, label %bb9, label %bb95

bb9:                                              ; preds = %bb7
  %17 = load i32, ptr %counter, align 4
  %18 = add i32 %17, 1
  store i32 %18, ptr %counter, align 4
  %_25 = call ptr @top() #9
  store ptr %_25, ptr %currentnode, align 8
  %_810 = load ptr, ptr %currentnode, align 8
  %_811 = ptrtoint ptr %_810 to i64
  %_812 = icmp eq i64 %_811, 0
  %_813 = and i1 %_812, true
  %_814 = xor i1 %_813, true
  br i1 %_814, label %bb190, label %panic12

bb95:                                             ; preds = %bb16, %bb7
  ret void

bb190:                                            ; preds = %bb9
  %_29 = load ptr, ptr %currentnode, align 8
  call void @cube_display(ptr %_29) #9
  %_30 = call i32 (ptr, ...) @printf(ptr @alloc_f0ab6e394b2ea1f44611667b5c4b430a) #9
  %_805 = load ptr, ptr %currentnode, align 8
  %_806 = ptrtoint ptr %_805 to i64
  %_807 = icmp eq i64 %_806, 0
  %_808 = and i1 %_807, true
  %_809 = xor i1 %_808, true
  br i1 %_809, label %bb189, label %panic13

panic12:                                          ; preds = %bb9
; call core::panicking::panic_null_pointer_dereference
  call void @_ZN4core9panicking30panic_null_pointer_dereference17hf718fcc86a223baaE(ptr align 8 @alloc_5d00082c93225ae742ad072b1e1acedc) #8
  unreachable

bb189:                                            ; preds = %bb190
  %_38 = load ptr, ptr %currentnode, align 8
  %_35 = call i32 @cube_equal(ptr %_38, ptr %target) #9
  %19 = icmp eq i32 %_35, 0
  br i1 %19, label %bb17, label %bb16

panic13:                                          ; preds = %bb190
; call core::panicking::panic_null_pointer_dereference
  call void @_ZN4core9panicking30panic_null_pointer_dereference17hf718fcc86a223baaE(ptr align 8 @alloc_b6bd082785974fa791c1084330576c12) #8
  unreachable

bb17:                                             ; preds = %bb189
  %_41 = call ptr @pop() #9
  store i32 0, ptr %nodesszie, align 4
  %_800 = load ptr, ptr %currentnode, align 8
  %_801 = ptrtoint ptr %_800 to i64
  %_802 = icmp eq i64 %_801, 0
  %_803 = and i1 %_802, true
  %_804 = xor i1 %_803, true
  br i1 %_804, label %bb188, label %panic14

bb16:                                             ; preds = %bb189
  %_40 = load ptr, ptr %currentnode, align 8
  call void @displayoutcome(ptr %_40) #9
  br label %bb95

bb188:                                            ; preds = %bb17
  %_45 = load ptr, ptr %currentnode, align 8
  call void @cube_copy(ptr %_45, ptr %tmpcube) #9
  %_430 = load ptr, ptr %currentnode, align 8
  %_431 = ptrtoint ptr %_430 to i64
  %_434 = and i64 %_431, 7
  %_435 = icmp eq i64 %_434, 0
  br i1 %_435, label %bb131, label %panic15

panic14:                                          ; preds = %bb17
; call core::panicking::panic_null_pointer_dereference
  call void @_ZN4core9panicking30panic_null_pointer_dereference17hf718fcc86a223baaE(ptr align 8 @alloc_1da76292d9b8d3e39f50e5ec61160702) #8
  unreachable

bb131:                                            ; preds = %bb188
  %_493 = load ptr, ptr %currentnode, align 8
  %_494 = ptrtoint ptr %_493 to i64
  %_497 = icmp eq i64 %_494, 0
  %_498 = and i1 %_497, true
  %_499 = xor i1 %_498, true
  br i1 %_499, label %bb141, label %panic16

panic15:                                          ; preds = %bb188
; call core::panicking::panic_misaligned_pointer_dereference
  call void @_ZN4core9panicking36panic_misaligned_pointer_dereference17hcc3cbded9382b6e5E(i64 8, i64 %_431, ptr align 8 @alloc_30e487783cc051ae6c6e5940280db142) #8
  unreachable

bb141:                                            ; preds = %bb131
  %20 = load ptr, ptr %currentnode, align 8
  %21 = getelementptr inbounds i8, ptr %20, i64 36
  %_50 = load i32, ptr %21, align 4
  %_49 = icmp sgt i32 %_50, 0
  br i1 %_49, label %bb22, label %bb36

panic16:                                          ; preds = %bb131
; call core::panicking::panic_null_pointer_dereference
  call void @_ZN4core9panicking30panic_null_pointer_dereference17hf718fcc86a223baaE(ptr align 8 @alloc_30e487783cc051ae6c6e5940280db142) #8
  unreachable

bb36:                                             ; preds = %bb35, %bb143, %bb141
  %_790 = load ptr, ptr %currentnode, align 8
  %_791 = ptrtoint ptr %_790 to i64
  %_792 = icmp eq i64 %_791, 0
  %_793 = and i1 %_792, true
  %_794 = xor i1 %_793, true
  br i1 %_794, label %bb186, label %panic36

bb22:                                             ; preds = %bb141
  %_424 = load ptr, ptr %currentnode, align 8
  %_425 = ptrtoint ptr %_424 to i64
  %_428 = and i64 %_425, 7
  %_429 = icmp eq i64 %_428, 0
  br i1 %_429, label %bb130, label %panic17

bb130:                                            ; preds = %bb22
  %_500 = load ptr, ptr %currentnode, align 8
  %_501 = ptrtoint ptr %_500 to i64
  %_504 = icmp eq i64 %_501, 0
  %_505 = and i1 %_504, true
  %_506 = xor i1 %_505, true
  br i1 %_506, label %bb142, label %panic18

panic17:                                          ; preds = %bb22
; call core::panicking::panic_misaligned_pointer_dereference
  call void @_ZN4core9panicking36panic_misaligned_pointer_dereference17hcc3cbded9382b6e5E(i64 8, i64 %_425, ptr align 8 @alloc_f940b7bb00c57c9b5c96f263fd663468) #8
  unreachable

bb142:                                            ; preds = %bb130
  %22 = load ptr, ptr %currentnode, align 8
  %23 = getelementptr inbounds i8, ptr %22, i64 36
  %_55 = load i32, ptr %23, align 4
  %_418 = load ptr, ptr %currentnode, align 8
  %_419 = ptrtoint ptr %_418 to i64
  %_422 = and i64 %_419, 7
  %_423 = icmp eq i64 %_422, 0
  br i1 %_423, label %bb129, label %panic19

panic18:                                          ; preds = %bb130
; call core::panicking::panic_null_pointer_dereference
  call void @_ZN4core9panicking30panic_null_pointer_dereference17hf718fcc86a223baaE(ptr align 8 @alloc_f940b7bb00c57c9b5c96f263fd663468) #8
  unreachable

bb129:                                            ; preds = %bb142
  %_507 = load ptr, ptr %currentnode, align 8
  %_508 = ptrtoint ptr %_507 to i64
  %_511 = icmp eq i64 %_508, 0
  %_512 = and i1 %_511, true
  %_513 = xor i1 %_512, true
  br i1 %_513, label %bb143, label %panic20

panic19:                                          ; preds = %bb142
; call core::panicking::panic_misaligned_pointer_dereference
  call void @_ZN4core9panicking36panic_misaligned_pointer_dereference17hcc3cbded9382b6e5E(i64 8, i64 %_419, ptr align 8 @alloc_f693f1d3353f7434776f3781a89b989c) #8
  unreachable

bb143:                                            ; preds = %bb129
  %24 = load ptr, ptr %currentnode, align 8
  %25 = getelementptr inbounds i8, ptr %24, i64 40
  %_56 = load i32, ptr %25, align 8
  call void @move_up(ptr %tmpcube, i32 %_55, i32 %_56) #9
  %_58 = load ptr, ptr %currentnode, align 8
  %_57 = call i32 @inme(ptr %_58, ptr %tmpcube) #9
  %26 = icmp eq i32 %_57, 0
  br i1 %26, label %bb27, label %bb36

panic20:                                          ; preds = %bb129
; call core::panicking::panic_null_pointer_dereference
  call void @_ZN4core9panicking30panic_null_pointer_dereference17hf718fcc86a223baaE(ptr align 8 @alloc_f693f1d3353f7434776f3781a89b989c) #8
  unreachable

bb27:                                             ; preds = %bb143
  %_62 = call ptr @malloc(i64 56) #9
  store ptr %_62, ptr %node, align 8
  %_795 = load ptr, ptr %node, align 8
  %_796 = ptrtoint ptr %_795 to i64
  %_797 = icmp eq i64 %_796, 0
  %_798 = and i1 %_797, true
  %_799 = xor i1 %_798, true
  br i1 %_799, label %bb187, label %panic21

bb187:                                            ; preds = %bb27
  %_71 = load ptr, ptr %node, align 8
  call void @cube_copy(ptr %tmpcube, ptr %_71) #9
  %_412 = load ptr, ptr %currentnode, align 8
  %_413 = ptrtoint ptr %_412 to i64
  %_416 = and i64 %_413, 7
  %_417 = icmp eq i64 %_416, 0
  br i1 %_417, label %bb128, label %panic22

panic21:                                          ; preds = %bb27
; call core::panicking::panic_null_pointer_dereference
  call void @_ZN4core9panicking30panic_null_pointer_dereference17hf718fcc86a223baaE(ptr align 8 @alloc_832087a8266839c71cc3fcc750474ee7) #8
  unreachable

bb128:                                            ; preds = %bb187
  %_514 = load ptr, ptr %currentnode, align 8
  %_515 = ptrtoint ptr %_514 to i64
  %_518 = icmp eq i64 %_515, 0
  %_519 = and i1 %_518, true
  %_520 = xor i1 %_519, true
  br i1 %_520, label %bb144, label %panic23

panic22:                                          ; preds = %bb187
; call core::panicking::panic_misaligned_pointer_dereference
  call void @_ZN4core9panicking36panic_misaligned_pointer_dereference17hcc3cbded9382b6e5E(i64 8, i64 %_413, ptr align 8 @alloc_d4f6cdd71e2cca5ee3b2985a4b69d460) #8
  unreachable

bb144:                                            ; preds = %bb128
  %27 = load ptr, ptr %currentnode, align 8
  %28 = getelementptr inbounds i8, ptr %27, i64 36
  %_72 = load i32, ptr %28, align 4
  %_406 = load ptr, ptr %node, align 8
  %_407 = ptrtoint ptr %_406 to i64
  %_410 = and i64 %_407, 7
  %_411 = icmp eq i64 %_410, 0
  br i1 %_411, label %bb127, label %panic24

panic23:                                          ; preds = %bb128
; call core::panicking::panic_null_pointer_dereference
  call void @_ZN4core9panicking30panic_null_pointer_dereference17hf718fcc86a223baaE(ptr align 8 @alloc_d4f6cdd71e2cca5ee3b2985a4b69d460) #8
  unreachable

bb127:                                            ; preds = %bb144
  %_521 = load ptr, ptr %node, align 8
  %_522 = ptrtoint ptr %_521 to i64
  %_525 = icmp eq i64 %_522, 0
  %_526 = and i1 %_525, true
  %_527 = xor i1 %_526, true
  br i1 %_527, label %bb145, label %panic25

panic24:                                          ; preds = %bb144
; call core::panicking::panic_misaligned_pointer_dereference
  call void @_ZN4core9panicking36panic_misaligned_pointer_dereference17hcc3cbded9382b6e5E(i64 8, i64 %_407, ptr align 8 @alloc_28acad51cebd6c34c0b281fc4395d7b2) #8
  unreachable

bb145:                                            ; preds = %bb127
  %29 = load ptr, ptr %node, align 8
  %30 = getelementptr inbounds i8, ptr %29, i64 36
  %31 = sub i32 %_72, 1
  store i32 %31, ptr %30, align 4
  %_400 = load ptr, ptr %currentnode, align 8
  %_401 = ptrtoint ptr %_400 to i64
  %_404 = and i64 %_401, 7
  %_405 = icmp eq i64 %_404, 0
  br i1 %_405, label %bb126, label %panic26

panic25:                                          ; preds = %bb127
; call core::panicking::panic_null_pointer_dereference
  call void @_ZN4core9panicking30panic_null_pointer_dereference17hf718fcc86a223baaE(ptr align 8 @alloc_28acad51cebd6c34c0b281fc4395d7b2) #8
  unreachable

bb126:                                            ; preds = %bb145
  %_528 = load ptr, ptr %currentnode, align 8
  %_529 = ptrtoint ptr %_528 to i64
  %_532 = icmp eq i64 %_529, 0
  %_533 = and i1 %_532, true
  %_534 = xor i1 %_533, true
  br i1 %_534, label %bb146, label %panic27

panic26:                                          ; preds = %bb145
; call core::panicking::panic_misaligned_pointer_dereference
  call void @_ZN4core9panicking36panic_misaligned_pointer_dereference17hcc3cbded9382b6e5E(i64 8, i64 %_401, ptr align 8 @alloc_6a7172de8cb5dfeb86e0804dc784f74d) #8
  unreachable

bb146:                                            ; preds = %bb126
  %32 = load ptr, ptr %currentnode, align 8
  %33 = getelementptr inbounds i8, ptr %32, i64 40
  %_73 = load i32, ptr %33, align 8
  %_394 = load ptr, ptr %node, align 8
  %_395 = ptrtoint ptr %_394 to i64
  %_398 = and i64 %_395, 7
  %_399 = icmp eq i64 %_398, 0
  br i1 %_399, label %bb125, label %panic28

panic27:                                          ; preds = %bb126
; call core::panicking::panic_null_pointer_dereference
  call void @_ZN4core9panicking30panic_null_pointer_dereference17hf718fcc86a223baaE(ptr align 8 @alloc_6a7172de8cb5dfeb86e0804dc784f74d) #8
  unreachable

bb125:                                            ; preds = %bb146
  %_535 = load ptr, ptr %node, align 8
  %_536 = ptrtoint ptr %_535 to i64
  %_539 = icmp eq i64 %_536, 0
  %_540 = and i1 %_539, true
  %_541 = xor i1 %_540, true
  br i1 %_541, label %bb147, label %panic29

panic28:                                          ; preds = %bb146
; call core::panicking::panic_misaligned_pointer_dereference
  call void @_ZN4core9panicking36panic_misaligned_pointer_dereference17hcc3cbded9382b6e5E(i64 8, i64 %_395, ptr align 8 @alloc_c2c874d065b6bcbb5b8c77db5cecd67f) #8
  unreachable

bb147:                                            ; preds = %bb125
  %34 = load ptr, ptr %node, align 8
  %35 = getelementptr inbounds i8, ptr %34, i64 40
  store i32 %_73, ptr %35, align 8
  %_74 = load ptr, ptr %currentnode, align 8
  %_388 = load ptr, ptr %node, align 8
  %_389 = ptrtoint ptr %_388 to i64
  %_392 = and i64 %_389, 7
  %_393 = icmp eq i64 %_392, 0
  br i1 %_393, label %bb124, label %panic30

panic29:                                          ; preds = %bb125
; call core::panicking::panic_null_pointer_dereference
  call void @_ZN4core9panicking30panic_null_pointer_dereference17hf718fcc86a223baaE(ptr align 8 @alloc_c2c874d065b6bcbb5b8c77db5cecd67f) #8
  unreachable

bb124:                                            ; preds = %bb147
  %_547 = load ptr, ptr %node, align 8
  %_548 = ptrtoint ptr %_547 to i64
  %_551 = icmp eq i64 %_548, 0
  %_552 = and i1 %_551, true
  %_553 = xor i1 %_552, true
  br i1 %_553, label %bb149, label %panic31

panic30:                                          ; preds = %bb147
; call core::panicking::panic_misaligned_pointer_dereference
  call void @_ZN4core9panicking36panic_misaligned_pointer_dereference17hcc3cbded9382b6e5E(i64 8, i64 %_389, ptr align 8 @alloc_cdb40b261b9850b1bf6b33fce78a3c1d) #8
  unreachable

bb149:                                            ; preds = %bb124
  %36 = load ptr, ptr %node, align 8
  %37 = getelementptr inbounds i8, ptr %36, i64 48
  store ptr %_74, ptr %37, align 8
  %_542 = load ptr, ptr %node, align 8
  %_543 = ptrtoint ptr %_542 to i64
  %_544 = icmp eq i64 %_543, 0
  %_545 = and i1 %_544, true
  %_546 = xor i1 %_545, true
  br i1 %_546, label %bb148, label %panic32

panic31:                                          ; preds = %bb124
; call core::panicking::panic_null_pointer_dereference
  call void @_ZN4core9panicking30panic_null_pointer_dereference17hf718fcc86a223baaE(ptr align 8 @alloc_cdb40b261b9850b1bf6b33fce78a3c1d) #8
  unreachable

bb148:                                            ; preds = %bb149
  %_78 = load ptr, ptr %node, align 8
  %_75 = call i32 @calc_weight(ptr %target, ptr %_78) #9
  %_382 = load ptr, ptr %node, align 8
  %_383 = ptrtoint ptr %_382 to i64
  %_386 = and i64 %_383, 7
  %_387 = icmp eq i64 %_386, 0
  br i1 %_387, label %bb123, label %panic33

panic32:                                          ; preds = %bb149
; call core::panicking::panic_null_pointer_dereference
  call void @_ZN4core9panicking30panic_null_pointer_dereference17hf718fcc86a223baaE(ptr align 8 @alloc_6c316852aad98171845729166b3440df) #8
  unreachable

bb123:                                            ; preds = %bb148
  %_554 = load ptr, ptr %node, align 8
  %_555 = ptrtoint ptr %_554 to i64
  %_558 = icmp eq i64 %_555, 0
  %_559 = and i1 %_558, true
  %_560 = xor i1 %_559, true
  br i1 %_560, label %bb150, label %panic34

panic33:                                          ; preds = %bb148
; call core::panicking::panic_misaligned_pointer_dereference
  call void @_ZN4core9panicking36panic_misaligned_pointer_dereference17hcc3cbded9382b6e5E(i64 8, i64 %_383, ptr align 8 @alloc_4b16eca462f81ca44745a58a1ae1bbb5) #8
  unreachable

bb150:                                            ; preds = %bb123
  %38 = load ptr, ptr %node, align 8
  %39 = getelementptr inbounds i8, ptr %38, i64 44
  store i32 %_75, ptr %39, align 4
  %fresh3 = load i32, ptr %nodesszie, align 4
  %_80 = load i32, ptr %nodesszie, align 4
  %40 = add i32 %_80, 1
  store i32 %40, ptr %nodesszie, align 4
  %_81 = load ptr, ptr %node, align 8
  %_82 = sext i32 %fresh3 to i64
  %_83 = icmp ult i64 %_82, 4
  br i1 %_83, label %bb35, label %panic35

panic34:                                          ; preds = %bb123
; call core::panicking::panic_null_pointer_dereference
  call void @_ZN4core9panicking30panic_null_pointer_dereference17hf718fcc86a223baaE(ptr align 8 @alloc_4b16eca462f81ca44745a58a1ae1bbb5) #8
  unreachable

bb35:                                             ; preds = %bb150
  %41 = getelementptr inbounds nuw ptr, ptr %nodes, i64 %_82
  store ptr %_81, ptr %41, align 8
  br label %bb36

panic35:                                          ; preds = %bb150
; call core::panicking::panic_bounds_check
  call void @_ZN4core9panicking18panic_bounds_check17h27d1e4f0cb1112dfE(i64 %_82, i64 4, ptr align 8 @alloc_c9ac52e909550e4d97428abec8fb05e1) #8
  unreachable

bb186:                                            ; preds = %bb36
  %_87 = load ptr, ptr %currentnode, align 8
  call void @cube_copy(ptr %_87, ptr %tmpcube) #9
  %_376 = load ptr, ptr %currentnode, align 8
  %_377 = ptrtoint ptr %_376 to i64
  %_380 = and i64 %_377, 7
  %_381 = icmp eq i64 %_380, 0
  br i1 %_381, label %bb122, label %panic37

panic36:                                          ; preds = %bb36
; call core::panicking::panic_null_pointer_dereference
  call void @_ZN4core9panicking30panic_null_pointer_dereference17hf718fcc86a223baaE(ptr align 8 @alloc_d60fd6e8ab9d56c46b89a7591992b384) #8
  unreachable

bb122:                                            ; preds = %bb186
  %_561 = load ptr, ptr %currentnode, align 8
  %_562 = ptrtoint ptr %_561 to i64
  %_565 = icmp eq i64 %_562, 0
  %_566 = and i1 %_565, true
  %_567 = xor i1 %_566, true
  br i1 %_567, label %bb151, label %panic38

panic37:                                          ; preds = %bb186
; call core::panicking::panic_misaligned_pointer_dereference
  call void @_ZN4core9panicking36panic_misaligned_pointer_dereference17hcc3cbded9382b6e5E(i64 8, i64 %_377, ptr align 8 @alloc_d9095c06edcbe4e319cbb64bd4b78abe) #8
  unreachable

bb151:                                            ; preds = %bb122
  %42 = load ptr, ptr %currentnode, align 8
  %43 = getelementptr inbounds i8, ptr %42, i64 36
  %_92 = load i32, ptr %43, align 4
  %_91 = icmp slt i32 %_92, 2
  br i1 %_91, label %bb40, label %bb54

panic38:                                          ; preds = %bb122
; call core::panicking::panic_null_pointer_dereference
  call void @_ZN4core9panicking30panic_null_pointer_dereference17hf718fcc86a223baaE(ptr align 8 @alloc_d9095c06edcbe4e319cbb64bd4b78abe) #8
  unreachable

bb54:                                             ; preds = %bb53, %bb153, %bb151
  %_780 = load ptr, ptr %currentnode, align 8
  %_781 = ptrtoint ptr %_780 to i64
  %_782 = icmp eq i64 %_781, 0
  %_783 = and i1 %_782, true
  %_784 = xor i1 %_783, true
  br i1 %_784, label %bb184, label %panic58

bb40:                                             ; preds = %bb151
  %_370 = load ptr, ptr %currentnode, align 8
  %_371 = ptrtoint ptr %_370 to i64
  %_374 = and i64 %_371, 7
  %_375 = icmp eq i64 %_374, 0
  br i1 %_375, label %bb121, label %panic39

bb121:                                            ; preds = %bb40
  %_568 = load ptr, ptr %currentnode, align 8
  %_569 = ptrtoint ptr %_568 to i64
  %_572 = icmp eq i64 %_569, 0
  %_573 = and i1 %_572, true
  %_574 = xor i1 %_573, true
  br i1 %_574, label %bb152, label %panic40

panic39:                                          ; preds = %bb40
; call core::panicking::panic_misaligned_pointer_dereference
  call void @_ZN4core9panicking36panic_misaligned_pointer_dereference17hcc3cbded9382b6e5E(i64 8, i64 %_371, ptr align 8 @alloc_cc3cf05568711605197cafc81e72fe18) #8
  unreachable

bb152:                                            ; preds = %bb121
  %44 = load ptr, ptr %currentnode, align 8
  %45 = getelementptr inbounds i8, ptr %44, i64 36
  %_98 = load i32, ptr %45, align 4
  %_364 = load ptr, ptr %currentnode, align 8
  %_365 = ptrtoint ptr %_364 to i64
  %_368 = and i64 %_365, 7
  %_369 = icmp eq i64 %_368, 0
  br i1 %_369, label %bb120, label %panic41

panic40:                                          ; preds = %bb121
; call core::panicking::panic_null_pointer_dereference
  call void @_ZN4core9panicking30panic_null_pointer_dereference17hf718fcc86a223baaE(ptr align 8 @alloc_cc3cf05568711605197cafc81e72fe18) #8
  unreachable

bb120:                                            ; preds = %bb152
  %_575 = load ptr, ptr %currentnode, align 8
  %_576 = ptrtoint ptr %_575 to i64
  %_579 = icmp eq i64 %_576, 0
  %_580 = and i1 %_579, true
  %_581 = xor i1 %_580, true
  br i1 %_581, label %bb153, label %panic42

panic41:                                          ; preds = %bb152
; call core::panicking::panic_misaligned_pointer_dereference
  call void @_ZN4core9panicking36panic_misaligned_pointer_dereference17hcc3cbded9382b6e5E(i64 8, i64 %_365, ptr align 8 @alloc_2b876283c9a0d7aff662ff106a6b6988) #8
  unreachable

bb153:                                            ; preds = %bb120
  %46 = load ptr, ptr %currentnode, align 8
  %47 = getelementptr inbounds i8, ptr %46, i64 40
  %_99 = load i32, ptr %47, align 8
  call void @move_down(ptr %tmpcube, i32 %_98, i32 %_99) #9
  %_101 = load ptr, ptr %currentnode, align 8
  %_100 = call i32 @inme(ptr %_101, ptr %tmpcube) #9
  %48 = icmp eq i32 %_100, 0
  br i1 %48, label %bb45, label %bb54

panic42:                                          ; preds = %bb120
; call core::panicking::panic_null_pointer_dereference
  call void @_ZN4core9panicking30panic_null_pointer_dereference17hf718fcc86a223baaE(ptr align 8 @alloc_2b876283c9a0d7aff662ff106a6b6988) #8
  unreachable

bb45:                                             ; preds = %bb153
  %_105 = call ptr @malloc(i64 56) #9
  store ptr %_105, ptr %node, align 8
  %_785 = load ptr, ptr %node, align 8
  %_786 = ptrtoint ptr %_785 to i64
  %_787 = icmp eq i64 %_786, 0
  %_788 = and i1 %_787, true
  %_789 = xor i1 %_788, true
  br i1 %_789, label %bb185, label %panic43

bb185:                                            ; preds = %bb45
  %_114 = load ptr, ptr %node, align 8
  call void @cube_copy(ptr %tmpcube, ptr %_114) #9
  %_358 = load ptr, ptr %currentnode, align 8
  %_359 = ptrtoint ptr %_358 to i64
  %_362 = and i64 %_359, 7
  %_363 = icmp eq i64 %_362, 0
  br i1 %_363, label %bb119, label %panic44

panic43:                                          ; preds = %bb45
; call core::panicking::panic_null_pointer_dereference
  call void @_ZN4core9panicking30panic_null_pointer_dereference17hf718fcc86a223baaE(ptr align 8 @alloc_9aa3d4cb771be2d39038c33513ef6310) #8
  unreachable

bb119:                                            ; preds = %bb185
  %_582 = load ptr, ptr %currentnode, align 8
  %_583 = ptrtoint ptr %_582 to i64
  %_586 = icmp eq i64 %_583, 0
  %_587 = and i1 %_586, true
  %_588 = xor i1 %_587, true
  br i1 %_588, label %bb154, label %panic45

panic44:                                          ; preds = %bb185
; call core::panicking::panic_misaligned_pointer_dereference
  call void @_ZN4core9panicking36panic_misaligned_pointer_dereference17hcc3cbded9382b6e5E(i64 8, i64 %_359, ptr align 8 @alloc_e5d903a08e663b025ffd98a1dab04759) #8
  unreachable

bb154:                                            ; preds = %bb119
  %49 = load ptr, ptr %currentnode, align 8
  %50 = getelementptr inbounds i8, ptr %49, i64 36
  %_115 = load i32, ptr %50, align 4
  %_352 = load ptr, ptr %node, align 8
  %_353 = ptrtoint ptr %_352 to i64
  %_356 = and i64 %_353, 7
  %_357 = icmp eq i64 %_356, 0
  br i1 %_357, label %bb118, label %panic46

panic45:                                          ; preds = %bb119
; call core::panicking::panic_null_pointer_dereference
  call void @_ZN4core9panicking30panic_null_pointer_dereference17hf718fcc86a223baaE(ptr align 8 @alloc_e5d903a08e663b025ffd98a1dab04759) #8
  unreachable

bb118:                                            ; preds = %bb154
  %_589 = load ptr, ptr %node, align 8
  %_590 = ptrtoint ptr %_589 to i64
  %_593 = icmp eq i64 %_590, 0
  %_594 = and i1 %_593, true
  %_595 = xor i1 %_594, true
  br i1 %_595, label %bb155, label %panic47

panic46:                                          ; preds = %bb154
; call core::panicking::panic_misaligned_pointer_dereference
  call void @_ZN4core9panicking36panic_misaligned_pointer_dereference17hcc3cbded9382b6e5E(i64 8, i64 %_353, ptr align 8 @alloc_c4c50338748051f90a6b56cf922c1dc2) #8
  unreachable

bb155:                                            ; preds = %bb118
  %51 = load ptr, ptr %node, align 8
  %52 = getelementptr inbounds i8, ptr %51, i64 36
  %53 = add i32 %_115, 1
  store i32 %53, ptr %52, align 4
  %_346 = load ptr, ptr %currentnode, align 8
  %_347 = ptrtoint ptr %_346 to i64
  %_350 = and i64 %_347, 7
  %_351 = icmp eq i64 %_350, 0
  br i1 %_351, label %bb117, label %panic48

panic47:                                          ; preds = %bb118
; call core::panicking::panic_null_pointer_dereference
  call void @_ZN4core9panicking30panic_null_pointer_dereference17hf718fcc86a223baaE(ptr align 8 @alloc_c4c50338748051f90a6b56cf922c1dc2) #8
  unreachable

bb117:                                            ; preds = %bb155
  %_596 = load ptr, ptr %currentnode, align 8
  %_597 = ptrtoint ptr %_596 to i64
  %_600 = icmp eq i64 %_597, 0
  %_601 = and i1 %_600, true
  %_602 = xor i1 %_601, true
  br i1 %_602, label %bb156, label %panic49

panic48:                                          ; preds = %bb155
; call core::panicking::panic_misaligned_pointer_dereference
  call void @_ZN4core9panicking36panic_misaligned_pointer_dereference17hcc3cbded9382b6e5E(i64 8, i64 %_347, ptr align 8 @alloc_2cd33d44ffdeed4c349ded3515f702a9) #8
  unreachable

bb156:                                            ; preds = %bb117
  %54 = load ptr, ptr %currentnode, align 8
  %55 = getelementptr inbounds i8, ptr %54, i64 40
  %_116 = load i32, ptr %55, align 8
  %_340 = load ptr, ptr %node, align 8
  %_341 = ptrtoint ptr %_340 to i64
  %_344 = and i64 %_341, 7
  %_345 = icmp eq i64 %_344, 0
  br i1 %_345, label %bb116, label %panic50

panic49:                                          ; preds = %bb117
; call core::panicking::panic_null_pointer_dereference
  call void @_ZN4core9panicking30panic_null_pointer_dereference17hf718fcc86a223baaE(ptr align 8 @alloc_2cd33d44ffdeed4c349ded3515f702a9) #8
  unreachable

bb116:                                            ; preds = %bb156
  %_603 = load ptr, ptr %node, align 8
  %_604 = ptrtoint ptr %_603 to i64
  %_607 = icmp eq i64 %_604, 0
  %_608 = and i1 %_607, true
  %_609 = xor i1 %_608, true
  br i1 %_609, label %bb157, label %panic51

panic50:                                          ; preds = %bb156
; call core::panicking::panic_misaligned_pointer_dereference
  call void @_ZN4core9panicking36panic_misaligned_pointer_dereference17hcc3cbded9382b6e5E(i64 8, i64 %_341, ptr align 8 @alloc_282424d3e417984d5632be44dc90d8ce) #8
  unreachable

bb157:                                            ; preds = %bb116
  %56 = load ptr, ptr %node, align 8
  %57 = getelementptr inbounds i8, ptr %56, i64 40
  store i32 %_116, ptr %57, align 8
  %_117 = load ptr, ptr %currentnode, align 8
  %_334 = load ptr, ptr %node, align 8
  %_335 = ptrtoint ptr %_334 to i64
  %_338 = and i64 %_335, 7
  %_339 = icmp eq i64 %_338, 0
  br i1 %_339, label %bb115, label %panic52

panic51:                                          ; preds = %bb116
; call core::panicking::panic_null_pointer_dereference
  call void @_ZN4core9panicking30panic_null_pointer_dereference17hf718fcc86a223baaE(ptr align 8 @alloc_282424d3e417984d5632be44dc90d8ce) #8
  unreachable

bb115:                                            ; preds = %bb157
  %_615 = load ptr, ptr %node, align 8
  %_616 = ptrtoint ptr %_615 to i64
  %_619 = icmp eq i64 %_616, 0
  %_620 = and i1 %_619, true
  %_621 = xor i1 %_620, true
  br i1 %_621, label %bb159, label %panic53

panic52:                                          ; preds = %bb157
; call core::panicking::panic_misaligned_pointer_dereference
  call void @_ZN4core9panicking36panic_misaligned_pointer_dereference17hcc3cbded9382b6e5E(i64 8, i64 %_335, ptr align 8 @alloc_8addf7c3aa38fa267796f65e2ca14ff5) #8
  unreachable

bb159:                                            ; preds = %bb115
  %58 = load ptr, ptr %node, align 8
  %59 = getelementptr inbounds i8, ptr %58, i64 48
  store ptr %_117, ptr %59, align 8
  %_610 = load ptr, ptr %node, align 8
  %_611 = ptrtoint ptr %_610 to i64
  %_612 = icmp eq i64 %_611, 0
  %_613 = and i1 %_612, true
  %_614 = xor i1 %_613, true
  br i1 %_614, label %bb158, label %panic54

panic53:                                          ; preds = %bb115
; call core::panicking::panic_null_pointer_dereference
  call void @_ZN4core9panicking30panic_null_pointer_dereference17hf718fcc86a223baaE(ptr align 8 @alloc_8addf7c3aa38fa267796f65e2ca14ff5) #8
  unreachable

bb158:                                            ; preds = %bb159
  %_121 = load ptr, ptr %node, align 8
  %_118 = call i32 @calc_weight(ptr %target, ptr %_121) #9
  %_328 = load ptr, ptr %node, align 8
  %_329 = ptrtoint ptr %_328 to i64
  %_332 = and i64 %_329, 7
  %_333 = icmp eq i64 %_332, 0
  br i1 %_333, label %bb114, label %panic55

panic54:                                          ; preds = %bb159
; call core::panicking::panic_null_pointer_dereference
  call void @_ZN4core9panicking30panic_null_pointer_dereference17hf718fcc86a223baaE(ptr align 8 @alloc_ac81e13d288ae09fdf3cf637b21631b1) #8
  unreachable

bb114:                                            ; preds = %bb158
  %_622 = load ptr, ptr %node, align 8
  %_623 = ptrtoint ptr %_622 to i64
  %_626 = icmp eq i64 %_623, 0
  %_627 = and i1 %_626, true
  %_628 = xor i1 %_627, true
  br i1 %_628, label %bb160, label %panic56

panic55:                                          ; preds = %bb158
; call core::panicking::panic_misaligned_pointer_dereference
  call void @_ZN4core9panicking36panic_misaligned_pointer_dereference17hcc3cbded9382b6e5E(i64 8, i64 %_329, ptr align 8 @alloc_3e066056ea767308aede3e9cb48ad7b3) #8
  unreachable

bb160:                                            ; preds = %bb114
  %60 = load ptr, ptr %node, align 8
  %61 = getelementptr inbounds i8, ptr %60, i64 44
  store i32 %_118, ptr %61, align 4
  %fresh4 = load i32, ptr %nodesszie, align 4
  %_123 = load i32, ptr %nodesszie, align 4
  %62 = add i32 %_123, 1
  store i32 %62, ptr %nodesszie, align 4
  %_124 = load ptr, ptr %node, align 8
  %_125 = sext i32 %fresh4 to i64
  %_126 = icmp ult i64 %_125, 4
  br i1 %_126, label %bb53, label %panic57

panic56:                                          ; preds = %bb114
; call core::panicking::panic_null_pointer_dereference
  call void @_ZN4core9panicking30panic_null_pointer_dereference17hf718fcc86a223baaE(ptr align 8 @alloc_3e066056ea767308aede3e9cb48ad7b3) #8
  unreachable

bb53:                                             ; preds = %bb160
  %63 = getelementptr inbounds nuw ptr, ptr %nodes, i64 %_125
  store ptr %_124, ptr %63, align 8
  br label %bb54

panic57:                                          ; preds = %bb160
; call core::panicking::panic_bounds_check
  call void @_ZN4core9panicking18panic_bounds_check17h27d1e4f0cb1112dfE(i64 %_125, i64 4, ptr align 8 @alloc_b579447ad999bce7eef4aa24f927a427) #8
  unreachable

bb184:                                            ; preds = %bb54
  %_130 = load ptr, ptr %currentnode, align 8
  call void @cube_copy(ptr %_130, ptr %tmpcube) #9
  %_322 = load ptr, ptr %currentnode, align 8
  %_323 = ptrtoint ptr %_322 to i64
  %_326 = and i64 %_323, 7
  %_327 = icmp eq i64 %_326, 0
  br i1 %_327, label %bb113, label %panic59

panic58:                                          ; preds = %bb54
; call core::panicking::panic_null_pointer_dereference
  call void @_ZN4core9panicking30panic_null_pointer_dereference17hf718fcc86a223baaE(ptr align 8 @alloc_5fe4896d01d8e69972ab52d92f987f46) #8
  unreachable

bb113:                                            ; preds = %bb184
  %_629 = load ptr, ptr %currentnode, align 8
  %_630 = ptrtoint ptr %_629 to i64
  %_633 = icmp eq i64 %_630, 0
  %_634 = and i1 %_633, true
  %_635 = xor i1 %_634, true
  br i1 %_635, label %bb161, label %panic60

panic59:                                          ; preds = %bb184
; call core::panicking::panic_misaligned_pointer_dereference
  call void @_ZN4core9panicking36panic_misaligned_pointer_dereference17hcc3cbded9382b6e5E(i64 8, i64 %_323, ptr align 8 @alloc_9d6040cd87989ea0802fda5e88af97e8) #8
  unreachable

bb161:                                            ; preds = %bb113
  %64 = load ptr, ptr %currentnode, align 8
  %65 = getelementptr inbounds i8, ptr %64, i64 40
  %_135 = load i32, ptr %65, align 8
  %_134 = icmp sgt i32 %_135, 0
  br i1 %_134, label %bb58, label %bb72

panic60:                                          ; preds = %bb113
; call core::panicking::panic_null_pointer_dereference
  call void @_ZN4core9panicking30panic_null_pointer_dereference17hf718fcc86a223baaE(ptr align 8 @alloc_9d6040cd87989ea0802fda5e88af97e8) #8
  unreachable

bb72:                                             ; preds = %bb71, %bb163, %bb161
  %_770 = load ptr, ptr %currentnode, align 8
  %_771 = ptrtoint ptr %_770 to i64
  %_772 = icmp eq i64 %_771, 0
  %_773 = and i1 %_772, true
  %_774 = xor i1 %_773, true
  br i1 %_774, label %bb182, label %panic80

bb58:                                             ; preds = %bb161
  %_316 = load ptr, ptr %currentnode, align 8
  %_317 = ptrtoint ptr %_316 to i64
  %_320 = and i64 %_317, 7
  %_321 = icmp eq i64 %_320, 0
  br i1 %_321, label %bb112, label %panic61

bb112:                                            ; preds = %bb58
  %_636 = load ptr, ptr %currentnode, align 8
  %_637 = ptrtoint ptr %_636 to i64
  %_640 = icmp eq i64 %_637, 0
  %_641 = and i1 %_640, true
  %_642 = xor i1 %_641, true
  br i1 %_642, label %bb162, label %panic62

panic61:                                          ; preds = %bb58
; call core::panicking::panic_misaligned_pointer_dereference
  call void @_ZN4core9panicking36panic_misaligned_pointer_dereference17hcc3cbded9382b6e5E(i64 8, i64 %_317, ptr align 8 @alloc_73109bda468d131e4b0b27d596cd2878) #8
  unreachable

bb162:                                            ; preds = %bb112
  %66 = load ptr, ptr %currentnode, align 8
  %67 = getelementptr inbounds i8, ptr %66, i64 36
  %_140 = load i32, ptr %67, align 4
  %_310 = load ptr, ptr %currentnode, align 8
  %_311 = ptrtoint ptr %_310 to i64
  %_314 = and i64 %_311, 7
  %_315 = icmp eq i64 %_314, 0
  br i1 %_315, label %bb111, label %panic63

panic62:                                          ; preds = %bb112
; call core::panicking::panic_null_pointer_dereference
  call void @_ZN4core9panicking30panic_null_pointer_dereference17hf718fcc86a223baaE(ptr align 8 @alloc_73109bda468d131e4b0b27d596cd2878) #8
  unreachable

bb111:                                            ; preds = %bb162
  %_643 = load ptr, ptr %currentnode, align 8
  %_644 = ptrtoint ptr %_643 to i64
  %_647 = icmp eq i64 %_644, 0
  %_648 = and i1 %_647, true
  %_649 = xor i1 %_648, true
  br i1 %_649, label %bb163, label %panic64

panic63:                                          ; preds = %bb162
; call core::panicking::panic_misaligned_pointer_dereference
  call void @_ZN4core9panicking36panic_misaligned_pointer_dereference17hcc3cbded9382b6e5E(i64 8, i64 %_311, ptr align 8 @alloc_d225201696afb468dcd5aef4b0ac0151) #8
  unreachable

bb163:                                            ; preds = %bb111
  %68 = load ptr, ptr %currentnode, align 8
  %69 = getelementptr inbounds i8, ptr %68, i64 40
  %_141 = load i32, ptr %69, align 8
  call void @move_left(ptr %tmpcube, i32 %_140, i32 %_141) #9
  %_143 = load ptr, ptr %currentnode, align 8
  %_142 = call i32 @inme(ptr %_143, ptr %tmpcube) #9
  %70 = icmp eq i32 %_142, 0
  br i1 %70, label %bb63, label %bb72

panic64:                                          ; preds = %bb111
; call core::panicking::panic_null_pointer_dereference
  call void @_ZN4core9panicking30panic_null_pointer_dereference17hf718fcc86a223baaE(ptr align 8 @alloc_d225201696afb468dcd5aef4b0ac0151) #8
  unreachable

bb63:                                             ; preds = %bb163
  %_147 = call ptr @malloc(i64 56) #9
  store ptr %_147, ptr %node, align 8
  %_775 = load ptr, ptr %node, align 8
  %_776 = ptrtoint ptr %_775 to i64
  %_777 = icmp eq i64 %_776, 0
  %_778 = and i1 %_777, true
  %_779 = xor i1 %_778, true
  br i1 %_779, label %bb183, label %panic65

bb183:                                            ; preds = %bb63
  %_156 = load ptr, ptr %node, align 8
  call void @cube_copy(ptr %tmpcube, ptr %_156) #9
  %_304 = load ptr, ptr %currentnode, align 8
  %_305 = ptrtoint ptr %_304 to i64
  %_308 = and i64 %_305, 7
  %_309 = icmp eq i64 %_308, 0
  br i1 %_309, label %bb110, label %panic66

panic65:                                          ; preds = %bb63
; call core::panicking::panic_null_pointer_dereference
  call void @_ZN4core9panicking30panic_null_pointer_dereference17hf718fcc86a223baaE(ptr align 8 @alloc_077e7351e23e49002e9dc167906547e1) #8
  unreachable

bb110:                                            ; preds = %bb183
  %_650 = load ptr, ptr %currentnode, align 8
  %_651 = ptrtoint ptr %_650 to i64
  %_654 = icmp eq i64 %_651, 0
  %_655 = and i1 %_654, true
  %_656 = xor i1 %_655, true
  br i1 %_656, label %bb164, label %panic67

panic66:                                          ; preds = %bb183
; call core::panicking::panic_misaligned_pointer_dereference
  call void @_ZN4core9panicking36panic_misaligned_pointer_dereference17hcc3cbded9382b6e5E(i64 8, i64 %_305, ptr align 8 @alloc_b918b13a2c9c3707509f734b70a1bc11) #8
  unreachable

bb164:                                            ; preds = %bb110
  %71 = load ptr, ptr %currentnode, align 8
  %72 = getelementptr inbounds i8, ptr %71, i64 36
  %_157 = load i32, ptr %72, align 4
  %_298 = load ptr, ptr %node, align 8
  %_299 = ptrtoint ptr %_298 to i64
  %_302 = and i64 %_299, 7
  %_303 = icmp eq i64 %_302, 0
  br i1 %_303, label %bb109, label %panic68

panic67:                                          ; preds = %bb110
; call core::panicking::panic_null_pointer_dereference
  call void @_ZN4core9panicking30panic_null_pointer_dereference17hf718fcc86a223baaE(ptr align 8 @alloc_b918b13a2c9c3707509f734b70a1bc11) #8
  unreachable

bb109:                                            ; preds = %bb164
  %_657 = load ptr, ptr %node, align 8
  %_658 = ptrtoint ptr %_657 to i64
  %_661 = icmp eq i64 %_658, 0
  %_662 = and i1 %_661, true
  %_663 = xor i1 %_662, true
  br i1 %_663, label %bb165, label %panic69

panic68:                                          ; preds = %bb164
; call core::panicking::panic_misaligned_pointer_dereference
  call void @_ZN4core9panicking36panic_misaligned_pointer_dereference17hcc3cbded9382b6e5E(i64 8, i64 %_299, ptr align 8 @alloc_66bf85de1a19ee76f6ff5508e2b3836f) #8
  unreachable

bb165:                                            ; preds = %bb109
  %73 = load ptr, ptr %node, align 8
  %74 = getelementptr inbounds i8, ptr %73, i64 36
  store i32 %_157, ptr %74, align 4
  %_292 = load ptr, ptr %currentnode, align 8
  %_293 = ptrtoint ptr %_292 to i64
  %_296 = and i64 %_293, 7
  %_297 = icmp eq i64 %_296, 0
  br i1 %_297, label %bb108, label %panic70

panic69:                                          ; preds = %bb109
; call core::panicking::panic_null_pointer_dereference
  call void @_ZN4core9panicking30panic_null_pointer_dereference17hf718fcc86a223baaE(ptr align 8 @alloc_66bf85de1a19ee76f6ff5508e2b3836f) #8
  unreachable

bb108:                                            ; preds = %bb165
  %_664 = load ptr, ptr %currentnode, align 8
  %_665 = ptrtoint ptr %_664 to i64
  %_668 = icmp eq i64 %_665, 0
  %_669 = and i1 %_668, true
  %_670 = xor i1 %_669, true
  br i1 %_670, label %bb166, label %panic71

panic70:                                          ; preds = %bb165
; call core::panicking::panic_misaligned_pointer_dereference
  call void @_ZN4core9panicking36panic_misaligned_pointer_dereference17hcc3cbded9382b6e5E(i64 8, i64 %_293, ptr align 8 @alloc_0b16f70a4343cc3f2074fab9fd223d05) #8
  unreachable

bb166:                                            ; preds = %bb108
  %75 = load ptr, ptr %currentnode, align 8
  %76 = getelementptr inbounds i8, ptr %75, i64 40
  %_158 = load i32, ptr %76, align 8
  %_286 = load ptr, ptr %node, align 8
  %_287 = ptrtoint ptr %_286 to i64
  %_290 = and i64 %_287, 7
  %_291 = icmp eq i64 %_290, 0
  br i1 %_291, label %bb107, label %panic72

panic71:                                          ; preds = %bb108
; call core::panicking::panic_null_pointer_dereference
  call void @_ZN4core9panicking30panic_null_pointer_dereference17hf718fcc86a223baaE(ptr align 8 @alloc_0b16f70a4343cc3f2074fab9fd223d05) #8
  unreachable

bb107:                                            ; preds = %bb166
  %_671 = load ptr, ptr %node, align 8
  %_672 = ptrtoint ptr %_671 to i64
  %_675 = icmp eq i64 %_672, 0
  %_676 = and i1 %_675, true
  %_677 = xor i1 %_676, true
  br i1 %_677, label %bb167, label %panic73

panic72:                                          ; preds = %bb166
; call core::panicking::panic_misaligned_pointer_dereference
  call void @_ZN4core9panicking36panic_misaligned_pointer_dereference17hcc3cbded9382b6e5E(i64 8, i64 %_287, ptr align 8 @alloc_3bb3417701aa7c88907ca2dedc01e708) #8
  unreachable

bb167:                                            ; preds = %bb107
  %77 = load ptr, ptr %node, align 8
  %78 = getelementptr inbounds i8, ptr %77, i64 40
  %79 = sub i32 %_158, 1
  store i32 %79, ptr %78, align 8
  %_159 = load ptr, ptr %currentnode, align 8
  %_280 = load ptr, ptr %node, align 8
  %_281 = ptrtoint ptr %_280 to i64
  %_284 = and i64 %_281, 7
  %_285 = icmp eq i64 %_284, 0
  br i1 %_285, label %bb106, label %panic74

panic73:                                          ; preds = %bb107
; call core::panicking::panic_null_pointer_dereference
  call void @_ZN4core9panicking30panic_null_pointer_dereference17hf718fcc86a223baaE(ptr align 8 @alloc_3bb3417701aa7c88907ca2dedc01e708) #8
  unreachable

bb106:                                            ; preds = %bb167
  %_683 = load ptr, ptr %node, align 8
  %_684 = ptrtoint ptr %_683 to i64
  %_687 = icmp eq i64 %_684, 0
  %_688 = and i1 %_687, true
  %_689 = xor i1 %_688, true
  br i1 %_689, label %bb169, label %panic75

panic74:                                          ; preds = %bb167
; call core::panicking::panic_misaligned_pointer_dereference
  call void @_ZN4core9panicking36panic_misaligned_pointer_dereference17hcc3cbded9382b6e5E(i64 8, i64 %_281, ptr align 8 @alloc_4772ffd383426c319f26a5b8c3848ec0) #8
  unreachable

bb169:                                            ; preds = %bb106
  %80 = load ptr, ptr %node, align 8
  %81 = getelementptr inbounds i8, ptr %80, i64 48
  store ptr %_159, ptr %81, align 8
  %_678 = load ptr, ptr %node, align 8
  %_679 = ptrtoint ptr %_678 to i64
  %_680 = icmp eq i64 %_679, 0
  %_681 = and i1 %_680, true
  %_682 = xor i1 %_681, true
  br i1 %_682, label %bb168, label %panic76

panic75:                                          ; preds = %bb106
; call core::panicking::panic_null_pointer_dereference
  call void @_ZN4core9panicking30panic_null_pointer_dereference17hf718fcc86a223baaE(ptr align 8 @alloc_4772ffd383426c319f26a5b8c3848ec0) #8
  unreachable

bb168:                                            ; preds = %bb169
  %_163 = load ptr, ptr %node, align 8
  %_160 = call i32 @calc_weight(ptr %target, ptr %_163) #9
  %_274 = load ptr, ptr %node, align 8
  %_275 = ptrtoint ptr %_274 to i64
  %_278 = and i64 %_275, 7
  %_279 = icmp eq i64 %_278, 0
  br i1 %_279, label %bb105, label %panic77

panic76:                                          ; preds = %bb169
; call core::panicking::panic_null_pointer_dereference
  call void @_ZN4core9panicking30panic_null_pointer_dereference17hf718fcc86a223baaE(ptr align 8 @alloc_248eb7e1a776a3693f7e2382bab09414) #8
  unreachable

bb105:                                            ; preds = %bb168
  %_690 = load ptr, ptr %node, align 8
  %_691 = ptrtoint ptr %_690 to i64
  %_694 = icmp eq i64 %_691, 0
  %_695 = and i1 %_694, true
  %_696 = xor i1 %_695, true
  br i1 %_696, label %bb170, label %panic78

panic77:                                          ; preds = %bb168
; call core::panicking::panic_misaligned_pointer_dereference
  call void @_ZN4core9panicking36panic_misaligned_pointer_dereference17hcc3cbded9382b6e5E(i64 8, i64 %_275, ptr align 8 @alloc_bbbc5f7a5fdd72dfe154679653387770) #8
  unreachable

bb170:                                            ; preds = %bb105
  %82 = load ptr, ptr %node, align 8
  %83 = getelementptr inbounds i8, ptr %82, i64 44
  store i32 %_160, ptr %83, align 4
  %fresh5 = load i32, ptr %nodesszie, align 4
  %_165 = load i32, ptr %nodesszie, align 4
  %84 = add i32 %_165, 1
  store i32 %84, ptr %nodesszie, align 4
  %_166 = load ptr, ptr %node, align 8
  %_167 = sext i32 %fresh5 to i64
  %_168 = icmp ult i64 %_167, 4
  br i1 %_168, label %bb71, label %panic79

panic78:                                          ; preds = %bb105
; call core::panicking::panic_null_pointer_dereference
  call void @_ZN4core9panicking30panic_null_pointer_dereference17hf718fcc86a223baaE(ptr align 8 @alloc_bbbc5f7a5fdd72dfe154679653387770) #8
  unreachable

bb71:                                             ; preds = %bb170
  %85 = getelementptr inbounds nuw ptr, ptr %nodes, i64 %_167
  store ptr %_166, ptr %85, align 8
  br label %bb72

panic79:                                          ; preds = %bb170
; call core::panicking::panic_bounds_check
  call void @_ZN4core9panicking18panic_bounds_check17h27d1e4f0cb1112dfE(i64 %_167, i64 4, ptr align 8 @alloc_3a4411533c569f5ee6576ad5a3d39bb1) #8
  unreachable

bb182:                                            ; preds = %bb72
  %_172 = load ptr, ptr %currentnode, align 8
  call void @cube_copy(ptr %_172, ptr %tmpcube) #9
  %_268 = load ptr, ptr %currentnode, align 8
  %_269 = ptrtoint ptr %_268 to i64
  %_272 = and i64 %_269, 7
  %_273 = icmp eq i64 %_272, 0
  br i1 %_273, label %bb104, label %panic81

panic80:                                          ; preds = %bb72
; call core::panicking::panic_null_pointer_dereference
  call void @_ZN4core9panicking30panic_null_pointer_dereference17hf718fcc86a223baaE(ptr align 8 @alloc_e36fa06f7fb82ed505f13e9d7a507c3d) #8
  unreachable

bb104:                                            ; preds = %bb182
  %_697 = load ptr, ptr %currentnode, align 8
  %_698 = ptrtoint ptr %_697 to i64
  %_701 = icmp eq i64 %_698, 0
  %_702 = and i1 %_701, true
  %_703 = xor i1 %_702, true
  br i1 %_703, label %bb171, label %panic82

panic81:                                          ; preds = %bb182
; call core::panicking::panic_misaligned_pointer_dereference
  call void @_ZN4core9panicking36panic_misaligned_pointer_dereference17hcc3cbded9382b6e5E(i64 8, i64 %_269, ptr align 8 @alloc_5902c039832cac159ed391792eb5023c) #8
  unreachable

bb171:                                            ; preds = %bb104
  %86 = load ptr, ptr %currentnode, align 8
  %87 = getelementptr inbounds i8, ptr %86, i64 40
  %_177 = load i32, ptr %87, align 8
  %_176 = icmp slt i32 %_177, 2
  br i1 %_176, label %bb76, label %bb90

panic82:                                          ; preds = %bb104
; call core::panicking::panic_null_pointer_dereference
  call void @_ZN4core9panicking30panic_null_pointer_dereference17hf718fcc86a223baaE(ptr align 8 @alloc_5902c039832cac159ed391792eb5023c) #8
  unreachable

bb90:                                             ; preds = %bb89, %bb173, %bb171
  store i32 0, ptr %i, align 4
  br label %bb91

bb76:                                             ; preds = %bb171
  %_262 = load ptr, ptr %currentnode, align 8
  %_263 = ptrtoint ptr %_262 to i64
  %_266 = and i64 %_263, 7
  %_267 = icmp eq i64 %_266, 0
  br i1 %_267, label %bb103, label %panic83

bb103:                                            ; preds = %bb76
  %_704 = load ptr, ptr %currentnode, align 8
  %_705 = ptrtoint ptr %_704 to i64
  %_708 = icmp eq i64 %_705, 0
  %_709 = and i1 %_708, true
  %_710 = xor i1 %_709, true
  br i1 %_710, label %bb172, label %panic84

panic83:                                          ; preds = %bb76
; call core::panicking::panic_misaligned_pointer_dereference
  call void @_ZN4core9panicking36panic_misaligned_pointer_dereference17hcc3cbded9382b6e5E(i64 8, i64 %_263, ptr align 8 @alloc_35bed37eae30137d4eb6698100e10c8a) #8
  unreachable

bb172:                                            ; preds = %bb103
  %88 = load ptr, ptr %currentnode, align 8
  %89 = getelementptr inbounds i8, ptr %88, i64 36
  %_183 = load i32, ptr %89, align 4
  %_256 = load ptr, ptr %currentnode, align 8
  %_257 = ptrtoint ptr %_256 to i64
  %_260 = and i64 %_257, 7
  %_261 = icmp eq i64 %_260, 0
  br i1 %_261, label %bb102, label %panic85

panic84:                                          ; preds = %bb103
; call core::panicking::panic_null_pointer_dereference
  call void @_ZN4core9panicking30panic_null_pointer_dereference17hf718fcc86a223baaE(ptr align 8 @alloc_35bed37eae30137d4eb6698100e10c8a) #8
  unreachable

bb102:                                            ; preds = %bb172
  %_711 = load ptr, ptr %currentnode, align 8
  %_712 = ptrtoint ptr %_711 to i64
  %_715 = icmp eq i64 %_712, 0
  %_716 = and i1 %_715, true
  %_717 = xor i1 %_716, true
  br i1 %_717, label %bb173, label %panic86

panic85:                                          ; preds = %bb172
; call core::panicking::panic_misaligned_pointer_dereference
  call void @_ZN4core9panicking36panic_misaligned_pointer_dereference17hcc3cbded9382b6e5E(i64 8, i64 %_257, ptr align 8 @alloc_b7dc6fa67022eef8f119bacc1b576a2a) #8
  unreachable

bb173:                                            ; preds = %bb102
  %90 = load ptr, ptr %currentnode, align 8
  %91 = getelementptr inbounds i8, ptr %90, i64 40
  %_184 = load i32, ptr %91, align 8
  call void @move_right(ptr %tmpcube, i32 %_183, i32 %_184) #9
  %_186 = load ptr, ptr %currentnode, align 8
  %_185 = call i32 @inme(ptr %_186, ptr %tmpcube) #9
  %92 = icmp eq i32 %_185, 0
  br i1 %92, label %bb81, label %bb90

panic86:                                          ; preds = %bb102
; call core::panicking::panic_null_pointer_dereference
  call void @_ZN4core9panicking30panic_null_pointer_dereference17hf718fcc86a223baaE(ptr align 8 @alloc_b7dc6fa67022eef8f119bacc1b576a2a) #8
  unreachable

bb81:                                             ; preds = %bb173
  %_190 = call ptr @malloc(i64 56) #9
  store ptr %_190, ptr %node, align 8
  %_765 = load ptr, ptr %node, align 8
  %_766 = ptrtoint ptr %_765 to i64
  %_767 = icmp eq i64 %_766, 0
  %_768 = and i1 %_767, true
  %_769 = xor i1 %_768, true
  br i1 %_769, label %bb181, label %panic87

bb181:                                            ; preds = %bb81
  %_199 = load ptr, ptr %node, align 8
  call void @cube_copy(ptr %tmpcube, ptr %_199) #9
  %_250 = load ptr, ptr %currentnode, align 8
  %_251 = ptrtoint ptr %_250 to i64
  %_254 = and i64 %_251, 7
  %_255 = icmp eq i64 %_254, 0
  br i1 %_255, label %bb101, label %panic88

panic87:                                          ; preds = %bb81
; call core::panicking::panic_null_pointer_dereference
  call void @_ZN4core9panicking30panic_null_pointer_dereference17hf718fcc86a223baaE(ptr align 8 @alloc_fa82d0fd4b51c676bebe6b7ddacbcd47) #8
  unreachable

bb101:                                            ; preds = %bb181
  %_718 = load ptr, ptr %currentnode, align 8
  %_719 = ptrtoint ptr %_718 to i64
  %_722 = icmp eq i64 %_719, 0
  %_723 = and i1 %_722, true
  %_724 = xor i1 %_723, true
  br i1 %_724, label %bb174, label %panic89

panic88:                                          ; preds = %bb181
; call core::panicking::panic_misaligned_pointer_dereference
  call void @_ZN4core9panicking36panic_misaligned_pointer_dereference17hcc3cbded9382b6e5E(i64 8, i64 %_251, ptr align 8 @alloc_217aaa4bfc3c687ce165b7ef6f010974) #8
  unreachable

bb174:                                            ; preds = %bb101
  %93 = load ptr, ptr %currentnode, align 8
  %94 = getelementptr inbounds i8, ptr %93, i64 36
  %_200 = load i32, ptr %94, align 4
  %_244 = load ptr, ptr %node, align 8
  %_245 = ptrtoint ptr %_244 to i64
  %_248 = and i64 %_245, 7
  %_249 = icmp eq i64 %_248, 0
  br i1 %_249, label %bb100, label %panic90

panic89:                                          ; preds = %bb101
; call core::panicking::panic_null_pointer_dereference
  call void @_ZN4core9panicking30panic_null_pointer_dereference17hf718fcc86a223baaE(ptr align 8 @alloc_217aaa4bfc3c687ce165b7ef6f010974) #8
  unreachable

bb100:                                            ; preds = %bb174
  %_725 = load ptr, ptr %node, align 8
  %_726 = ptrtoint ptr %_725 to i64
  %_729 = icmp eq i64 %_726, 0
  %_730 = and i1 %_729, true
  %_731 = xor i1 %_730, true
  br i1 %_731, label %bb175, label %panic91

panic90:                                          ; preds = %bb174
; call core::panicking::panic_misaligned_pointer_dereference
  call void @_ZN4core9panicking36panic_misaligned_pointer_dereference17hcc3cbded9382b6e5E(i64 8, i64 %_245, ptr align 8 @alloc_92c6043b574c7fea8018a9dbc4d61e4a) #8
  unreachable

bb175:                                            ; preds = %bb100
  %95 = load ptr, ptr %node, align 8
  %96 = getelementptr inbounds i8, ptr %95, i64 36
  store i32 %_200, ptr %96, align 4
  %_238 = load ptr, ptr %currentnode, align 8
  %_239 = ptrtoint ptr %_238 to i64
  %_242 = and i64 %_239, 7
  %_243 = icmp eq i64 %_242, 0
  br i1 %_243, label %bb99, label %panic92

panic91:                                          ; preds = %bb100
; call core::panicking::panic_null_pointer_dereference
  call void @_ZN4core9panicking30panic_null_pointer_dereference17hf718fcc86a223baaE(ptr align 8 @alloc_92c6043b574c7fea8018a9dbc4d61e4a) #8
  unreachable

bb99:                                             ; preds = %bb175
  %_732 = load ptr, ptr %currentnode, align 8
  %_733 = ptrtoint ptr %_732 to i64
  %_736 = icmp eq i64 %_733, 0
  %_737 = and i1 %_736, true
  %_738 = xor i1 %_737, true
  br i1 %_738, label %bb176, label %panic93

panic92:                                          ; preds = %bb175
; call core::panicking::panic_misaligned_pointer_dereference
  call void @_ZN4core9panicking36panic_misaligned_pointer_dereference17hcc3cbded9382b6e5E(i64 8, i64 %_239, ptr align 8 @alloc_0f126e1bf1f500ad1dfcc833cd6f8e31) #8
  unreachable

bb176:                                            ; preds = %bb99
  %97 = load ptr, ptr %currentnode, align 8
  %98 = getelementptr inbounds i8, ptr %97, i64 40
  %_201 = load i32, ptr %98, align 8
  %_232 = load ptr, ptr %node, align 8
  %_233 = ptrtoint ptr %_232 to i64
  %_236 = and i64 %_233, 7
  %_237 = icmp eq i64 %_236, 0
  br i1 %_237, label %bb98, label %panic94

panic93:                                          ; preds = %bb99
; call core::panicking::panic_null_pointer_dereference
  call void @_ZN4core9panicking30panic_null_pointer_dereference17hf718fcc86a223baaE(ptr align 8 @alloc_0f126e1bf1f500ad1dfcc833cd6f8e31) #8
  unreachable

bb98:                                             ; preds = %bb176
  %_739 = load ptr, ptr %node, align 8
  %_740 = ptrtoint ptr %_739 to i64
  %_743 = icmp eq i64 %_740, 0
  %_744 = and i1 %_743, true
  %_745 = xor i1 %_744, true
  br i1 %_745, label %bb177, label %panic95

panic94:                                          ; preds = %bb176
; call core::panicking::panic_misaligned_pointer_dereference
  call void @_ZN4core9panicking36panic_misaligned_pointer_dereference17hcc3cbded9382b6e5E(i64 8, i64 %_233, ptr align 8 @alloc_cca858b7dce5cedb3cc3a28eb222fd0b) #8
  unreachable

bb177:                                            ; preds = %bb98
  %99 = load ptr, ptr %node, align 8
  %100 = getelementptr inbounds i8, ptr %99, i64 40
  %101 = add i32 %_201, 1
  store i32 %101, ptr %100, align 8
  %_202 = load ptr, ptr %currentnode, align 8
  %_226 = load ptr, ptr %node, align 8
  %_227 = ptrtoint ptr %_226 to i64
  %_230 = and i64 %_227, 7
  %_231 = icmp eq i64 %_230, 0
  br i1 %_231, label %bb97, label %panic96

panic95:                                          ; preds = %bb98
; call core::panicking::panic_null_pointer_dereference
  call void @_ZN4core9panicking30panic_null_pointer_dereference17hf718fcc86a223baaE(ptr align 8 @alloc_cca858b7dce5cedb3cc3a28eb222fd0b) #8
  unreachable

bb97:                                             ; preds = %bb177
  %_751 = load ptr, ptr %node, align 8
  %_752 = ptrtoint ptr %_751 to i64
  %_755 = icmp eq i64 %_752, 0
  %_756 = and i1 %_755, true
  %_757 = xor i1 %_756, true
  br i1 %_757, label %bb179, label %panic97

panic96:                                          ; preds = %bb177
; call core::panicking::panic_misaligned_pointer_dereference
  call void @_ZN4core9panicking36panic_misaligned_pointer_dereference17hcc3cbded9382b6e5E(i64 8, i64 %_227, ptr align 8 @alloc_460d493134e598d7c43c94c01d2e143f) #8
  unreachable

bb179:                                            ; preds = %bb97
  %102 = load ptr, ptr %node, align 8
  %103 = getelementptr inbounds i8, ptr %102, i64 48
  store ptr %_202, ptr %103, align 8
  %_746 = load ptr, ptr %node, align 8
  %_747 = ptrtoint ptr %_746 to i64
  %_748 = icmp eq i64 %_747, 0
  %_749 = and i1 %_748, true
  %_750 = xor i1 %_749, true
  br i1 %_750, label %bb178, label %panic98

panic97:                                          ; preds = %bb97
; call core::panicking::panic_null_pointer_dereference
  call void @_ZN4core9panicking30panic_null_pointer_dereference17hf718fcc86a223baaE(ptr align 8 @alloc_460d493134e598d7c43c94c01d2e143f) #8
  unreachable

bb178:                                            ; preds = %bb179
  %_206 = load ptr, ptr %node, align 8
  %_203 = call i32 @calc_weight(ptr %target, ptr %_206) #9
  %_220 = load ptr, ptr %node, align 8
  %_221 = ptrtoint ptr %_220 to i64
  %_224 = and i64 %_221, 7
  %_225 = icmp eq i64 %_224, 0
  br i1 %_225, label %bb96, label %panic99

panic98:                                          ; preds = %bb179
; call core::panicking::panic_null_pointer_dereference
  call void @_ZN4core9panicking30panic_null_pointer_dereference17hf718fcc86a223baaE(ptr align 8 @alloc_30f2f22928aff20d2e20c9f34e2dfb2f) #8
  unreachable

bb96:                                             ; preds = %bb178
  %_758 = load ptr, ptr %node, align 8
  %_759 = ptrtoint ptr %_758 to i64
  %_762 = icmp eq i64 %_759, 0
  %_763 = and i1 %_762, true
  %_764 = xor i1 %_763, true
  br i1 %_764, label %bb180, label %panic100

panic99:                                          ; preds = %bb178
; call core::panicking::panic_misaligned_pointer_dereference
  call void @_ZN4core9panicking36panic_misaligned_pointer_dereference17hcc3cbded9382b6e5E(i64 8, i64 %_221, ptr align 8 @alloc_96285d21c42ff7c80367b1686de656c0) #8
  unreachable

bb180:                                            ; preds = %bb96
  %104 = load ptr, ptr %node, align 8
  %105 = getelementptr inbounds i8, ptr %104, i64 44
  store i32 %_203, ptr %105, align 4
  %fresh6 = load i32, ptr %nodesszie, align 4
  %_208 = load i32, ptr %nodesszie, align 4
  %106 = add i32 %_208, 1
  store i32 %106, ptr %nodesszie, align 4
  %_209 = load ptr, ptr %node, align 8
  %_210 = sext i32 %fresh6 to i64
  %_211 = icmp ult i64 %_210, 4
  br i1 %_211, label %bb89, label %panic101

panic100:                                         ; preds = %bb96
; call core::panicking::panic_null_pointer_dereference
  call void @_ZN4core9panicking30panic_null_pointer_dereference17hf718fcc86a223baaE(ptr align 8 @alloc_96285d21c42ff7c80367b1686de656c0) #8
  unreachable

bb89:                                             ; preds = %bb180
  %107 = getelementptr inbounds nuw ptr, ptr %nodes, i64 %_210
  store ptr %_209, ptr %107, align 8
  br label %bb90

panic101:                                         ; preds = %bb180
; call core::panicking::panic_bounds_check
  call void @_ZN4core9panicking18panic_bounds_check17h27d1e4f0cb1112dfE(i64 %_210, i64 4, ptr align 8 @alloc_c6947b191deaced8ac899d48bf5831b9) #8
  unreachable

bb91:                                             ; preds = %bb93, %bb90
  %_213 = load i32, ptr %i, align 4
  %_214 = load i32, ptr %nodesszie, align 4
  %_212 = icmp slt i32 %_213, %_214
  br i1 %_212, label %bb92, label %bb7

bb92:                                             ; preds = %bb91
  %_218 = load i32, ptr %i, align 4
  %_217 = sext i32 %_218 to i64
  %_219 = icmp ult i64 %_217, 4
  br i1 %_219, label %bb93, label %panic102

bb93:                                             ; preds = %bb92
  %108 = getelementptr inbounds nuw ptr, ptr %nodes, i64 %_217
  %_216 = load ptr, ptr %108, align 8
  call void @push(ptr %_216) #9
  %109 = load i32, ptr %i, align 4
  %110 = add i32 %109, 1
  store i32 %110, ptr %i, align 4
  br label %bb91

panic102:                                         ; preds = %bb92
; call core::panicking::panic_bounds_check
  call void @_ZN4core9panicking18panic_bounds_check17h27d1e4f0cb1112dfE(i64 %_217, i64 4, ptr align 8 @alloc_3cbf27c285f143576354eaf4a934b539) #8
  unreachable
}

; Function Attrs: nocallback nofree nosync nounwind speculatable willreturn memory(none)
declare { i64, i1 } @llvm.smul.with.overflow.i64(i64, i64) #3

; Function Attrs: nocallback nofree nosync nounwind speculatable willreturn memory(none)
declare { i64, i1 } @llvm.uadd.with.overflow.i64(i64, i64) #3

; core::panicking::panic_nounwind
; Function Attrs: cold noinline noreturn nounwind nonlazybind
declare void @_ZN4core9panicking14panic_nounwind17h211d9ce8d63f12e7E(ptr align 1, i64) unnamed_addr #4

; core::panicking::panic_bounds_check
; Function Attrs: cold minsize noinline noreturn nounwind nonlazybind optsize
declare void @_ZN4core9panicking18panic_bounds_check17h27d1e4f0cb1112dfE(i64, i64, ptr align 8) unnamed_addr #5

; core::panicking::panic_misaligned_pointer_dereference
; Function Attrs: cold minsize noinline noreturn nounwind nonlazybind optsize
declare void @_ZN4core9panicking36panic_misaligned_pointer_dereference17hcc3cbded9382b6e5E(i64, i64, ptr align 8) unnamed_addr #5

; core::panicking::panic_null_pointer_dereference
; Function Attrs: cold minsize noinline noreturn nounwind nonlazybind optsize
declare void @_ZN4core9panicking30panic_null_pointer_dereference17hf718fcc86a223baaE(ptr align 8) unnamed_addr #5

; Function Attrs: nounwind nonlazybind
declare i32 @printf(ptr, ...) unnamed_addr #2

; Function Attrs: nounwind nonlazybind
declare ptr @malloc(i64) unnamed_addr #2

; Function Attrs: nocallback nofree nounwind willreturn memory(argmem: write)
declare void @llvm.memset.p0.i64(ptr nocapture writeonly, i8, i64, i1 immarg) #6

; Function Attrs: nocallback nofree nounwind willreturn memory(argmem: readwrite)
declare void @llvm.memcpy.p0.p0.i64(ptr noalias nocapture writeonly, ptr noalias nocapture readonly, i64, i1 immarg) #7

attributes #0 = { cold nounwind nonlazybind "probe-stack"="inline-asm" "target-cpu"="x86-64" }
attributes #1 = { inlinehint nounwind nonlazybind "probe-stack"="inline-asm" "target-cpu"="x86-64" }
attributes #2 = { nounwind nonlazybind "probe-stack"="inline-asm" "target-cpu"="x86-64" }
attributes #3 = { nocallback nofree nosync nounwind speculatable willreturn memory(none) }
attributes #4 = { cold noinline noreturn nounwind nonlazybind "probe-stack"="inline-asm" "target-cpu"="x86-64" }
attributes #5 = { cold minsize noinline noreturn nounwind nonlazybind optsize "probe-stack"="inline-asm" "target-cpu"="x86-64" }
attributes #6 = { nocallback nofree nounwind willreturn memory(argmem: write) }
attributes #7 = { nocallback nofree nounwind willreturn memory(argmem: readwrite) }
attributes #8 = { noreturn nounwind }
attributes #9 = { nounwind }

!llvm.module.flags = !{!0, !1}
!llvm.ident = !{!2}

!0 = !{i32 8, !"PIC Level", i32 2}
!1 = !{i32 2, !"RtLibUseGOT", i32 1}
!2 = !{!"rustc version 1.88.0-nightly (0b45675cf 2025-03-31)"}
