; ModuleID = '0a7bbdsw2j79j2z7qaecjp203'
source_filename = "0a7bbdsw2j79j2z7qaecjp203"
target datalayout = "e-m:e-p270:32:32-p271:32:32-p272:64:64-i64:64-i128:128-f80:128-n8:16:32:64-S128"
target triple = "x86_64-unknown-linux-gnu"

@alloc_0ed0763d8bf93ac79247e07858374e35 = private unnamed_addr constant [210 x i8] c"unsafe precondition(s) violated: ptr::offset requires the address calculation to not overflow\0A\0AThis indicates a bug in the program. This Undefined Behavior check is optional, and cannot be relied on for safety.", align 1
@queue = global [8000 x i8] zeroinitializer, align 8
@head = global [4 x i8] zeroinitializer, align 4
@rear = global [4 x i8] zeroinitializer, align 4
@alloc_f5ffd2fd1476bab43ad89fb40c72d0c5 = private unnamed_addr constant [10 x i8] c"src/lib.rs", align 1
@alloc_c93152ab6860bf5b4caa5d7e7973bde6 = private unnamed_addr constant <{ ptr, [16 x i8] }> <{ ptr @alloc_f5ffd2fd1476bab43ad89fb40c72d0c5, [16 x i8] c"\0A\00\00\00\00\00\00\00%\00\00\00\0D\00\00\00" }>, align 8
@alloc_4d69e02876ae34e7be4b74f5dce68bac = private unnamed_addr constant <{ ptr, [16 x i8] }> <{ ptr @alloc_f5ffd2fd1476bab43ad89fb40c72d0c5, [16 x i8] c"\0A\00\00\00\00\00\00\00%\00\00\00\15\00\00\00" }>, align 8
@alloc_3710faf6fec5008be645936189677119 = private unnamed_addr constant <{ ptr, [16 x i8] }> <{ ptr @alloc_f5ffd2fd1476bab43ad89fb40c72d0c5, [16 x i8] c"\0A\00\00\00\00\00\00\00)\00\00\00\0D\00\00\00" }>, align 8
@alloc_d13f7d9612ca6fc66feb7ef0f19e91cf = private unnamed_addr constant <{ ptr, [16 x i8] }> <{ ptr @alloc_f5ffd2fd1476bab43ad89fb40c72d0c5, [16 x i8] c"\0A\00\00\00\00\00\00\00)\00\00\00\16\00\00\00" }>, align 8
@alloc_30fd15c788fa75486a4dff6eb9d88f67 = private unnamed_addr constant <{ ptr, [16 x i8] }> <{ ptr @alloc_f5ffd2fd1476bab43ad89fb40c72d0c5, [16 x i8] c"\0A\00\00\00\00\00\00\00)\00\00\00\15\00\00\00" }>, align 8
@alloc_4795a9a0fa8a4027ea67bd5ceb7dd9c0 = private unnamed_addr constant <{ ptr, [16 x i8] }> <{ ptr @alloc_f5ffd2fd1476bab43ad89fb40c72d0c5, [16 x i8] c"\0A\00\00\00\00\00\00\00-\00\00\00\0B\00\00\00" }>, align 8
@alloc_782debb62b090b525a0675df684f112c = private unnamed_addr constant <{ ptr, [16 x i8] }> <{ ptr @alloc_f5ffd2fd1476bab43ad89fb40c72d0c5, [16 x i8] c"\0A\00\00\00\00\00\00\00-\00\00\00\05\00\00\00" }>, align 8
@alloc_3756f2a6fdac19865b2b1f9f39cd660b = private unnamed_addr constant <{ ptr, [16 x i8] }> <{ ptr @alloc_f5ffd2fd1476bab43ad89fb40c72d0c5, [16 x i8] c"\0A\00\00\00\00\00\00\00.\00\00\00\0D\00\00\00" }>, align 8
@alloc_74e807215f461f377144e15cf8689382 = private unnamed_addr constant <{ ptr, [16 x i8] }> <{ ptr @alloc_f5ffd2fd1476bab43ad89fb40c72d0c5, [16 x i8] c"\0A\00\00\00\00\00\00\00.\00\00\00\0C\00\00\00" }>, align 8
@alloc_7830c888f7e3366782590f9eab6adbed = private unnamed_addr constant <{ ptr, [16 x i8] }> <{ ptr @alloc_f5ffd2fd1476bab43ad89fb40c72d0c5, [16 x i8] c"\0A\00\00\00\00\00\00\00.\00\00\00\05\00\00\00" }>, align 8
@alloc_125f2bb44bc2be3af78d0750d46e6123 = private unnamed_addr constant <{ ptr, [16 x i8] }> <{ ptr @alloc_f5ffd2fd1476bab43ad89fb40c72d0c5, [16 x i8] c"\0A\00\00\00\00\00\00\002\00\00\00'\00\00\00" }>, align 8
@alloc_0beb4ec10e24df0e49bf3f72913caac2 = private unnamed_addr constant <{ ptr, [16 x i8] }> <{ ptr @alloc_f5ffd2fd1476bab43ad89fb40c72d0c5, [16 x i8] c"\0A\00\00\00\00\00\00\002\00\00\00!\00\00\00" }>, align 8
@alloc_4ed608c88c36042330bf2865ae2a713e = private unnamed_addr constant <{ ptr, [16 x i8] }> <{ ptr @alloc_f5ffd2fd1476bab43ad89fb40c72d0c5, [16 x i8] c"\0A\00\00\00\00\00\00\003\00\00\00\0D\00\00\00" }>, align 8
@alloc_050b3ad3fc964a51754ffea687f8aba3 = private unnamed_addr constant <{ ptr, [16 x i8] }> <{ ptr @alloc_f5ffd2fd1476bab43ad89fb40c72d0c5, [16 x i8] c"\0A\00\00\00\00\00\00\003\00\00\00\0C\00\00\00" }>, align 8
@alloc_ebd611d92c9b0e57c9cd95064c24685f = private unnamed_addr constant <{ ptr, [16 x i8] }> <{ ptr @alloc_f5ffd2fd1476bab43ad89fb40c72d0c5, [16 x i8] c"\0A\00\00\00\00\00\00\003\00\00\00\05\00\00\00" }>, align 8
@alloc_0bbd10dca8b30a537db690bd287f84de = private unnamed_addr constant <{ ptr, [16 x i8] }> <{ ptr @alloc_f5ffd2fd1476bab43ad89fb40c72d0c5, [16 x i8] c"\0A\00\00\00\00\00\00\00<\00\00\00\0C\00\00\00" }>, align 8
@alloc_21bab6856a00df07d869582a6654a89d = private unnamed_addr constant <{ ptr, [16 x i8] }> <{ ptr @alloc_f5ffd2fd1476bab43ad89fb40c72d0c5, [16 x i8] c"\0A\00\00\00\00\00\00\00Q\00\00\00\05\00\00\00" }>, align 8
@alloc_2992717b1fbbb5fccf004109e2b6b4b3 = private unnamed_addr constant <{ ptr, [16 x i8] }> <{ ptr @alloc_f5ffd2fd1476bab43ad89fb40c72d0c5, [16 x i8] c"\0A\00\00\00\00\00\00\00I\00\00\00\0C\00\00\00" }>, align 8
@alloc_71e7359a3ae780b55c54cebd6967966d = private unnamed_addr constant <{ ptr, [16 x i8] }> <{ ptr @alloc_f5ffd2fd1476bab43ad89fb40c72d0c5, [16 x i8] c"\0A\00\00\00\00\00\00\00L\00\00\00\0D\00\00\00" }>, align 8
@alloc_87551382a9de3243abbfdbda2f0b586b = private unnamed_addr constant [4 x i8] c"%d\0A\00", align 1
@alloc_b929c71616281bfd1be2bd4038d3ddf1 = private unnamed_addr constant [4 x i8] c"%d \00", align 1
@alloc_a312c61843e118644ec846773d1a1166 = private unnamed_addr constant <{ ptr, [16 x i8] }> <{ ptr @alloc_f5ffd2fd1476bab43ad89fb40c72d0c5, [16 x i8] c"\0A\00\00\00\00\00\00\00X\00\00\00>\00\00\00" }>, align 8
@alloc_36682ef10136f47a787d8b36c8950e08 = private unnamed_addr constant <{ ptr, [16 x i8] }> <{ ptr @alloc_f5ffd2fd1476bab43ad89fb40c72d0c5, [16 x i8] c"\0A\00\00\00\00\00\00\00b\00\00\00\0C\00\00\00" }>, align 8
@alloc_a2b7cb01d5893134e8699ea8444f144c = private unnamed_addr constant <{ ptr, [16 x i8] }> <{ ptr @alloc_f5ffd2fd1476bab43ad89fb40c72d0c5, [16 x i8] c"\0A\00\00\00\00\00\00\00e\00\00\00\10\00\00\00" }>, align 8
@alloc_84788a38473877ed4cf9072af52750d5 = private unnamed_addr constant <{ ptr, [16 x i8] }> <{ ptr @alloc_f5ffd2fd1476bab43ad89fb40c72d0c5, [16 x i8] c"\0A\00\00\00\00\00\00\00m\00\00\00>\00\00\00" }>, align 8
@alloc_921ab8fb4183db0b691c947907ce7f02 = private unnamed_addr constant <{ ptr, [16 x i8] }> <{ ptr @alloc_f5ffd2fd1476bab43ad89fb40c72d0c5, [16 x i8] c"\0A\00\00\00\00\00\00\00n\00\00\00\10\00\00\00" }>, align 8
@alloc_f3588b28b94f0809fcc8d717033d3e48 = private unnamed_addr constant [2 x i8] c"\0A\00", align 1
@alloc_69d1daf5dfd60dd92e8de43345645869 = private unnamed_addr constant <{ ptr, [16 x i8] }> <{ ptr @alloc_f5ffd2fd1476bab43ad89fb40c72d0c5, [16 x i8] c"\0A\00\00\00\00\00\00\00y\00\00\00\05\00\00\00" }>, align 8
@alloc_263cacb11107734af3d9010f066589b3 = private unnamed_addr constant <{ ptr, [16 x i8] }> <{ ptr @alloc_f5ffd2fd1476bab43ad89fb40c72d0c5, [16 x i8] c"\0A\00\00\00\00\00\00\00z\00\00\00\05\00\00\00" }>, align 8
@alloc_e775549eefcb2e98916021b762d6b1ad = private unnamed_addr constant <{ ptr, [16 x i8] }> <{ ptr @alloc_f5ffd2fd1476bab43ad89fb40c72d0c5, [16 x i8] c"\0A\00\00\00\00\00\00\00{\00\00\00\05\00\00\00" }>, align 8
@alloc_a7c2003bdad2783744c13a37d3619fd3 = private unnamed_addr constant <{ ptr, [16 x i8] }> <{ ptr @alloc_f5ffd2fd1476bab43ad89fb40c72d0c5, [16 x i8] c"\0A\00\00\00\00\00\00\00\82\00\00\00\10\00\00\00" }>, align 8
@alloc_b879faa37839be3949895e1f97b91bf9 = private unnamed_addr constant <{ ptr, [16 x i8] }> <{ ptr @alloc_f5ffd2fd1476bab43ad89fb40c72d0c5, [16 x i8] c"\0A\00\00\00\00\00\00\00\84\00\00\00\1E\00\00\00" }>, align 8
@alloc_9f980670502944a6c052496e4c2618fe = private unnamed_addr constant <{ ptr, [16 x i8] }> <{ ptr @alloc_f5ffd2fd1476bab43ad89fb40c72d0c5, [16 x i8] c"\0A\00\00\00\00\00\00\00\88\00\00\00\19\00\00\00" }>, align 8
@alloc_0a2fdfa9f01adf85cdcb8609efb0d3f2 = private unnamed_addr constant <{ ptr, [16 x i8] }> <{ ptr @alloc_f5ffd2fd1476bab43ad89fb40c72d0c5, [16 x i8] c"\0A\00\00\00\00\00\00\00\8B\00\00\00\22\00\00\00" }>, align 8
@alloc_a813b41cecb5552172b3797f463c3a5d = private unnamed_addr constant <{ ptr, [16 x i8] }> <{ ptr @alloc_f5ffd2fd1476bab43ad89fb40c72d0c5, [16 x i8] c"\0A\00\00\00\00\00\00\00\8E\00\00\00\11\00\00\00" }>, align 8
@alloc_010b28f0d5a1448e6cee22726f69d1cb = private unnamed_addr constant <{ ptr, [16 x i8] }> <{ ptr @alloc_f5ffd2fd1476bab43ad89fb40c72d0c5, [16 x i8] c"\0A\00\00\00\00\00\00\00\8F\00\00\00\11\00\00\00" }>, align 8
@alloc_1204878eb9c561c7e84d29fb992d72b9 = private unnamed_addr constant <{ ptr, [16 x i8] }> <{ ptr @alloc_f5ffd2fd1476bab43ad89fb40c72d0c5, [16 x i8] c"\0A\00\00\00\00\00\00\00\90\00\00\00\22\00\00\00" }>, align 8
@alloc_6c2c81a11003f3e2ac544ba98f416f52 = private unnamed_addr constant <{ ptr, [16 x i8] }> <{ ptr @alloc_f5ffd2fd1476bab43ad89fb40c72d0c5, [16 x i8] c"\0A\00\00\00\00\00\00\00\90\00\00\00\11\00\00\00" }>, align 8
@stack = global [800 x i8] zeroinitializer, align 8
@sp = global [4 x i8] c"\FF\FF\FF\FF", align 4
@alloc_5e88a564efe89fa976e17472fd1277a4 = private unnamed_addr constant <{ ptr, [16 x i8] }> <{ ptr @alloc_f5ffd2fd1476bab43ad89fb40c72d0c5, [16 x i8] c"\0A\00\00\00\00\00\00\00\9E\00\00\00\0D\00\00\00" }>, align 8
@alloc_a36f45cee9449e8ced34535698225438 = private unnamed_addr constant <{ ptr, [16 x i8] }> <{ ptr @alloc_f5ffd2fd1476bab43ad89fb40c72d0c5, [16 x i8] c"\0A\00\00\00\00\00\00\00\A2\00\00\00\05\00\00\00" }>, align 8
@alloc_2cd4258154dde989be12c52a68877b6c = private unnamed_addr constant <{ ptr, [16 x i8] }> <{ ptr @alloc_f5ffd2fd1476bab43ad89fb40c72d0c5, [16 x i8] c"\0A\00\00\00\00\00\00\00\A3\00\00\00\0B\00\00\00" }>, align 8
@alloc_3d9151624eab24158117245357fec895 = private unnamed_addr constant <{ ptr, [16 x i8] }> <{ ptr @alloc_f5ffd2fd1476bab43ad89fb40c72d0c5, [16 x i8] c"\0A\00\00\00\00\00\00\00\A3\00\00\00\05\00\00\00" }>, align 8
@alloc_2156437e0163e4f2cbd9303faa512834 = private unnamed_addr constant <{ ptr, [16 x i8] }> <{ ptr @alloc_f5ffd2fd1476bab43ad89fb40c72d0c5, [16 x i8] c"\0A\00\00\00\00\00\00\00\A7\00\00\00\12\00\00\00" }>, align 8
@alloc_2be0cbda3e95d116c639a0ca19012611 = private unnamed_addr constant <{ ptr, [16 x i8] }> <{ ptr @alloc_f5ffd2fd1476bab43ad89fb40c72d0c5, [16 x i8] c"\0A\00\00\00\00\00\00\00\A8\00\00\00\0A\00\00\00" }>, align 8
@alloc_287850658f3050b9910a06eedc5db810 = private unnamed_addr constant <{ ptr, [16 x i8] }> <{ ptr @alloc_f5ffd2fd1476bab43ad89fb40c72d0c5, [16 x i8] c"\0A\00\00\00\00\00\00\00\A8\00\00\00\05\00\00\00" }>, align 8
@alloc_a01c832c750218f971af2ad8766065d1 = private unnamed_addr constant <{ ptr, [16 x i8] }> <{ ptr @alloc_f5ffd2fd1476bab43ad89fb40c72d0c5, [16 x i8] c"\0A\00\00\00\00\00\00\00\A9\00\00\00\0C\00\00\00" }>, align 8
@alloc_b91c8134a1d035f37be503cb7c7a4e3a = private unnamed_addr constant <{ ptr, [16 x i8] }> <{ ptr @alloc_f5ffd2fd1476bab43ad89fb40c72d0c5, [16 x i8] c"\0A\00\00\00\00\00\00\00\AD\00\00\00\12\00\00\00" }>, align 8
@alloc_955faea93410ddf8779305fbd23ac2fb = private unnamed_addr constant <{ ptr, [16 x i8] }> <{ ptr @alloc_f5ffd2fd1476bab43ad89fb40c72d0c5, [16 x i8] c"\0A\00\00\00\00\00\00\00\AD\00\00\00\0C\00\00\00" }>, align 8
@alloc_ab86c8f6a6b652fd93739bb1556d653e = private unnamed_addr constant <{ ptr, [16 x i8] }> <{ ptr @alloc_f5ffd2fd1476bab43ad89fb40c72d0c5, [16 x i8] c"\0A\00\00\00\00\00\00\00\B4\00\00\00\05\00\00\00" }>, align 8
@alloc_c3edc0ffc4aa51f1633091e8f18b4b70 = private unnamed_addr constant <{ ptr, [16 x i8] }> <{ ptr @alloc_f5ffd2fd1476bab43ad89fb40c72d0c5, [16 x i8] c"\0A\00\00\00\00\00\00\00\B5\00\00\00\05\00\00\00" }>, align 8
@alloc_88b2a18a7ed02bde5f9773316ce747b8 = private unnamed_addr constant <{ ptr, [16 x i8] }> <{ ptr @alloc_f5ffd2fd1476bab43ad89fb40c72d0c5, [16 x i8] c"\0A\00\00\00\00\00\00\00\B6\00\00\00\05\00\00\00" }>, align 8
@alloc_4506c653493748d71c60a8a258ac6dee = private unnamed_addr constant <{ ptr, [16 x i8] }> <{ ptr @alloc_f5ffd2fd1476bab43ad89fb40c72d0c5, [16 x i8] c"\0A\00\00\00\00\00\00\00\BE\00\00\00\0C\00\00\00" }>, align 8
@alloc_68e5471e3547dbc76eb9cb13a542ec37 = private unnamed_addr constant <{ ptr, [16 x i8] }> <{ ptr @alloc_f5ffd2fd1476bab43ad89fb40c72d0c5, [16 x i8] c"\0A\00\00\00\00\00\00\00\BF\00\00\00\1E\00\00\00" }>, align 8
@alloc_56a4c059764ef26d768f647bf17df18d = private unnamed_addr constant <{ ptr, [16 x i8] }> <{ ptr @alloc_f5ffd2fd1476bab43ad89fb40c72d0c5, [16 x i8] c"\0A\00\00\00\00\00\00\00\C4\00\00\00\19\00\00\00" }>, align 8
@alloc_eb1941c878459260c5e109f42249a01e = private unnamed_addr constant <{ ptr, [16 x i8] }> <{ ptr @alloc_f5ffd2fd1476bab43ad89fb40c72d0c5, [16 x i8] c"\0A\00\00\00\00\00\00\00\C7\00\00\00\22\00\00\00" }>, align 8
@alloc_8b1dfdf0eef114cd244fb348a340e8a1 = private unnamed_addr constant <{ ptr, [16 x i8] }> <{ ptr @alloc_f5ffd2fd1476bab43ad89fb40c72d0c5, [16 x i8] c"\0A\00\00\00\00\00\00\00\CA\00\00\00\22\00\00\00" }>, align 8
@alloc_11b66a255f461a33f79ea72a6d8e3954 = private unnamed_addr constant <{ ptr, [16 x i8] }> <{ ptr @alloc_f5ffd2fd1476bab43ad89fb40c72d0c5, [16 x i8] c"\0A\00\00\00\00\00\00\00\CA\00\00\00\11\00\00\00" }>, align 8
@alloc_7f0d50aeba8472bde674abf9665e1d0a = private unnamed_addr constant <{ ptr, [16 x i8] }> <{ ptr @alloc_f5ffd2fd1476bab43ad89fb40c72d0c5, [16 x i8] c"\0A\00\00\00\00\00\00\00\CB\00\00\00\22\00\00\00" }>, align 8
@alloc_84443db4431dbf67de69b186027916ac = private unnamed_addr constant <{ ptr, [16 x i8] }> <{ ptr @alloc_f5ffd2fd1476bab43ad89fb40c72d0c5, [16 x i8] c"\0A\00\00\00\00\00\00\00\CB\00\00\00\11\00\00\00" }>, align 8
@alloc_e492306b859161ca4de35248fa43f57d = private unnamed_addr constant <{ ptr, [16 x i8] }> <{ ptr @alloc_f5ffd2fd1476bab43ad89fb40c72d0c5, [16 x i8] c"\0A\00\00\00\00\00\00\00\CC\00\00\00\11\00\00\00" }>, align 8
@alloc_9e0c7a65c9d91e263492b3f68ad7dede = private unnamed_addr constant <{ ptr, [16 x i8] }> <{ ptr @alloc_f5ffd2fd1476bab43ad89fb40c72d0c5, [16 x i8] c"\0A\00\00\00\00\00\00\00\DE\00\00\00\0D\00\00\00" }>, align 8
@alloc_b4bba5770fe625549371e85faf9438aa = private unnamed_addr constant <{ ptr, [16 x i8] }> <{ ptr @alloc_f5ffd2fd1476bab43ad89fb40c72d0c5, [16 x i8] c"\0A\00\00\00\00\00\00\00\E7\00\00\00(\00\00\00" }>, align 8
@alloc_ff5268764775afbbd076cfed22318020 = private unnamed_addr constant <{ ptr, [16 x i8] }> <{ ptr @alloc_f5ffd2fd1476bab43ad89fb40c72d0c5, [16 x i8] c"\0A\00\00\00\00\00\00\00\ED\00\00\00\1C\00\00\00" }>, align 8
@alloc_8c05e69165a4fb99c2f3e4d8ac552cdc = private unnamed_addr constant <{ ptr, [16 x i8] }> <{ ptr @alloc_f5ffd2fd1476bab43ad89fb40c72d0c5, [16 x i8] c"\0A\00\00\00\00\00\00\00\ED\00\00\00\0C\00\00\00" }>, align 8
@alloc_7cf316b13666db2326fe3986bce99a05 = private unnamed_addr constant <{ ptr, [16 x i8] }> <{ ptr @alloc_f5ffd2fd1476bab43ad89fb40c72d0c5, [16 x i8] c"\0A\00\00\00\00\00\00\00\EE\00\00\00-\00\00\00" }>, align 8
@alloc_00d24b8434f2a407fe75e661b2960337 = private unnamed_addr constant <{ ptr, [16 x i8] }> <{ ptr @alloc_f5ffd2fd1476bab43ad89fb40c72d0c5, [16 x i8] c"\0A\00\00\00\00\00\00\00\EE\00\00\00\0D\00\00\00" }>, align 8
@alloc_d6fba25cfa14f7da5616a7678c0f6150 = private unnamed_addr constant <{ ptr, [16 x i8] }> <{ ptr @alloc_f5ffd2fd1476bab43ad89fb40c72d0c5, [16 x i8] c"\0A\00\00\00\00\00\00\00\EF\00\00\00\1D\00\00\00" }>, align 8
@alloc_e957899da8ad96e7cab64506eb033ac9 = private unnamed_addr constant <{ ptr, [16 x i8] }> <{ ptr @alloc_f5ffd2fd1476bab43ad89fb40c72d0c5, [16 x i8] c"\0A\00\00\00\00\00\00\00\EF\00\00\00\0D\00\00\00" }>, align 8
@alloc_b41ad318dff57fe0c9bb25435a348f18 = private unnamed_addr constant <{ ptr, [16 x i8] }> <{ ptr @alloc_f5ffd2fd1476bab43ad89fb40c72d0c5, [16 x i8] c"\0A\00\00\00\00\00\00\00\F1\00\00\00\1D\00\00\00" }>, align 8
@alloc_026e0387c7dcb345b8b3f04b6b228928 = private unnamed_addr constant <{ ptr, [16 x i8] }> <{ ptr @alloc_f5ffd2fd1476bab43ad89fb40c72d0c5, [16 x i8] c"\0A\00\00\00\00\00\00\00\F1\00\00\00\0D\00\00\00" }>, align 8

; core::intrinsics::cold_path
; Function Attrs: cold nounwind nonlazybind
define internal void @_ZN4core10intrinsics9cold_path17h7ea12f06dea3c150E() unnamed_addr #0 {
start:
  ret void
}

; core::ptr::mut_ptr::<impl *mut T>::offset::precondition_check
; Function Attrs: inlinehint nounwind nonlazybind
define internal void @"_ZN4core3ptr7mut_ptr31_$LT$impl$u20$$BP$mut$u20$T$GT$6offset18precondition_check17h38efc80a26217721E"(ptr %this, i64 %count, i64 %size) unnamed_addr #1 {
start:
  %0 = call { i64, i1 } @llvm.smul.with.overflow.i64(i64 %count, i64 %size)
  %_10.0 = extractvalue { i64, i1 } %0, 0
  %_10.1 = extractvalue { i64, i1 } %0, 1
  br i1 %_10.1, label %bb3, label %bb5

bb5:                                              ; preds = %start
  %self = ptrtoint ptr %this to i64
  %1 = call { i64, i1 } @llvm.uadd.with.overflow.i64(i64 %self, i64 %_10.0)
  %_19.0 = extractvalue { i64, i1 } %1, 0
  %_19.1 = extractvalue { i64, i1 } %1, 1
  %_17 = icmp slt i64 %_10.0, 0
  %overflow = xor i1 %_19.1, %_17
  %_4 = xor i1 %overflow, true
  br i1 %_4, label %bb1, label %bb2

bb3:                                              ; preds = %start
  br label %bb2

bb2:                                              ; preds = %bb3, %bb5
; call core::panicking::panic_nounwind
  call void @_ZN4core9panicking14panic_nounwind17h211d9ce8d63f12e7E(ptr align 1 @alloc_0ed0763d8bf93ac79247e07858374e35, i64 210) #7
  unreachable

bb1:                                              ; preds = %bb5
  ret void
}

; core::ptr::mut_ptr::<impl *mut T>::is_null
; Function Attrs: inlinehint nounwind nonlazybind
define internal zeroext i1 @"_ZN4core3ptr7mut_ptr31_$LT$impl$u20$$BP$mut$u20$T$GT$7is_null17hea00f0492251059bE"(ptr %self) unnamed_addr #1 {
start:
  %_3 = ptrtoint ptr %self to i64
  %_0 = icmp eq i64 %_3, 0
  ret i1 %_0
}

; Function Attrs: nounwind nonlazybind
define i32 @qempty() unnamed_addr #2 {
start:
  %_22 = icmp eq i64 ptrtoint (ptr @head to i64), 0
  %_23 = and i1 %_22, true
  %_24 = xor i1 %_23, true
  br i1 %_24, label %bb3, label %panic

bb3:                                              ; preds = %start
  %_2 = load i32, ptr @head, align 4
  %_29 = icmp eq i64 ptrtoint (ptr @rear to i64), 0
  %_30 = and i1 %_29, true
  %_31 = xor i1 %_30, true
  br i1 %_31, label %bb4, label %panic1

panic:                                            ; preds = %start
; call core::panicking::panic_null_pointer_dereference
  call void @_ZN4core9panicking30panic_null_pointer_dereference17hf718fcc86a223baaE(ptr align 8 @alloc_c93152ab6860bf5b4caa5d7e7973bde6) #7
  unreachable

bb4:                                              ; preds = %bb3
  %_4 = load i32, ptr @rear, align 4
  %_1 = icmp eq i32 %_2, %_4
  %_0 = zext i1 %_1 to i32
  ret i32 %_0

panic1:                                           ; preds = %bb3
; call core::panicking::panic_null_pointer_dereference
  call void @_ZN4core9panicking30panic_null_pointer_dereference17hf718fcc86a223baaE(ptr align 8 @alloc_4d69e02876ae34e7be4b74f5dce68bac) #7
  unreachable
}

; Function Attrs: nounwind nonlazybind
define i32 @qfull() unnamed_addr #2 {
start:
  %_29 = icmp eq i64 ptrtoint (ptr @head to i64), 0
  %_30 = and i1 %_29, true
  %_31 = xor i1 %_30, true
  br i1 %_31, label %bb5, label %panic

bb5:                                              ; preds = %start
  %_2 = load i32, ptr @head, align 4
  %_36 = icmp eq i64 ptrtoint (ptr @rear to i64), 0
  %_37 = and i1 %_36, true
  %_38 = xor i1 %_37, true
  br i1 %_38, label %bb6, label %panic1

panic:                                            ; preds = %start
; call core::panicking::panic_null_pointer_dereference
  call void @_ZN4core9panicking30panic_null_pointer_dereference17hf718fcc86a223baaE(ptr align 8 @alloc_3710faf6fec5008be645936189677119) #7
  unreachable

bb6:                                              ; preds = %bb5
  %_6 = load i32, ptr @rear, align 4
  %_5 = add i32 %_6, 1
  %_11 = icmp eq i32 %_5, -2147483648
  %_12 = and i1 false, %_11
  br i1 %_12, label %panic2, label %bb2

panic1:                                           ; preds = %bb5
; call core::panicking::panic_null_pointer_dereference
  call void @_ZN4core9panicking30panic_null_pointer_dereference17hf718fcc86a223baaE(ptr align 8 @alloc_d13f7d9612ca6fc66feb7ef0f19e91cf) #7
  unreachable

bb2:                                              ; preds = %bb6
  %_4 = srem i32 %_5, 1000
  %_1 = icmp eq i32 %_2, %_4
  %_0 = zext i1 %_1 to i32
  ret i32 %_0

panic2:                                           ; preds = %bb6
; call core::panicking::panic_const::panic_const_rem_overflow
  call void @_ZN4core9panicking11panic_const24panic_const_rem_overflow17h799fde26ff2294a6E(ptr align 8 @alloc_30fd15c788fa75486a4dff6eb9d88f67) #7
  unreachable
}

; Function Attrs: nounwind nonlazybind
define void @enqueue(ptr %item) unnamed_addr #2 {
start:
  %_44 = icmp eq i64 ptrtoint (ptr @rear to i64), 0
  %_45 = and i1 %_44, true
  %_46 = xor i1 %_45, true
  br i1 %_46, label %bb8, label %panic

bb8:                                              ; preds = %start
  %_4 = load i32, ptr @rear, align 4
  %_3 = sext i32 %_4 to i64
  %_6 = icmp ult i64 %_3, 1000
  br i1 %_6, label %bb1, label %panic1

panic:                                            ; preds = %start
; call core::panicking::panic_null_pointer_dereference
  call void @_ZN4core9panicking30panic_null_pointer_dereference17hf718fcc86a223baaE(ptr align 8 @alloc_4795a9a0fa8a4027ea67bd5ceb7dd9c0) #7
  unreachable

bb1:                                              ; preds = %bb8
  %_51 = icmp eq i64 ptrtoint (ptr @queue to i64), 0
  %_52 = and i1 %_51, true
  %_53 = xor i1 %_52, true
  br i1 %_53, label %bb9, label %panic2

panic1:                                           ; preds = %bb8
; call core::panicking::panic_bounds_check
  call void @_ZN4core9panicking18panic_bounds_check17h27d1e4f0cb1112dfE(i64 %_3, i64 1000, ptr align 8 @alloc_782debb62b090b525a0675df684f112c) #7
  unreachable

bb9:                                              ; preds = %bb1
  %0 = getelementptr inbounds nuw ptr, ptr @queue, i64 %_3
  store ptr %item, ptr %0, align 8
  %_58 = icmp eq i64 ptrtoint (ptr @rear to i64), 0
  %_59 = and i1 %_58, true
  %_60 = xor i1 %_59, true
  br i1 %_60, label %bb10, label %panic3

panic2:                                           ; preds = %bb1
; call core::panicking::panic_null_pointer_dereference
  call void @_ZN4core9panicking30panic_null_pointer_dereference17hf718fcc86a223baaE(ptr align 8 @alloc_782debb62b090b525a0675df684f112c) #7
  unreachable

bb10:                                             ; preds = %bb9
  %_8 = load i32, ptr @rear, align 4
  %_7 = add i32 %_8, 1
  %_13 = icmp eq i32 %_7, -2147483648
  %_14 = and i1 false, %_13
  br i1 %_14, label %panic4, label %bb3

panic3:                                           ; preds = %bb9
; call core::panicking::panic_null_pointer_dereference
  call void @_ZN4core9panicking30panic_null_pointer_dereference17hf718fcc86a223baaE(ptr align 8 @alloc_3756f2a6fdac19865b2b1f9f39cd660b) #7
  unreachable

bb3:                                              ; preds = %bb10
  %_65 = icmp eq i64 ptrtoint (ptr @rear to i64), 0
  %_66 = and i1 %_65, true
  %_67 = xor i1 %_66, true
  br i1 %_67, label %bb11, label %panic5

panic4:                                           ; preds = %bb10
; call core::panicking::panic_const::panic_const_rem_overflow
  call void @_ZN4core9panicking11panic_const24panic_const_rem_overflow17h799fde26ff2294a6E(ptr align 8 @alloc_74e807215f461f377144e15cf8689382) #7
  unreachable

bb11:                                             ; preds = %bb3
  %1 = srem i32 %_7, 1000
  store i32 %1, ptr @rear, align 4
  ret void

panic5:                                           ; preds = %bb3
; call core::panicking::panic_null_pointer_dereference
  call void @_ZN4core9panicking30panic_null_pointer_dereference17hf718fcc86a223baaE(ptr align 8 @alloc_7830c888f7e3366782590f9eab6adbed) #7
  unreachable
}

; Function Attrs: nounwind nonlazybind
define ptr @dequeue() unnamed_addr #2 {
start:
  %_43 = icmp eq i64 ptrtoint (ptr @head to i64), 0
  %_44 = and i1 %_43, true
  %_45 = xor i1 %_44, true
  br i1 %_45, label %bb8, label %panic

bb8:                                              ; preds = %start
  %_3 = load i32, ptr @head, align 4
  %_2 = sext i32 %_3 to i64
  %_5 = icmp ult i64 %_2, 1000
  br i1 %_5, label %bb1, label %panic1

panic:                                            ; preds = %start
; call core::panicking::panic_null_pointer_dereference
  call void @_ZN4core9panicking30panic_null_pointer_dereference17hf718fcc86a223baaE(ptr align 8 @alloc_125f2bb44bc2be3af78d0750d46e6123) #7
  unreachable

bb1:                                              ; preds = %bb8
  %_50 = icmp eq i64 ptrtoint (ptr @queue to i64), 0
  %_51 = and i1 %_50, true
  %_52 = xor i1 %_51, true
  br i1 %_52, label %bb9, label %panic2

panic1:                                           ; preds = %bb8
; call core::panicking::panic_bounds_check
  call void @_ZN4core9panicking18panic_bounds_check17h27d1e4f0cb1112dfE(i64 %_2, i64 1000, ptr align 8 @alloc_0beb4ec10e24df0e49bf3f72913caac2) #7
  unreachable

bb9:                                              ; preds = %bb1
  %0 = getelementptr inbounds nuw ptr, ptr @queue, i64 %_2
  %retval = load ptr, ptr %0, align 8
  %_57 = icmp eq i64 ptrtoint (ptr @head to i64), 0
  %_58 = and i1 %_57, true
  %_59 = xor i1 %_58, true
  br i1 %_59, label %bb10, label %panic3

panic2:                                           ; preds = %bb1
; call core::panicking::panic_null_pointer_dereference
  call void @_ZN4core9panicking30panic_null_pointer_dereference17hf718fcc86a223baaE(ptr align 8 @alloc_0beb4ec10e24df0e49bf3f72913caac2) #7
  unreachable

bb10:                                             ; preds = %bb9
  %_7 = load i32, ptr @head, align 4
  %_6 = add i32 %_7, 1
  %_12 = icmp eq i32 %_6, -2147483648
  %_13 = and i1 false, %_12
  br i1 %_13, label %panic4, label %bb3

panic3:                                           ; preds = %bb9
; call core::panicking::panic_null_pointer_dereference
  call void @_ZN4core9panicking30panic_null_pointer_dereference17hf718fcc86a223baaE(ptr align 8 @alloc_4ed608c88c36042330bf2865ae2a713e) #7
  unreachable

bb3:                                              ; preds = %bb10
  %_64 = icmp eq i64 ptrtoint (ptr @head to i64), 0
  %_65 = and i1 %_64, true
  %_66 = xor i1 %_65, true
  br i1 %_66, label %bb11, label %panic5

panic4:                                           ; preds = %bb10
; call core::panicking::panic_const::panic_const_rem_overflow
  call void @_ZN4core9panicking11panic_const24panic_const_rem_overflow17h799fde26ff2294a6E(ptr align 8 @alloc_050b3ad3fc964a51754ffea687f8aba3) #7
  unreachable

bb11:                                             ; preds = %bb3
  %1 = srem i32 %_6, 1000
  store i32 %1, ptr @head, align 4
  ret ptr %retval

panic5:                                           ; preds = %bb3
; call core::panicking::panic_null_pointer_dereference
  call void @_ZN4core9panicking30panic_null_pointer_dereference17hf718fcc86a223baaE(ptr align 8 @alloc_ebd611d92c9b0e57c9cd95064c24685f) #7
  unreachable
}

; Function Attrs: nounwind nonlazybind
define i32 @isneibor(ptr %map, i32 %node1, i32 %node2) unnamed_addr #2 {
start:
  %_5 = sext i32 %node1 to i64
; call core::ptr::mut_ptr::<impl *mut T>::offset::precondition_check
  call void @"_ZN4core3ptr7mut_ptr31_$LT$impl$u20$$BP$mut$u20$T$GT$6offset18precondition_check17h38efc80a26217721E"(ptr %map, i64 %_5, i64 28) #8
  %_0.i = getelementptr inbounds [7 x i32], ptr %map, i64 %_5
  %_6 = sext i32 %node2 to i64
  %_7 = icmp ult i64 %_6, 7
  br i1 %_7, label %bb2, label %panic

bb2:                                              ; preds = %start
  %_9 = ptrtoint ptr %_0.i to i64
  %_12 = and i64 %_9, 3
  %_13 = icmp eq i64 %_12, 0
  br i1 %_13, label %bb3, label %panic1

panic:                                            ; preds = %start
; call core::panicking::panic_bounds_check
  call void @_ZN4core9panicking18panic_bounds_check17h27d1e4f0cb1112dfE(i64 %_6, i64 7, ptr align 8 @alloc_0bbd10dca8b30a537db690bd287f84de) #7
  unreachable

bb3:                                              ; preds = %bb2
  %_15 = ptrtoint ptr %_0.i to i64
  %_18 = icmp eq i64 %_15, 0
  %_19 = and i1 %_18, true
  %_20 = xor i1 %_19, true
  br i1 %_20, label %bb4, label %panic2

panic1:                                           ; preds = %bb2
; call core::panicking::panic_misaligned_pointer_dereference
  call void @_ZN4core9panicking36panic_misaligned_pointer_dereference17hcc3cbded9382b6e5E(i64 4, i64 %_9, ptr align 8 @alloc_0bbd10dca8b30a537db690bd287f84de) #7
  unreachable

bb4:                                              ; preds = %bb3
  %0 = getelementptr inbounds nuw i32, ptr %_0.i, i64 %_6
  %_0 = load i32, ptr %0, align 4
  ret i32 %_0

panic2:                                           ; preds = %bb3
; call core::panicking::panic_null_pointer_dereference
  call void @_ZN4core9panicking30panic_null_pointer_dereference17hf718fcc86a223baaE(ptr align 8 @alloc_0bbd10dca8b30a537db690bd287f84de) #7
  unreachable
}

; Function Attrs: nounwind nonlazybind
define void @getneibors(ptr %map, i32 %node, ptr %neibors, ptr %size) unnamed_addr #2 {
start:
  %i = alloca [4 x i8], align 4
  %counter = alloca [4 x i8], align 4
  store i32 0, ptr %counter, align 4
  store i32 0, ptr %i, align 4
  store i32 0, ptr %i, align 4
  br label %bb1

bb1:                                              ; preds = %bb7, %start
  %_8 = load i32, ptr %i, align 4
  %_7 = icmp slt i32 %_8, 7
  br i1 %_7, label %bb2, label %bb8

bb8:                                              ; preds = %bb1
  %_20 = load i32, ptr %counter, align 4
  %_22 = ptrtoint ptr %size to i64
  %_25 = and i64 %_22, 3
  %_26 = icmp eq i64 %_25, 0
  br i1 %_26, label %bb9, label %panic

bb2:                                              ; preds = %bb1
  %_11 = sext i32 %node to i64
; call core::ptr::mut_ptr::<impl *mut T>::offset::precondition_check
  call void @"_ZN4core3ptr7mut_ptr31_$LT$impl$u20$$BP$mut$u20$T$GT$6offset18precondition_check17h38efc80a26217721E"(ptr %map, i64 %_11, i64 28) #8
  %_0.i = getelementptr inbounds [7 x i32], ptr %map, i64 %_11
  %_13 = load i32, ptr %i, align 4
  %_12 = sext i32 %_13 to i64
  %_14 = icmp ult i64 %_12, 7
  br i1 %_14, label %bb4, label %panic2

bb9:                                              ; preds = %bb8
  %_54 = ptrtoint ptr %size to i64
  %_57 = icmp eq i64 %_54, 0
  %_58 = and i1 %_57, true
  %_59 = xor i1 %_58, true
  br i1 %_59, label %bb14, label %panic1

panic:                                            ; preds = %bb8
; call core::panicking::panic_misaligned_pointer_dereference
  call void @_ZN4core9panicking36panic_misaligned_pointer_dereference17hcc3cbded9382b6e5E(i64 4, i64 %_22, ptr align 8 @alloc_21bab6856a00df07d869582a6654a89d) #7
  unreachable

bb14:                                             ; preds = %bb9
  store i32 %_20, ptr %size, align 4
  ret void

panic1:                                           ; preds = %bb9
; call core::panicking::panic_null_pointer_dereference
  call void @_ZN4core9panicking30panic_null_pointer_dereference17hf718fcc86a223baaE(ptr align 8 @alloc_21bab6856a00df07d869582a6654a89d) #7
  unreachable

bb4:                                              ; preds = %bb2
  %_34 = ptrtoint ptr %_0.i to i64
  %_37 = and i64 %_34, 3
  %_38 = icmp eq i64 %_37, 0
  br i1 %_38, label %bb11, label %panic3

panic2:                                           ; preds = %bb2
; call core::panicking::panic_bounds_check
  call void @_ZN4core9panicking18panic_bounds_check17h27d1e4f0cb1112dfE(i64 %_12, i64 7, ptr align 8 @alloc_2992717b1fbbb5fccf004109e2b6b4b3) #7
  unreachable

bb11:                                             ; preds = %bb4
  %_40 = ptrtoint ptr %_0.i to i64
  %_43 = icmp eq i64 %_40, 0
  %_44 = and i1 %_43, true
  %_45 = xor i1 %_44, true
  br i1 %_45, label %bb12, label %panic4

panic3:                                           ; preds = %bb4
; call core::panicking::panic_misaligned_pointer_dereference
  call void @_ZN4core9panicking36panic_misaligned_pointer_dereference17hcc3cbded9382b6e5E(i64 4, i64 %_34, ptr align 8 @alloc_2992717b1fbbb5fccf004109e2b6b4b3) #7
  unreachable

bb12:                                             ; preds = %bb11
  %0 = getelementptr inbounds nuw i32, ptr %_0.i, i64 %_12
  %_9 = load i32, ptr %0, align 4
  %1 = icmp eq i32 %_9, 0
  br i1 %1, label %bb7, label %bb5

panic4:                                           ; preds = %bb11
; call core::panicking::panic_null_pointer_dereference
  call void @_ZN4core9panicking30panic_null_pointer_dereference17hf718fcc86a223baaE(ptr align 8 @alloc_2992717b1fbbb5fccf004109e2b6b4b3) #7
  unreachable

bb7:                                              ; preds = %bb13, %bb12
  %2 = load i32, ptr %i, align 4
  %3 = add i32 %2, 1
  store i32 %3, ptr %i, align 4
  br label %bb1

bb5:                                              ; preds = %bb12
  %fresh0 = load i32, ptr %counter, align 4
  %_16 = load i32, ptr %counter, align 4
  %4 = add i32 %_16, 1
  store i32 %4, ptr %counter, align 4
  %_17 = load i32, ptr %i, align 4
  %_19 = sext i32 %fresh0 to i64
; call core::ptr::mut_ptr::<impl *mut T>::offset::precondition_check
  call void @"_ZN4core3ptr7mut_ptr31_$LT$impl$u20$$BP$mut$u20$T$GT$6offset18precondition_check17h38efc80a26217721E"(ptr %neibors, i64 %_19, i64 4) #8
  %_0.i7 = getelementptr inbounds i32, ptr %neibors, i64 %_19
  %_28 = ptrtoint ptr %_0.i7 to i64
  %_31 = and i64 %_28, 3
  %_32 = icmp eq i64 %_31, 0
  br i1 %_32, label %bb10, label %panic5

bb10:                                             ; preds = %bb5
  %_47 = ptrtoint ptr %_0.i7 to i64
  %_50 = icmp eq i64 %_47, 0
  %_51 = and i1 %_50, true
  %_52 = xor i1 %_51, true
  br i1 %_52, label %bb13, label %panic6

panic5:                                           ; preds = %bb5
; call core::panicking::panic_misaligned_pointer_dereference
  call void @_ZN4core9panicking36panic_misaligned_pointer_dereference17hcc3cbded9382b6e5E(i64 4, i64 %_28, ptr align 8 @alloc_71e7359a3ae780b55c54cebd6967966d) #7
  unreachable

bb13:                                             ; preds = %bb10
  store i32 %_17, ptr %_0.i7, align 4
  br label %bb7

panic6:                                           ; preds = %bb10
; call core::panicking::panic_null_pointer_dereference
  call void @_ZN4core9panicking30panic_null_pointer_dereference17hf718fcc86a223baaE(ptr align 8 @alloc_71e7359a3ae780b55c54cebd6967966d) #7
  unreachable
}

; Function Attrs: nounwind nonlazybind
define void @displayoutcome(ptr %answer) unnamed_addr #2 {
start:
  %i = alloca [4 x i8], align 4
  store i32 0, ptr %i, align 4
  store i32 0, ptr %i, align 4
  br label %bb1

bb1:                                              ; preds = %bb8, %start
  %_4 = load i32, ptr %i, align 4
  %_3 = icmp slt i32 %_4, 7
  br i1 %_3, label %bb2, label %bb5

bb5:                                              ; preds = %bb1
  %_14 = call i32 (ptr, ...) @printf(ptr @alloc_87551382a9de3243abbfdbda2f0b586b, i32 0) #8
  ret void

bb2:                                              ; preds = %bb1
  %_13 = load i32, ptr %i, align 4
  %_12 = sext i32 %_13 to i64
; call core::ptr::mut_ptr::<impl *mut T>::offset::precondition_check
  call void @"_ZN4core3ptr7mut_ptr31_$LT$impl$u20$$BP$mut$u20$T$GT$6offset18precondition_check17h38efc80a26217721E"(ptr %answer, i64 %_12, i64 4) #8
  %_0.i = getelementptr inbounds i32, ptr %answer, i64 %_12
  %_20 = ptrtoint ptr %_0.i to i64
  %_23 = and i64 %_20, 3
  %_24 = icmp eq i64 %_23, 0
  br i1 %_24, label %bb7, label %panic

bb7:                                              ; preds = %bb2
  %_26 = ptrtoint ptr %_0.i to i64
  %_29 = icmp eq i64 %_26, 0
  %_30 = and i1 %_29, true
  %_31 = xor i1 %_30, true
  br i1 %_31, label %bb8, label %panic1

panic:                                            ; preds = %bb2
; call core::panicking::panic_misaligned_pointer_dereference
  call void @_ZN4core9panicking36panic_misaligned_pointer_dereference17hcc3cbded9382b6e5E(i64 4, i64 %_20, ptr align 8 @alloc_a312c61843e118644ec846773d1a1166) #7
  unreachable

bb8:                                              ; preds = %bb7
  %_10 = load i32, ptr %_0.i, align 4
  %_5 = call i32 (ptr, ...) @printf(ptr @alloc_b929c71616281bfd1be2bd4038d3ddf1, i32 %_10) #8
  %0 = load i32, ptr %i, align 4
  %1 = add i32 %0, 1
  store i32 %1, ptr %i, align 4
  br label %bb1

panic1:                                           ; preds = %bb7
; call core::panicking::panic_null_pointer_dereference
  call void @_ZN4core9panicking30panic_null_pointer_dereference17hf718fcc86a223baaE(ptr align 8 @alloc_a312c61843e118644ec846773d1a1166) #7
  unreachable
}

; Function Attrs: nounwind nonlazybind
define i32 @inme(ptr %0, i32 %who) unnamed_addr #2 {
start:
  %ok = alloca [4 x i8], align 4
  %node = alloca [8 x i8], align 8
  store ptr %0, ptr %node, align 8
  store i32 0, ptr %ok, align 4
  br label %bb1

bb1:                                              ; preds = %bb11, %start
  %_5 = load ptr, ptr %node, align 8
; call core::ptr::mut_ptr::<impl *mut T>::is_null
  %_4 = call zeroext i1 @"_ZN4core3ptr7mut_ptr31_$LT$impl$u20$$BP$mut$u20$T$GT$7is_null17hea00f0492251059bE"(ptr %_5) #8
  br i1 %_4, label %bb7, label %bb3

bb3:                                              ; preds = %bb1
  %_6 = load i32, ptr %ok, align 4
  %1 = icmp eq i32 %_6, 0
  br i1 %1, label %bb4, label %bb7

bb7:                                              ; preds = %bb3, %bb1
  %_0 = load i32, ptr %ok, align 4
  ret i32 %_0

bb4:                                              ; preds = %bb3
  %_16 = load ptr, ptr %node, align 8
  %_17 = ptrtoint ptr %_16 to i64
  %_20 = and i64 %_17, 7
  %_21 = icmp eq i64 %_20, 0
  br i1 %_21, label %bb9, label %panic

bb9:                                              ; preds = %bb4
  %_22 = load ptr, ptr %node, align 8
  %_23 = ptrtoint ptr %_22 to i64
  %_26 = icmp eq i64 %_23, 0
  %_27 = and i1 %_26, true
  %_28 = xor i1 %_27, true
  br i1 %_28, label %bb10, label %panic1

panic:                                            ; preds = %bb4
; call core::panicking::panic_misaligned_pointer_dereference
  call void @_ZN4core9panicking36panic_misaligned_pointer_dereference17hcc3cbded9382b6e5E(i64 8, i64 %_17, ptr align 8 @alloc_36682ef10136f47a787d8b36c8950e08) #7
  unreachable

bb10:                                             ; preds = %bb9
  %2 = load ptr, ptr %node, align 8
  %_8 = load i32, ptr %2, align 8
  %_7 = icmp eq i32 %_8, %who
  br i1 %_7, label %bb5, label %bb6

panic1:                                           ; preds = %bb9
; call core::panicking::panic_null_pointer_dereference
  call void @_ZN4core9panicking30panic_null_pointer_dereference17hf718fcc86a223baaE(ptr align 8 @alloc_36682ef10136f47a787d8b36c8950e08) #7
  unreachable

bb6:                                              ; preds = %bb5, %bb10
  %_10 = load ptr, ptr %node, align 8
  %_11 = ptrtoint ptr %_10 to i64
  %_14 = and i64 %_11, 7
  %_15 = icmp eq i64 %_14, 0
  br i1 %_15, label %bb8, label %panic2

bb5:                                              ; preds = %bb10
  store i32 1, ptr %ok, align 4
  br label %bb6

bb8:                                              ; preds = %bb6
  %_29 = load ptr, ptr %node, align 8
  %_30 = ptrtoint ptr %_29 to i64
  %_33 = icmp eq i64 %_30, 0
  %_34 = and i1 %_33, true
  %_35 = xor i1 %_34, true
  br i1 %_35, label %bb11, label %panic3

panic2:                                           ; preds = %bb6
; call core::panicking::panic_misaligned_pointer_dereference
  call void @_ZN4core9panicking36panic_misaligned_pointer_dereference17hcc3cbded9382b6e5E(i64 8, i64 %_11, ptr align 8 @alloc_a2b7cb01d5893134e8699ea8444f144c) #7
  unreachable

bb11:                                             ; preds = %bb8
  %3 = load ptr, ptr %node, align 8
  %4 = getelementptr inbounds i8, ptr %3, i64 8
  %_9 = load ptr, ptr %4, align 8
  store ptr %_9, ptr %node, align 8
  br label %bb1

panic3:                                           ; preds = %bb8
; call core::panicking::panic_null_pointer_dereference
  call void @_ZN4core9panicking30panic_null_pointer_dereference17hf718fcc86a223baaE(ptr align 8 @alloc_a2b7cb01d5893134e8699ea8444f144c) #7
  unreachable
}

; Function Attrs: nounwind nonlazybind
define void @displayout_come(ptr %0) unnamed_addr #2 {
start:
  %node = alloca [8 x i8], align 8
  store ptr %0, ptr %node, align 8
  %_2 = call i32 (ptr, ...) @printf(ptr @alloc_b929c71616281bfd1be2bd4038d3ddf1, i32 0) #8
  br label %bb1

bb1:                                              ; preds = %bb10, %start
  %_8 = load ptr, ptr %node, align 8
; call core::ptr::mut_ptr::<impl *mut T>::is_null
  %_7 = call zeroext i1 @"_ZN4core3ptr7mut_ptr31_$LT$impl$u20$$BP$mut$u20$T$GT$7is_null17hea00f0492251059bE"(ptr %_8) #8
  br i1 %_7, label %bb3, label %bb4

bb4:                                              ; preds = %bb1
  %_27 = load ptr, ptr %node, align 8
  %_28 = ptrtoint ptr %_27 to i64
  %_31 = and i64 %_28, 7
  %_32 = icmp eq i64 %_31, 0
  br i1 %_32, label %bb8, label %panic

bb3:                                              ; preds = %bb1
  %_16 = call i32 (ptr, ...) @printf(ptr @alloc_f3588b28b94f0809fcc8d717033d3e48) #8
  ret void

bb8:                                              ; preds = %bb4
  %_33 = load ptr, ptr %node, align 8
  %_34 = ptrtoint ptr %_33 to i64
  %_37 = icmp eq i64 %_34, 0
  %_38 = and i1 %_37, true
  %_39 = xor i1 %_38, true
  br i1 %_39, label %bb9, label %panic1

panic:                                            ; preds = %bb4
; call core::panicking::panic_misaligned_pointer_dereference
  call void @_ZN4core9panicking36panic_misaligned_pointer_dereference17hcc3cbded9382b6e5E(i64 8, i64 %_28, ptr align 8 @alloc_84788a38473877ed4cf9072af52750d5) #7
  unreachable

bb9:                                              ; preds = %bb8
  %1 = load ptr, ptr %node, align 8
  %_14 = load i32, ptr %1, align 8
  %_9 = call i32 (ptr, ...) @printf(ptr @alloc_b929c71616281bfd1be2bd4038d3ddf1, i32 %_14) #8
  %_21 = load ptr, ptr %node, align 8
  %_22 = ptrtoint ptr %_21 to i64
  %_25 = and i64 %_22, 7
  %_26 = icmp eq i64 %_25, 0
  br i1 %_26, label %bb7, label %panic2

panic1:                                           ; preds = %bb8
; call core::panicking::panic_null_pointer_dereference
  call void @_ZN4core9panicking30panic_null_pointer_dereference17hf718fcc86a223baaE(ptr align 8 @alloc_84788a38473877ed4cf9072af52750d5) #7
  unreachable

bb7:                                              ; preds = %bb9
  %_40 = load ptr, ptr %node, align 8
  %_41 = ptrtoint ptr %_40 to i64
  %_44 = icmp eq i64 %_41, 0
  %_45 = and i1 %_44, true
  %_46 = xor i1 %_45, true
  br i1 %_46, label %bb10, label %panic3

panic2:                                           ; preds = %bb9
; call core::panicking::panic_misaligned_pointer_dereference
  call void @_ZN4core9panicking36panic_misaligned_pointer_dereference17hcc3cbded9382b6e5E(i64 8, i64 %_22, ptr align 8 @alloc_921ab8fb4183db0b691c947907ce7f02) #7
  unreachable

bb10:                                             ; preds = %bb7
  %2 = load ptr, ptr %node, align 8
  %3 = getelementptr inbounds i8, ptr %2, i64 8
  %_15 = load ptr, ptr %3, align 8
  store ptr %_15, ptr %node, align 8
  br label %bb1

panic3:                                           ; preds = %bb7
; call core::panicking::panic_null_pointer_dereference
  call void @_ZN4core9panicking30panic_null_pointer_dereference17hf718fcc86a223baaE(ptr align 8 @alloc_921ab8fb4183db0b691c947907ce7f02) #7
  unreachable
}

; Function Attrs: nounwind nonlazybind
define void @bfs_search(ptr %map) unnamed_addr #2 {
start:
  %node = alloca [8 x i8], align 8
  %neiborsize = alloca [4 x i8], align 4
  %neibors = alloca [28 x i8], align 4
  %currentnode = alloca [8 x i8], align 8
  %step = alloca [4 x i8], align 4
  %i = alloca [4 x i8], align 4
  store i32 0, ptr %i, align 4
  store i32 0, ptr %step, align 4
  %_5 = call ptr @malloc(i64 16) #8
  store ptr %_5, ptr %currentnode, align 8
  %_98 = load ptr, ptr %currentnode, align 8
  %_99 = ptrtoint ptr %_98 to i64
  %_102 = and i64 %_99, 7
  %_103 = icmp eq i64 %_102, 0
  br i1 %_103, label %bb32, label %panic

bb32:                                             ; preds = %start
  %_104 = load ptr, ptr %currentnode, align 8
  %_105 = ptrtoint ptr %_104 to i64
  %_108 = icmp eq i64 %_105, 0
  %_109 = and i1 %_108, true
  %_110 = xor i1 %_109, true
  br i1 %_110, label %bb33, label %panic1

panic:                                            ; preds = %start
; call core::panicking::panic_misaligned_pointer_dereference
  call void @_ZN4core9panicking36panic_misaligned_pointer_dereference17hcc3cbded9382b6e5E(i64 8, i64 %_99, ptr align 8 @alloc_69d1daf5dfd60dd92e8de43345645869) #7
  unreachable

bb33:                                             ; preds = %bb32
  %0 = load ptr, ptr %currentnode, align 8
  store i32 0, ptr %0, align 8
  %_92 = load ptr, ptr %currentnode, align 8
  %_93 = ptrtoint ptr %_92 to i64
  %_96 = and i64 %_93, 7
  %_97 = icmp eq i64 %_96, 0
  br i1 %_97, label %bb31, label %panic2

panic1:                                           ; preds = %bb32
; call core::panicking::panic_null_pointer_dereference
  call void @_ZN4core9panicking30panic_null_pointer_dereference17hf718fcc86a223baaE(ptr align 8 @alloc_69d1daf5dfd60dd92e8de43345645869) #7
  unreachable

bb31:                                             ; preds = %bb33
  %_111 = load ptr, ptr %currentnode, align 8
  %_112 = ptrtoint ptr %_111 to i64
  %_115 = icmp eq i64 %_112, 0
  %_116 = and i1 %_115, true
  %_117 = xor i1 %_116, true
  br i1 %_117, label %bb34, label %panic3

panic2:                                           ; preds = %bb33
; call core::panicking::panic_misaligned_pointer_dereference
  call void @_ZN4core9panicking36panic_misaligned_pointer_dereference17hcc3cbded9382b6e5E(i64 8, i64 %_93, ptr align 8 @alloc_263cacb11107734af3d9010f066589b3) #7
  unreachable

bb34:                                             ; preds = %bb31
  %1 = load ptr, ptr %currentnode, align 8
  %2 = getelementptr inbounds i8, ptr %1, i64 8
  store ptr null, ptr %2, align 8
  %_86 = load ptr, ptr %currentnode, align 8
  %_87 = ptrtoint ptr %_86 to i64
  %_90 = and i64 %_87, 7
  %_91 = icmp eq i64 %_90, 0
  br i1 %_91, label %bb30, label %panic4

panic3:                                           ; preds = %bb31
; call core::panicking::panic_null_pointer_dereference
  call void @_ZN4core9panicking30panic_null_pointer_dereference17hf718fcc86a223baaE(ptr align 8 @alloc_263cacb11107734af3d9010f066589b3) #7
  unreachable

bb30:                                             ; preds = %bb34
  %_118 = load ptr, ptr %currentnode, align 8
  %_119 = ptrtoint ptr %_118 to i64
  %_122 = icmp eq i64 %_119, 0
  %_123 = and i1 %_122, true
  %_124 = xor i1 %_123, true
  br i1 %_124, label %bb35, label %panic5

panic4:                                           ; preds = %bb34
; call core::panicking::panic_misaligned_pointer_dereference
  call void @_ZN4core9panicking36panic_misaligned_pointer_dereference17hcc3cbded9382b6e5E(i64 8, i64 %_87, ptr align 8 @alloc_e775549eefcb2e98916021b762d6b1ad) #7
  unreachable

bb35:                                             ; preds = %bb30
  %3 = load ptr, ptr %currentnode, align 8
  %4 = getelementptr inbounds i8, ptr %3, i64 4
  store i32 0, ptr %4, align 4
  %_9 = load ptr, ptr %currentnode, align 8
  call void @enqueue(ptr %_9) #8
  call void @llvm.memset.p0.i64(ptr align 4 %neibors, i8 0, i64 28, i1 false)
  store i32 0, ptr %neiborsize, align 4
  store ptr null, ptr %node, align 8
  br label %bb4

panic5:                                           ; preds = %bb30
; call core::panicking::panic_null_pointer_dereference
  call void @_ZN4core9panicking30panic_null_pointer_dereference17hf718fcc86a223baaE(ptr align 8 @alloc_e775549eefcb2e98916021b762d6b1ad) #7
  unreachable

bb4:                                              ; preds = %bb14, %bb35
  %_13 = call i32 @qempty() #8
  %5 = icmp eq i32 %_13, 0
  br i1 %5, label %bb6, label %bb23

bb6:                                              ; preds = %bb4
  %_14 = call ptr @dequeue() #8
  store ptr %_14, ptr %currentnode, align 8
  %_80 = load ptr, ptr %currentnode, align 8
  %_81 = ptrtoint ptr %_80 to i64
  %_84 = and i64 %_81, 7
  %_85 = icmp eq i64 %_84, 0
  br i1 %_85, label %bb29, label %panic6

bb23:                                             ; preds = %bb4
  ret void

bb29:                                             ; preds = %bb6
  %_125 = load ptr, ptr %currentnode, align 8
  %_126 = ptrtoint ptr %_125 to i64
  %_129 = icmp eq i64 %_126, 0
  %_130 = and i1 %_129, true
  %_131 = xor i1 %_130, true
  br i1 %_131, label %bb36, label %panic7

panic6:                                           ; preds = %bb6
; call core::panicking::panic_misaligned_pointer_dereference
  call void @_ZN4core9panicking36panic_misaligned_pointer_dereference17hcc3cbded9382b6e5E(i64 8, i64 %_81, ptr align 8 @alloc_a7c2003bdad2783744c13a37d3619fd3) #7
  unreachable

bb36:                                             ; preds = %bb29
  %6 = load ptr, ptr %currentnode, align 8
  %7 = getelementptr inbounds i8, ptr %6, i64 4
  %_15 = load i32, ptr %7, align 4
  store i32 %_15, ptr %step, align 4
  %_17 = load i32, ptr %step, align 4
  %_16 = icmp eq i32 %_17, 6
  br i1 %_16, label %bb8, label %bb11

panic7:                                           ; preds = %bb29
; call core::panicking::panic_null_pointer_dereference
  call void @_ZN4core9panicking30panic_null_pointer_dereference17hf718fcc86a223baaE(ptr align 8 @alloc_a7c2003bdad2783744c13a37d3619fd3) #7
  unreachable

bb11:                                             ; preds = %bb10, %bb37, %bb36
  %_68 = load ptr, ptr %currentnode, align 8
  %_69 = ptrtoint ptr %_68 to i64
  %_72 = and i64 %_69, 7
  %_73 = icmp eq i64 %_72, 0
  br i1 %_73, label %bb27, label %panic10

bb8:                                              ; preds = %bb36
  %_74 = load ptr, ptr %currentnode, align 8
  %_75 = ptrtoint ptr %_74 to i64
  %_78 = and i64 %_75, 7
  %_79 = icmp eq i64 %_78, 0
  br i1 %_79, label %bb28, label %panic8

bb28:                                             ; preds = %bb8
  %_132 = load ptr, ptr %currentnode, align 8
  %_133 = ptrtoint ptr %_132 to i64
  %_136 = icmp eq i64 %_133, 0
  %_137 = and i1 %_136, true
  %_138 = xor i1 %_137, true
  br i1 %_138, label %bb37, label %panic9

panic8:                                           ; preds = %bb8
; call core::panicking::panic_misaligned_pointer_dereference
  call void @_ZN4core9panicking36panic_misaligned_pointer_dereference17hcc3cbded9382b6e5E(i64 8, i64 %_75, ptr align 8 @alloc_b879faa37839be3949895e1f97b91bf9) #7
  unreachable

bb37:                                             ; preds = %bb28
  %8 = load ptr, ptr %currentnode, align 8
  %_20 = load i32, ptr %8, align 8
  %_19 = call i32 @isneibor(ptr %map, i32 %_20, i32 0) #8
  %9 = icmp eq i32 %_19, 0
  br i1 %9, label %bb11, label %bb10

panic9:                                           ; preds = %bb28
; call core::panicking::panic_null_pointer_dereference
  call void @_ZN4core9panicking30panic_null_pointer_dereference17hf718fcc86a223baaE(ptr align 8 @alloc_b879faa37839be3949895e1f97b91bf9) #7
  unreachable

bb10:                                             ; preds = %bb37
  %_22 = load ptr, ptr %currentnode, align 8
  call void @displayout_come(ptr %_22) #8
  br label %bb11

bb27:                                             ; preds = %bb11
  %_139 = load ptr, ptr %currentnode, align 8
  %_140 = ptrtoint ptr %_139 to i64
  %_143 = icmp eq i64 %_140, 0
  %_144 = and i1 %_143, true
  %_145 = xor i1 %_144, true
  br i1 %_145, label %bb38, label %panic11

panic10:                                          ; preds = %bb11
; call core::panicking::panic_misaligned_pointer_dereference
  call void @_ZN4core9panicking36panic_misaligned_pointer_dereference17hcc3cbded9382b6e5E(i64 8, i64 %_69, ptr align 8 @alloc_9f980670502944a6c052496e4c2618fe) #7
  unreachable

bb38:                                             ; preds = %bb27
  %10 = load ptr, ptr %currentnode, align 8
  %_24 = load i32, ptr %10, align 8
  call void @getneibors(ptr %map, i32 %_24, ptr %neibors, ptr %neiborsize) #8
  store i32 0, ptr %i, align 4
  br label %bb14

panic11:                                          ; preds = %bb27
; call core::panicking::panic_null_pointer_dereference
  call void @_ZN4core9panicking30panic_null_pointer_dereference17hf718fcc86a223baaE(ptr align 8 @alloc_9f980670502944a6c052496e4c2618fe) #7
  unreachable

bb14:                                             ; preds = %bb22, %bb38
  %_31 = load i32, ptr %i, align 4
  %_32 = load i32, ptr %neiborsize, align 4
  %_30 = icmp slt i32 %_31, %_32
  br i1 %_30, label %bb15, label %bb4

bb15:                                             ; preds = %bb14
  %_34 = load ptr, ptr %currentnode, align 8
  %_37 = load i32, ptr %i, align 4
  %_36 = sext i32 %_37 to i64
  %_38 = icmp ult i64 %_36, 7
  br i1 %_38, label %bb16, label %panic12

bb16:                                             ; preds = %bb15
  %11 = getelementptr inbounds nuw i32, ptr %neibors, i64 %_36
  %_35 = load i32, ptr %11, align 4
  %_33 = call i32 @inme(ptr %_34, i32 %_35) #8
  %12 = icmp eq i32 %_33, 0
  br i1 %12, label %bb18, label %bb22

panic12:                                          ; preds = %bb15
; call core::panicking::panic_bounds_check
  call void @_ZN4core9panicking18panic_bounds_check17h27d1e4f0cb1112dfE(i64 %_36, i64 7, ptr align 8 @alloc_0a2fdfa9f01adf85cdcb8609efb0d3f2) #7
  unreachable

bb18:                                             ; preds = %bb16
  %_39 = call ptr @malloc(i64 16) #8
  store ptr %_39, ptr %node, align 8
  %_42 = load i32, ptr %step, align 4
  %_62 = load ptr, ptr %node, align 8
  %_63 = ptrtoint ptr %_62 to i64
  %_66 = and i64 %_63, 7
  %_67 = icmp eq i64 %_66, 0
  br i1 %_67, label %bb26, label %panic13

bb22:                                             ; preds = %bb41, %bb16
  %13 = load i32, ptr %i, align 4
  %14 = add i32 %13, 1
  store i32 %14, ptr %i, align 4
  br label %bb14

bb26:                                             ; preds = %bb18
  %_146 = load ptr, ptr %node, align 8
  %_147 = ptrtoint ptr %_146 to i64
  %_150 = icmp eq i64 %_147, 0
  %_151 = and i1 %_150, true
  %_152 = xor i1 %_151, true
  br i1 %_152, label %bb39, label %panic14

panic13:                                          ; preds = %bb18
; call core::panicking::panic_misaligned_pointer_dereference
  call void @_ZN4core9panicking36panic_misaligned_pointer_dereference17hcc3cbded9382b6e5E(i64 8, i64 %_63, ptr align 8 @alloc_a813b41cecb5552172b3797f463c3a5d) #7
  unreachable

bb39:                                             ; preds = %bb26
  %15 = load ptr, ptr %node, align 8
  %16 = getelementptr inbounds i8, ptr %15, i64 4
  %17 = add i32 %_42, 1
  store i32 %17, ptr %16, align 4
  %_43 = load ptr, ptr %currentnode, align 8
  %_56 = load ptr, ptr %node, align 8
  %_57 = ptrtoint ptr %_56 to i64
  %_60 = and i64 %_57, 7
  %_61 = icmp eq i64 %_60, 0
  br i1 %_61, label %bb25, label %panic15

panic14:                                          ; preds = %bb26
; call core::panicking::panic_null_pointer_dereference
  call void @_ZN4core9panicking30panic_null_pointer_dereference17hf718fcc86a223baaE(ptr align 8 @alloc_a813b41cecb5552172b3797f463c3a5d) #7
  unreachable

bb25:                                             ; preds = %bb39
  %_153 = load ptr, ptr %node, align 8
  %_154 = ptrtoint ptr %_153 to i64
  %_157 = icmp eq i64 %_154, 0
  %_158 = and i1 %_157, true
  %_159 = xor i1 %_158, true
  br i1 %_159, label %bb40, label %panic16

panic15:                                          ; preds = %bb39
; call core::panicking::panic_misaligned_pointer_dereference
  call void @_ZN4core9panicking36panic_misaligned_pointer_dereference17hcc3cbded9382b6e5E(i64 8, i64 %_57, ptr align 8 @alloc_010b28f0d5a1448e6cee22726f69d1cb) #7
  unreachable

bb40:                                             ; preds = %bb25
  %18 = load ptr, ptr %node, align 8
  %19 = getelementptr inbounds i8, ptr %18, i64 8
  store ptr %_43, ptr %19, align 8
  %_46 = load i32, ptr %i, align 4
  %_45 = sext i32 %_46 to i64
  %_47 = icmp ult i64 %_45, 7
  br i1 %_47, label %bb21, label %panic17

panic16:                                          ; preds = %bb25
; call core::panicking::panic_null_pointer_dereference
  call void @_ZN4core9panicking30panic_null_pointer_dereference17hf718fcc86a223baaE(ptr align 8 @alloc_010b28f0d5a1448e6cee22726f69d1cb) #7
  unreachable

bb21:                                             ; preds = %bb40
  %20 = getelementptr inbounds nuw i32, ptr %neibors, i64 %_45
  %_44 = load i32, ptr %20, align 4
  %_50 = load ptr, ptr %node, align 8
  %_51 = ptrtoint ptr %_50 to i64
  %_54 = and i64 %_51, 7
  %_55 = icmp eq i64 %_54, 0
  br i1 %_55, label %bb24, label %panic18

panic17:                                          ; preds = %bb40
; call core::panicking::panic_bounds_check
  call void @_ZN4core9panicking18panic_bounds_check17h27d1e4f0cb1112dfE(i64 %_45, i64 7, ptr align 8 @alloc_1204878eb9c561c7e84d29fb992d72b9) #7
  unreachable

bb24:                                             ; preds = %bb21
  %_160 = load ptr, ptr %node, align 8
  %_161 = ptrtoint ptr %_160 to i64
  %_164 = icmp eq i64 %_161, 0
  %_165 = and i1 %_164, true
  %_166 = xor i1 %_165, true
  br i1 %_166, label %bb41, label %panic19

panic18:                                          ; preds = %bb21
; call core::panicking::panic_misaligned_pointer_dereference
  call void @_ZN4core9panicking36panic_misaligned_pointer_dereference17hcc3cbded9382b6e5E(i64 8, i64 %_51, ptr align 8 @alloc_6c2c81a11003f3e2ac544ba98f416f52) #7
  unreachable

bb41:                                             ; preds = %bb24
  %21 = load ptr, ptr %node, align 8
  store i32 %_44, ptr %21, align 8
  %_49 = load ptr, ptr %node, align 8
  call void @enqueue(ptr %_49) #8
  br label %bb22

panic19:                                          ; preds = %bb24
; call core::panicking::panic_null_pointer_dereference
  call void @_ZN4core9panicking30panic_null_pointer_dereference17hf718fcc86a223baaE(ptr align 8 @alloc_6c2c81a11003f3e2ac544ba98f416f52) #7
  unreachable
}

; Function Attrs: nounwind nonlazybind
define i32 @sempty() unnamed_addr #2 {
start:
  %_15 = icmp eq i64 ptrtoint (ptr @sp to i64), 0
  %_16 = and i1 %_15, true
  %_17 = xor i1 %_16, true
  br i1 %_17, label %bb2, label %panic

bb2:                                              ; preds = %start
  %_2 = load i32, ptr @sp, align 4
  %_1 = icmp eq i32 %_2, -1
  %_0 = zext i1 %_1 to i32
  ret i32 %_0

panic:                                            ; preds = %start
; call core::panicking::panic_null_pointer_dereference
  call void @_ZN4core9panicking30panic_null_pointer_dereference17hf718fcc86a223baaE(ptr align 8 @alloc_5e88a564efe89fa976e17472fd1277a4) #7
  unreachable
}

; Function Attrs: nounwind nonlazybind
define void @push(ptr %item) unnamed_addr #2 {
start:
  %_43 = icmp eq i64 ptrtoint (ptr @sp to i64), 0
  %_44 = and i1 %_43, true
  %_45 = xor i1 %_44, true
  br i1 %_45, label %bb7, label %panic

bb7:                                              ; preds = %start
  %_36 = icmp eq i64 ptrtoint (ptr @sp to i64), 0
  %_37 = and i1 %_36, true
  %_38 = xor i1 %_37, true
  br i1 %_38, label %bb6, label %panic1

panic:                                            ; preds = %start
; call core::panicking::panic_null_pointer_dereference
  call void @_ZN4core9panicking30panic_null_pointer_dereference17hf718fcc86a223baaE(ptr align 8 @alloc_a36f45cee9449e8ced34535698225438) #7
  unreachable

bb6:                                              ; preds = %bb7
  %0 = load i32, ptr @sp, align 4
  %1 = add i32 %0, 1
  store i32 %1, ptr @sp, align 4
  %_50 = icmp eq i64 ptrtoint (ptr @sp to i64), 0
  %_51 = and i1 %_50, true
  %_52 = xor i1 %_51, true
  br i1 %_52, label %bb8, label %panic2

panic1:                                           ; preds = %bb7
; call core::panicking::panic_null_pointer_dereference
  call void @_ZN4core9panicking30panic_null_pointer_dereference17hf718fcc86a223baaE(ptr align 8 @alloc_a36f45cee9449e8ced34535698225438) #7
  unreachable

bb8:                                              ; preds = %bb6
  %_5 = load i32, ptr @sp, align 4
  %_4 = sext i32 %_5 to i64
  %_7 = icmp ult i64 %_4, 100
  br i1 %_7, label %bb1, label %panic3

panic2:                                           ; preds = %bb6
; call core::panicking::panic_null_pointer_dereference
  call void @_ZN4core9panicking30panic_null_pointer_dereference17hf718fcc86a223baaE(ptr align 8 @alloc_2cd4258154dde989be12c52a68877b6c) #7
  unreachable

bb1:                                              ; preds = %bb8
  %_57 = icmp eq i64 ptrtoint (ptr @stack to i64), 0
  %_58 = and i1 %_57, true
  %_59 = xor i1 %_58, true
  br i1 %_59, label %bb9, label %panic4

panic3:                                           ; preds = %bb8
; call core::panicking::panic_bounds_check
  call void @_ZN4core9panicking18panic_bounds_check17h27d1e4f0cb1112dfE(i64 %_4, i64 100, ptr align 8 @alloc_3d9151624eab24158117245357fec895) #7
  unreachable

bb9:                                              ; preds = %bb1
  %2 = getelementptr inbounds nuw ptr, ptr @stack, i64 %_4
  store ptr %item, ptr %2, align 8
  ret void

panic4:                                           ; preds = %bb1
; call core::panicking::panic_null_pointer_dereference
  call void @_ZN4core9panicking30panic_null_pointer_dereference17hf718fcc86a223baaE(ptr align 8 @alloc_3d9151624eab24158117245357fec895) #7
  unreachable
}

; Function Attrs: nounwind nonlazybind
define ptr @pop() unnamed_addr #2 {
start:
  %_37 = icmp eq i64 ptrtoint (ptr @sp to i64), 0
  %_38 = and i1 %_37, true
  %_39 = xor i1 %_38, true
  br i1 %_39, label %bb6, label %panic

bb6:                                              ; preds = %start
  %fresh1 = load i32, ptr @sp, align 4
  %_44 = icmp eq i64 ptrtoint (ptr @sp to i64), 0
  %_45 = and i1 %_44, true
  %_46 = xor i1 %_45, true
  br i1 %_46, label %bb7, label %panic1

panic:                                            ; preds = %start
; call core::panicking::panic_null_pointer_dereference
  call void @_ZN4core9panicking30panic_null_pointer_dereference17hf718fcc86a223baaE(ptr align 8 @alloc_2156437e0163e4f2cbd9303faa512834) #7
  unreachable

bb7:                                              ; preds = %bb6
  %_3 = load i32, ptr @sp, align 4
  %_51 = icmp eq i64 ptrtoint (ptr @sp to i64), 0
  %_52 = and i1 %_51, true
  %_53 = xor i1 %_52, true
  br i1 %_53, label %bb8, label %panic2

panic1:                                           ; preds = %bb6
; call core::panicking::panic_null_pointer_dereference
  call void @_ZN4core9panicking30panic_null_pointer_dereference17hf718fcc86a223baaE(ptr align 8 @alloc_2be0cbda3e95d116c639a0ca19012611) #7
  unreachable

bb8:                                              ; preds = %bb7
  %0 = sub i32 %_3, 1
  store i32 %0, ptr @sp, align 4
  %_7 = sext i32 %fresh1 to i64
  %_8 = icmp ult i64 %_7, 100
  br i1 %_8, label %bb1, label %panic3

panic2:                                           ; preds = %bb7
; call core::panicking::panic_null_pointer_dereference
  call void @_ZN4core9panicking30panic_null_pointer_dereference17hf718fcc86a223baaE(ptr align 8 @alloc_287850658f3050b9910a06eedc5db810) #7
  unreachable

bb1:                                              ; preds = %bb8
  %_58 = icmp eq i64 ptrtoint (ptr @stack to i64), 0
  %_59 = and i1 %_58, true
  %_60 = xor i1 %_59, true
  br i1 %_60, label %bb9, label %panic4

panic3:                                           ; preds = %bb8
; call core::panicking::panic_bounds_check
  call void @_ZN4core9panicking18panic_bounds_check17h27d1e4f0cb1112dfE(i64 %_7, i64 100, ptr align 8 @alloc_a01c832c750218f971af2ad8766065d1) #7
  unreachable

bb9:                                              ; preds = %bb1
  %1 = getelementptr inbounds nuw ptr, ptr @stack, i64 %_7
  %_0 = load ptr, ptr %1, align 8
  ret ptr %_0

panic4:                                           ; preds = %bb1
; call core::panicking::panic_null_pointer_dereference
  call void @_ZN4core9panicking30panic_null_pointer_dereference17hf718fcc86a223baaE(ptr align 8 @alloc_a01c832c750218f971af2ad8766065d1) #7
  unreachable
}

; Function Attrs: nounwind nonlazybind
define ptr @top() unnamed_addr #2 {
start:
  %_22 = icmp eq i64 ptrtoint (ptr @sp to i64), 0
  %_23 = and i1 %_22, true
  %_24 = xor i1 %_23, true
  br i1 %_24, label %bb4, label %panic

bb4:                                              ; preds = %start
  %_3 = load i32, ptr @sp, align 4
  %_2 = sext i32 %_3 to i64
  %_5 = icmp ult i64 %_2, 100
  br i1 %_5, label %bb1, label %panic1

panic:                                            ; preds = %start
; call core::panicking::panic_null_pointer_dereference
  call void @_ZN4core9panicking30panic_null_pointer_dereference17hf718fcc86a223baaE(ptr align 8 @alloc_b91c8134a1d035f37be503cb7c7a4e3a) #7
  unreachable

bb1:                                              ; preds = %bb4
  %_29 = icmp eq i64 ptrtoint (ptr @stack to i64), 0
  %_30 = and i1 %_29, true
  %_31 = xor i1 %_30, true
  br i1 %_31, label %bb5, label %panic2

panic1:                                           ; preds = %bb4
; call core::panicking::panic_bounds_check
  call void @_ZN4core9panicking18panic_bounds_check17h27d1e4f0cb1112dfE(i64 %_2, i64 100, ptr align 8 @alloc_955faea93410ddf8779305fbd23ac2fb) #7
  unreachable

bb5:                                              ; preds = %bb1
  %0 = getelementptr inbounds nuw ptr, ptr @stack, i64 %_2
  %_0 = load ptr, ptr %0, align 8
  ret ptr %_0

panic2:                                           ; preds = %bb1
; call core::panicking::panic_null_pointer_dereference
  call void @_ZN4core9panicking30panic_null_pointer_dereference17hf718fcc86a223baaE(ptr align 8 @alloc_955faea93410ddf8779305fbd23ac2fb) #7
  unreachable
}

; Function Attrs: nounwind nonlazybind
define void @dfs_search(ptr %map) unnamed_addr #2 {
start:
  %node = alloca [8 x i8], align 8
  %i = alloca [4 x i8], align 4
  %neibors = alloca [28 x i8], align 4
  %neiborsize = alloca [4 x i8], align 4
  %currentnode = alloca [8 x i8], align 8
  %_3 = call ptr @malloc(i64 16) #8
  store ptr %_3, ptr %currentnode, align 8
  %_103 = load ptr, ptr %currentnode, align 8
  %_104 = ptrtoint ptr %_103 to i64
  %_107 = and i64 %_104, 7
  %_108 = icmp eq i64 %_107, 0
  br i1 %_108, label %bb34, label %panic

bb34:                                             ; preds = %start
  %_109 = load ptr, ptr %currentnode, align 8
  %_110 = ptrtoint ptr %_109 to i64
  %_113 = icmp eq i64 %_110, 0
  %_114 = and i1 %_113, true
  %_115 = xor i1 %_114, true
  br i1 %_115, label %bb35, label %panic1

panic:                                            ; preds = %start
; call core::panicking::panic_misaligned_pointer_dereference
  call void @_ZN4core9panicking36panic_misaligned_pointer_dereference17hcc3cbded9382b6e5E(i64 8, i64 %_104, ptr align 8 @alloc_ab86c8f6a6b652fd93739bb1556d653e) #7
  unreachable

bb35:                                             ; preds = %bb34
  %0 = load ptr, ptr %currentnode, align 8
  store i32 0, ptr %0, align 8
  %_97 = load ptr, ptr %currentnode, align 8
  %_98 = ptrtoint ptr %_97 to i64
  %_101 = and i64 %_98, 7
  %_102 = icmp eq i64 %_101, 0
  br i1 %_102, label %bb33, label %panic2

panic1:                                           ; preds = %bb34
; call core::panicking::panic_null_pointer_dereference
  call void @_ZN4core9panicking30panic_null_pointer_dereference17hf718fcc86a223baaE(ptr align 8 @alloc_ab86c8f6a6b652fd93739bb1556d653e) #7
  unreachable

bb33:                                             ; preds = %bb35
  %_116 = load ptr, ptr %currentnode, align 8
  %_117 = ptrtoint ptr %_116 to i64
  %_120 = icmp eq i64 %_117, 0
  %_121 = and i1 %_120, true
  %_122 = xor i1 %_121, true
  br i1 %_122, label %bb36, label %panic3

panic2:                                           ; preds = %bb35
; call core::panicking::panic_misaligned_pointer_dereference
  call void @_ZN4core9panicking36panic_misaligned_pointer_dereference17hcc3cbded9382b6e5E(i64 8, i64 %_98, ptr align 8 @alloc_c3edc0ffc4aa51f1633091e8f18b4b70) #7
  unreachable

bb36:                                             ; preds = %bb33
  %1 = load ptr, ptr %currentnode, align 8
  %2 = getelementptr inbounds i8, ptr %1, i64 4
  store i32 0, ptr %2, align 4
  %_91 = load ptr, ptr %currentnode, align 8
  %_92 = ptrtoint ptr %_91 to i64
  %_95 = and i64 %_92, 7
  %_96 = icmp eq i64 %_95, 0
  br i1 %_96, label %bb32, label %panic4

panic3:                                           ; preds = %bb33
; call core::panicking::panic_null_pointer_dereference
  call void @_ZN4core9panicking30panic_null_pointer_dereference17hf718fcc86a223baaE(ptr align 8 @alloc_c3edc0ffc4aa51f1633091e8f18b4b70) #7
  unreachable

bb32:                                             ; preds = %bb36
  %_123 = load ptr, ptr %currentnode, align 8
  %_124 = ptrtoint ptr %_123 to i64
  %_127 = icmp eq i64 %_124, 0
  %_128 = and i1 %_127, true
  %_129 = xor i1 %_128, true
  br i1 %_129, label %bb37, label %panic5

panic4:                                           ; preds = %bb36
; call core::panicking::panic_misaligned_pointer_dereference
  call void @_ZN4core9panicking36panic_misaligned_pointer_dereference17hcc3cbded9382b6e5E(i64 8, i64 %_92, ptr align 8 @alloc_88b2a18a7ed02bde5f9773316ce747b8) #7
  unreachable

bb37:                                             ; preds = %bb32
  %3 = load ptr, ptr %currentnode, align 8
  %4 = getelementptr inbounds i8, ptr %3, i64 8
  store ptr null, ptr %4, align 8
  %_7 = load ptr, ptr %currentnode, align 8
  call void @push(ptr %_7) #8
  store i32 0, ptr %neiborsize, align 4
  call void @llvm.memset.p0.i64(ptr align 4 %neibors, i8 0, i64 28, i1 false)
  store i32 0, ptr %i, align 4
  store ptr null, ptr %node, align 8
  br label %bb4

panic5:                                           ; preds = %bb32
; call core::panicking::panic_null_pointer_dereference
  call void @_ZN4core9panicking30panic_null_pointer_dereference17hf718fcc86a223baaE(ptr align 8 @alloc_88b2a18a7ed02bde5f9773316ce747b8) #7
  unreachable

bb4:                                              ; preds = %bb15, %bb37
  %_12 = call i32 @sempty() #8
  %5 = icmp eq i32 %_12, 0
  br i1 %5, label %bb6, label %bb24

bb6:                                              ; preds = %bb4
  %_13 = call ptr @top() #8
  store ptr %_13, ptr %currentnode, align 8
  %_85 = load ptr, ptr %currentnode, align 8
  %_86 = ptrtoint ptr %_85 to i64
  %_89 = and i64 %_86, 7
  %_90 = icmp eq i64 %_89, 0
  br i1 %_90, label %bb31, label %panic6

bb24:                                             ; preds = %bb4
  ret void

bb31:                                             ; preds = %bb6
  %_130 = load ptr, ptr %currentnode, align 8
  %_131 = ptrtoint ptr %_130 to i64
  %_134 = icmp eq i64 %_131, 0
  %_135 = and i1 %_134, true
  %_136 = xor i1 %_135, true
  br i1 %_136, label %bb38, label %panic7

panic6:                                           ; preds = %bb6
; call core::panicking::panic_misaligned_pointer_dereference
  call void @_ZN4core9panicking36panic_misaligned_pointer_dereference17hcc3cbded9382b6e5E(i64 8, i64 %_86, ptr align 8 @alloc_4506c653493748d71c60a8a258ac6dee) #7
  unreachable

bb38:                                             ; preds = %bb31
  %6 = load ptr, ptr %currentnode, align 8
  %7 = getelementptr inbounds i8, ptr %6, i64 4
  %_15 = load i32, ptr %7, align 4
  %_14 = icmp eq i32 %_15, 6
  br i1 %_14, label %bb8, label %bb11

panic7:                                           ; preds = %bb31
; call core::panicking::panic_null_pointer_dereference
  call void @_ZN4core9panicking30panic_null_pointer_dereference17hf718fcc86a223baaE(ptr align 8 @alloc_4506c653493748d71c60a8a258ac6dee) #7
  unreachable

bb11:                                             ; preds = %bb10, %bb39, %bb38
  %_21 = call ptr @pop() #8
  %_73 = load ptr, ptr %currentnode, align 8
  %_74 = ptrtoint ptr %_73 to i64
  %_77 = and i64 %_74, 7
  %_78 = icmp eq i64 %_77, 0
  br i1 %_78, label %bb29, label %panic10

bb8:                                              ; preds = %bb38
  %_79 = load ptr, ptr %currentnode, align 8
  %_80 = ptrtoint ptr %_79 to i64
  %_83 = and i64 %_80, 7
  %_84 = icmp eq i64 %_83, 0
  br i1 %_84, label %bb30, label %panic8

bb30:                                             ; preds = %bb8
  %_137 = load ptr, ptr %currentnode, align 8
  %_138 = ptrtoint ptr %_137 to i64
  %_141 = icmp eq i64 %_138, 0
  %_142 = and i1 %_141, true
  %_143 = xor i1 %_142, true
  br i1 %_143, label %bb39, label %panic9

panic8:                                           ; preds = %bb8
; call core::panicking::panic_misaligned_pointer_dereference
  call void @_ZN4core9panicking36panic_misaligned_pointer_dereference17hcc3cbded9382b6e5E(i64 8, i64 %_80, ptr align 8 @alloc_68e5471e3547dbc76eb9cb13a542ec37) #7
  unreachable

bb39:                                             ; preds = %bb30
  %8 = load ptr, ptr %currentnode, align 8
  %_18 = load i32, ptr %8, align 8
  %_17 = call i32 @isneibor(ptr %map, i32 %_18, i32 0) #8
  %9 = icmp eq i32 %_17, 0
  br i1 %9, label %bb11, label %bb10

panic9:                                           ; preds = %bb30
; call core::panicking::panic_null_pointer_dereference
  call void @_ZN4core9panicking30panic_null_pointer_dereference17hf718fcc86a223baaE(ptr align 8 @alloc_68e5471e3547dbc76eb9cb13a542ec37) #7
  unreachable

bb10:                                             ; preds = %bb39
  %_20 = load ptr, ptr %currentnode, align 8
  call void @displayout_come(ptr %_20) #8
  br label %bb11

bb29:                                             ; preds = %bb11
  %_144 = load ptr, ptr %currentnode, align 8
  %_145 = ptrtoint ptr %_144 to i64
  %_148 = icmp eq i64 %_145, 0
  %_149 = and i1 %_148, true
  %_150 = xor i1 %_149, true
  br i1 %_150, label %bb40, label %panic11

panic10:                                          ; preds = %bb11
; call core::panicking::panic_misaligned_pointer_dereference
  call void @_ZN4core9panicking36panic_misaligned_pointer_dereference17hcc3cbded9382b6e5E(i64 8, i64 %_74, ptr align 8 @alloc_56a4c059764ef26d768f647bf17df18d) #7
  unreachable

bb40:                                             ; preds = %bb29
  %10 = load ptr, ptr %currentnode, align 8
  %_23 = load i32, ptr %10, align 8
  call void @getneibors(ptr %map, i32 %_23, ptr %neibors, ptr %neiborsize) #8
  store i32 0, ptr %i, align 4
  br label %bb15

panic11:                                          ; preds = %bb29
; call core::panicking::panic_null_pointer_dereference
  call void @_ZN4core9panicking30panic_null_pointer_dereference17hf718fcc86a223baaE(ptr align 8 @alloc_56a4c059764ef26d768f647bf17df18d) #7
  unreachable

bb15:                                             ; preds = %bb23, %bb40
  %_30 = load i32, ptr %i, align 4
  %_31 = load i32, ptr %neiborsize, align 4
  %_29 = icmp slt i32 %_30, %_31
  br i1 %_29, label %bb16, label %bb4

bb16:                                             ; preds = %bb15
  %_33 = load ptr, ptr %currentnode, align 8
  %_36 = load i32, ptr %i, align 4
  %_35 = sext i32 %_36 to i64
  %_37 = icmp ult i64 %_35, 7
  br i1 %_37, label %bb17, label %panic12

bb17:                                             ; preds = %bb16
  %11 = getelementptr inbounds nuw i32, ptr %neibors, i64 %_35
  %_34 = load i32, ptr %11, align 4
  %_32 = call i32 @inme(ptr %_33, i32 %_34) #8
  %12 = icmp eq i32 %_32, 0
  br i1 %12, label %bb19, label %bb23

panic12:                                          ; preds = %bb16
; call core::panicking::panic_bounds_check
  call void @_ZN4core9panicking18panic_bounds_check17h27d1e4f0cb1112dfE(i64 %_35, i64 7, ptr align 8 @alloc_eb1941c878459260c5e109f42249a01e) #7
  unreachable

bb19:                                             ; preds = %bb17
  %_38 = call ptr @malloc(i64 16) #8
  store ptr %_38, ptr %node, align 8
  %_43 = load i32, ptr %i, align 4
  %_42 = sext i32 %_43 to i64
  %_44 = icmp ult i64 %_42, 7
  br i1 %_44, label %bb22, label %panic13

bb23:                                             ; preds = %bb44, %bb17
  %13 = load i32, ptr %i, align 4
  %14 = add i32 %13, 1
  store i32 %14, ptr %i, align 4
  br label %bb15

bb22:                                             ; preds = %bb19
  %15 = getelementptr inbounds nuw i32, ptr %neibors, i64 %_42
  %_41 = load i32, ptr %15, align 4
  %_67 = load ptr, ptr %node, align 8
  %_68 = ptrtoint ptr %_67 to i64
  %_71 = and i64 %_68, 7
  %_72 = icmp eq i64 %_71, 0
  br i1 %_72, label %bb28, label %panic14

panic13:                                          ; preds = %bb19
; call core::panicking::panic_bounds_check
  call void @_ZN4core9panicking18panic_bounds_check17h27d1e4f0cb1112dfE(i64 %_42, i64 7, ptr align 8 @alloc_8b1dfdf0eef114cd244fb348a340e8a1) #7
  unreachable

bb28:                                             ; preds = %bb22
  %_151 = load ptr, ptr %node, align 8
  %_152 = ptrtoint ptr %_151 to i64
  %_155 = icmp eq i64 %_152, 0
  %_156 = and i1 %_155, true
  %_157 = xor i1 %_156, true
  br i1 %_157, label %bb41, label %panic15

panic14:                                          ; preds = %bb22
; call core::panicking::panic_misaligned_pointer_dereference
  call void @_ZN4core9panicking36panic_misaligned_pointer_dereference17hcc3cbded9382b6e5E(i64 8, i64 %_68, ptr align 8 @alloc_11b66a255f461a33f79ea72a6d8e3954) #7
  unreachable

bb41:                                             ; preds = %bb28
  %16 = load ptr, ptr %node, align 8
  store i32 %_41, ptr %16, align 8
  %_61 = load ptr, ptr %currentnode, align 8
  %_62 = ptrtoint ptr %_61 to i64
  %_65 = and i64 %_62, 7
  %_66 = icmp eq i64 %_65, 0
  br i1 %_66, label %bb27, label %panic16

panic15:                                          ; preds = %bb28
; call core::panicking::panic_null_pointer_dereference
  call void @_ZN4core9panicking30panic_null_pointer_dereference17hf718fcc86a223baaE(ptr align 8 @alloc_11b66a255f461a33f79ea72a6d8e3954) #7
  unreachable

bb27:                                             ; preds = %bb41
  %_158 = load ptr, ptr %currentnode, align 8
  %_159 = ptrtoint ptr %_158 to i64
  %_162 = icmp eq i64 %_159, 0
  %_163 = and i1 %_162, true
  %_164 = xor i1 %_163, true
  br i1 %_164, label %bb42, label %panic17

panic16:                                          ; preds = %bb41
; call core::panicking::panic_misaligned_pointer_dereference
  call void @_ZN4core9panicking36panic_misaligned_pointer_dereference17hcc3cbded9382b6e5E(i64 8, i64 %_62, ptr align 8 @alloc_7f0d50aeba8472bde674abf9665e1d0a) #7
  unreachable

bb42:                                             ; preds = %bb27
  %17 = load ptr, ptr %currentnode, align 8
  %18 = getelementptr inbounds i8, ptr %17, i64 4
  %_45 = load i32, ptr %18, align 4
  %_55 = load ptr, ptr %node, align 8
  %_56 = ptrtoint ptr %_55 to i64
  %_59 = and i64 %_56, 7
  %_60 = icmp eq i64 %_59, 0
  br i1 %_60, label %bb26, label %panic18

panic17:                                          ; preds = %bb27
; call core::panicking::panic_null_pointer_dereference
  call void @_ZN4core9panicking30panic_null_pointer_dereference17hf718fcc86a223baaE(ptr align 8 @alloc_7f0d50aeba8472bde674abf9665e1d0a) #7
  unreachable

bb26:                                             ; preds = %bb42
  %_165 = load ptr, ptr %node, align 8
  %_166 = ptrtoint ptr %_165 to i64
  %_169 = icmp eq i64 %_166, 0
  %_170 = and i1 %_169, true
  %_171 = xor i1 %_170, true
  br i1 %_171, label %bb43, label %panic19

panic18:                                          ; preds = %bb42
; call core::panicking::panic_misaligned_pointer_dereference
  call void @_ZN4core9panicking36panic_misaligned_pointer_dereference17hcc3cbded9382b6e5E(i64 8, i64 %_56, ptr align 8 @alloc_84443db4431dbf67de69b186027916ac) #7
  unreachable

bb43:                                             ; preds = %bb26
  %19 = load ptr, ptr %node, align 8
  %20 = getelementptr inbounds i8, ptr %19, i64 4
  %21 = add i32 %_45, 1
  store i32 %21, ptr %20, align 4
  %_46 = load ptr, ptr %currentnode, align 8
  %_49 = load ptr, ptr %node, align 8
  %_50 = ptrtoint ptr %_49 to i64
  %_53 = and i64 %_50, 7
  %_54 = icmp eq i64 %_53, 0
  br i1 %_54, label %bb25, label %panic20

panic19:                                          ; preds = %bb26
; call core::panicking::panic_null_pointer_dereference
  call void @_ZN4core9panicking30panic_null_pointer_dereference17hf718fcc86a223baaE(ptr align 8 @alloc_84443db4431dbf67de69b186027916ac) #7
  unreachable

bb25:                                             ; preds = %bb43
  %_172 = load ptr, ptr %node, align 8
  %_173 = ptrtoint ptr %_172 to i64
  %_176 = icmp eq i64 %_173, 0
  %_177 = and i1 %_176, true
  %_178 = xor i1 %_177, true
  br i1 %_178, label %bb44, label %panic21

panic20:                                          ; preds = %bb43
; call core::panicking::panic_misaligned_pointer_dereference
  call void @_ZN4core9panicking36panic_misaligned_pointer_dereference17hcc3cbded9382b6e5E(i64 8, i64 %_50, ptr align 8 @alloc_e492306b859161ca4de35248fa43f57d) #7
  unreachable

bb44:                                             ; preds = %bb25
  %22 = load ptr, ptr %node, align 8
  %23 = getelementptr inbounds i8, ptr %22, i64 8
  store ptr %_46, ptr %23, align 8
  %_48 = load ptr, ptr %node, align 8
  call void @push(ptr %_48) #8
  br label %bb23

panic21:                                          ; preds = %bb25
; call core::panicking::panic_null_pointer_dereference
  call void @_ZN4core9panicking30panic_null_pointer_dereference17hf718fcc86a223baaE(ptr align 8 @alloc_e492306b859161ca4de35248fa43f57d) #7
  unreachable
}

; Function Attrs: nounwind nonlazybind
define void @backtrace(ptr %map, ptr %answer, i32 %step, ptr %visited) unnamed_addr #2 {
start:
  %i = alloca [4 x i8], align 4
  %neiborsize = alloca [4 x i8], align 4
  %myneibor = alloca [28 x i8], align 4
  %0 = icmp eq i32 %step, 7
  br i1 %0, label %bb1, label %bb5

bb1:                                              ; preds = %start
  %_9 = sub i32 %step, 1
  %_8 = sext i32 %_9 to i64
; call core::ptr::mut_ptr::<impl *mut T>::offset::precondition_check
  call void @"_ZN4core3ptr7mut_ptr31_$LT$impl$u20$$BP$mut$u20$T$GT$6offset18precondition_check17h38efc80a26217721E"(ptr %answer, i64 %_8, i64 4) #8
  %_0.i20 = getelementptr inbounds i32, ptr %answer, i64 %_8
  %_85 = ptrtoint ptr %_0.i20 to i64
  %_88 = and i64 %_85, 3
  %_89 = icmp eq i64 %_88, 0
  br i1 %_89, label %bb28, label %panic

bb5:                                              ; preds = %bb29, %start
  call void @llvm.memset.p0.i64(ptr align 4 %myneibor, i8 0, i64 28, i1 false)
  store i32 0, ptr %neiborsize, align 4
  %_16 = sub i32 %step, 1
  %_15 = sext i32 %_16 to i64
; call core::ptr::mut_ptr::<impl *mut T>::offset::precondition_check
  call void @"_ZN4core3ptr7mut_ptr31_$LT$impl$u20$$BP$mut$u20$T$GT$6offset18precondition_check17h38efc80a26217721E"(ptr %answer, i64 %_15, i64 4) #8
  %_0.i19 = getelementptr inbounds i32, ptr %answer, i64 %_15
  %_79 = ptrtoint ptr %_0.i19 to i64
  %_82 = and i64 %_79, 3
  %_83 = icmp eq i64 %_82, 0
  br i1 %_83, label %bb27, label %panic2

bb28:                                             ; preds = %bb1
  %_91 = ptrtoint ptr %_0.i20 to i64
  %_94 = icmp eq i64 %_91, 0
  %_95 = and i1 %_94, true
  %_96 = xor i1 %_95, true
  br i1 %_96, label %bb29, label %panic1

panic:                                            ; preds = %bb1
; call core::panicking::panic_misaligned_pointer_dereference
  call void @_ZN4core9panicking36panic_misaligned_pointer_dereference17hcc3cbded9382b6e5E(i64 4, i64 %_85, ptr align 8 @alloc_9e0c7a65c9d91e263492b3f68ad7dede) #7
  unreachable

bb29:                                             ; preds = %bb28
  %_6 = load i32, ptr %_0.i20, align 4
  %_5 = call i32 @isneibor(ptr %map, i32 %_6, i32 0) #8
  %1 = icmp eq i32 %_5, 0
  br i1 %1, label %bb5, label %bb4

panic1:                                           ; preds = %bb28
; call core::panicking::panic_null_pointer_dereference
  call void @_ZN4core9panicking30panic_null_pointer_dereference17hf718fcc86a223baaE(ptr align 8 @alloc_9e0c7a65c9d91e263492b3f68ad7dede) #7
  unreachable

bb4:                                              ; preds = %bb29
  call void @displayoutcome(ptr %answer) #8
  br label %bb22

bb22:                                             ; preds = %bb9, %bb4
  ret void

bb27:                                             ; preds = %bb5
  %_98 = ptrtoint ptr %_0.i19 to i64
  %_101 = icmp eq i64 %_98, 0
  %_102 = and i1 %_101, true
  %_103 = xor i1 %_102, true
  br i1 %_103, label %bb30, label %panic3

panic2:                                           ; preds = %bb5
; call core::panicking::panic_misaligned_pointer_dereference
  call void @_ZN4core9panicking36panic_misaligned_pointer_dereference17hcc3cbded9382b6e5E(i64 4, i64 %_79, ptr align 8 @alloc_b4bba5770fe625549371e85faf9438aa) #7
  unreachable

bb30:                                             ; preds = %bb27
  %currentnode = load i32, ptr %_0.i19, align 4
  store i32 0, ptr %i, align 4
  call void @getneibors(ptr %map, i32 %currentnode, ptr %myneibor, ptr %neiborsize) #8
  store i32 0, ptr %i, align 4
  br label %bb9

panic3:                                           ; preds = %bb27
; call core::panicking::panic_null_pointer_dereference
  call void @_ZN4core9panicking30panic_null_pointer_dereference17hf718fcc86a223baaE(ptr align 8 @alloc_b4bba5770fe625549371e85faf9438aa) #7
  unreachable

bb9:                                              ; preds = %bb21, %bb30
  %_25 = load i32, ptr %i, align 4
  %_26 = load i32, ptr %neiborsize, align 4
  %_24 = icmp slt i32 %_25, %_26
  br i1 %_24, label %bb10, label %bb22

bb10:                                             ; preds = %bb9
  %_32 = load i32, ptr %i, align 4
  %_31 = sext i32 %_32 to i64
  %_33 = icmp ult i64 %_31, 7
  br i1 %_33, label %bb11, label %panic4

bb11:                                             ; preds = %bb10
  %2 = getelementptr inbounds nuw i32, ptr %myneibor, i64 %_31
  %_30 = load i32, ptr %2, align 4
  %_29 = sext i32 %_30 to i64
; call core::ptr::mut_ptr::<impl *mut T>::offset::precondition_check
  call void @"_ZN4core3ptr7mut_ptr31_$LT$impl$u20$$BP$mut$u20$T$GT$6offset18precondition_check17h38efc80a26217721E"(ptr %visited, i64 %_29, i64 4) #8
  %_0.i18 = getelementptr inbounds i32, ptr %visited, i64 %_29
  %_73 = ptrtoint ptr %_0.i18 to i64
  %_76 = and i64 %_73, 3
  %_77 = icmp eq i64 %_76, 0
  br i1 %_77, label %bb26, label %panic5

panic4:                                           ; preds = %bb10
; call core::panicking::panic_bounds_check
  call void @_ZN4core9panicking18panic_bounds_check17h27d1e4f0cb1112dfE(i64 %_31, i64 7, ptr align 8 @alloc_ff5268764775afbbd076cfed22318020) #7
  unreachable

bb26:                                             ; preds = %bb11
  %_105 = ptrtoint ptr %_0.i18 to i64
  %_108 = icmp eq i64 %_105, 0
  %_109 = and i1 %_108, true
  %_110 = xor i1 %_109, true
  br i1 %_110, label %bb31, label %panic6

panic5:                                           ; preds = %bb11
; call core::panicking::panic_misaligned_pointer_dereference
  call void @_ZN4core9panicking36panic_misaligned_pointer_dereference17hcc3cbded9382b6e5E(i64 4, i64 %_73, ptr align 8 @alloc_8c05e69165a4fb99c2f3e4d8ac552cdc) #7
  unreachable

bb31:                                             ; preds = %bb26
  %_27 = load i32, ptr %_0.i18, align 4
  %3 = icmp eq i32 %_27, 0
  br i1 %3, label %bb13, label %bb21

panic6:                                           ; preds = %bb26
; call core::panicking::panic_null_pointer_dereference
  call void @_ZN4core9panicking30panic_null_pointer_dereference17hf718fcc86a223baaE(ptr align 8 @alloc_8c05e69165a4fb99c2f3e4d8ac552cdc) #7
  unreachable

bb13:                                             ; preds = %bb31
  %_36 = load i32, ptr %i, align 4
  %_35 = sext i32 %_36 to i64
  %_37 = icmp ult i64 %_35, 7
  br i1 %_37, label %bb14, label %panic7

bb21:                                             ; preds = %bb34, %bb31
  %4 = load i32, ptr %i, align 4
  %5 = add i32 %4, 1
  store i32 %5, ptr %i, align 4
  br label %bb9

bb14:                                             ; preds = %bb13
  %6 = getelementptr inbounds nuw i32, ptr %myneibor, i64 %_35
  %_34 = load i32, ptr %6, align 4
  %_39 = sext i32 %step to i64
; call core::ptr::mut_ptr::<impl *mut T>::offset::precondition_check
  call void @"_ZN4core3ptr7mut_ptr31_$LT$impl$u20$$BP$mut$u20$T$GT$6offset18precondition_check17h38efc80a26217721E"(ptr %answer, i64 %_39, i64 4) #8
  %_0.i17 = getelementptr inbounds i32, ptr %answer, i64 %_39
  %_67 = ptrtoint ptr %_0.i17 to i64
  %_70 = and i64 %_67, 3
  %_71 = icmp eq i64 %_70, 0
  br i1 %_71, label %bb25, label %panic8

panic7:                                           ; preds = %bb13
; call core::panicking::panic_bounds_check
  call void @_ZN4core9panicking18panic_bounds_check17h27d1e4f0cb1112dfE(i64 %_35, i64 7, ptr align 8 @alloc_7cf316b13666db2326fe3986bce99a05) #7
  unreachable

bb25:                                             ; preds = %bb14
  %_112 = ptrtoint ptr %_0.i17 to i64
  %_115 = icmp eq i64 %_112, 0
  %_116 = and i1 %_115, true
  %_117 = xor i1 %_116, true
  br i1 %_117, label %bb32, label %panic9

panic8:                                           ; preds = %bb14
; call core::panicking::panic_misaligned_pointer_dereference
  call void @_ZN4core9panicking36panic_misaligned_pointer_dereference17hcc3cbded9382b6e5E(i64 4, i64 %_67, ptr align 8 @alloc_00d24b8434f2a407fe75e661b2960337) #7
  unreachable

bb32:                                             ; preds = %bb25
  store i32 %_34, ptr %_0.i17, align 4
  %_44 = load i32, ptr %i, align 4
  %_43 = sext i32 %_44 to i64
  %_45 = icmp ult i64 %_43, 7
  br i1 %_45, label %bb16, label %panic10

panic9:                                           ; preds = %bb25
; call core::panicking::panic_null_pointer_dereference
  call void @_ZN4core9panicking30panic_null_pointer_dereference17hf718fcc86a223baaE(ptr align 8 @alloc_00d24b8434f2a407fe75e661b2960337) #7
  unreachable

bb16:                                             ; preds = %bb32
  %7 = getelementptr inbounds nuw i32, ptr %myneibor, i64 %_43
  %_42 = load i32, ptr %7, align 4
  %_41 = sext i32 %_42 to i64
; call core::ptr::mut_ptr::<impl *mut T>::offset::precondition_check
  call void @"_ZN4core3ptr7mut_ptr31_$LT$impl$u20$$BP$mut$u20$T$GT$6offset18precondition_check17h38efc80a26217721E"(ptr %visited, i64 %_41, i64 4) #8
  %_0.i16 = getelementptr inbounds i32, ptr %visited, i64 %_41
  %_61 = ptrtoint ptr %_0.i16 to i64
  %_64 = and i64 %_61, 3
  %_65 = icmp eq i64 %_64, 0
  br i1 %_65, label %bb24, label %panic11

panic10:                                          ; preds = %bb32
; call core::panicking::panic_bounds_check
  call void @_ZN4core9panicking18panic_bounds_check17h27d1e4f0cb1112dfE(i64 %_43, i64 7, ptr align 8 @alloc_d6fba25cfa14f7da5616a7678c0f6150) #7
  unreachable

bb24:                                             ; preds = %bb16
  %_119 = ptrtoint ptr %_0.i16 to i64
  %_122 = icmp eq i64 %_119, 0
  %_123 = and i1 %_122, true
  %_124 = xor i1 %_123, true
  br i1 %_124, label %bb33, label %panic12

panic11:                                          ; preds = %bb16
; call core::panicking::panic_misaligned_pointer_dereference
  call void @_ZN4core9panicking36panic_misaligned_pointer_dereference17hcc3cbded9382b6e5E(i64 4, i64 %_61, ptr align 8 @alloc_e957899da8ad96e7cab64506eb033ac9) #7
  unreachable

bb33:                                             ; preds = %bb24
  store i32 1, ptr %_0.i16, align 4
  %_47 = add i32 %step, 1
  call void @backtrace(ptr %map, ptr %answer, i32 %_47, ptr %visited) #8
  %_52 = load i32, ptr %i, align 4
  %_51 = sext i32 %_52 to i64
  %_53 = icmp ult i64 %_51, 7
  br i1 %_53, label %bb19, label %panic13

panic12:                                          ; preds = %bb24
; call core::panicking::panic_null_pointer_dereference
  call void @_ZN4core9panicking30panic_null_pointer_dereference17hf718fcc86a223baaE(ptr align 8 @alloc_e957899da8ad96e7cab64506eb033ac9) #7
  unreachable

bb19:                                             ; preds = %bb33
  %8 = getelementptr inbounds nuw i32, ptr %myneibor, i64 %_51
  %_50 = load i32, ptr %8, align 4
  %_49 = sext i32 %_50 to i64
; call core::ptr::mut_ptr::<impl *mut T>::offset::precondition_check
  call void @"_ZN4core3ptr7mut_ptr31_$LT$impl$u20$$BP$mut$u20$T$GT$6offset18precondition_check17h38efc80a26217721E"(ptr %visited, i64 %_49, i64 4) #8
  %_0.i = getelementptr inbounds i32, ptr %visited, i64 %_49
  %_55 = ptrtoint ptr %_0.i to i64
  %_58 = and i64 %_55, 3
  %_59 = icmp eq i64 %_58, 0
  br i1 %_59, label %bb23, label %panic14

panic13:                                          ; preds = %bb33
; call core::panicking::panic_bounds_check
  call void @_ZN4core9panicking18panic_bounds_check17h27d1e4f0cb1112dfE(i64 %_51, i64 7, ptr align 8 @alloc_b41ad318dff57fe0c9bb25435a348f18) #7
  unreachable

bb23:                                             ; preds = %bb19
  %_126 = ptrtoint ptr %_0.i to i64
  %_129 = icmp eq i64 %_126, 0
  %_130 = and i1 %_129, true
  %_131 = xor i1 %_130, true
  br i1 %_131, label %bb34, label %panic15

panic14:                                          ; preds = %bb19
; call core::panicking::panic_misaligned_pointer_dereference
  call void @_ZN4core9panicking36panic_misaligned_pointer_dereference17hcc3cbded9382b6e5E(i64 4, i64 %_55, ptr align 8 @alloc_026e0387c7dcb345b8b3f04b6b228928) #7
  unreachable

bb34:                                             ; preds = %bb23
  store i32 0, ptr %_0.i, align 4
  br label %bb21

panic15:                                          ; preds = %bb23
; call core::panicking::panic_null_pointer_dereference
  call void @_ZN4core9panicking30panic_null_pointer_dereference17hf718fcc86a223baaE(ptr align 8 @alloc_026e0387c7dcb345b8b3f04b6b228928) #7
  unreachable
}

; Function Attrs: nocallback nofree nosync nounwind speculatable willreturn memory(none)
declare { i64, i1 } @llvm.smul.with.overflow.i64(i64, i64) #3

; Function Attrs: nocallback nofree nosync nounwind speculatable willreturn memory(none)
declare { i64, i1 } @llvm.uadd.with.overflow.i64(i64, i64) #3

; core::panicking::panic_nounwind
; Function Attrs: cold noinline noreturn nounwind nonlazybind
declare void @_ZN4core9panicking14panic_nounwind17h211d9ce8d63f12e7E(ptr align 1, i64) unnamed_addr #4

; core::panicking::panic_null_pointer_dereference
; Function Attrs: cold minsize noinline noreturn nounwind nonlazybind optsize
declare void @_ZN4core9panicking30panic_null_pointer_dereference17hf718fcc86a223baaE(ptr align 8) unnamed_addr #5

; core::panicking::panic_const::panic_const_rem_overflow
; Function Attrs: cold noinline noreturn nounwind nonlazybind
declare void @_ZN4core9panicking11panic_const24panic_const_rem_overflow17h799fde26ff2294a6E(ptr align 8) unnamed_addr #4

; core::panicking::panic_bounds_check
; Function Attrs: cold minsize noinline noreturn nounwind nonlazybind optsize
declare void @_ZN4core9panicking18panic_bounds_check17h27d1e4f0cb1112dfE(i64, i64, ptr align 8) unnamed_addr #5

; core::panicking::panic_misaligned_pointer_dereference
; Function Attrs: cold minsize noinline noreturn nounwind nonlazybind optsize
declare void @_ZN4core9panicking36panic_misaligned_pointer_dereference17hcc3cbded9382b6e5E(i64, i64, ptr align 8) unnamed_addr #5

; Function Attrs: nounwind nonlazybind
declare i32 @printf(ptr, ...) unnamed_addr #2

; Function Attrs: nounwind nonlazybind
declare ptr @malloc(i64) unnamed_addr #2

; Function Attrs: nocallback nofree nounwind willreturn memory(argmem: write)
declare void @llvm.memset.p0.i64(ptr nocapture writeonly, i8, i64, i1 immarg) #6

attributes #0 = { cold nounwind nonlazybind "probe-stack"="inline-asm" "target-cpu"="x86-64" }
attributes #1 = { inlinehint nounwind nonlazybind "probe-stack"="inline-asm" "target-cpu"="x86-64" }
attributes #2 = { nounwind nonlazybind "probe-stack"="inline-asm" "target-cpu"="x86-64" }
attributes #3 = { nocallback nofree nosync nounwind speculatable willreturn memory(none) }
attributes #4 = { cold noinline noreturn nounwind nonlazybind "probe-stack"="inline-asm" "target-cpu"="x86-64" }
attributes #5 = { cold minsize noinline noreturn nounwind nonlazybind optsize "probe-stack"="inline-asm" "target-cpu"="x86-64" }
attributes #6 = { nocallback nofree nounwind willreturn memory(argmem: write) }
attributes #7 = { noreturn nounwind }
attributes #8 = { nounwind }

!llvm.module.flags = !{!0, !1}
!llvm.ident = !{!2}

!0 = !{i32 8, !"PIC Level", i32 2}
!1 = !{i32 2, !"RtLibUseGOT", i32 1}
!2 = !{!"rustc version 1.88.0-nightly (0b45675cf 2025-03-31)"}
