; ModuleID = '1ww58a3js0ychbz2wr1avrcvr'
source_filename = "1ww58a3js0ychbz2wr1avrcvr"
target datalayout = "e-m:e-p270:32:32-p271:32:32-p272:64:64-i64:64-i128:128-f80:128-n8:16:32:64-S128"
target triple = "x86_64-unknown-linux-gnu"

@alloc_f5ffd2fd1476bab43ad89fb40c72d0c5 = private unnamed_addr constant [10 x i8] c"src/lib.rs", align 1
@alloc_6d4b9a63a3a7d57837cacbb81faee635 = private unnamed_addr constant <{ ptr, [16 x i8] }> <{ ptr @alloc_f5ffd2fd1476bab43ad89fb40c72d0c5, [16 x i8] c"\0A\00\00\00\00\00\00\00#\00\00\00\05\00\00\00" }>, align 8
@alloc_1246e0776b198dcc257b8c1ce1bfa04e = private unnamed_addr constant <{ ptr, [16 x i8] }> <{ ptr @alloc_f5ffd2fd1476bab43ad89fb40c72d0c5, [16 x i8] c"\0A\00\00\00\00\00\00\00$\00\00\00\05\00\00\00" }>, align 8
@alloc_c03669db9c32bfa16e488e52e956abbc = private unnamed_addr constant <{ ptr, [16 x i8] }> <{ ptr @alloc_f5ffd2fd1476bab43ad89fb40c72d0c5, [16 x i8] c"\0A\00\00\00\00\00\00\00%\00\00\00\05\00\00\00" }>, align 8
@alloc_0b50959ea5d314dc6ee942953635721f = private unnamed_addr constant <{ ptr, [16 x i8] }> <{ ptr @alloc_f5ffd2fd1476bab43ad89fb40c72d0c5, [16 x i8] c"\0A\00\00\00\00\00\00\00&\00\00\00\05\00\00\00" }>, align 8
@alloc_678bf64db5e953ae120f598ce3d6a1c1 = private unnamed_addr constant <{ ptr, [16 x i8] }> <{ ptr @alloc_f5ffd2fd1476bab43ad89fb40c72d0c5, [16 x i8] c"\0A\00\00\00\00\00\00\002\00\00\00\0C\00\00\00" }>, align 8
@alloc_1329bca2388e2d1214b40b3911fe816b = private unnamed_addr constant <{ ptr, [16 x i8] }> <{ ptr @alloc_f5ffd2fd1476bab43ad89fb40c72d0c5, [16 x i8] c"\0A\00\00\00\00\00\00\009\00\00\00\13\00\00\00" }>, align 8
@alloc_49696661fe64eda390573e06cafb068d = private unnamed_addr constant <{ ptr, [16 x i8] }> <{ ptr @alloc_f5ffd2fd1476bab43ad89fb40c72d0c5, [16 x i8] c"\0A\00\00\00\00\00\00\009\00\00\00*\00\00\00" }>, align 8
@alloc_847773c163a44a523f7fa2352521f567 = private unnamed_addr constant <{ ptr, [16 x i8] }> <{ ptr @alloc_f5ffd2fd1476bab43ad89fb40c72d0c5, [16 x i8] c"\0A\00\00\00\00\00\00\00=\00\00\00\1C\00\00\00" }>, align 8
@alloc_f4486ad7124f7d5fe35cc2b8231b3765 = private unnamed_addr constant <{ ptr, [16 x i8] }> <{ ptr @alloc_f5ffd2fd1476bab43ad89fb40c72d0c5, [16 x i8] c"\0A\00\00\00\00\00\00\00>\00\00\00\1D\00\00\00" }>, align 8
@alloc_97b6e9eeafae4e34c39f5731f03026e0 = private unnamed_addr constant <{ ptr, [16 x i8] }> <{ ptr @alloc_f5ffd2fd1476bab43ad89fb40c72d0c5, [16 x i8] c"\0A\00\00\00\00\00\00\00?\00\00\00\05\00\00\00" }>, align 8
@alloc_a9bed11e068a4fa8759066f97915337d = private unnamed_addr constant <{ ptr, [16 x i8] }> <{ ptr @alloc_f5ffd2fd1476bab43ad89fb40c72d0c5, [16 x i8] c"\0A\00\00\00\00\00\00\00@\00\00\00\05\00\00\00" }>, align 8
@alloc_e5484d78bab2656545eab1472f1d10df = private unnamed_addr constant <{ ptr, [16 x i8] }> <{ ptr @alloc_f5ffd2fd1476bab43ad89fb40c72d0c5, [16 x i8] c"\0A\00\00\00\00\00\00\00A\00\00\00\1E\00\00\00" }>, align 8
@alloc_c9290f27dbd1629f8b7803da34b0b3dd = private unnamed_addr constant <{ ptr, [16 x i8] }> <{ ptr @alloc_f5ffd2fd1476bab43ad89fb40c72d0c5, [16 x i8] c"\0A\00\00\00\00\00\00\00A\00\00\001\00\00\00" }>, align 8
@alloc_73ed8ca87f1521c96876d2cdbb656763 = private unnamed_addr constant <{ ptr, [16 x i8] }> <{ ptr @alloc_f5ffd2fd1476bab43ad89fb40c72d0c5, [16 x i8] c"\0A\00\00\00\00\00\00\00A\00\00\00\05\00\00\00" }>, align 8
@alloc_64f8db5cdbadde946b451d90909e70da = private unnamed_addr constant <{ ptr, [16 x i8] }> <{ ptr @alloc_f5ffd2fd1476bab43ad89fb40c72d0c5, [16 x i8] c"\0A\00\00\00\00\00\00\00B\00\00\00\1E\00\00\00" }>, align 8
@alloc_563e372b172040f74652703a217a9c5b = private unnamed_addr constant <{ ptr, [16 x i8] }> <{ ptr @alloc_f5ffd2fd1476bab43ad89fb40c72d0c5, [16 x i8] c"\0A\00\00\00\00\00\00\00B\00\00\001\00\00\00" }>, align 8
@alloc_a0df31323749b968e53ac504f2af6406 = private unnamed_addr constant <{ ptr, [16 x i8] }> <{ ptr @alloc_f5ffd2fd1476bab43ad89fb40c72d0c5, [16 x i8] c"\0A\00\00\00\00\00\00\00B\00\00\00\05\00\00\00" }>, align 8
@alloc_dd559fb8f037406933e991d38c142d1c = private unnamed_addr constant <{ ptr, [16 x i8] }> <{ ptr @alloc_f5ffd2fd1476bab43ad89fb40c72d0c5, [16 x i8] c"\0A\00\00\00\00\00\00\00G\00\00\00\1C\00\00\00" }>, align 8
@alloc_6754e70ae808812597a00e32a8601e7a = private unnamed_addr constant <{ ptr, [16 x i8] }> <{ ptr @alloc_f5ffd2fd1476bab43ad89fb40c72d0c5, [16 x i8] c"\0A\00\00\00\00\00\00\00H\00\00\00\1D\00\00\00" }>, align 8
@alloc_5e508f8b25e8846369e349f2be531966 = private unnamed_addr constant <{ ptr, [16 x i8] }> <{ ptr @alloc_f5ffd2fd1476bab43ad89fb40c72d0c5, [16 x i8] c"\0A\00\00\00\00\00\00\00I\00\00\00\05\00\00\00" }>, align 8
@alloc_2b741aa80e9bacc62157d48afd5adfbd = private unnamed_addr constant <{ ptr, [16 x i8] }> <{ ptr @alloc_f5ffd2fd1476bab43ad89fb40c72d0c5, [16 x i8] c"\0A\00\00\00\00\00\00\00J\00\00\00\05\00\00\00" }>, align 8
@alloc_8378ccbbd275ebc12629c7b257d75ca5 = private unnamed_addr constant <{ ptr, [16 x i8] }> <{ ptr @alloc_f5ffd2fd1476bab43ad89fb40c72d0c5, [16 x i8] c"\0A\00\00\00\00\00\00\00K\00\00\00\1E\00\00\00" }>, align 8
@alloc_de2c630d8933cda21ee5236d0f90d396 = private unnamed_addr constant <{ ptr, [16 x i8] }> <{ ptr @alloc_f5ffd2fd1476bab43ad89fb40c72d0c5, [16 x i8] c"\0A\00\00\00\00\00\00\00K\00\00\001\00\00\00" }>, align 8
@alloc_2efa6fb076c65f88b785c700efd47dae = private unnamed_addr constant <{ ptr, [16 x i8] }> <{ ptr @alloc_f5ffd2fd1476bab43ad89fb40c72d0c5, [16 x i8] c"\0A\00\00\00\00\00\00\00K\00\00\00\05\00\00\00" }>, align 8
@alloc_b898ee0a4eec31bb8d23e1379a8b17b0 = private unnamed_addr constant <{ ptr, [16 x i8] }> <{ ptr @alloc_f5ffd2fd1476bab43ad89fb40c72d0c5, [16 x i8] c"\0A\00\00\00\00\00\00\00L\00\00\00\1E\00\00\00" }>, align 8
@alloc_7974c47f3f9cd990293da5f08b2161b9 = private unnamed_addr constant <{ ptr, [16 x i8] }> <{ ptr @alloc_f5ffd2fd1476bab43ad89fb40c72d0c5, [16 x i8] c"\0A\00\00\00\00\00\00\00L\00\00\001\00\00\00" }>, align 8
@alloc_1ed964aab6d6c3d3f78f16bf85f3fad7 = private unnamed_addr constant <{ ptr, [16 x i8] }> <{ ptr @alloc_f5ffd2fd1476bab43ad89fb40c72d0c5, [16 x i8] c"\0A\00\00\00\00\00\00\00L\00\00\00\05\00\00\00" }>, align 8
@alloc_b929c71616281bfd1be2bd4038d3ddf1 = private unnamed_addr constant [4 x i8] c"%d \00", align 1
@alloc_ddcbe98c939b55f6d501e1d2eb22525e = private unnamed_addr constant <{ ptr, [16 x i8] }> <{ ptr @alloc_f5ffd2fd1476bab43ad89fb40c72d0c5, [16 x i8] c"\0A\00\00\00\00\00\00\00T\00\00\00:\00\00\00" }>, align 8
@alloc_c255e342facc2afd2c45baad05452b27 = private unnamed_addr constant <{ ptr, [16 x i8] }> <{ ptr @alloc_f5ffd2fd1476bab43ad89fb40c72d0c5, [16 x i8] c"\0A\00\00\00\00\00\00\00U\00\00\00\0E\00\00\00" }>, align 8
@alloc_3f624d0e00ec4d72a60a5f7bf228b714 = private unnamed_addr constant <{ ptr, [16 x i8] }> <{ ptr @alloc_f5ffd2fd1476bab43ad89fb40c72d0c5, [16 x i8] c"\0A\00\00\00\00\00\00\00V\00\00\00\0E\00\00\00" }>, align 8
@alloc_ae1d07cf3bcdade90c7f1a983b1d5612 = private unnamed_addr constant <{ ptr, [16 x i8] }> <{ ptr @alloc_f5ffd2fd1476bab43ad89fb40c72d0c5, [16 x i8] c"\0A\00\00\00\00\00\00\00Z\00\00\00\0C\00\00\00" }>, align 8
@alloc_0256b51cd303b4e9f5d46bf5a7b28fd7 = private unnamed_addr constant <{ ptr, [16 x i8] }> <{ ptr @alloc_f5ffd2fd1476bab43ad89fb40c72d0c5, [16 x i8] c"\0A\00\00\00\00\00\00\00[\00\00\00\10\00\00\00" }>, align 8
@alloc_a062cf032a11ee1b3911b66d09503066 = private unnamed_addr constant <{ ptr, [16 x i8] }> <{ ptr @alloc_f5ffd2fd1476bab43ad89fb40c72d0c5, [16 x i8] c"\0A\00\00\00\00\00\00\00g\00\00\00\0F\00\00\00" }>, align 8
@alloc_2cf42b0fdaeadc6f54a2282882a92b44 = private unnamed_addr constant <{ ptr, [16 x i8] }> <{ ptr @alloc_f5ffd2fd1476bab43ad89fb40c72d0c5, [16 x i8] c"\0A\00\00\00\00\00\00\00i\00\00\00\16\00\00\00" }>, align 8
@alloc_2e490f627ed35a672bde60e6350ad589 = private unnamed_addr constant <{ ptr, [16 x i8] }> <{ ptr @alloc_f5ffd2fd1476bab43ad89fb40c72d0c5, [16 x i8] c"\0A\00\00\00\00\00\00\00k\00\00\00\0F\00\00\00" }>, align 8
@alloc_55102f9e036db67e30f211f42d2dd556 = private unnamed_addr constant <{ ptr, [16 x i8] }> <{ ptr @alloc_f5ffd2fd1476bab43ad89fb40c72d0c5, [16 x i8] c"\0A\00\00\00\00\00\00\00k\00\00\00,\00\00\00" }>, align 8
@alloc_921ab8fb4183db0b691c947907ce7f02 = private unnamed_addr constant <{ ptr, [16 x i8] }> <{ ptr @alloc_f5ffd2fd1476bab43ad89fb40c72d0c5, [16 x i8] c"\0A\00\00\00\00\00\00\00n\00\00\00\10\00\00\00" }>, align 8
@alloc_13ad41adde7e4c6a1e95f829e6ab1aa3 = private unnamed_addr constant <{ ptr, [16 x i8] }> <{ ptr @alloc_f5ffd2fd1476bab43ad89fb40c72d0c5, [16 x i8] c"\0A\00\00\00\00\00\00\00n\00\00\00,\00\00\00" }>, align 8
@alloc_47bdae9ddfb55168c3fe4561aba8fcb6 = private unnamed_addr constant <{ ptr, [16 x i8] }> <{ ptr @alloc_f5ffd2fd1476bab43ad89fb40c72d0c5, [16 x i8] c"\0A\00\00\00\00\00\00\00o\00\00\00#\00\00\00" }>, align 8
@alloc_bb2dcecb12feab45d054c27de6bf0f4f = private unnamed_addr constant <{ ptr, [16 x i8] }> <{ ptr @alloc_f5ffd2fd1476bab43ad89fb40c72d0c5, [16 x i8] c"\0A\00\00\00\00\00\00\00p\00\00\00\10\00\00\00" }>, align 8
@alloc_9d85c936691d992c00ac173cf65a3071 = private unnamed_addr constant <{ ptr, [16 x i8] }> <{ ptr @alloc_f5ffd2fd1476bab43ad89fb40c72d0c5, [16 x i8] c"\0A\00\00\00\00\00\00\00r\00\00\00\10\00\00\00" }>, align 8
@alloc_2e588b81eca2c08f37a448cb167d27f5 = private unnamed_addr constant <{ ptr, [16 x i8] }> <{ ptr @alloc_f5ffd2fd1476bab43ad89fb40c72d0c5, [16 x i8] c"\0A\00\00\00\00\00\00\00r\00\00\00-\00\00\00" }>, align 8
@alloc_f096eaefcd1f9967a23ae43337faac6d = private unnamed_addr constant <{ ptr, [16 x i8] }> <{ ptr @alloc_f5ffd2fd1476bab43ad89fb40c72d0c5, [16 x i8] c"\0A\00\00\00\00\00\00\00s\00\00\00%\00\00\00" }>, align 8
@alloc_b9fd4919d369efae790d15dc74509a6b = private unnamed_addr constant <{ ptr, [16 x i8] }> <{ ptr @alloc_f5ffd2fd1476bab43ad89fb40c72d0c5, [16 x i8] c"\0A\00\00\00\00\00\00\00t\00\00\00\10\00\00\00" }>, align 8
@alloc_9f05d8c371444e1bc8b8eaaa2883ed24 = private unnamed_addr constant <{ ptr, [16 x i8] }> <{ ptr @alloc_f5ffd2fd1476bab43ad89fb40c72d0c5, [16 x i8] c"\0A\00\00\00\00\00\00\00w\00\00\00-\00\00\00" }>, align 8
@alloc_58555e3e45414e971aa9ef0596236238 = private unnamed_addr constant <{ ptr, [16 x i8] }> <{ ptr @alloc_f5ffd2fd1476bab43ad89fb40c72d0c5, [16 x i8] c"\0A\00\00\00\00\00\00\00x\00\00\00\18\00\00\00" }>, align 8
@alloc_a988a53895c5e8cd3f2b29e497141d75 = private unnamed_addr constant <{ ptr, [16 x i8] }> <{ ptr @alloc_f5ffd2fd1476bab43ad89fb40c72d0c5, [16 x i8] c"\0A\00\00\00\00\00\00\00x\00\00\00\09\00\00\00" }>, align 8
@alloc_64e8b3e390bb78848e9160efe3bfe85d = private unnamed_addr constant <{ ptr, [16 x i8] }> <{ ptr @alloc_f5ffd2fd1476bab43ad89fb40c72d0c5, [16 x i8] c"\0A\00\00\00\00\00\00\00y\00\00\00 \00\00\00" }>, align 8
@alloc_8696f842d14e31204e7b653ea78a0fde = private unnamed_addr constant <{ ptr, [16 x i8] }> <{ ptr @alloc_f5ffd2fd1476bab43ad89fb40c72d0c5, [16 x i8] c"\0A\00\00\00\00\00\00\00y\00\00\00/\00\00\00" }>, align 8
@alloc_0dd16aee46f951f9f6b160990237c72e = private unnamed_addr constant <{ ptr, [16 x i8] }> <{ ptr @alloc_f5ffd2fd1476bab43ad89fb40c72d0c5, [16 x i8] c"\0A\00\00\00\00\00\00\00y\00\00\00\09\00\00\00" }>, align 8
@alloc_a4c7f22df374b09066a17878168fae45 = private unnamed_addr constant <{ ptr, [16 x i8] }> <{ ptr @alloc_f5ffd2fd1476bab43ad89fb40c72d0c5, [16 x i8] c"\0A\00\00\00\00\00\00\00j\00\00\00 \00\00\00" }>, align 8
@alloc_fdc5f6fe634689cdbcb2296e8963e5df = private unnamed_addr constant <{ ptr, [16 x i8] }> <{ ptr @alloc_f5ffd2fd1476bab43ad89fb40c72d0c5, [16 x i8] c"\0A\00\00\00\00\00\00\00j\00\00\00\09\00\00\00" }>, align 8
@alloc_01af410e3ec4ae482675c118b1548b48 = private unnamed_addr constant <{ ptr, [16 x i8] }> <{ ptr @alloc_f5ffd2fd1476bab43ad89fb40c72d0c5, [16 x i8] c"\0A\00\00\00\00\00\00\00h\00\00\00\1F\00\00\00" }>, align 8
@alloc_1aa9c3ab3ec38e0d3207d2e5ac4937bd = private unnamed_addr constant <{ ptr, [16 x i8] }> <{ ptr @alloc_f5ffd2fd1476bab43ad89fb40c72d0c5, [16 x i8] c"\0A\00\00\00\00\00\00\00h\00\00\00\09\00\00\00" }>, align 8
@alloc_47c3f72a2d5278c6c8bd778348afee80 = private unnamed_addr constant <{ ptr, [16 x i8] }> <{ ptr @alloc_f5ffd2fd1476bab43ad89fb40c72d0c5, [16 x i8] c"\0A\00\00\00\00\00\00\00~\00\00\004\00\00\00" }>, align 8
@alloc_d054441965044b1d325800588462e462 = private unnamed_addr constant <{ ptr, [16 x i8] }> <{ ptr @alloc_f5ffd2fd1476bab43ad89fb40c72d0c5, [16 x i8] c"\0A\00\00\00\00\00\00\00~\00\00\00J\00\00\00" }>, align 8
@alloc_2d10d109c7752ea3dc42b94ce8ed6bb6 = private unnamed_addr constant <{ ptr, [16 x i8] }> <{ ptr @alloc_f5ffd2fd1476bab43ad89fb40c72d0c5, [16 x i8] c"\0A\00\00\00\00\00\00\00~\00\00\00\05\00\00\00" }>, align 8
@alloc_e00bd70c2acfee9dd5dbdbb25898871e = private unnamed_addr constant <{ ptr, [16 x i8] }> <{ ptr @alloc_f5ffd2fd1476bab43ad89fb40c72d0c5, [16 x i8] c"\0A\00\00\00\00\00\00\00\80\00\00\00.\00\00\00" }>, align 8
@alloc_7db8c138cbc4817c2793c3e463dbd765 = private unnamed_addr constant <{ ptr, [16 x i8] }> <{ ptr @alloc_f5ffd2fd1476bab43ad89fb40c72d0c5, [16 x i8] c"\0A\00\00\00\00\00\00\00\83\00\00\001\00\00\00" }>, align 8
@alloc_be23a62c977991a6611bfaafb8f21f3f = private unnamed_addr constant <{ ptr, [16 x i8] }> <{ ptr @alloc_f5ffd2fd1476bab43ad89fb40c72d0c5, [16 x i8] c"\0A\00\00\00\00\00\00\00\86\00\00\00.\00\00\00" }>, align 8
@alloc_e7a92dcb4a0adc7a5fe9bd61a8dc3fc3 = private unnamed_addr constant <{ ptr, [16 x i8] }> <{ ptr @alloc_f5ffd2fd1476bab43ad89fb40c72d0c5, [16 x i8] c"\0A\00\00\00\00\00\00\00\8A\00\00\001\00\00\00" }>, align 8
@alloc_2b0e9c7a73dbe60b4abaaa25b92c50c7 = private unnamed_addr constant <{ ptr, [16 x i8] }> <{ ptr @alloc_f5ffd2fd1476bab43ad89fb40c72d0c5, [16 x i8] c"\0A\00\00\00\00\00\00\00\8B\00\00\00%\00\00\00" }>, align 8
@alloc_847817f60a835e11a29d83b54122ef92 = private unnamed_addr constant <{ ptr, [16 x i8] }> <{ ptr @alloc_f5ffd2fd1476bab43ad89fb40c72d0c5, [16 x i8] c"\0A\00\00\00\00\00\00\00\8B\00\00\00\09\00\00\00" }>, align 8
@alloc_89e54353945960c34b7ec709e954720f = private unnamed_addr constant <{ ptr, [16 x i8] }> <{ ptr @alloc_f5ffd2fd1476bab43ad89fb40c72d0c5, [16 x i8] c"\0A\00\00\00\00\00\00\00\87\00\00\00#\00\00\00" }>, align 8
@alloc_fa7cb792d868834bda8b7d5900da621b = private unnamed_addr constant <{ ptr, [16 x i8] }> <{ ptr @alloc_f5ffd2fd1476bab43ad89fb40c72d0c5, [16 x i8] c"\0A\00\00\00\00\00\00\00\87\00\00\00\09\00\00\00" }>, align 8
@alloc_b4d74324b3096d801f2e71f13efb1d03 = private unnamed_addr constant <{ ptr, [16 x i8] }> <{ ptr @alloc_f5ffd2fd1476bab43ad89fb40c72d0c5, [16 x i8] c"\0A\00\00\00\00\00\00\00\98\00\00\00\0F\00\00\00" }>, align 8
@alloc_b2840952ea47fe32ec7b9626057347cc = private unnamed_addr constant <{ ptr, [16 x i8] }> <{ ptr @alloc_f5ffd2fd1476bab43ad89fb40c72d0c5, [16 x i8] c"\0A\00\00\00\00\00\00\00\9A\00\00\00\16\00\00\00" }>, align 8
@alloc_19867066635710319d0f19d2636647e1 = private unnamed_addr constant <{ ptr, [16 x i8] }> <{ ptr @alloc_f5ffd2fd1476bab43ad89fb40c72d0c5, [16 x i8] c"\0A\00\00\00\00\00\00\00\9B\00\00\00 \00\00\00" }>, align 8
@alloc_5f7af6f0b30d25daf9912bab84da9bdc = private unnamed_addr constant <{ ptr, [16 x i8] }> <{ ptr @alloc_f5ffd2fd1476bab43ad89fb40c72d0c5, [16 x i8] c"\0A\00\00\00\00\00\00\00\9B\00\00\00\09\00\00\00" }>, align 8
@alloc_d0c2440eb00a33f6b37396c6b8bc64ef = private unnamed_addr constant <{ ptr, [16 x i8] }> <{ ptr @alloc_f5ffd2fd1476bab43ad89fb40c72d0c5, [16 x i8] c"\0A\00\00\00\00\00\00\00\99\00\00\00\1F\00\00\00" }>, align 8
@alloc_7fed4a1089f77536642fd43c2a992067 = private unnamed_addr constant <{ ptr, [16 x i8] }> <{ ptr @alloc_f5ffd2fd1476bab43ad89fb40c72d0c5, [16 x i8] c"\0A\00\00\00\00\00\00\00\99\00\00\00\09\00\00\00" }>, align 8
@alloc_c4f5b5d7f8712adf31aa5aea1797bae8 = private unnamed_addr constant <{ ptr, [16 x i8] }> <{ ptr @alloc_f5ffd2fd1476bab43ad89fb40c72d0c5, [16 x i8] c"\0A\00\00\00\00\00\00\00\9F\00\00\00!\00\00\00" }>, align 8
@alloc_801c025f8be728a4d212806268e13b17 = private unnamed_addr constant <{ ptr, [16 x i8] }> <{ ptr @alloc_f5ffd2fd1476bab43ad89fb40c72d0c5, [16 x i8] c"\0A\00\00\00\00\00\00\00\9F\00\00\007\00\00\00" }>, align 8
@alloc_fc7874fb1a27689c0b99ab6550ca627c = private unnamed_addr constant <{ ptr, [16 x i8] }> <{ ptr @alloc_f5ffd2fd1476bab43ad89fb40c72d0c5, [16 x i8] c"\0A\00\00\00\00\00\00\00\9F\00\00\00\05\00\00\00" }>, align 8
@alloc_c4672201980cf14015c5d521aee9a784 = private unnamed_addr constant <{ ptr, [16 x i8] }> <{ ptr @alloc_f5ffd2fd1476bab43ad89fb40c72d0c5, [16 x i8] c"\0A\00\00\00\00\00\00\00\A1\00\00\00-\00\00\00" }>, align 8
@alloc_c282628ede8b5f6204c75558e451c2e2 = private unnamed_addr constant <{ ptr, [16 x i8] }> <{ ptr @alloc_f5ffd2fd1476bab43ad89fb40c72d0c5, [16 x i8] c"\0A\00\00\00\00\00\00\00\A4\00\00\000\00\00\00" }>, align 8
@alloc_bde57b8a92b7312d16b6f3afae619597 = private unnamed_addr constant <{ ptr, [16 x i8] }> <{ ptr @alloc_f5ffd2fd1476bab43ad89fb40c72d0c5, [16 x i8] c"\0A\00\00\00\00\00\00\00\A7\00\00\00-\00\00\00" }>, align 8
@alloc_c30b0b0dd0089dab181193a485836d4a = private unnamed_addr constant <{ ptr, [16 x i8] }> <{ ptr @alloc_f5ffd2fd1476bab43ad89fb40c72d0c5, [16 x i8] c"\0A\00\00\00\00\00\00\00\AB\00\00\000\00\00\00" }>, align 8
@alloc_1f1fca2b59589e8e5b1eb00b0bd022c6 = private unnamed_addr constant <{ ptr, [16 x i8] }> <{ ptr @alloc_f5ffd2fd1476bab43ad89fb40c72d0c5, [16 x i8] c"\0A\00\00\00\00\00\00\00\AC\00\00\00%\00\00\00" }>, align 8
@alloc_890e3b3a25c12a3f0a281636771a45de = private unnamed_addr constant <{ ptr, [16 x i8] }> <{ ptr @alloc_f5ffd2fd1476bab43ad89fb40c72d0c5, [16 x i8] c"\0A\00\00\00\00\00\00\00\AC\00\00\00\09\00\00\00" }>, align 8
@alloc_15d23902aaadafde9865c77c53199a16 = private unnamed_addr constant <{ ptr, [16 x i8] }> <{ ptr @alloc_f5ffd2fd1476bab43ad89fb40c72d0c5, [16 x i8] c"\0A\00\00\00\00\00\00\00\A8\00\00\00#\00\00\00" }>, align 8
@alloc_d5bcf93b2d7c8194211c52721551334d = private unnamed_addr constant <{ ptr, [16 x i8] }> <{ ptr @alloc_f5ffd2fd1476bab43ad89fb40c72d0c5, [16 x i8] c"\0A\00\00\00\00\00\00\00\A8\00\00\00\09\00\00\00" }>, align 8

; core::ptr::mut_ptr::<impl *mut T>::is_null
; Function Attrs: inlinehint nounwind nonlazybind
define internal zeroext i1 @"_ZN4core3ptr7mut_ptr31_$LT$impl$u20$$BP$mut$u20$T$GT$7is_null17he433ed47c4dbfb9eE"(ptr %self) unnamed_addr #0 {
start:
  %_3 = ptrtoint ptr %self to i64
  %_0 = icmp eq i64 %_3, 0
  ret i1 %_0
}

; Function Attrs: nounwind nonlazybind
define ptr @NewNode(i32 %data) unnamed_addr #1 {
start:
  %_2 = call ptr @malloc(i64 24) #3
  %_24 = ptrtoint ptr %_2 to i64
  %_27 = and i64 %_24, 7
  %_28 = icmp eq i64 %_27, 0
  br i1 %_28, label %bb6, label %panic

bb6:                                              ; preds = %start
  %_30 = ptrtoint ptr %_2 to i64
  %_33 = icmp eq i64 %_30, 0
  %_34 = and i1 %_33, true
  %_35 = xor i1 %_34, true
  br i1 %_35, label %bb7, label %panic1

panic:                                            ; preds = %start
; call core::panicking::panic_misaligned_pointer_dereference
  call void @_ZN4core9panicking36panic_misaligned_pointer_dereference17hcc3cbded9382b6e5E(i64 8, i64 %_24, ptr align 8 @alloc_6d4b9a63a3a7d57837cacbb81faee635) #4
  unreachable

bb7:                                              ; preds = %bb6
  store i32 %data, ptr %_2, align 8
  %_18 = ptrtoint ptr %_2 to i64
  %_21 = and i64 %_18, 7
  %_22 = icmp eq i64 %_21, 0
  br i1 %_22, label %bb5, label %panic2

panic1:                                           ; preds = %bb6
; call core::panicking::panic_null_pointer_dereference
  call void @_ZN4core9panicking30panic_null_pointer_dereference17hf718fcc86a223baaE(ptr align 8 @alloc_6d4b9a63a3a7d57837cacbb81faee635) #4
  unreachable

bb5:                                              ; preds = %bb7
  %_37 = ptrtoint ptr %_2 to i64
  %_40 = icmp eq i64 %_37, 0
  %_41 = and i1 %_40, true
  %_42 = xor i1 %_41, true
  br i1 %_42, label %bb8, label %panic3

panic2:                                           ; preds = %bb7
; call core::panicking::panic_misaligned_pointer_dereference
  call void @_ZN4core9panicking36panic_misaligned_pointer_dereference17hcc3cbded9382b6e5E(i64 8, i64 %_18, ptr align 8 @alloc_1246e0776b198dcc257b8c1ce1bfa04e) #4
  unreachable

bb8:                                              ; preds = %bb5
  %0 = getelementptr inbounds i8, ptr %_2, i64 8
  store ptr null, ptr %0, align 8
  %_12 = ptrtoint ptr %_2 to i64
  %_15 = and i64 %_12, 7
  %_16 = icmp eq i64 %_15, 0
  br i1 %_16, label %bb4, label %panic4

panic3:                                           ; preds = %bb5
; call core::panicking::panic_null_pointer_dereference
  call void @_ZN4core9panicking30panic_null_pointer_dereference17hf718fcc86a223baaE(ptr align 8 @alloc_1246e0776b198dcc257b8c1ce1bfa04e) #4
  unreachable

bb4:                                              ; preds = %bb8
  %_44 = ptrtoint ptr %_2 to i64
  %_47 = icmp eq i64 %_44, 0
  %_48 = and i1 %_47, true
  %_49 = xor i1 %_48, true
  br i1 %_49, label %bb9, label %panic5

panic4:                                           ; preds = %bb8
; call core::panicking::panic_misaligned_pointer_dereference
  call void @_ZN4core9panicking36panic_misaligned_pointer_dereference17hcc3cbded9382b6e5E(i64 8, i64 %_12, ptr align 8 @alloc_c03669db9c32bfa16e488e52e956abbc) #4
  unreachable

bb9:                                              ; preds = %bb4
  %1 = getelementptr inbounds i8, ptr %_2, i64 16
  store ptr null, ptr %1, align 8
  %_6 = ptrtoint ptr %_2 to i64
  %_9 = and i64 %_6, 7
  %_10 = icmp eq i64 %_9, 0
  br i1 %_10, label %bb3, label %panic6

panic5:                                           ; preds = %bb4
; call core::panicking::panic_null_pointer_dereference
  call void @_ZN4core9panicking30panic_null_pointer_dereference17hf718fcc86a223baaE(ptr align 8 @alloc_c03669db9c32bfa16e488e52e956abbc) #4
  unreachable

bb3:                                              ; preds = %bb9
  %_51 = ptrtoint ptr %_2 to i64
  %_54 = icmp eq i64 %_51, 0
  %_55 = and i1 %_54, true
  %_56 = xor i1 %_55, true
  br i1 %_56, label %bb10, label %panic7

panic6:                                           ; preds = %bb9
; call core::panicking::panic_misaligned_pointer_dereference
  call void @_ZN4core9panicking36panic_misaligned_pointer_dereference17hcc3cbded9382b6e5E(i64 8, i64 %_6, ptr align 8 @alloc_0b50959ea5d314dc6ee942953635721f) #4
  unreachable

bb10:                                             ; preds = %bb3
  %2 = getelementptr inbounds i8, ptr %_2, i64 4
  store i32 1, ptr %2, align 4
  ret ptr %_2

panic7:                                           ; preds = %bb3
; call core::panicking::panic_null_pointer_dereference
  call void @_ZN4core9panicking30panic_null_pointer_dereference17hf718fcc86a223baaE(ptr align 8 @alloc_0b50959ea5d314dc6ee942953635721f) #4
  unreachable
}

; Function Attrs: nounwind nonlazybind
define i32 @max(i32 %a, i32 %b) unnamed_addr #1 {
start:
  %_0 = alloca [4 x i8], align 4
  %_3 = icmp sgt i32 %a, %b
  br i1 %_3, label %bb1, label %bb2

bb2:                                              ; preds = %start
  store i32 %b, ptr %_0, align 4
  br label %bb3

bb1:                                              ; preds = %start
  store i32 %a, ptr %_0, align 4
  br label %bb3

bb3:                                              ; preds = %bb1, %bb2
  %0 = load i32, ptr %_0, align 4
  ret i32 %0
}

; Function Attrs: nounwind nonlazybind
define i32 @height(ptr %node) unnamed_addr #1 {
start:
  %_0 = alloca [4 x i8], align 4
; call core::ptr::mut_ptr::<impl *mut T>::is_null
  %_2 = call zeroext i1 @"_ZN4core3ptr7mut_ptr31_$LT$impl$u20$$BP$mut$u20$T$GT$7is_null17he433ed47c4dbfb9eE"(ptr %node) #3
  br i1 %_2, label %bb2, label %bb3

bb3:                                              ; preds = %start
  %_4 = ptrtoint ptr %node to i64
  %_7 = and i64 %_4, 7
  %_8 = icmp eq i64 %_7, 0
  br i1 %_8, label %bb5, label %panic

bb2:                                              ; preds = %start
  store i32 0, ptr %_0, align 4
  br label %bb4

bb5:                                              ; preds = %bb3
  %_10 = ptrtoint ptr %node to i64
  %_13 = icmp eq i64 %_10, 0
  %_14 = and i1 %_13, true
  %_15 = xor i1 %_14, true
  br i1 %_15, label %bb6, label %panic1

panic:                                            ; preds = %bb3
; call core::panicking::panic_misaligned_pointer_dereference
  call void @_ZN4core9panicking36panic_misaligned_pointer_dereference17hcc3cbded9382b6e5E(i64 8, i64 %_4, ptr align 8 @alloc_678bf64db5e953ae120f598ce3d6a1c1) #4
  unreachable

bb6:                                              ; preds = %bb5
  %0 = getelementptr inbounds i8, ptr %node, i64 4
  %1 = load i32, ptr %0, align 4
  store i32 %1, ptr %_0, align 4
  br label %bb4

panic1:                                           ; preds = %bb5
; call core::panicking::panic_null_pointer_dereference
  call void @_ZN4core9panicking30panic_null_pointer_dereference17hf718fcc86a223baaE(ptr align 8 @alloc_678bf64db5e953ae120f598ce3d6a1c1) #4
  unreachable

bb4:                                              ; preds = %bb2, %bb6
  %2 = load i32, ptr %_0, align 4
  ret i32 %2
}

; Function Attrs: nounwind nonlazybind
define i32 @Balance(ptr %node) unnamed_addr #1 {
start:
  %_0 = alloca [4 x i8], align 4
; call core::ptr::mut_ptr::<impl *mut T>::is_null
  %_2 = call zeroext i1 @"_ZN4core3ptr7mut_ptr31_$LT$impl$u20$$BP$mut$u20$T$GT$7is_null17he433ed47c4dbfb9eE"(ptr %node) #3
  br i1 %_2, label %bb2, label %bb3

bb3:                                              ; preds = %start
  %_14 = ptrtoint ptr %node to i64
  %_17 = and i64 %_14, 7
  %_18 = icmp eq i64 %_17, 0
  br i1 %_18, label %bb8, label %panic

bb2:                                              ; preds = %start
  store i32 0, ptr %_0, align 4
  br label %bb6

bb8:                                              ; preds = %bb3
  %_20 = ptrtoint ptr %node to i64
  %_23 = icmp eq i64 %_20, 0
  %_24 = and i1 %_23, true
  %_25 = xor i1 %_24, true
  br i1 %_25, label %bb9, label %panic1

panic:                                            ; preds = %bb3
; call core::panicking::panic_misaligned_pointer_dereference
  call void @_ZN4core9panicking36panic_misaligned_pointer_dereference17hcc3cbded9382b6e5E(i64 8, i64 %_14, ptr align 8 @alloc_1329bca2388e2d1214b40b3911fe816b) #4
  unreachable

bb9:                                              ; preds = %bb8
  %0 = getelementptr inbounds i8, ptr %node, i64 8
  %_4 = load ptr, ptr %0, align 8
  %_3 = call i32 @height(ptr %_4) #3
  %_8 = ptrtoint ptr %node to i64
  %_11 = and i64 %_8, 7
  %_12 = icmp eq i64 %_11, 0
  br i1 %_12, label %bb7, label %panic2

panic1:                                           ; preds = %bb8
; call core::panicking::panic_null_pointer_dereference
  call void @_ZN4core9panicking30panic_null_pointer_dereference17hf718fcc86a223baaE(ptr align 8 @alloc_1329bca2388e2d1214b40b3911fe816b) #4
  unreachable

bb7:                                              ; preds = %bb9
  %_27 = ptrtoint ptr %node to i64
  %_30 = icmp eq i64 %_27, 0
  %_31 = and i1 %_30, true
  %_32 = xor i1 %_31, true
  br i1 %_32, label %bb10, label %panic3

panic2:                                           ; preds = %bb9
; call core::panicking::panic_misaligned_pointer_dereference
  call void @_ZN4core9panicking36panic_misaligned_pointer_dereference17hcc3cbded9382b6e5E(i64 8, i64 %_8, ptr align 8 @alloc_49696661fe64eda390573e06cafb068d) #4
  unreachable

bb10:                                             ; preds = %bb7
  %1 = getelementptr inbounds i8, ptr %node, i64 16
  %_6 = load ptr, ptr %1, align 8
  %_5 = call i32 @height(ptr %_6) #3
  %2 = sub i32 %_3, %_5
  store i32 %2, ptr %_0, align 4
  br label %bb6

panic3:                                           ; preds = %bb7
; call core::panicking::panic_null_pointer_dereference
  call void @_ZN4core9panicking30panic_null_pointer_dereference17hf718fcc86a223baaE(ptr align 8 @alloc_49696661fe64eda390573e06cafb068d) #4
  unreachable

bb6:                                              ; preds = %bb2, %bb10
  %3 = load i32, ptr %_0, align 4
  ret i32 %3
}

; Function Attrs: nounwind nonlazybind
define ptr @LeftRotate(ptr %z) unnamed_addr #1 {
start:
  %_68 = ptrtoint ptr %z to i64
  %_71 = and i64 %_68, 7
  %_72 = icmp eq i64 %_71, 0
  br i1 %_72, label %bb16, label %panic

bb16:                                             ; preds = %start
  %_74 = ptrtoint ptr %z to i64
  %_77 = icmp eq i64 %_74, 0
  %_78 = and i1 %_77, true
  %_79 = xor i1 %_78, true
  br i1 %_79, label %bb17, label %panic1

panic:                                            ; preds = %start
; call core::panicking::panic_misaligned_pointer_dereference
  call void @_ZN4core9panicking36panic_misaligned_pointer_dereference17hcc3cbded9382b6e5E(i64 8, i64 %_68, ptr align 8 @alloc_847773c163a44a523f7fa2352521f567) #4
  unreachable

bb17:                                             ; preds = %bb16
  %0 = getelementptr inbounds i8, ptr %z, i64 16
  %y = load ptr, ptr %0, align 8
  %_62 = ptrtoint ptr %y to i64
  %_65 = and i64 %_62, 7
  %_66 = icmp eq i64 %_65, 0
  br i1 %_66, label %bb15, label %panic2

panic1:                                           ; preds = %bb16
; call core::panicking::panic_null_pointer_dereference
  call void @_ZN4core9panicking30panic_null_pointer_dereference17hf718fcc86a223baaE(ptr align 8 @alloc_847773c163a44a523f7fa2352521f567) #4
  unreachable

bb15:                                             ; preds = %bb17
  %_81 = ptrtoint ptr %y to i64
  %_84 = icmp eq i64 %_81, 0
  %_85 = and i1 %_84, true
  %_86 = xor i1 %_85, true
  br i1 %_86, label %bb18, label %panic3

panic2:                                           ; preds = %bb17
; call core::panicking::panic_misaligned_pointer_dereference
  call void @_ZN4core9panicking36panic_misaligned_pointer_dereference17hcc3cbded9382b6e5E(i64 8, i64 %_62, ptr align 8 @alloc_f4486ad7124f7d5fe35cc2b8231b3765) #4
  unreachable

bb18:                                             ; preds = %bb15
  %1 = getelementptr inbounds i8, ptr %y, i64 8
  %t2 = load ptr, ptr %1, align 8
  %_56 = ptrtoint ptr %y to i64
  %_59 = and i64 %_56, 7
  %_60 = icmp eq i64 %_59, 0
  br i1 %_60, label %bb14, label %panic4

panic3:                                           ; preds = %bb15
; call core::panicking::panic_null_pointer_dereference
  call void @_ZN4core9panicking30panic_null_pointer_dereference17hf718fcc86a223baaE(ptr align 8 @alloc_f4486ad7124f7d5fe35cc2b8231b3765) #4
  unreachable

bb14:                                             ; preds = %bb18
  %_88 = ptrtoint ptr %y to i64
  %_91 = icmp eq i64 %_88, 0
  %_92 = and i1 %_91, true
  %_93 = xor i1 %_92, true
  br i1 %_93, label %bb19, label %panic5

panic4:                                           ; preds = %bb18
; call core::panicking::panic_misaligned_pointer_dereference
  call void @_ZN4core9panicking36panic_misaligned_pointer_dereference17hcc3cbded9382b6e5E(i64 8, i64 %_56, ptr align 8 @alloc_97b6e9eeafae4e34c39f5731f03026e0) #4
  unreachable

bb19:                                             ; preds = %bb14
  %2 = getelementptr inbounds i8, ptr %y, i64 8
  store ptr %z, ptr %2, align 8
  %_50 = ptrtoint ptr %z to i64
  %_53 = and i64 %_50, 7
  %_54 = icmp eq i64 %_53, 0
  br i1 %_54, label %bb13, label %panic6

panic5:                                           ; preds = %bb14
; call core::panicking::panic_null_pointer_dereference
  call void @_ZN4core9panicking30panic_null_pointer_dereference17hf718fcc86a223baaE(ptr align 8 @alloc_97b6e9eeafae4e34c39f5731f03026e0) #4
  unreachable

bb13:                                             ; preds = %bb19
  %_95 = ptrtoint ptr %z to i64
  %_98 = icmp eq i64 %_95, 0
  %_99 = and i1 %_98, true
  %_100 = xor i1 %_99, true
  br i1 %_100, label %bb20, label %panic7

panic6:                                           ; preds = %bb19
; call core::panicking::panic_misaligned_pointer_dereference
  call void @_ZN4core9panicking36panic_misaligned_pointer_dereference17hcc3cbded9382b6e5E(i64 8, i64 %_50, ptr align 8 @alloc_a9bed11e068a4fa8759066f97915337d) #4
  unreachable

bb20:                                             ; preds = %bb13
  %3 = getelementptr inbounds i8, ptr %z, i64 16
  store ptr %t2, ptr %3, align 8
  %_44 = ptrtoint ptr %z to i64
  %_47 = and i64 %_44, 7
  %_48 = icmp eq i64 %_47, 0
  br i1 %_48, label %bb12, label %panic8

panic7:                                           ; preds = %bb13
; call core::panicking::panic_null_pointer_dereference
  call void @_ZN4core9panicking30panic_null_pointer_dereference17hf718fcc86a223baaE(ptr align 8 @alloc_a9bed11e068a4fa8759066f97915337d) #4
  unreachable

bb12:                                             ; preds = %bb20
  %_102 = ptrtoint ptr %z to i64
  %_105 = icmp eq i64 %_102, 0
  %_106 = and i1 %_105, true
  %_107 = xor i1 %_106, true
  br i1 %_107, label %bb21, label %panic9

panic8:                                           ; preds = %bb20
; call core::panicking::panic_misaligned_pointer_dereference
  call void @_ZN4core9panicking36panic_misaligned_pointer_dereference17hcc3cbded9382b6e5E(i64 8, i64 %_44, ptr align 8 @alloc_e5484d78bab2656545eab1472f1d10df) #4
  unreachable

bb21:                                             ; preds = %bb12
  %4 = getelementptr inbounds i8, ptr %z, i64 8
  %_5 = load ptr, ptr %4, align 8
  %_4 = call i32 @height(ptr %_5) #3
  %_38 = ptrtoint ptr %z to i64
  %_41 = and i64 %_38, 7
  %_42 = icmp eq i64 %_41, 0
  br i1 %_42, label %bb11, label %panic10

panic9:                                           ; preds = %bb12
; call core::panicking::panic_null_pointer_dereference
  call void @_ZN4core9panicking30panic_null_pointer_dereference17hf718fcc86a223baaE(ptr align 8 @alloc_e5484d78bab2656545eab1472f1d10df) #4
  unreachable

bb11:                                             ; preds = %bb21
  %_109 = ptrtoint ptr %z to i64
  %_112 = icmp eq i64 %_109, 0
  %_113 = and i1 %_112, true
  %_114 = xor i1 %_113, true
  br i1 %_114, label %bb22, label %panic11

panic10:                                          ; preds = %bb21
; call core::panicking::panic_misaligned_pointer_dereference
  call void @_ZN4core9panicking36panic_misaligned_pointer_dereference17hcc3cbded9382b6e5E(i64 8, i64 %_38, ptr align 8 @alloc_c9290f27dbd1629f8b7803da34b0b3dd) #4
  unreachable

bb22:                                             ; preds = %bb11
  %5 = getelementptr inbounds i8, ptr %z, i64 16
  %_7 = load ptr, ptr %5, align 8
  %_6 = call i32 @height(ptr %_7) #3
  %_3 = call i32 @max(i32 %_4, i32 %_6) #3
  %_32 = ptrtoint ptr %z to i64
  %_35 = and i64 %_32, 7
  %_36 = icmp eq i64 %_35, 0
  br i1 %_36, label %bb10, label %panic12

panic11:                                          ; preds = %bb11
; call core::panicking::panic_null_pointer_dereference
  call void @_ZN4core9panicking30panic_null_pointer_dereference17hf718fcc86a223baaE(ptr align 8 @alloc_c9290f27dbd1629f8b7803da34b0b3dd) #4
  unreachable

bb10:                                             ; preds = %bb22
  %_116 = ptrtoint ptr %z to i64
  %_119 = icmp eq i64 %_116, 0
  %_120 = and i1 %_119, true
  %_121 = xor i1 %_120, true
  br i1 %_121, label %bb23, label %panic13

panic12:                                          ; preds = %bb22
; call core::panicking::panic_misaligned_pointer_dereference
  call void @_ZN4core9panicking36panic_misaligned_pointer_dereference17hcc3cbded9382b6e5E(i64 8, i64 %_32, ptr align 8 @alloc_73ed8ca87f1521c96876d2cdbb656763) #4
  unreachable

bb23:                                             ; preds = %bb10
  %6 = getelementptr inbounds i8, ptr %z, i64 4
  %7 = add i32 %_3, 1
  store i32 %7, ptr %6, align 4
  %_26 = ptrtoint ptr %y to i64
  %_29 = and i64 %_26, 7
  %_30 = icmp eq i64 %_29, 0
  br i1 %_30, label %bb9, label %panic14

panic13:                                          ; preds = %bb10
; call core::panicking::panic_null_pointer_dereference
  call void @_ZN4core9panicking30panic_null_pointer_dereference17hf718fcc86a223baaE(ptr align 8 @alloc_73ed8ca87f1521c96876d2cdbb656763) #4
  unreachable

bb9:                                              ; preds = %bb23
  %_123 = ptrtoint ptr %y to i64
  %_126 = icmp eq i64 %_123, 0
  %_127 = and i1 %_126, true
  %_128 = xor i1 %_127, true
  br i1 %_128, label %bb24, label %panic15

panic14:                                          ; preds = %bb23
; call core::panicking::panic_misaligned_pointer_dereference
  call void @_ZN4core9panicking36panic_misaligned_pointer_dereference17hcc3cbded9382b6e5E(i64 8, i64 %_26, ptr align 8 @alloc_64f8db5cdbadde946b451d90909e70da) #4
  unreachable

bb24:                                             ; preds = %bb9
  %8 = getelementptr inbounds i8, ptr %y, i64 8
  %_10 = load ptr, ptr %8, align 8
  %_9 = call i32 @height(ptr %_10) #3
  %_20 = ptrtoint ptr %y to i64
  %_23 = and i64 %_20, 7
  %_24 = icmp eq i64 %_23, 0
  br i1 %_24, label %bb8, label %panic16

panic15:                                          ; preds = %bb9
; call core::panicking::panic_null_pointer_dereference
  call void @_ZN4core9panicking30panic_null_pointer_dereference17hf718fcc86a223baaE(ptr align 8 @alloc_64f8db5cdbadde946b451d90909e70da) #4
  unreachable

bb8:                                              ; preds = %bb24
  %_130 = ptrtoint ptr %y to i64
  %_133 = icmp eq i64 %_130, 0
  %_134 = and i1 %_133, true
  %_135 = xor i1 %_134, true
  br i1 %_135, label %bb25, label %panic17

panic16:                                          ; preds = %bb24
; call core::panicking::panic_misaligned_pointer_dereference
  call void @_ZN4core9panicking36panic_misaligned_pointer_dereference17hcc3cbded9382b6e5E(i64 8, i64 %_20, ptr align 8 @alloc_563e372b172040f74652703a217a9c5b) #4
  unreachable

bb25:                                             ; preds = %bb8
  %9 = getelementptr inbounds i8, ptr %y, i64 16
  %_12 = load ptr, ptr %9, align 8
  %_11 = call i32 @height(ptr %_12) #3
  %_8 = call i32 @max(i32 %_9, i32 %_11) #3
  %_14 = ptrtoint ptr %y to i64
  %_17 = and i64 %_14, 7
  %_18 = icmp eq i64 %_17, 0
  br i1 %_18, label %bb7, label %panic18

panic17:                                          ; preds = %bb8
; call core::panicking::panic_null_pointer_dereference
  call void @_ZN4core9panicking30panic_null_pointer_dereference17hf718fcc86a223baaE(ptr align 8 @alloc_563e372b172040f74652703a217a9c5b) #4
  unreachable

bb7:                                              ; preds = %bb25
  %_137 = ptrtoint ptr %y to i64
  %_140 = icmp eq i64 %_137, 0
  %_141 = and i1 %_140, true
  %_142 = xor i1 %_141, true
  br i1 %_142, label %bb26, label %panic19

panic18:                                          ; preds = %bb25
; call core::panicking::panic_misaligned_pointer_dereference
  call void @_ZN4core9panicking36panic_misaligned_pointer_dereference17hcc3cbded9382b6e5E(i64 8, i64 %_14, ptr align 8 @alloc_a0df31323749b968e53ac504f2af6406) #4
  unreachable

bb26:                                             ; preds = %bb7
  %10 = getelementptr inbounds i8, ptr %y, i64 4
  %11 = add i32 %_8, 1
  store i32 %11, ptr %10, align 4
  ret ptr %y

panic19:                                          ; preds = %bb7
; call core::panicking::panic_null_pointer_dereference
  call void @_ZN4core9panicking30panic_null_pointer_dereference17hf718fcc86a223baaE(ptr align 8 @alloc_a0df31323749b968e53ac504f2af6406) #4
  unreachable
}

; Function Attrs: nounwind nonlazybind
define ptr @RightRotate(ptr %z) unnamed_addr #1 {
start:
  %_68 = ptrtoint ptr %z to i64
  %_71 = and i64 %_68, 7
  %_72 = icmp eq i64 %_71, 0
  br i1 %_72, label %bb16, label %panic

bb16:                                             ; preds = %start
  %_74 = ptrtoint ptr %z to i64
  %_77 = icmp eq i64 %_74, 0
  %_78 = and i1 %_77, true
  %_79 = xor i1 %_78, true
  br i1 %_79, label %bb17, label %panic1

panic:                                            ; preds = %start
; call core::panicking::panic_misaligned_pointer_dereference
  call void @_ZN4core9panicking36panic_misaligned_pointer_dereference17hcc3cbded9382b6e5E(i64 8, i64 %_68, ptr align 8 @alloc_dd559fb8f037406933e991d38c142d1c) #4
  unreachable

bb17:                                             ; preds = %bb16
  %0 = getelementptr inbounds i8, ptr %z, i64 8
  %y = load ptr, ptr %0, align 8
  %_62 = ptrtoint ptr %y to i64
  %_65 = and i64 %_62, 7
  %_66 = icmp eq i64 %_65, 0
  br i1 %_66, label %bb15, label %panic2

panic1:                                           ; preds = %bb16
; call core::panicking::panic_null_pointer_dereference
  call void @_ZN4core9panicking30panic_null_pointer_dereference17hf718fcc86a223baaE(ptr align 8 @alloc_dd559fb8f037406933e991d38c142d1c) #4
  unreachable

bb15:                                             ; preds = %bb17
  %_81 = ptrtoint ptr %y to i64
  %_84 = icmp eq i64 %_81, 0
  %_85 = and i1 %_84, true
  %_86 = xor i1 %_85, true
  br i1 %_86, label %bb18, label %panic3

panic2:                                           ; preds = %bb17
; call core::panicking::panic_misaligned_pointer_dereference
  call void @_ZN4core9panicking36panic_misaligned_pointer_dereference17hcc3cbded9382b6e5E(i64 8, i64 %_62, ptr align 8 @alloc_6754e70ae808812597a00e32a8601e7a) #4
  unreachable

bb18:                                             ; preds = %bb15
  %1 = getelementptr inbounds i8, ptr %y, i64 16
  %t3 = load ptr, ptr %1, align 8
  %_56 = ptrtoint ptr %y to i64
  %_59 = and i64 %_56, 7
  %_60 = icmp eq i64 %_59, 0
  br i1 %_60, label %bb14, label %panic4

panic3:                                           ; preds = %bb15
; call core::panicking::panic_null_pointer_dereference
  call void @_ZN4core9panicking30panic_null_pointer_dereference17hf718fcc86a223baaE(ptr align 8 @alloc_6754e70ae808812597a00e32a8601e7a) #4
  unreachable

bb14:                                             ; preds = %bb18
  %_88 = ptrtoint ptr %y to i64
  %_91 = icmp eq i64 %_88, 0
  %_92 = and i1 %_91, true
  %_93 = xor i1 %_92, true
  br i1 %_93, label %bb19, label %panic5

panic4:                                           ; preds = %bb18
; call core::panicking::panic_misaligned_pointer_dereference
  call void @_ZN4core9panicking36panic_misaligned_pointer_dereference17hcc3cbded9382b6e5E(i64 8, i64 %_56, ptr align 8 @alloc_5e508f8b25e8846369e349f2be531966) #4
  unreachable

bb19:                                             ; preds = %bb14
  %2 = getelementptr inbounds i8, ptr %y, i64 16
  store ptr %z, ptr %2, align 8
  %_50 = ptrtoint ptr %z to i64
  %_53 = and i64 %_50, 7
  %_54 = icmp eq i64 %_53, 0
  br i1 %_54, label %bb13, label %panic6

panic5:                                           ; preds = %bb14
; call core::panicking::panic_null_pointer_dereference
  call void @_ZN4core9panicking30panic_null_pointer_dereference17hf718fcc86a223baaE(ptr align 8 @alloc_5e508f8b25e8846369e349f2be531966) #4
  unreachable

bb13:                                             ; preds = %bb19
  %_95 = ptrtoint ptr %z to i64
  %_98 = icmp eq i64 %_95, 0
  %_99 = and i1 %_98, true
  %_100 = xor i1 %_99, true
  br i1 %_100, label %bb20, label %panic7

panic6:                                           ; preds = %bb19
; call core::panicking::panic_misaligned_pointer_dereference
  call void @_ZN4core9panicking36panic_misaligned_pointer_dereference17hcc3cbded9382b6e5E(i64 8, i64 %_50, ptr align 8 @alloc_2b741aa80e9bacc62157d48afd5adfbd) #4
  unreachable

bb20:                                             ; preds = %bb13
  %3 = getelementptr inbounds i8, ptr %z, i64 8
  store ptr %t3, ptr %3, align 8
  %_44 = ptrtoint ptr %z to i64
  %_47 = and i64 %_44, 7
  %_48 = icmp eq i64 %_47, 0
  br i1 %_48, label %bb12, label %panic8

panic7:                                           ; preds = %bb13
; call core::panicking::panic_null_pointer_dereference
  call void @_ZN4core9panicking30panic_null_pointer_dereference17hf718fcc86a223baaE(ptr align 8 @alloc_2b741aa80e9bacc62157d48afd5adfbd) #4
  unreachable

bb12:                                             ; preds = %bb20
  %_102 = ptrtoint ptr %z to i64
  %_105 = icmp eq i64 %_102, 0
  %_106 = and i1 %_105, true
  %_107 = xor i1 %_106, true
  br i1 %_107, label %bb21, label %panic9

panic8:                                           ; preds = %bb20
; call core::panicking::panic_misaligned_pointer_dereference
  call void @_ZN4core9panicking36panic_misaligned_pointer_dereference17hcc3cbded9382b6e5E(i64 8, i64 %_44, ptr align 8 @alloc_8378ccbbd275ebc12629c7b257d75ca5) #4
  unreachable

bb21:                                             ; preds = %bb12
  %4 = getelementptr inbounds i8, ptr %z, i64 8
  %_5 = load ptr, ptr %4, align 8
  %_4 = call i32 @height(ptr %_5) #3
  %_38 = ptrtoint ptr %z to i64
  %_41 = and i64 %_38, 7
  %_42 = icmp eq i64 %_41, 0
  br i1 %_42, label %bb11, label %panic10

panic9:                                           ; preds = %bb12
; call core::panicking::panic_null_pointer_dereference
  call void @_ZN4core9panicking30panic_null_pointer_dereference17hf718fcc86a223baaE(ptr align 8 @alloc_8378ccbbd275ebc12629c7b257d75ca5) #4
  unreachable

bb11:                                             ; preds = %bb21
  %_109 = ptrtoint ptr %z to i64
  %_112 = icmp eq i64 %_109, 0
  %_113 = and i1 %_112, true
  %_114 = xor i1 %_113, true
  br i1 %_114, label %bb22, label %panic11

panic10:                                          ; preds = %bb21
; call core::panicking::panic_misaligned_pointer_dereference
  call void @_ZN4core9panicking36panic_misaligned_pointer_dereference17hcc3cbded9382b6e5E(i64 8, i64 %_38, ptr align 8 @alloc_de2c630d8933cda21ee5236d0f90d396) #4
  unreachable

bb22:                                             ; preds = %bb11
  %5 = getelementptr inbounds i8, ptr %z, i64 16
  %_7 = load ptr, ptr %5, align 8
  %_6 = call i32 @height(ptr %_7) #3
  %_3 = call i32 @max(i32 %_4, i32 %_6) #3
  %_32 = ptrtoint ptr %z to i64
  %_35 = and i64 %_32, 7
  %_36 = icmp eq i64 %_35, 0
  br i1 %_36, label %bb10, label %panic12

panic11:                                          ; preds = %bb11
; call core::panicking::panic_null_pointer_dereference
  call void @_ZN4core9panicking30panic_null_pointer_dereference17hf718fcc86a223baaE(ptr align 8 @alloc_de2c630d8933cda21ee5236d0f90d396) #4
  unreachable

bb10:                                             ; preds = %bb22
  %_116 = ptrtoint ptr %z to i64
  %_119 = icmp eq i64 %_116, 0
  %_120 = and i1 %_119, true
  %_121 = xor i1 %_120, true
  br i1 %_121, label %bb23, label %panic13

panic12:                                          ; preds = %bb22
; call core::panicking::panic_misaligned_pointer_dereference
  call void @_ZN4core9panicking36panic_misaligned_pointer_dereference17hcc3cbded9382b6e5E(i64 8, i64 %_32, ptr align 8 @alloc_2efa6fb076c65f88b785c700efd47dae) #4
  unreachable

bb23:                                             ; preds = %bb10
  %6 = getelementptr inbounds i8, ptr %z, i64 4
  %7 = add i32 %_3, 1
  store i32 %7, ptr %6, align 4
  %_26 = ptrtoint ptr %y to i64
  %_29 = and i64 %_26, 7
  %_30 = icmp eq i64 %_29, 0
  br i1 %_30, label %bb9, label %panic14

panic13:                                          ; preds = %bb10
; call core::panicking::panic_null_pointer_dereference
  call void @_ZN4core9panicking30panic_null_pointer_dereference17hf718fcc86a223baaE(ptr align 8 @alloc_2efa6fb076c65f88b785c700efd47dae) #4
  unreachable

bb9:                                              ; preds = %bb23
  %_123 = ptrtoint ptr %y to i64
  %_126 = icmp eq i64 %_123, 0
  %_127 = and i1 %_126, true
  %_128 = xor i1 %_127, true
  br i1 %_128, label %bb24, label %panic15

panic14:                                          ; preds = %bb23
; call core::panicking::panic_misaligned_pointer_dereference
  call void @_ZN4core9panicking36panic_misaligned_pointer_dereference17hcc3cbded9382b6e5E(i64 8, i64 %_26, ptr align 8 @alloc_b898ee0a4eec31bb8d23e1379a8b17b0) #4
  unreachable

bb24:                                             ; preds = %bb9
  %8 = getelementptr inbounds i8, ptr %y, i64 8
  %_10 = load ptr, ptr %8, align 8
  %_9 = call i32 @height(ptr %_10) #3
  %_20 = ptrtoint ptr %y to i64
  %_23 = and i64 %_20, 7
  %_24 = icmp eq i64 %_23, 0
  br i1 %_24, label %bb8, label %panic16

panic15:                                          ; preds = %bb9
; call core::panicking::panic_null_pointer_dereference
  call void @_ZN4core9panicking30panic_null_pointer_dereference17hf718fcc86a223baaE(ptr align 8 @alloc_b898ee0a4eec31bb8d23e1379a8b17b0) #4
  unreachable

bb8:                                              ; preds = %bb24
  %_130 = ptrtoint ptr %y to i64
  %_133 = icmp eq i64 %_130, 0
  %_134 = and i1 %_133, true
  %_135 = xor i1 %_134, true
  br i1 %_135, label %bb25, label %panic17

panic16:                                          ; preds = %bb24
; call core::panicking::panic_misaligned_pointer_dereference
  call void @_ZN4core9panicking36panic_misaligned_pointer_dereference17hcc3cbded9382b6e5E(i64 8, i64 %_20, ptr align 8 @alloc_7974c47f3f9cd990293da5f08b2161b9) #4
  unreachable

bb25:                                             ; preds = %bb8
  %9 = getelementptr inbounds i8, ptr %y, i64 16
  %_12 = load ptr, ptr %9, align 8
  %_11 = call i32 @height(ptr %_12) #3
  %_8 = call i32 @max(i32 %_9, i32 %_11) #3
  %_14 = ptrtoint ptr %y to i64
  %_17 = and i64 %_14, 7
  %_18 = icmp eq i64 %_17, 0
  br i1 %_18, label %bb7, label %panic18

panic17:                                          ; preds = %bb8
; call core::panicking::panic_null_pointer_dereference
  call void @_ZN4core9panicking30panic_null_pointer_dereference17hf718fcc86a223baaE(ptr align 8 @alloc_7974c47f3f9cd990293da5f08b2161b9) #4
  unreachable

bb7:                                              ; preds = %bb25
  %_137 = ptrtoint ptr %y to i64
  %_140 = icmp eq i64 %_137, 0
  %_141 = and i1 %_140, true
  %_142 = xor i1 %_141, true
  br i1 %_142, label %bb26, label %panic19

panic18:                                          ; preds = %bb25
; call core::panicking::panic_misaligned_pointer_dereference
  call void @_ZN4core9panicking36panic_misaligned_pointer_dereference17hcc3cbded9382b6e5E(i64 8, i64 %_14, ptr align 8 @alloc_1ed964aab6d6c3d3f78f16bf85f3fad7) #4
  unreachable

bb26:                                             ; preds = %bb7
  %10 = getelementptr inbounds i8, ptr %y, i64 4
  %11 = add i32 %_8, 1
  store i32 %11, ptr %10, align 4
  ret ptr %y

panic19:                                          ; preds = %bb7
; call core::panicking::panic_null_pointer_dereference
  call void @_ZN4core9panicking30panic_null_pointer_dereference17hf718fcc86a223baaE(ptr align 8 @alloc_1ed964aab6d6c3d3f78f16bf85f3fad7) #4
  unreachable
}

; Function Attrs: nounwind nonlazybind
define void @preorder(ptr %root) unnamed_addr #1 {
start:
; call core::ptr::mut_ptr::<impl *mut T>::is_null
  %_2 = call zeroext i1 @"_ZN4core3ptr7mut_ptr31_$LT$impl$u20$$BP$mut$u20$T$GT$7is_null17he433ed47c4dbfb9eE"(ptr %root) #3
  br i1 %_2, label %bb5, label %bb2

bb2:                                              ; preds = %start
  %_26 = ptrtoint ptr %root to i64
  %_29 = and i64 %_26, 7
  %_30 = icmp eq i64 %_29, 0
  br i1 %_30, label %bb8, label %panic

bb5:                                              ; preds = %bb11, %start
  ret void

bb8:                                              ; preds = %bb2
  %_32 = ptrtoint ptr %root to i64
  %_35 = icmp eq i64 %_32, 0
  %_36 = and i1 %_35, true
  %_37 = xor i1 %_36, true
  br i1 %_37, label %bb9, label %panic1

panic:                                            ; preds = %bb2
; call core::panicking::panic_misaligned_pointer_dereference
  call void @_ZN4core9panicking36panic_misaligned_pointer_dereference17hcc3cbded9382b6e5E(i64 8, i64 %_26, ptr align 8 @alloc_ddcbe98c939b55f6d501e1d2eb22525e) #4
  unreachable

bb9:                                              ; preds = %bb8
  %_8 = load i32, ptr %root, align 8
  %_3 = call i32 (ptr, ...) @printf(ptr @alloc_b929c71616281bfd1be2bd4038d3ddf1, i32 %_8) #3
  %_20 = ptrtoint ptr %root to i64
  %_23 = and i64 %_20, 7
  %_24 = icmp eq i64 %_23, 0
  br i1 %_24, label %bb7, label %panic2

panic1:                                           ; preds = %bb8
; call core::panicking::panic_null_pointer_dereference
  call void @_ZN4core9panicking30panic_null_pointer_dereference17hf718fcc86a223baaE(ptr align 8 @alloc_ddcbe98c939b55f6d501e1d2eb22525e) #4
  unreachable

bb7:                                              ; preds = %bb9
  %_39 = ptrtoint ptr %root to i64
  %_42 = icmp eq i64 %_39, 0
  %_43 = and i1 %_42, true
  %_44 = xor i1 %_43, true
  br i1 %_44, label %bb10, label %panic3

panic2:                                           ; preds = %bb9
; call core::panicking::panic_misaligned_pointer_dereference
  call void @_ZN4core9panicking36panic_misaligned_pointer_dereference17hcc3cbded9382b6e5E(i64 8, i64 %_20, ptr align 8 @alloc_c255e342facc2afd2c45baad05452b27) #4
  unreachable

bb10:                                             ; preds = %bb7
  %0 = getelementptr inbounds i8, ptr %root, i64 8
  %_10 = load ptr, ptr %0, align 8
  call void @preorder(ptr %_10) #3
  %_14 = ptrtoint ptr %root to i64
  %_17 = and i64 %_14, 7
  %_18 = icmp eq i64 %_17, 0
  br i1 %_18, label %bb6, label %panic4

panic3:                                           ; preds = %bb7
; call core::panicking::panic_null_pointer_dereference
  call void @_ZN4core9panicking30panic_null_pointer_dereference17hf718fcc86a223baaE(ptr align 8 @alloc_c255e342facc2afd2c45baad05452b27) #4
  unreachable

bb6:                                              ; preds = %bb10
  %_46 = ptrtoint ptr %root to i64
  %_49 = icmp eq i64 %_46, 0
  %_50 = and i1 %_49, true
  %_51 = xor i1 %_50, true
  br i1 %_51, label %bb11, label %panic5

panic4:                                           ; preds = %bb10
; call core::panicking::panic_misaligned_pointer_dereference
  call void @_ZN4core9panicking36panic_misaligned_pointer_dereference17hcc3cbded9382b6e5E(i64 8, i64 %_14, ptr align 8 @alloc_3f624d0e00ec4d72a60a5f7bf228b714) #4
  unreachable

bb11:                                             ; preds = %bb6
  %1 = getelementptr inbounds i8, ptr %root, i64 16
  %_12 = load ptr, ptr %1, align 8
  call void @preorder(ptr %_12) #3
  br label %bb5

panic5:                                           ; preds = %bb6
; call core::panicking::panic_null_pointer_dereference
  call void @_ZN4core9panicking30panic_null_pointer_dereference17hf718fcc86a223baaE(ptr align 8 @alloc_3f624d0e00ec4d72a60a5f7bf228b714) #4
  unreachable
}

; Function Attrs: nounwind nonlazybind
define ptr @FindMin(ptr %0) unnamed_addr #1 {
start:
  %node = alloca [8 x i8], align 8
  store ptr %0, ptr %node, align 8
  br label %bb1

bb1:                                              ; preds = %bb8, %start
  %_11 = load ptr, ptr %node, align 8
  %_12 = ptrtoint ptr %_11 to i64
  %_15 = and i64 %_12, 7
  %_16 = icmp eq i64 %_15, 0
  br i1 %_16, label %bb6, label %panic

bb6:                                              ; preds = %bb1
  %_17 = load ptr, ptr %node, align 8
  %_18 = ptrtoint ptr %_17 to i64
  %_21 = icmp eq i64 %_18, 0
  %_22 = and i1 %_21, true
  %_23 = xor i1 %_22, true
  br i1 %_23, label %bb7, label %panic1

panic:                                            ; preds = %bb1
; call core::panicking::panic_misaligned_pointer_dereference
  call void @_ZN4core9panicking36panic_misaligned_pointer_dereference17hcc3cbded9382b6e5E(i64 8, i64 %_12, ptr align 8 @alloc_ae1d07cf3bcdade90c7f1a983b1d5612) #4
  unreachable

bb7:                                              ; preds = %bb6
  %1 = load ptr, ptr %node, align 8
  %2 = getelementptr inbounds i8, ptr %1, i64 8
  %_3 = load ptr, ptr %2, align 8
; call core::ptr::mut_ptr::<impl *mut T>::is_null
  %_2 = call zeroext i1 @"_ZN4core3ptr7mut_ptr31_$LT$impl$u20$$BP$mut$u20$T$GT$7is_null17he433ed47c4dbfb9eE"(ptr %_3) #3
  br i1 %_2, label %bb3, label %bb4

panic1:                                           ; preds = %bb6
; call core::panicking::panic_null_pointer_dereference
  call void @_ZN4core9panicking30panic_null_pointer_dereference17hf718fcc86a223baaE(ptr align 8 @alloc_ae1d07cf3bcdade90c7f1a983b1d5612) #4
  unreachable

bb4:                                              ; preds = %bb7
  %_5 = load ptr, ptr %node, align 8
  %_6 = ptrtoint ptr %_5 to i64
  %_9 = and i64 %_6, 7
  %_10 = icmp eq i64 %_9, 0
  br i1 %_10, label %bb5, label %panic2

bb3:                                              ; preds = %bb7
  %_0 = load ptr, ptr %node, align 8
  ret ptr %_0

bb5:                                              ; preds = %bb4
  %_24 = load ptr, ptr %node, align 8
  %_25 = ptrtoint ptr %_24 to i64
  %_28 = icmp eq i64 %_25, 0
  %_29 = and i1 %_28, true
  %_30 = xor i1 %_29, true
  br i1 %_30, label %bb8, label %panic3

panic2:                                           ; preds = %bb4
; call core::panicking::panic_misaligned_pointer_dereference
  call void @_ZN4core9panicking36panic_misaligned_pointer_dereference17hcc3cbded9382b6e5E(i64 8, i64 %_6, ptr align 8 @alloc_0256b51cd303b4e9f5d46bf5a7b28fd7) #4
  unreachable

bb8:                                              ; preds = %bb5
  %3 = load ptr, ptr %node, align 8
  %4 = getelementptr inbounds i8, ptr %3, i64 8
  %_4 = load ptr, ptr %4, align 8
  store ptr %_4, ptr %node, align 8
  br label %bb1

panic3:                                           ; preds = %bb5
; call core::panicking::panic_null_pointer_dereference
  call void @_ZN4core9panicking30panic_null_pointer_dereference17hf718fcc86a223baaE(ptr align 8 @alloc_0256b51cd303b4e9f5d46bf5a7b28fd7) #4
  unreachable
}

; Function Attrs: nounwind nonlazybind
define ptr @Delete(ptr %0, i32 %data) unnamed_addr #1 {
start:
  %_0 = alloca [8 x i8], align 8
  %root = alloca [8 x i8], align 8
  store ptr %0, ptr %root, align 8
  %_4 = load ptr, ptr %root, align 8
; call core::ptr::mut_ptr::<impl *mut T>::is_null
  %_3 = call zeroext i1 @"_ZN4core3ptr7mut_ptr31_$LT$impl$u20$$BP$mut$u20$T$GT$7is_null17he433ed47c4dbfb9eE"(ptr %_4) #3
  br i1 %_3, label %bb2, label %bb3

bb3:                                              ; preds = %start
  %_269 = load ptr, ptr %root, align 8
  %_270 = ptrtoint ptr %_269 to i64
  %_273 = and i64 %_270, 7
  %_274 = icmp eq i64 %_273, 0
  br i1 %_274, label %bb87, label %panic

bb2:                                              ; preds = %start
  %1 = load ptr, ptr %root, align 8
  store ptr %1, ptr %_0, align 8
  br label %bb54

bb87:                                             ; preds = %bb3
  %_275 = load ptr, ptr %root, align 8
  %_276 = ptrtoint ptr %_275 to i64
  %_279 = icmp eq i64 %_276, 0
  %_280 = and i1 %_279, true
  %_281 = xor i1 %_280, true
  br i1 %_281, label %bb88, label %panic1

panic:                                            ; preds = %bb3
; call core::panicking::panic_misaligned_pointer_dereference
  call void @_ZN4core9panicking36panic_misaligned_pointer_dereference17hcc3cbded9382b6e5E(i64 8, i64 %_270, ptr align 8 @alloc_a062cf032a11ee1b3911b66d09503066) #4
  unreachable

bb88:                                             ; preds = %bb87
  %2 = load ptr, ptr %root, align 8
  %_6 = load i32, ptr %2, align 8
  %_5 = icmp slt i32 %data, %_6
  br i1 %_5, label %bb4, label %bb5

panic1:                                           ; preds = %bb87
; call core::panicking::panic_null_pointer_dereference
  call void @_ZN4core9panicking30panic_null_pointer_dereference17hf718fcc86a223baaE(ptr align 8 @alloc_a062cf032a11ee1b3911b66d09503066) #4
  unreachable

bb5:                                              ; preds = %bb88
  %_257 = load ptr, ptr %root, align 8
  %_258 = ptrtoint ptr %_257 to i64
  %_261 = and i64 %_258, 7
  %_262 = icmp eq i64 %_261, 0
  br i1 %_262, label %bb85, label %panic2

bb4:                                              ; preds = %bb88
  %_263 = load ptr, ptr %root, align 8
  %_264 = ptrtoint ptr %_263 to i64
  %_267 = and i64 %_264, 7
  %_268 = icmp eq i64 %_267, 0
  br i1 %_268, label %bb86, label %panic40

bb85:                                             ; preds = %bb5
  %_289 = load ptr, ptr %root, align 8
  %_290 = ptrtoint ptr %_289 to i64
  %_293 = icmp eq i64 %_290, 0
  %_294 = and i1 %_293, true
  %_295 = xor i1 %_294, true
  br i1 %_295, label %bb90, label %panic3

panic2:                                           ; preds = %bb5
; call core::panicking::panic_misaligned_pointer_dereference
  call void @_ZN4core9panicking36panic_misaligned_pointer_dereference17hcc3cbded9382b6e5E(i64 8, i64 %_258, ptr align 8 @alloc_2cf42b0fdaeadc6f54a2282882a92b44) #4
  unreachable

bb90:                                             ; preds = %bb85
  %3 = load ptr, ptr %root, align 8
  %_10 = load i32, ptr %3, align 8
  %_9 = icmp sgt i32 %data, %_10
  br i1 %_9, label %bb7, label %bb8

panic3:                                           ; preds = %bb85
; call core::panicking::panic_null_pointer_dereference
  call void @_ZN4core9panicking30panic_null_pointer_dereference17hf718fcc86a223baaE(ptr align 8 @alloc_2cf42b0fdaeadc6f54a2282882a92b44) #4
  unreachable

bb8:                                              ; preds = %bb90
  %_239 = load ptr, ptr %root, align 8
  %_240 = ptrtoint ptr %_239 to i64
  %_243 = and i64 %_240, 7
  %_244 = icmp eq i64 %_243, 0
  br i1 %_244, label %bb82, label %panic4

bb7:                                              ; preds = %bb90
  %_245 = load ptr, ptr %root, align 8
  %_246 = ptrtoint ptr %_245 to i64
  %_249 = and i64 %_246, 7
  %_250 = icmp eq i64 %_249, 0
  br i1 %_250, label %bb83, label %panic36

bb82:                                             ; preds = %bb8
  %_310 = load ptr, ptr %root, align 8
  %_311 = ptrtoint ptr %_310 to i64
  %_314 = icmp eq i64 %_311, 0
  %_315 = and i1 %_314, true
  %_316 = xor i1 %_315, true
  br i1 %_316, label %bb93, label %panic5

panic4:                                           ; preds = %bb8
; call core::panicking::panic_misaligned_pointer_dereference
  call void @_ZN4core9panicking36panic_misaligned_pointer_dereference17hcc3cbded9382b6e5E(i64 8, i64 %_240, ptr align 8 @alloc_2e490f627ed35a672bde60e6350ad589) #4
  unreachable

bb93:                                             ; preds = %bb82
  %4 = load ptr, ptr %root, align 8
  %5 = getelementptr inbounds i8, ptr %4, i64 16
  %_14 = load ptr, ptr %5, align 8
; call core::ptr::mut_ptr::<impl *mut T>::is_null
  %_13 = call zeroext i1 @"_ZN4core3ptr7mut_ptr31_$LT$impl$u20$$BP$mut$u20$T$GT$7is_null17he433ed47c4dbfb9eE"(ptr %_14) #3
  br i1 %_13, label %bb11, label %bb15

panic5:                                           ; preds = %bb82
; call core::panicking::panic_null_pointer_dereference
  call void @_ZN4core9panicking30panic_null_pointer_dereference17hf718fcc86a223baaE(ptr align 8 @alloc_2e490f627ed35a672bde60e6350ad589) #4
  unreachable

bb15:                                             ; preds = %bb95, %bb93
  %_221 = load ptr, ptr %root, align 8
  %_222 = ptrtoint ptr %_221 to i64
  %_225 = and i64 %_222, 7
  %_226 = icmp eq i64 %_225, 0
  br i1 %_226, label %bb79, label %panic8

bb11:                                             ; preds = %bb93
  %_227 = load ptr, ptr %root, align 8
  %_228 = ptrtoint ptr %_227 to i64
  %_231 = and i64 %_228, 7
  %_232 = icmp eq i64 %_231, 0
  br i1 %_232, label %bb80, label %panic6

bb80:                                             ; preds = %bb11
  %_324 = load ptr, ptr %root, align 8
  %_325 = ptrtoint ptr %_324 to i64
  %_328 = icmp eq i64 %_325, 0
  %_329 = and i1 %_328, true
  %_330 = xor i1 %_329, true
  br i1 %_330, label %bb95, label %panic7

panic6:                                           ; preds = %bb11
; call core::panicking::panic_misaligned_pointer_dereference
  call void @_ZN4core9panicking36panic_misaligned_pointer_dereference17hcc3cbded9382b6e5E(i64 8, i64 %_228, ptr align 8 @alloc_55102f9e036db67e30f211f42d2dd556) #4
  unreachable

bb95:                                             ; preds = %bb80
  %6 = load ptr, ptr %root, align 8
  %7 = getelementptr inbounds i8, ptr %6, i64 8
  %_16 = load ptr, ptr %7, align 8
; call core::ptr::mut_ptr::<impl *mut T>::is_null
  %_15 = call zeroext i1 @"_ZN4core3ptr7mut_ptr31_$LT$impl$u20$$BP$mut$u20$T$GT$7is_null17he433ed47c4dbfb9eE"(ptr %_16) #3
  br i1 %_15, label %bb13, label %bb15

panic7:                                           ; preds = %bb80
; call core::panicking::panic_null_pointer_dereference
  call void @_ZN4core9panicking30panic_null_pointer_dereference17hf718fcc86a223baaE(ptr align 8 @alloc_55102f9e036db67e30f211f42d2dd556) #4
  unreachable

bb13:                                             ; preds = %bb95
  %_19 = load ptr, ptr %root, align 8
  call void @free(ptr %_19) #3
  store ptr null, ptr %root, align 8
  br label %bb28

bb79:                                             ; preds = %bb15
  %_331 = load ptr, ptr %root, align 8
  %_332 = ptrtoint ptr %_331 to i64
  %_335 = icmp eq i64 %_332, 0
  %_336 = and i1 %_335, true
  %_337 = xor i1 %_336, true
  br i1 %_337, label %bb96, label %panic9

panic8:                                           ; preds = %bb15
; call core::panicking::panic_misaligned_pointer_dereference
  call void @_ZN4core9panicking36panic_misaligned_pointer_dereference17hcc3cbded9382b6e5E(i64 8, i64 %_222, ptr align 8 @alloc_921ab8fb4183db0b691c947907ce7f02) #4
  unreachable

bb96:                                             ; preds = %bb79
  %8 = load ptr, ptr %root, align 8
  %9 = getelementptr inbounds i8, ptr %8, i64 8
  %_21 = load ptr, ptr %9, align 8
; call core::ptr::mut_ptr::<impl *mut T>::is_null
  %_20 = call zeroext i1 @"_ZN4core3ptr7mut_ptr31_$LT$impl$u20$$BP$mut$u20$T$GT$7is_null17he433ed47c4dbfb9eE"(ptr %_21) #3
  br i1 %_20, label %bb20, label %bb17

panic9:                                           ; preds = %bb79
; call core::panicking::panic_null_pointer_dereference
  call void @_ZN4core9panicking30panic_null_pointer_dereference17hf718fcc86a223baaE(ptr align 8 @alloc_921ab8fb4183db0b691c947907ce7f02) #4
  unreachable

bb17:                                             ; preds = %bb96
  %_215 = load ptr, ptr %root, align 8
  %_216 = ptrtoint ptr %_215 to i64
  %_219 = and i64 %_216, 7
  %_220 = icmp eq i64 %_219, 0
  br i1 %_220, label %bb78, label %panic10

bb20:                                             ; preds = %bb97, %bb96
  %_197 = load ptr, ptr %root, align 8
  %_198 = ptrtoint ptr %_197 to i64
  %_201 = and i64 %_198, 7
  %_202 = icmp eq i64 %_201, 0
  br i1 %_202, label %bb75, label %panic16

bb78:                                             ; preds = %bb17
  %_338 = load ptr, ptr %root, align 8
  %_339 = ptrtoint ptr %_338 to i64
  %_342 = icmp eq i64 %_339, 0
  %_343 = and i1 %_342, true
  %_344 = xor i1 %_343, true
  br i1 %_344, label %bb97, label %panic11

panic10:                                          ; preds = %bb17
; call core::panicking::panic_misaligned_pointer_dereference
  call void @_ZN4core9panicking36panic_misaligned_pointer_dereference17hcc3cbded9382b6e5E(i64 8, i64 %_216, ptr align 8 @alloc_13ad41adde7e4c6a1e95f829e6ab1aa3) #4
  unreachable

bb97:                                             ; preds = %bb78
  %10 = load ptr, ptr %root, align 8
  %11 = getelementptr inbounds i8, ptr %10, i64 16
  %_23 = load ptr, ptr %11, align 8
; call core::ptr::mut_ptr::<impl *mut T>::is_null
  %_22 = call zeroext i1 @"_ZN4core3ptr7mut_ptr31_$LT$impl$u20$$BP$mut$u20$T$GT$7is_null17he433ed47c4dbfb9eE"(ptr %_23) #3
  br i1 %_22, label %bb19, label %bb20

panic11:                                          ; preds = %bb78
; call core::panicking::panic_null_pointer_dereference
  call void @_ZN4core9panicking30panic_null_pointer_dereference17hf718fcc86a223baaE(ptr align 8 @alloc_13ad41adde7e4c6a1e95f829e6ab1aa3) #4
  unreachable

bb19:                                             ; preds = %bb97
  %_209 = load ptr, ptr %root, align 8
  %_210 = ptrtoint ptr %_209 to i64
  %_213 = and i64 %_210, 7
  %_214 = icmp eq i64 %_213, 0
  br i1 %_214, label %bb77, label %panic12

bb77:                                             ; preds = %bb19
  %_345 = load ptr, ptr %root, align 8
  %_346 = ptrtoint ptr %_345 to i64
  %_349 = icmp eq i64 %_346, 0
  %_350 = and i1 %_349, true
  %_351 = xor i1 %_350, true
  br i1 %_351, label %bb98, label %panic13

panic12:                                          ; preds = %bb19
; call core::panicking::panic_misaligned_pointer_dereference
  call void @_ZN4core9panicking36panic_misaligned_pointer_dereference17hcc3cbded9382b6e5E(i64 8, i64 %_210, ptr align 8 @alloc_47bdae9ddfb55168c3fe4561aba8fcb6) #4
  unreachable

bb98:                                             ; preds = %bb77
  %12 = load ptr, ptr %root, align 8
  %13 = getelementptr inbounds i8, ptr %12, i64 8
  %temp = load ptr, ptr %13, align 8
  %_203 = load ptr, ptr %root, align 8
  %_204 = ptrtoint ptr %_203 to i64
  %_207 = and i64 %_204, 7
  %_208 = icmp eq i64 %_207, 0
  br i1 %_208, label %bb76, label %panic14

panic13:                                          ; preds = %bb77
; call core::panicking::panic_null_pointer_dereference
  call void @_ZN4core9panicking30panic_null_pointer_dereference17hf718fcc86a223baaE(ptr align 8 @alloc_47bdae9ddfb55168c3fe4561aba8fcb6) #4
  unreachable

bb76:                                             ; preds = %bb98
  %_352 = load ptr, ptr %root, align 8
  %_353 = ptrtoint ptr %_352 to i64
  %_356 = icmp eq i64 %_353, 0
  %_357 = and i1 %_356, true
  %_358 = xor i1 %_357, true
  br i1 %_358, label %bb99, label %panic15

panic14:                                          ; preds = %bb98
; call core::panicking::panic_misaligned_pointer_dereference
  call void @_ZN4core9panicking36panic_misaligned_pointer_dereference17hcc3cbded9382b6e5E(i64 8, i64 %_204, ptr align 8 @alloc_bb2dcecb12feab45d054c27de6bf0f4f) #4
  unreachable

bb99:                                             ; preds = %bb76
  %14 = load ptr, ptr %root, align 8
  %15 = getelementptr inbounds i8, ptr %14, i64 8
  %_25 = load ptr, ptr %15, align 8
  store ptr %_25, ptr %root, align 8
  call void @free(ptr %temp) #3
  br label %bb28

panic15:                                          ; preds = %bb76
; call core::panicking::panic_null_pointer_dereference
  call void @_ZN4core9panicking30panic_null_pointer_dereference17hf718fcc86a223baaE(ptr align 8 @alloc_bb2dcecb12feab45d054c27de6bf0f4f) #4
  unreachable

bb28:                                             ; preds = %bb91, %bb94, %bb13, %bb109, %bb103, %bb99
  %_43 = load ptr, ptr %root, align 8
; call core::ptr::mut_ptr::<impl *mut T>::is_null
  %_42 = call zeroext i1 @"_ZN4core3ptr7mut_ptr31_$LT$impl$u20$$BP$mut$u20$T$GT$7is_null17he433ed47c4dbfb9eE"(ptr %_43) #3
  br i1 %_42, label %bb30, label %bb31

bb75:                                             ; preds = %bb20
  %_359 = load ptr, ptr %root, align 8
  %_360 = ptrtoint ptr %_359 to i64
  %_363 = icmp eq i64 %_360, 0
  %_364 = and i1 %_363, true
  %_365 = xor i1 %_364, true
  br i1 %_365, label %bb100, label %panic17

panic16:                                          ; preds = %bb20
; call core::panicking::panic_misaligned_pointer_dereference
  call void @_ZN4core9panicking36panic_misaligned_pointer_dereference17hcc3cbded9382b6e5E(i64 8, i64 %_198, ptr align 8 @alloc_9d85c936691d992c00ac173cf65a3071) #4
  unreachable

bb100:                                            ; preds = %bb75
  %16 = load ptr, ptr %root, align 8
  %17 = getelementptr inbounds i8, ptr %16, i64 16
  %_29 = load ptr, ptr %17, align 8
; call core::ptr::mut_ptr::<impl *mut T>::is_null
  %_28 = call zeroext i1 @"_ZN4core3ptr7mut_ptr31_$LT$impl$u20$$BP$mut$u20$T$GT$7is_null17he433ed47c4dbfb9eE"(ptr %_29) #3
  br i1 %_28, label %bb25, label %bb22

panic17:                                          ; preds = %bb75
; call core::panicking::panic_null_pointer_dereference
  call void @_ZN4core9panicking30panic_null_pointer_dereference17hf718fcc86a223baaE(ptr align 8 @alloc_9d85c936691d992c00ac173cf65a3071) #4
  unreachable

bb22:                                             ; preds = %bb100
  %_191 = load ptr, ptr %root, align 8
  %_192 = ptrtoint ptr %_191 to i64
  %_195 = and i64 %_192, 7
  %_196 = icmp eq i64 %_195, 0
  br i1 %_196, label %bb74, label %panic18

bb25:                                             ; preds = %bb101, %bb100
  %_173 = load ptr, ptr %root, align 8
  %_174 = ptrtoint ptr %_173 to i64
  %_177 = and i64 %_174, 7
  %_178 = icmp eq i64 %_177, 0
  br i1 %_178, label %bb71, label %panic24

bb74:                                             ; preds = %bb22
  %_366 = load ptr, ptr %root, align 8
  %_367 = ptrtoint ptr %_366 to i64
  %_370 = icmp eq i64 %_367, 0
  %_371 = and i1 %_370, true
  %_372 = xor i1 %_371, true
  br i1 %_372, label %bb101, label %panic19

panic18:                                          ; preds = %bb22
; call core::panicking::panic_misaligned_pointer_dereference
  call void @_ZN4core9panicking36panic_misaligned_pointer_dereference17hcc3cbded9382b6e5E(i64 8, i64 %_192, ptr align 8 @alloc_2e588b81eca2c08f37a448cb167d27f5) #4
  unreachable

bb101:                                            ; preds = %bb74
  %18 = load ptr, ptr %root, align 8
  %19 = getelementptr inbounds i8, ptr %18, i64 8
  %_31 = load ptr, ptr %19, align 8
; call core::ptr::mut_ptr::<impl *mut T>::is_null
  %_30 = call zeroext i1 @"_ZN4core3ptr7mut_ptr31_$LT$impl$u20$$BP$mut$u20$T$GT$7is_null17he433ed47c4dbfb9eE"(ptr %_31) #3
  br i1 %_30, label %bb24, label %bb25

panic19:                                          ; preds = %bb74
; call core::panicking::panic_null_pointer_dereference
  call void @_ZN4core9panicking30panic_null_pointer_dereference17hf718fcc86a223baaE(ptr align 8 @alloc_2e588b81eca2c08f37a448cb167d27f5) #4
  unreachable

bb24:                                             ; preds = %bb101
  %_185 = load ptr, ptr %root, align 8
  %_186 = ptrtoint ptr %_185 to i64
  %_189 = and i64 %_186, 7
  %_190 = icmp eq i64 %_189, 0
  br i1 %_190, label %bb73, label %panic20

bb73:                                             ; preds = %bb24
  %_373 = load ptr, ptr %root, align 8
  %_374 = ptrtoint ptr %_373 to i64
  %_377 = icmp eq i64 %_374, 0
  %_378 = and i1 %_377, true
  %_379 = xor i1 %_378, true
  br i1 %_379, label %bb102, label %panic21

panic20:                                          ; preds = %bb24
; call core::panicking::panic_misaligned_pointer_dereference
  call void @_ZN4core9panicking36panic_misaligned_pointer_dereference17hcc3cbded9382b6e5E(i64 8, i64 %_186, ptr align 8 @alloc_f096eaefcd1f9967a23ae43337faac6d) #4
  unreachable

bb102:                                            ; preds = %bb73
  %20 = load ptr, ptr %root, align 8
  %21 = getelementptr inbounds i8, ptr %20, i64 16
  %temp_0 = load ptr, ptr %21, align 8
  %_179 = load ptr, ptr %root, align 8
  %_180 = ptrtoint ptr %_179 to i64
  %_183 = and i64 %_180, 7
  %_184 = icmp eq i64 %_183, 0
  br i1 %_184, label %bb72, label %panic22

panic21:                                          ; preds = %bb73
; call core::panicking::panic_null_pointer_dereference
  call void @_ZN4core9panicking30panic_null_pointer_dereference17hf718fcc86a223baaE(ptr align 8 @alloc_f096eaefcd1f9967a23ae43337faac6d) #4
  unreachable

bb72:                                             ; preds = %bb102
  %_380 = load ptr, ptr %root, align 8
  %_381 = ptrtoint ptr %_380 to i64
  %_384 = icmp eq i64 %_381, 0
  %_385 = and i1 %_384, true
  %_386 = xor i1 %_385, true
  br i1 %_386, label %bb103, label %panic23

panic22:                                          ; preds = %bb102
; call core::panicking::panic_misaligned_pointer_dereference
  call void @_ZN4core9panicking36panic_misaligned_pointer_dereference17hcc3cbded9382b6e5E(i64 8, i64 %_180, ptr align 8 @alloc_b9fd4919d369efae790d15dc74509a6b) #4
  unreachable

bb103:                                            ; preds = %bb72
  %22 = load ptr, ptr %root, align 8
  %23 = getelementptr inbounds i8, ptr %22, i64 16
  %_33 = load ptr, ptr %23, align 8
  store ptr %_33, ptr %root, align 8
  call void @free(ptr %temp_0) #3
  br label %bb28

panic23:                                          ; preds = %bb72
; call core::panicking::panic_null_pointer_dereference
  call void @_ZN4core9panicking30panic_null_pointer_dereference17hf718fcc86a223baaE(ptr align 8 @alloc_b9fd4919d369efae790d15dc74509a6b) #4
  unreachable

bb71:                                             ; preds = %bb25
  %_387 = load ptr, ptr %root, align 8
  %_388 = ptrtoint ptr %_387 to i64
  %_391 = icmp eq i64 %_388, 0
  %_392 = and i1 %_391, true
  %_393 = xor i1 %_392, true
  br i1 %_393, label %bb104, label %panic25

panic24:                                          ; preds = %bb25
; call core::panicking::panic_misaligned_pointer_dereference
  call void @_ZN4core9panicking36panic_misaligned_pointer_dereference17hcc3cbded9382b6e5E(i64 8, i64 %_174, ptr align 8 @alloc_9f05d8c371444e1bc8b8eaaa2883ed24) #4
  unreachable

bb104:                                            ; preds = %bb71
  %24 = load ptr, ptr %root, align 8
  %25 = getelementptr inbounds i8, ptr %24, i64 16
  %_37 = load ptr, ptr %25, align 8
  %temp_1 = call ptr @FindMin(ptr %_37) #3
  %_168 = ptrtoint ptr %temp_1 to i64
  %_171 = and i64 %_168, 7
  %_172 = icmp eq i64 %_171, 0
  br i1 %_172, label %bb70, label %panic26

panic25:                                          ; preds = %bb71
; call core::panicking::panic_null_pointer_dereference
  call void @_ZN4core9panicking30panic_null_pointer_dereference17hf718fcc86a223baaE(ptr align 8 @alloc_9f05d8c371444e1bc8b8eaaa2883ed24) #4
  unreachable

bb70:                                             ; preds = %bb104
  %_395 = ptrtoint ptr %temp_1 to i64
  %_398 = icmp eq i64 %_395, 0
  %_399 = and i1 %_398, true
  %_400 = xor i1 %_399, true
  br i1 %_400, label %bb105, label %panic27

panic26:                                          ; preds = %bb104
; call core::panicking::panic_misaligned_pointer_dereference
  call void @_ZN4core9panicking36panic_misaligned_pointer_dereference17hcc3cbded9382b6e5E(i64 8, i64 %_168, ptr align 8 @alloc_58555e3e45414e971aa9ef0596236238) #4
  unreachable

bb105:                                            ; preds = %bb70
  %_38 = load i32, ptr %temp_1, align 8
  %_161 = load ptr, ptr %root, align 8
  %_162 = ptrtoint ptr %_161 to i64
  %_165 = and i64 %_162, 7
  %_166 = icmp eq i64 %_165, 0
  br i1 %_166, label %bb69, label %panic28

panic27:                                          ; preds = %bb70
; call core::panicking::panic_null_pointer_dereference
  call void @_ZN4core9panicking30panic_null_pointer_dereference17hf718fcc86a223baaE(ptr align 8 @alloc_58555e3e45414e971aa9ef0596236238) #4
  unreachable

bb69:                                             ; preds = %bb105
  %_401 = load ptr, ptr %root, align 8
  %_402 = ptrtoint ptr %_401 to i64
  %_405 = icmp eq i64 %_402, 0
  %_406 = and i1 %_405, true
  %_407 = xor i1 %_406, true
  br i1 %_407, label %bb106, label %panic29

panic28:                                          ; preds = %bb105
; call core::panicking::panic_misaligned_pointer_dereference
  call void @_ZN4core9panicking36panic_misaligned_pointer_dereference17hcc3cbded9382b6e5E(i64 8, i64 %_162, ptr align 8 @alloc_a988a53895c5e8cd3f2b29e497141d75) #4
  unreachable

bb106:                                            ; preds = %bb69
  %26 = load ptr, ptr %root, align 8
  store i32 %_38, ptr %26, align 8
  %_155 = load ptr, ptr %root, align 8
  %_156 = ptrtoint ptr %_155 to i64
  %_159 = and i64 %_156, 7
  %_160 = icmp eq i64 %_159, 0
  br i1 %_160, label %bb68, label %panic30

panic29:                                          ; preds = %bb69
; call core::panicking::panic_null_pointer_dereference
  call void @_ZN4core9panicking30panic_null_pointer_dereference17hf718fcc86a223baaE(ptr align 8 @alloc_a988a53895c5e8cd3f2b29e497141d75) #4
  unreachable

bb68:                                             ; preds = %bb106
  %_408 = load ptr, ptr %root, align 8
  %_409 = ptrtoint ptr %_408 to i64
  %_412 = icmp eq i64 %_409, 0
  %_413 = and i1 %_412, true
  %_414 = xor i1 %_413, true
  br i1 %_414, label %bb107, label %panic31

panic30:                                          ; preds = %bb106
; call core::panicking::panic_misaligned_pointer_dereference
  call void @_ZN4core9panicking36panic_misaligned_pointer_dereference17hcc3cbded9382b6e5E(i64 8, i64 %_156, ptr align 8 @alloc_64e8b3e390bb78848e9160efe3bfe85d) #4
  unreachable

bb107:                                            ; preds = %bb68
  %27 = load ptr, ptr %root, align 8
  %28 = getelementptr inbounds i8, ptr %27, i64 16
  %_40 = load ptr, ptr %28, align 8
  %_150 = ptrtoint ptr %temp_1 to i64
  %_153 = and i64 %_150, 7
  %_154 = icmp eq i64 %_153, 0
  br i1 %_154, label %bb67, label %panic32

panic31:                                          ; preds = %bb68
; call core::panicking::panic_null_pointer_dereference
  call void @_ZN4core9panicking30panic_null_pointer_dereference17hf718fcc86a223baaE(ptr align 8 @alloc_64e8b3e390bb78848e9160efe3bfe85d) #4
  unreachable

bb67:                                             ; preds = %bb107
  %_416 = ptrtoint ptr %temp_1 to i64
  %_419 = icmp eq i64 %_416, 0
  %_420 = and i1 %_419, true
  %_421 = xor i1 %_420, true
  br i1 %_421, label %bb108, label %panic33

panic32:                                          ; preds = %bb107
; call core::panicking::panic_misaligned_pointer_dereference
  call void @_ZN4core9panicking36panic_misaligned_pointer_dereference17hcc3cbded9382b6e5E(i64 8, i64 %_150, ptr align 8 @alloc_8696f842d14e31204e7b653ea78a0fde) #4
  unreachable

bb108:                                            ; preds = %bb67
  %_41 = load i32, ptr %temp_1, align 8
  %_39 = call ptr @Delete(ptr %_40, i32 %_41) #3
  %_143 = load ptr, ptr %root, align 8
  %_144 = ptrtoint ptr %_143 to i64
  %_147 = and i64 %_144, 7
  %_148 = icmp eq i64 %_147, 0
  br i1 %_148, label %bb66, label %panic34

panic33:                                          ; preds = %bb67
; call core::panicking::panic_null_pointer_dereference
  call void @_ZN4core9panicking30panic_null_pointer_dereference17hf718fcc86a223baaE(ptr align 8 @alloc_8696f842d14e31204e7b653ea78a0fde) #4
  unreachable

bb66:                                             ; preds = %bb108
  %_422 = load ptr, ptr %root, align 8
  %_423 = ptrtoint ptr %_422 to i64
  %_426 = icmp eq i64 %_423, 0
  %_427 = and i1 %_426, true
  %_428 = xor i1 %_427, true
  br i1 %_428, label %bb109, label %panic35

panic34:                                          ; preds = %bb108
; call core::panicking::panic_misaligned_pointer_dereference
  call void @_ZN4core9panicking36panic_misaligned_pointer_dereference17hcc3cbded9382b6e5E(i64 8, i64 %_144, ptr align 8 @alloc_0dd16aee46f951f9f6b160990237c72e) #4
  unreachable

bb109:                                            ; preds = %bb66
  %29 = load ptr, ptr %root, align 8
  %30 = getelementptr inbounds i8, ptr %29, i64 16
  store ptr %_39, ptr %30, align 8
  br label %bb28

panic35:                                          ; preds = %bb66
; call core::panicking::panic_null_pointer_dereference
  call void @_ZN4core9panicking30panic_null_pointer_dereference17hf718fcc86a223baaE(ptr align 8 @alloc_0dd16aee46f951f9f6b160990237c72e) #4
  unreachable

bb83:                                             ; preds = %bb7
  %_303 = load ptr, ptr %root, align 8
  %_304 = ptrtoint ptr %_303 to i64
  %_307 = icmp eq i64 %_304, 0
  %_308 = and i1 %_307, true
  %_309 = xor i1 %_308, true
  br i1 %_309, label %bb92, label %panic37

panic36:                                          ; preds = %bb7
; call core::panicking::panic_misaligned_pointer_dereference
  call void @_ZN4core9panicking36panic_misaligned_pointer_dereference17hcc3cbded9382b6e5E(i64 8, i64 %_246, ptr align 8 @alloc_a4c7f22df374b09066a17878168fae45) #4
  unreachable

bb92:                                             ; preds = %bb83
  %31 = load ptr, ptr %root, align 8
  %32 = getelementptr inbounds i8, ptr %31, i64 16
  %_12 = load ptr, ptr %32, align 8
  %_11 = call ptr @Delete(ptr %_12, i32 %data) #3
  %_233 = load ptr, ptr %root, align 8
  %_234 = ptrtoint ptr %_233 to i64
  %_237 = and i64 %_234, 7
  %_238 = icmp eq i64 %_237, 0
  br i1 %_238, label %bb81, label %panic38

panic37:                                          ; preds = %bb83
; call core::panicking::panic_null_pointer_dereference
  call void @_ZN4core9panicking30panic_null_pointer_dereference17hf718fcc86a223baaE(ptr align 8 @alloc_a4c7f22df374b09066a17878168fae45) #4
  unreachable

bb81:                                             ; preds = %bb92
  %_317 = load ptr, ptr %root, align 8
  %_318 = ptrtoint ptr %_317 to i64
  %_321 = icmp eq i64 %_318, 0
  %_322 = and i1 %_321, true
  %_323 = xor i1 %_322, true
  br i1 %_323, label %bb94, label %panic39

panic38:                                          ; preds = %bb92
; call core::panicking::panic_misaligned_pointer_dereference
  call void @_ZN4core9panicking36panic_misaligned_pointer_dereference17hcc3cbded9382b6e5E(i64 8, i64 %_234, ptr align 8 @alloc_fdc5f6fe634689cdbcb2296e8963e5df) #4
  unreachable

bb94:                                             ; preds = %bb81
  %33 = load ptr, ptr %root, align 8
  %34 = getelementptr inbounds i8, ptr %33, i64 16
  store ptr %_11, ptr %34, align 8
  br label %bb28

panic39:                                          ; preds = %bb81
; call core::panicking::panic_null_pointer_dereference
  call void @_ZN4core9panicking30panic_null_pointer_dereference17hf718fcc86a223baaE(ptr align 8 @alloc_fdc5f6fe634689cdbcb2296e8963e5df) #4
  unreachable

bb86:                                             ; preds = %bb4
  %_282 = load ptr, ptr %root, align 8
  %_283 = ptrtoint ptr %_282 to i64
  %_286 = icmp eq i64 %_283, 0
  %_287 = and i1 %_286, true
  %_288 = xor i1 %_287, true
  br i1 %_288, label %bb89, label %panic41

panic40:                                          ; preds = %bb4
; call core::panicking::panic_misaligned_pointer_dereference
  call void @_ZN4core9panicking36panic_misaligned_pointer_dereference17hcc3cbded9382b6e5E(i64 8, i64 %_264, ptr align 8 @alloc_01af410e3ec4ae482675c118b1548b48) #4
  unreachable

bb89:                                             ; preds = %bb86
  %35 = load ptr, ptr %root, align 8
  %36 = getelementptr inbounds i8, ptr %35, i64 8
  %_8 = load ptr, ptr %36, align 8
  %_7 = call ptr @Delete(ptr %_8, i32 %data) #3
  %_251 = load ptr, ptr %root, align 8
  %_252 = ptrtoint ptr %_251 to i64
  %_255 = and i64 %_252, 7
  %_256 = icmp eq i64 %_255, 0
  br i1 %_256, label %bb84, label %panic42

panic41:                                          ; preds = %bb86
; call core::panicking::panic_null_pointer_dereference
  call void @_ZN4core9panicking30panic_null_pointer_dereference17hf718fcc86a223baaE(ptr align 8 @alloc_01af410e3ec4ae482675c118b1548b48) #4
  unreachable

bb84:                                             ; preds = %bb89
  %_296 = load ptr, ptr %root, align 8
  %_297 = ptrtoint ptr %_296 to i64
  %_300 = icmp eq i64 %_297, 0
  %_301 = and i1 %_300, true
  %_302 = xor i1 %_301, true
  br i1 %_302, label %bb91, label %panic43

panic42:                                          ; preds = %bb89
; call core::panicking::panic_misaligned_pointer_dereference
  call void @_ZN4core9panicking36panic_misaligned_pointer_dereference17hcc3cbded9382b6e5E(i64 8, i64 %_252, ptr align 8 @alloc_1aa9c3ab3ec38e0d3207d2e5ac4937bd) #4
  unreachable

bb91:                                             ; preds = %bb84
  %37 = load ptr, ptr %root, align 8
  %38 = getelementptr inbounds i8, ptr %37, i64 8
  store ptr %_7, ptr %38, align 8
  br label %bb28

panic43:                                          ; preds = %bb84
; call core::panicking::panic_null_pointer_dereference
  call void @_ZN4core9panicking30panic_null_pointer_dereference17hf718fcc86a223baaE(ptr align 8 @alloc_1aa9c3ab3ec38e0d3207d2e5ac4937bd) #4
  unreachable

bb31:                                             ; preds = %bb28
  %_137 = load ptr, ptr %root, align 8
  %_138 = ptrtoint ptr %_137 to i64
  %_141 = and i64 %_138, 7
  %_142 = icmp eq i64 %_141, 0
  br i1 %_142, label %bb65, label %panic44

bb30:                                             ; preds = %bb28
  %39 = load ptr, ptr %root, align 8
  store ptr %39, ptr %_0, align 8
  br label %bb54

bb65:                                             ; preds = %bb31
  %_429 = load ptr, ptr %root, align 8
  %_430 = ptrtoint ptr %_429 to i64
  %_433 = icmp eq i64 %_430, 0
  %_434 = and i1 %_433, true
  %_435 = xor i1 %_434, true
  br i1 %_435, label %bb110, label %panic45

panic44:                                          ; preds = %bb31
; call core::panicking::panic_misaligned_pointer_dereference
  call void @_ZN4core9panicking36panic_misaligned_pointer_dereference17hcc3cbded9382b6e5E(i64 8, i64 %_138, ptr align 8 @alloc_47c3f72a2d5278c6c8bd778348afee80) #4
  unreachable

bb110:                                            ; preds = %bb65
  %40 = load ptr, ptr %root, align 8
  %41 = getelementptr inbounds i8, ptr %40, i64 8
  %_46 = load ptr, ptr %41, align 8
  %_45 = call i32 @height(ptr %_46) #3
  %_131 = load ptr, ptr %root, align 8
  %_132 = ptrtoint ptr %_131 to i64
  %_135 = and i64 %_132, 7
  %_136 = icmp eq i64 %_135, 0
  br i1 %_136, label %bb64, label %panic46

panic45:                                          ; preds = %bb65
; call core::panicking::panic_null_pointer_dereference
  call void @_ZN4core9panicking30panic_null_pointer_dereference17hf718fcc86a223baaE(ptr align 8 @alloc_47c3f72a2d5278c6c8bd778348afee80) #4
  unreachable

bb64:                                             ; preds = %bb110
  %_436 = load ptr, ptr %root, align 8
  %_437 = ptrtoint ptr %_436 to i64
  %_440 = icmp eq i64 %_437, 0
  %_441 = and i1 %_440, true
  %_442 = xor i1 %_441, true
  br i1 %_442, label %bb111, label %panic47

panic46:                                          ; preds = %bb110
; call core::panicking::panic_misaligned_pointer_dereference
  call void @_ZN4core9panicking36panic_misaligned_pointer_dereference17hcc3cbded9382b6e5E(i64 8, i64 %_132, ptr align 8 @alloc_d054441965044b1d325800588462e462) #4
  unreachable

bb111:                                            ; preds = %bb64
  %42 = load ptr, ptr %root, align 8
  %43 = getelementptr inbounds i8, ptr %42, i64 16
  %_48 = load ptr, ptr %43, align 8
  %_47 = call i32 @height(ptr %_48) #3
  %_44 = call i32 @max(i32 %_45, i32 %_47) #3
  %_125 = load ptr, ptr %root, align 8
  %_126 = ptrtoint ptr %_125 to i64
  %_129 = and i64 %_126, 7
  %_130 = icmp eq i64 %_129, 0
  br i1 %_130, label %bb63, label %panic48

panic47:                                          ; preds = %bb64
; call core::panicking::panic_null_pointer_dereference
  call void @_ZN4core9panicking30panic_null_pointer_dereference17hf718fcc86a223baaE(ptr align 8 @alloc_d054441965044b1d325800588462e462) #4
  unreachable

bb63:                                             ; preds = %bb111
  %_443 = load ptr, ptr %root, align 8
  %_444 = ptrtoint ptr %_443 to i64
  %_447 = icmp eq i64 %_444, 0
  %_448 = and i1 %_447, true
  %_449 = xor i1 %_448, true
  br i1 %_449, label %bb112, label %panic49

panic48:                                          ; preds = %bb111
; call core::panicking::panic_misaligned_pointer_dereference
  call void @_ZN4core9panicking36panic_misaligned_pointer_dereference17hcc3cbded9382b6e5E(i64 8, i64 %_126, ptr align 8 @alloc_2d10d109c7752ea3dc42b94ce8ed6bb6) #4
  unreachable

bb112:                                            ; preds = %bb63
  %44 = load ptr, ptr %root, align 8
  %45 = getelementptr inbounds i8, ptr %44, i64 4
  %46 = add i32 1, %_44
  store i32 %46, ptr %45, align 4
  %_50 = load ptr, ptr %root, align 8
  %balance = call i32 @Balance(ptr %_50) #3
  %_51 = icmp sgt i32 %balance, 1
  br i1 %_51, label %bb36, label %bb39

panic49:                                          ; preds = %bb63
; call core::panicking::panic_null_pointer_dereference
  call void @_ZN4core9panicking30panic_null_pointer_dereference17hf718fcc86a223baaE(ptr align 8 @alloc_2d10d109c7752ea3dc42b94ce8ed6bb6) #4
  unreachable

bb39:                                             ; preds = %bb113, %bb112
  %_56 = icmp slt i32 %balance, -1
  br i1 %_56, label %bb40, label %bb43

bb36:                                             ; preds = %bb112
  %_119 = load ptr, ptr %root, align 8
  %_120 = ptrtoint ptr %_119 to i64
  %_123 = and i64 %_120, 7
  %_124 = icmp eq i64 %_123, 0
  br i1 %_124, label %bb62, label %panic50

bb62:                                             ; preds = %bb36
  %_450 = load ptr, ptr %root, align 8
  %_451 = ptrtoint ptr %_450 to i64
  %_454 = icmp eq i64 %_451, 0
  %_455 = and i1 %_454, true
  %_456 = xor i1 %_455, true
  br i1 %_456, label %bb113, label %panic51

panic50:                                          ; preds = %bb36
; call core::panicking::panic_misaligned_pointer_dereference
  call void @_ZN4core9panicking36panic_misaligned_pointer_dereference17hcc3cbded9382b6e5E(i64 8, i64 %_120, ptr align 8 @alloc_e00bd70c2acfee9dd5dbdbb25898871e) #4
  unreachable

bb113:                                            ; preds = %bb62
  %47 = load ptr, ptr %root, align 8
  %48 = getelementptr inbounds i8, ptr %47, i64 8
  %_54 = load ptr, ptr %48, align 8
  %_53 = call i32 @Balance(ptr %_54) #3
  %_52 = icmp sge i32 %_53, 0
  br i1 %_52, label %bb38, label %bb39

panic51:                                          ; preds = %bb62
; call core::panicking::panic_null_pointer_dereference
  call void @_ZN4core9panicking30panic_null_pointer_dereference17hf718fcc86a223baaE(ptr align 8 @alloc_e00bd70c2acfee9dd5dbdbb25898871e) #4
  unreachable

bb38:                                             ; preds = %bb113
  %_55 = load ptr, ptr %root, align 8
  %49 = call ptr @RightRotate(ptr %_55) #3
  store ptr %49, ptr %_0, align 8
  br label %bb54

bb43:                                             ; preds = %bb114, %bb39
  %_62 = icmp sgt i32 %balance, 1
  br i1 %_62, label %bb44, label %bb48

bb40:                                             ; preds = %bb39
  %_113 = load ptr, ptr %root, align 8
  %_114 = ptrtoint ptr %_113 to i64
  %_117 = and i64 %_114, 7
  %_118 = icmp eq i64 %_117, 0
  br i1 %_118, label %bb61, label %panic52

bb61:                                             ; preds = %bb40
  %_457 = load ptr, ptr %root, align 8
  %_458 = ptrtoint ptr %_457 to i64
  %_461 = icmp eq i64 %_458, 0
  %_462 = and i1 %_461, true
  %_463 = xor i1 %_462, true
  br i1 %_463, label %bb114, label %panic53

panic52:                                          ; preds = %bb40
; call core::panicking::panic_misaligned_pointer_dereference
  call void @_ZN4core9panicking36panic_misaligned_pointer_dereference17hcc3cbded9382b6e5E(i64 8, i64 %_114, ptr align 8 @alloc_7db8c138cbc4817c2793c3e463dbd765) #4
  unreachable

bb114:                                            ; preds = %bb61
  %50 = load ptr, ptr %root, align 8
  %51 = getelementptr inbounds i8, ptr %50, i64 16
  %_60 = load ptr, ptr %51, align 8
  %_59 = call i32 @Balance(ptr %_60) #3
  %_58 = icmp sle i32 %_59, 0
  br i1 %_58, label %bb42, label %bb43

panic53:                                          ; preds = %bb61
; call core::panicking::panic_null_pointer_dereference
  call void @_ZN4core9panicking30panic_null_pointer_dereference17hf718fcc86a223baaE(ptr align 8 @alloc_7db8c138cbc4817c2793c3e463dbd765) #4
  unreachable

bb42:                                             ; preds = %bb114
  %_61 = load ptr, ptr %root, align 8
  %52 = call ptr @LeftRotate(ptr %_61) #3
  store ptr %52, ptr %_0, align 8
  br label %bb54

bb48:                                             ; preds = %bb115, %bb43
  %_69 = icmp slt i32 %balance, -1
  br i1 %_69, label %bb49, label %bb53

bb44:                                             ; preds = %bb43
  %_107 = load ptr, ptr %root, align 8
  %_108 = ptrtoint ptr %_107 to i64
  %_111 = and i64 %_108, 7
  %_112 = icmp eq i64 %_111, 0
  br i1 %_112, label %bb60, label %panic54

bb60:                                             ; preds = %bb44
  %_464 = load ptr, ptr %root, align 8
  %_465 = ptrtoint ptr %_464 to i64
  %_468 = icmp eq i64 %_465, 0
  %_469 = and i1 %_468, true
  %_470 = xor i1 %_469, true
  br i1 %_470, label %bb115, label %panic55

panic54:                                          ; preds = %bb44
; call core::panicking::panic_misaligned_pointer_dereference
  call void @_ZN4core9panicking36panic_misaligned_pointer_dereference17hcc3cbded9382b6e5E(i64 8, i64 %_108, ptr align 8 @alloc_be23a62c977991a6611bfaafb8f21f3f) #4
  unreachable

bb115:                                            ; preds = %bb60
  %53 = load ptr, ptr %root, align 8
  %54 = getelementptr inbounds i8, ptr %53, i64 8
  %_65 = load ptr, ptr %54, align 8
  %_64 = call i32 @Balance(ptr %_65) #3
  %_63 = icmp slt i32 %_64, 0
  br i1 %_63, label %bb46, label %bb48

panic55:                                          ; preds = %bb60
; call core::panicking::panic_null_pointer_dereference
  call void @_ZN4core9panicking30panic_null_pointer_dereference17hf718fcc86a223baaE(ptr align 8 @alloc_be23a62c977991a6611bfaafb8f21f3f) #4
  unreachable

bb46:                                             ; preds = %bb115
  %_101 = load ptr, ptr %root, align 8
  %_102 = ptrtoint ptr %_101 to i64
  %_105 = and i64 %_102, 7
  %_106 = icmp eq i64 %_105, 0
  br i1 %_106, label %bb59, label %panic62

bb53:                                             ; preds = %bb118, %bb48
  %55 = load ptr, ptr %root, align 8
  store ptr %55, ptr %_0, align 8
  br label %bb54

bb49:                                             ; preds = %bb48
  %_89 = load ptr, ptr %root, align 8
  %_90 = ptrtoint ptr %_89 to i64
  %_93 = and i64 %_90, 7
  %_94 = icmp eq i64 %_93, 0
  br i1 %_94, label %bb57, label %panic56

bb57:                                             ; preds = %bb49
  %_485 = load ptr, ptr %root, align 8
  %_486 = ptrtoint ptr %_485 to i64
  %_489 = icmp eq i64 %_486, 0
  %_490 = and i1 %_489, true
  %_491 = xor i1 %_490, true
  br i1 %_491, label %bb118, label %panic57

panic56:                                          ; preds = %bb49
; call core::panicking::panic_misaligned_pointer_dereference
  call void @_ZN4core9panicking36panic_misaligned_pointer_dereference17hcc3cbded9382b6e5E(i64 8, i64 %_90, ptr align 8 @alloc_e7a92dcb4a0adc7a5fe9bd61a8dc3fc3) #4
  unreachable

bb118:                                            ; preds = %bb57
  %56 = load ptr, ptr %root, align 8
  %57 = getelementptr inbounds i8, ptr %56, i64 16
  %_73 = load ptr, ptr %57, align 8
  %_72 = call i32 @Balance(ptr %_73) #3
  %_71 = icmp sgt i32 %_72, 0
  br i1 %_71, label %bb51, label %bb53

panic57:                                          ; preds = %bb57
; call core::panicking::panic_null_pointer_dereference
  call void @_ZN4core9panicking30panic_null_pointer_dereference17hf718fcc86a223baaE(ptr align 8 @alloc_e7a92dcb4a0adc7a5fe9bd61a8dc3fc3) #4
  unreachable

bb51:                                             ; preds = %bb118
  %_83 = load ptr, ptr %root, align 8
  %_84 = ptrtoint ptr %_83 to i64
  %_87 = and i64 %_84, 7
  %_88 = icmp eq i64 %_87, 0
  br i1 %_88, label %bb56, label %panic58

bb54:                                             ; preds = %bb2, %bb30, %bb38, %bb42, %bb117, %bb120, %bb53
  %58 = load ptr, ptr %_0, align 8
  ret ptr %58

bb56:                                             ; preds = %bb51
  %_492 = load ptr, ptr %root, align 8
  %_493 = ptrtoint ptr %_492 to i64
  %_496 = icmp eq i64 %_493, 0
  %_497 = and i1 %_496, true
  %_498 = xor i1 %_497, true
  br i1 %_498, label %bb119, label %panic59

panic58:                                          ; preds = %bb51
; call core::panicking::panic_misaligned_pointer_dereference
  call void @_ZN4core9panicking36panic_misaligned_pointer_dereference17hcc3cbded9382b6e5E(i64 8, i64 %_84, ptr align 8 @alloc_2b0e9c7a73dbe60b4abaaa25b92c50c7) #4
  unreachable

bb119:                                            ; preds = %bb56
  %59 = load ptr, ptr %root, align 8
  %60 = getelementptr inbounds i8, ptr %59, i64 16
  %_75 = load ptr, ptr %60, align 8
  %_74 = call ptr @RightRotate(ptr %_75) #3
  %_77 = load ptr, ptr %root, align 8
  %_78 = ptrtoint ptr %_77 to i64
  %_81 = and i64 %_78, 7
  %_82 = icmp eq i64 %_81, 0
  br i1 %_82, label %bb55, label %panic60

panic59:                                          ; preds = %bb56
; call core::panicking::panic_null_pointer_dereference
  call void @_ZN4core9panicking30panic_null_pointer_dereference17hf718fcc86a223baaE(ptr align 8 @alloc_2b0e9c7a73dbe60b4abaaa25b92c50c7) #4
  unreachable

bb55:                                             ; preds = %bb119
  %_499 = load ptr, ptr %root, align 8
  %_500 = ptrtoint ptr %_499 to i64
  %_503 = icmp eq i64 %_500, 0
  %_504 = and i1 %_503, true
  %_505 = xor i1 %_504, true
  br i1 %_505, label %bb120, label %panic61

panic60:                                          ; preds = %bb119
; call core::panicking::panic_misaligned_pointer_dereference
  call void @_ZN4core9panicking36panic_misaligned_pointer_dereference17hcc3cbded9382b6e5E(i64 8, i64 %_78, ptr align 8 @alloc_847817f60a835e11a29d83b54122ef92) #4
  unreachable

bb120:                                            ; preds = %bb55
  %61 = load ptr, ptr %root, align 8
  %62 = getelementptr inbounds i8, ptr %61, i64 16
  store ptr %_74, ptr %62, align 8
  %_76 = load ptr, ptr %root, align 8
  %63 = call ptr @LeftRotate(ptr %_76) #3
  store ptr %63, ptr %_0, align 8
  br label %bb54

panic61:                                          ; preds = %bb55
; call core::panicking::panic_null_pointer_dereference
  call void @_ZN4core9panicking30panic_null_pointer_dereference17hf718fcc86a223baaE(ptr align 8 @alloc_847817f60a835e11a29d83b54122ef92) #4
  unreachable

bb59:                                             ; preds = %bb46
  %_471 = load ptr, ptr %root, align 8
  %_472 = ptrtoint ptr %_471 to i64
  %_475 = icmp eq i64 %_472, 0
  %_476 = and i1 %_475, true
  %_477 = xor i1 %_476, true
  br i1 %_477, label %bb116, label %panic63

panic62:                                          ; preds = %bb46
; call core::panicking::panic_misaligned_pointer_dereference
  call void @_ZN4core9panicking36panic_misaligned_pointer_dereference17hcc3cbded9382b6e5E(i64 8, i64 %_102, ptr align 8 @alloc_89e54353945960c34b7ec709e954720f) #4
  unreachable

bb116:                                            ; preds = %bb59
  %64 = load ptr, ptr %root, align 8
  %65 = getelementptr inbounds i8, ptr %64, i64 8
  %_67 = load ptr, ptr %65, align 8
  %_66 = call ptr @LeftRotate(ptr %_67) #3
  %_95 = load ptr, ptr %root, align 8
  %_96 = ptrtoint ptr %_95 to i64
  %_99 = and i64 %_96, 7
  %_100 = icmp eq i64 %_99, 0
  br i1 %_100, label %bb58, label %panic64

panic63:                                          ; preds = %bb59
; call core::panicking::panic_null_pointer_dereference
  call void @_ZN4core9panicking30panic_null_pointer_dereference17hf718fcc86a223baaE(ptr align 8 @alloc_89e54353945960c34b7ec709e954720f) #4
  unreachable

bb58:                                             ; preds = %bb116
  %_478 = load ptr, ptr %root, align 8
  %_479 = ptrtoint ptr %_478 to i64
  %_482 = icmp eq i64 %_479, 0
  %_483 = and i1 %_482, true
  %_484 = xor i1 %_483, true
  br i1 %_484, label %bb117, label %panic65

panic64:                                          ; preds = %bb116
; call core::panicking::panic_misaligned_pointer_dereference
  call void @_ZN4core9panicking36panic_misaligned_pointer_dereference17hcc3cbded9382b6e5E(i64 8, i64 %_96, ptr align 8 @alloc_fa7cb792d868834bda8b7d5900da621b) #4
  unreachable

bb117:                                            ; preds = %bb58
  %66 = load ptr, ptr %root, align 8
  %67 = getelementptr inbounds i8, ptr %66, i64 8
  store ptr %_66, ptr %67, align 8
  %_68 = load ptr, ptr %root, align 8
  %68 = call ptr @RightRotate(ptr %_68) #3
  store ptr %68, ptr %_0, align 8
  br label %bb54

panic65:                                          ; preds = %bb58
; call core::panicking::panic_null_pointer_dereference
  call void @_ZN4core9panicking30panic_null_pointer_dereference17hf718fcc86a223baaE(ptr align 8 @alloc_fa7cb792d868834bda8b7d5900da621b) #4
  unreachable
}

; Function Attrs: nounwind nonlazybind
define ptr @Insert(ptr %root, i32 %data) unnamed_addr #1 {
start:
  %_0 = alloca [8 x i8], align 8
; call core::ptr::mut_ptr::<impl *mut T>::is_null
  %_3 = call zeroext i1 @"_ZN4core3ptr7mut_ptr31_$LT$impl$u20$$BP$mut$u20$T$GT$7is_null17he433ed47c4dbfb9eE"(ptr %root) #3
  br i1 %_3, label %bb2, label %bb3

bb3:                                              ; preds = %start
  %_137 = ptrtoint ptr %root to i64
  %_140 = and i64 %_137, 7
  %_141 = icmp eq i64 %_140, 0
  br i1 %_141, label %bb46, label %panic

bb2:                                              ; preds = %start
  %0 = call ptr @NewNode(i32 %data) #3
  store ptr %0, ptr %_0, align 8
  br label %bb29

bb46:                                             ; preds = %bb3
  %_143 = ptrtoint ptr %root to i64
  %_146 = icmp eq i64 %_143, 0
  %_147 = and i1 %_146, true
  %_148 = xor i1 %_147, true
  br i1 %_148, label %bb47, label %panic1

panic:                                            ; preds = %bb3
; call core::panicking::panic_misaligned_pointer_dereference
  call void @_ZN4core9panicking36panic_misaligned_pointer_dereference17hcc3cbded9382b6e5E(i64 8, i64 %_137, ptr align 8 @alloc_b4d74324b3096d801f2e71f13efb1d03) #4
  unreachable

bb47:                                             ; preds = %bb46
  %_5 = load i32, ptr %root, align 8
  %_4 = icmp slt i32 %data, %_5
  br i1 %_4, label %bb4, label %bb5

panic1:                                           ; preds = %bb46
; call core::panicking::panic_null_pointer_dereference
  call void @_ZN4core9panicking30panic_null_pointer_dereference17hf718fcc86a223baaE(ptr align 8 @alloc_b4d74324b3096d801f2e71f13efb1d03) #4
  unreachable

bb5:                                              ; preds = %bb47
  %_125 = ptrtoint ptr %root to i64
  %_128 = and i64 %_125, 7
  %_129 = icmp eq i64 %_128, 0
  br i1 %_129, label %bb44, label %panic2

bb4:                                              ; preds = %bb47
  %_131 = ptrtoint ptr %root to i64
  %_134 = and i64 %_131, 7
  %_135 = icmp eq i64 %_134, 0
  br i1 %_135, label %bb45, label %panic8

bb44:                                             ; preds = %bb5
  %_157 = ptrtoint ptr %root to i64
  %_160 = icmp eq i64 %_157, 0
  %_161 = and i1 %_160, true
  %_162 = xor i1 %_161, true
  br i1 %_162, label %bb49, label %panic3

panic2:                                           ; preds = %bb5
; call core::panicking::panic_misaligned_pointer_dereference
  call void @_ZN4core9panicking36panic_misaligned_pointer_dereference17hcc3cbded9382b6e5E(i64 8, i64 %_125, ptr align 8 @alloc_b2840952ea47fe32ec7b9626057347cc) #4
  unreachable

bb49:                                             ; preds = %bb44
  %_9 = load i32, ptr %root, align 8
  %_8 = icmp sgt i32 %data, %_9
  br i1 %_8, label %bb7, label %bb8

panic3:                                           ; preds = %bb44
; call core::panicking::panic_null_pointer_dereference
  call void @_ZN4core9panicking30panic_null_pointer_dereference17hf718fcc86a223baaE(ptr align 8 @alloc_b2840952ea47fe32ec7b9626057347cc) #4
  unreachable

bb8:                                              ; preds = %bb49
  store ptr %root, ptr %_0, align 8
  br label %bb29

bb7:                                              ; preds = %bb49
  %_113 = ptrtoint ptr %root to i64
  %_116 = and i64 %_113, 7
  %_117 = icmp eq i64 %_116, 0
  br i1 %_117, label %bb42, label %panic4

bb29:                                             ; preds = %bb2, %bb16, %bb19, %bb60, %bb63, %bb28, %bb8
  %1 = load ptr, ptr %_0, align 8
  ret ptr %1

bb42:                                             ; preds = %bb7
  %_171 = ptrtoint ptr %root to i64
  %_174 = icmp eq i64 %_171, 0
  %_175 = and i1 %_174, true
  %_176 = xor i1 %_175, true
  br i1 %_176, label %bb51, label %panic5

panic4:                                           ; preds = %bb7
; call core::panicking::panic_misaligned_pointer_dereference
  call void @_ZN4core9panicking36panic_misaligned_pointer_dereference17hcc3cbded9382b6e5E(i64 8, i64 %_113, ptr align 8 @alloc_19867066635710319d0f19d2636647e1) #4
  unreachable

bb51:                                             ; preds = %bb42
  %2 = getelementptr inbounds i8, ptr %root, i64 16
  %_11 = load ptr, ptr %2, align 8
  %_10 = call ptr @Insert(ptr %_11, i32 %data) #3
  %_107 = ptrtoint ptr %root to i64
  %_110 = and i64 %_107, 7
  %_111 = icmp eq i64 %_110, 0
  br i1 %_111, label %bb41, label %panic6

panic5:                                           ; preds = %bb42
; call core::panicking::panic_null_pointer_dereference
  call void @_ZN4core9panicking30panic_null_pointer_dereference17hf718fcc86a223baaE(ptr align 8 @alloc_19867066635710319d0f19d2636647e1) #4
  unreachable

bb41:                                             ; preds = %bb51
  %_178 = ptrtoint ptr %root to i64
  %_181 = icmp eq i64 %_178, 0
  %_182 = and i1 %_181, true
  %_183 = xor i1 %_182, true
  br i1 %_183, label %bb52, label %panic7

panic6:                                           ; preds = %bb51
; call core::panicking::panic_misaligned_pointer_dereference
  call void @_ZN4core9panicking36panic_misaligned_pointer_dereference17hcc3cbded9382b6e5E(i64 8, i64 %_107, ptr align 8 @alloc_5f7af6f0b30d25daf9912bab84da9bdc) #4
  unreachable

bb52:                                             ; preds = %bb41
  %3 = getelementptr inbounds i8, ptr %root, i64 16
  store ptr %_10, ptr %3, align 8
  br label %bb10

panic7:                                           ; preds = %bb41
; call core::panicking::panic_null_pointer_dereference
  call void @_ZN4core9panicking30panic_null_pointer_dereference17hf718fcc86a223baaE(ptr align 8 @alloc_5f7af6f0b30d25daf9912bab84da9bdc) #4
  unreachable

bb10:                                             ; preds = %bb50, %bb52
  %_101 = ptrtoint ptr %root to i64
  %_104 = and i64 %_101, 7
  %_105 = icmp eq i64 %_104, 0
  br i1 %_105, label %bb40, label %panic12

bb45:                                             ; preds = %bb4
  %_150 = ptrtoint ptr %root to i64
  %_153 = icmp eq i64 %_150, 0
  %_154 = and i1 %_153, true
  %_155 = xor i1 %_154, true
  br i1 %_155, label %bb48, label %panic9

panic8:                                           ; preds = %bb4
; call core::panicking::panic_misaligned_pointer_dereference
  call void @_ZN4core9panicking36panic_misaligned_pointer_dereference17hcc3cbded9382b6e5E(i64 8, i64 %_131, ptr align 8 @alloc_d0c2440eb00a33f6b37396c6b8bc64ef) #4
  unreachable

bb48:                                             ; preds = %bb45
  %4 = getelementptr inbounds i8, ptr %root, i64 8
  %_7 = load ptr, ptr %4, align 8
  %_6 = call ptr @Insert(ptr %_7, i32 %data) #3
  %_119 = ptrtoint ptr %root to i64
  %_122 = and i64 %_119, 7
  %_123 = icmp eq i64 %_122, 0
  br i1 %_123, label %bb43, label %panic10

panic9:                                           ; preds = %bb45
; call core::panicking::panic_null_pointer_dereference
  call void @_ZN4core9panicking30panic_null_pointer_dereference17hf718fcc86a223baaE(ptr align 8 @alloc_d0c2440eb00a33f6b37396c6b8bc64ef) #4
  unreachable

bb43:                                             ; preds = %bb48
  %_164 = ptrtoint ptr %root to i64
  %_167 = icmp eq i64 %_164, 0
  %_168 = and i1 %_167, true
  %_169 = xor i1 %_168, true
  br i1 %_169, label %bb50, label %panic11

panic10:                                          ; preds = %bb48
; call core::panicking::panic_misaligned_pointer_dereference
  call void @_ZN4core9panicking36panic_misaligned_pointer_dereference17hcc3cbded9382b6e5E(i64 8, i64 %_119, ptr align 8 @alloc_7fed4a1089f77536642fd43c2a992067) #4
  unreachable

bb50:                                             ; preds = %bb43
  %5 = getelementptr inbounds i8, ptr %root, i64 8
  store ptr %_6, ptr %5, align 8
  br label %bb10

panic11:                                          ; preds = %bb43
; call core::panicking::panic_null_pointer_dereference
  call void @_ZN4core9panicking30panic_null_pointer_dereference17hf718fcc86a223baaE(ptr align 8 @alloc_7fed4a1089f77536642fd43c2a992067) #4
  unreachable

bb40:                                             ; preds = %bb10
  %_185 = ptrtoint ptr %root to i64
  %_188 = icmp eq i64 %_185, 0
  %_189 = and i1 %_188, true
  %_190 = xor i1 %_189, true
  br i1 %_190, label %bb53, label %panic13

panic12:                                          ; preds = %bb10
; call core::panicking::panic_misaligned_pointer_dereference
  call void @_ZN4core9panicking36panic_misaligned_pointer_dereference17hcc3cbded9382b6e5E(i64 8, i64 %_101, ptr align 8 @alloc_c4f5b5d7f8712adf31aa5aea1797bae8) #4
  unreachable

bb53:                                             ; preds = %bb40
  %6 = getelementptr inbounds i8, ptr %root, i64 8
  %_14 = load ptr, ptr %6, align 8
  %_13 = call i32 @height(ptr %_14) #3
  %_95 = ptrtoint ptr %root to i64
  %_98 = and i64 %_95, 7
  %_99 = icmp eq i64 %_98, 0
  br i1 %_99, label %bb39, label %panic14

panic13:                                          ; preds = %bb40
; call core::panicking::panic_null_pointer_dereference
  call void @_ZN4core9panicking30panic_null_pointer_dereference17hf718fcc86a223baaE(ptr align 8 @alloc_c4f5b5d7f8712adf31aa5aea1797bae8) #4
  unreachable

bb39:                                             ; preds = %bb53
  %_192 = ptrtoint ptr %root to i64
  %_195 = icmp eq i64 %_192, 0
  %_196 = and i1 %_195, true
  %_197 = xor i1 %_196, true
  br i1 %_197, label %bb54, label %panic15

panic14:                                          ; preds = %bb53
; call core::panicking::panic_misaligned_pointer_dereference
  call void @_ZN4core9panicking36panic_misaligned_pointer_dereference17hcc3cbded9382b6e5E(i64 8, i64 %_95, ptr align 8 @alloc_801c025f8be728a4d212806268e13b17) #4
  unreachable

bb54:                                             ; preds = %bb39
  %7 = getelementptr inbounds i8, ptr %root, i64 16
  %_16 = load ptr, ptr %7, align 8
  %_15 = call i32 @height(ptr %_16) #3
  %_12 = call i32 @max(i32 %_13, i32 %_15) #3
  %_89 = ptrtoint ptr %root to i64
  %_92 = and i64 %_89, 7
  %_93 = icmp eq i64 %_92, 0
  br i1 %_93, label %bb38, label %panic16

panic15:                                          ; preds = %bb39
; call core::panicking::panic_null_pointer_dereference
  call void @_ZN4core9panicking30panic_null_pointer_dereference17hf718fcc86a223baaE(ptr align 8 @alloc_801c025f8be728a4d212806268e13b17) #4
  unreachable

bb38:                                             ; preds = %bb54
  %_199 = ptrtoint ptr %root to i64
  %_202 = icmp eq i64 %_199, 0
  %_203 = and i1 %_202, true
  %_204 = xor i1 %_203, true
  br i1 %_204, label %bb55, label %panic17

panic16:                                          ; preds = %bb54
; call core::panicking::panic_misaligned_pointer_dereference
  call void @_ZN4core9panicking36panic_misaligned_pointer_dereference17hcc3cbded9382b6e5E(i64 8, i64 %_89, ptr align 8 @alloc_fc7874fb1a27689c0b99ab6550ca627c) #4
  unreachable

bb55:                                             ; preds = %bb38
  %8 = getelementptr inbounds i8, ptr %root, i64 4
  %9 = add i32 %_12, 1
  store i32 %9, ptr %8, align 4
  %balance = call i32 @Balance(ptr %root) #3
  %_18 = icmp sgt i32 %balance, 1
  br i1 %_18, label %bb15, label %bb17

panic17:                                          ; preds = %bb38
; call core::panicking::panic_null_pointer_dereference
  call void @_ZN4core9panicking30panic_null_pointer_dereference17hf718fcc86a223baaE(ptr align 8 @alloc_fc7874fb1a27689c0b99ab6550ca627c) #4
  unreachable

bb17:                                             ; preds = %bb56, %bb55
  %_21 = icmp slt i32 %balance, -1
  br i1 %_21, label %bb18, label %bb20

bb15:                                             ; preds = %bb55
  %10 = getelementptr inbounds i8, ptr %root, i64 8
  %_36 = load ptr, ptr %10, align 8
  %_83 = ptrtoint ptr %_36 to i64
  %_86 = and i64 %_83, 7
  %_87 = icmp eq i64 %_86, 0
  br i1 %_87, label %bb37, label %panic18

bb37:                                             ; preds = %bb15
  %_206 = ptrtoint ptr %_36 to i64
  %_209 = icmp eq i64 %_206, 0
  %_210 = and i1 %_209, true
  %_211 = xor i1 %_210, true
  br i1 %_211, label %bb56, label %panic19

panic18:                                          ; preds = %bb15
; call core::panicking::panic_misaligned_pointer_dereference
  call void @_ZN4core9panicking36panic_misaligned_pointer_dereference17hcc3cbded9382b6e5E(i64 8, i64 %_83, ptr align 8 @alloc_c4672201980cf14015c5d521aee9a784) #4
  unreachable

bb56:                                             ; preds = %bb37
  %_20 = load i32, ptr %_36, align 8
  %_19 = icmp slt i32 %data, %_20
  br i1 %_19, label %bb16, label %bb17

panic19:                                          ; preds = %bb37
; call core::panicking::panic_null_pointer_dereference
  call void @_ZN4core9panicking30panic_null_pointer_dereference17hf718fcc86a223baaE(ptr align 8 @alloc_c4672201980cf14015c5d521aee9a784) #4
  unreachable

bb16:                                             ; preds = %bb56
  %11 = call ptr @RightRotate(ptr %root) #3
  store ptr %11, ptr %_0, align 8
  br label %bb29

bb20:                                             ; preds = %bb57, %bb17
  %_25 = icmp sgt i32 %balance, 1
  br i1 %_25, label %bb21, label %bb24

bb18:                                             ; preds = %bb17
  %12 = getelementptr inbounds i8, ptr %root, i64 16
  %_37 = load ptr, ptr %12, align 8
  %_77 = ptrtoint ptr %_37 to i64
  %_80 = and i64 %_77, 7
  %_81 = icmp eq i64 %_80, 0
  br i1 %_81, label %bb36, label %panic20

bb36:                                             ; preds = %bb18
  %_213 = ptrtoint ptr %_37 to i64
  %_216 = icmp eq i64 %_213, 0
  %_217 = and i1 %_216, true
  %_218 = xor i1 %_217, true
  br i1 %_218, label %bb57, label %panic21

panic20:                                          ; preds = %bb18
; call core::panicking::panic_misaligned_pointer_dereference
  call void @_ZN4core9panicking36panic_misaligned_pointer_dereference17hcc3cbded9382b6e5E(i64 8, i64 %_77, ptr align 8 @alloc_c282628ede8b5f6204c75558e451c2e2) #4
  unreachable

bb57:                                             ; preds = %bb36
  %_24 = load i32, ptr %_37, align 8
  %_23 = icmp sgt i32 %data, %_24
  br i1 %_23, label %bb19, label %bb20

panic21:                                          ; preds = %bb36
; call core::panicking::panic_null_pointer_dereference
  call void @_ZN4core9panicking30panic_null_pointer_dereference17hf718fcc86a223baaE(ptr align 8 @alloc_c282628ede8b5f6204c75558e451c2e2) #4
  unreachable

bb19:                                             ; preds = %bb57
  %13 = call ptr @LeftRotate(ptr %root) #3
  store ptr %13, ptr %_0, align 8
  br label %bb29

bb24:                                             ; preds = %bb58, %bb20
  %_30 = icmp slt i32 %balance, -1
  br i1 %_30, label %bb25, label %bb28

bb21:                                             ; preds = %bb20
  %14 = getelementptr inbounds i8, ptr %root, i64 8
  %_38 = load ptr, ptr %14, align 8
  %_71 = ptrtoint ptr %_38 to i64
  %_74 = and i64 %_71, 7
  %_75 = icmp eq i64 %_74, 0
  br i1 %_75, label %bb35, label %panic22

bb35:                                             ; preds = %bb21
  %_220 = ptrtoint ptr %_38 to i64
  %_223 = icmp eq i64 %_220, 0
  %_224 = and i1 %_223, true
  %_225 = xor i1 %_224, true
  br i1 %_225, label %bb58, label %panic23

panic22:                                          ; preds = %bb21
; call core::panicking::panic_misaligned_pointer_dereference
  call void @_ZN4core9panicking36panic_misaligned_pointer_dereference17hcc3cbded9382b6e5E(i64 8, i64 %_71, ptr align 8 @alloc_bde57b8a92b7312d16b6f3afae619597) #4
  unreachable

bb58:                                             ; preds = %bb35
  %_27 = load i32, ptr %_38, align 8
  %_26 = icmp sgt i32 %data, %_27
  br i1 %_26, label %bb22, label %bb24

panic23:                                          ; preds = %bb35
; call core::panicking::panic_null_pointer_dereference
  call void @_ZN4core9panicking30panic_null_pointer_dereference17hf718fcc86a223baaE(ptr align 8 @alloc_bde57b8a92b7312d16b6f3afae619597) #4
  unreachable

bb22:                                             ; preds = %bb58
  %_65 = ptrtoint ptr %root to i64
  %_68 = and i64 %_65, 7
  %_69 = icmp eq i64 %_68, 0
  br i1 %_69, label %bb34, label %panic30

bb28:                                             ; preds = %bb61, %bb24
  store ptr %root, ptr %_0, align 8
  br label %bb29

bb25:                                             ; preds = %bb24
  %15 = getelementptr inbounds i8, ptr %root, i64 16
  %_39 = load ptr, ptr %15, align 8
  %_53 = ptrtoint ptr %_39 to i64
  %_56 = and i64 %_53, 7
  %_57 = icmp eq i64 %_56, 0
  br i1 %_57, label %bb32, label %panic24

bb32:                                             ; preds = %bb25
  %_241 = ptrtoint ptr %_39 to i64
  %_244 = icmp eq i64 %_241, 0
  %_245 = and i1 %_244, true
  %_246 = xor i1 %_245, true
  br i1 %_246, label %bb61, label %panic25

panic24:                                          ; preds = %bb25
; call core::panicking::panic_misaligned_pointer_dereference
  call void @_ZN4core9panicking36panic_misaligned_pointer_dereference17hcc3cbded9382b6e5E(i64 8, i64 %_53, ptr align 8 @alloc_c30b0b0dd0089dab181193a485836d4a) #4
  unreachable

bb61:                                             ; preds = %bb32
  %_33 = load i32, ptr %_39, align 8
  %_32 = icmp slt i32 %data, %_33
  br i1 %_32, label %bb26, label %bb28

panic25:                                          ; preds = %bb32
; call core::panicking::panic_null_pointer_dereference
  call void @_ZN4core9panicking30panic_null_pointer_dereference17hf718fcc86a223baaE(ptr align 8 @alloc_c30b0b0dd0089dab181193a485836d4a) #4
  unreachable

bb26:                                             ; preds = %bb61
  %_47 = ptrtoint ptr %root to i64
  %_50 = and i64 %_47, 7
  %_51 = icmp eq i64 %_50, 0
  br i1 %_51, label %bb31, label %panic26

bb31:                                             ; preds = %bb26
  %_248 = ptrtoint ptr %root to i64
  %_251 = icmp eq i64 %_248, 0
  %_252 = and i1 %_251, true
  %_253 = xor i1 %_252, true
  br i1 %_253, label %bb62, label %panic27

panic26:                                          ; preds = %bb26
; call core::panicking::panic_misaligned_pointer_dereference
  call void @_ZN4core9panicking36panic_misaligned_pointer_dereference17hcc3cbded9382b6e5E(i64 8, i64 %_47, ptr align 8 @alloc_1f1fca2b59589e8e5b1eb00b0bd022c6) #4
  unreachable

bb62:                                             ; preds = %bb31
  %16 = getelementptr inbounds i8, ptr %root, i64 16
  %_35 = load ptr, ptr %16, align 8
  %_34 = call ptr @RightRotate(ptr %_35) #3
  %_41 = ptrtoint ptr %root to i64
  %_44 = and i64 %_41, 7
  %_45 = icmp eq i64 %_44, 0
  br i1 %_45, label %bb30, label %panic28

panic27:                                          ; preds = %bb31
; call core::panicking::panic_null_pointer_dereference
  call void @_ZN4core9panicking30panic_null_pointer_dereference17hf718fcc86a223baaE(ptr align 8 @alloc_1f1fca2b59589e8e5b1eb00b0bd022c6) #4
  unreachable

bb30:                                             ; preds = %bb62
  %_255 = ptrtoint ptr %root to i64
  %_258 = icmp eq i64 %_255, 0
  %_259 = and i1 %_258, true
  %_260 = xor i1 %_259, true
  br i1 %_260, label %bb63, label %panic29

panic28:                                          ; preds = %bb62
; call core::panicking::panic_misaligned_pointer_dereference
  call void @_ZN4core9panicking36panic_misaligned_pointer_dereference17hcc3cbded9382b6e5E(i64 8, i64 %_41, ptr align 8 @alloc_890e3b3a25c12a3f0a281636771a45de) #4
  unreachable

bb63:                                             ; preds = %bb30
  %17 = getelementptr inbounds i8, ptr %root, i64 16
  store ptr %_34, ptr %17, align 8
  %18 = call ptr @LeftRotate(ptr %root) #3
  store ptr %18, ptr %_0, align 8
  br label %bb29

panic29:                                          ; preds = %bb30
; call core::panicking::panic_null_pointer_dereference
  call void @_ZN4core9panicking30panic_null_pointer_dereference17hf718fcc86a223baaE(ptr align 8 @alloc_890e3b3a25c12a3f0a281636771a45de) #4
  unreachable

bb34:                                             ; preds = %bb22
  %_227 = ptrtoint ptr %root to i64
  %_230 = icmp eq i64 %_227, 0
  %_231 = and i1 %_230, true
  %_232 = xor i1 %_231, true
  br i1 %_232, label %bb59, label %panic31

panic30:                                          ; preds = %bb22
; call core::panicking::panic_misaligned_pointer_dereference
  call void @_ZN4core9panicking36panic_misaligned_pointer_dereference17hcc3cbded9382b6e5E(i64 8, i64 %_65, ptr align 8 @alloc_15d23902aaadafde9865c77c53199a16) #4
  unreachable

bb59:                                             ; preds = %bb34
  %19 = getelementptr inbounds i8, ptr %root, i64 8
  %_29 = load ptr, ptr %19, align 8
  %_28 = call ptr @LeftRotate(ptr %_29) #3
  %_59 = ptrtoint ptr %root to i64
  %_62 = and i64 %_59, 7
  %_63 = icmp eq i64 %_62, 0
  br i1 %_63, label %bb33, label %panic32

panic31:                                          ; preds = %bb34
; call core::panicking::panic_null_pointer_dereference
  call void @_ZN4core9panicking30panic_null_pointer_dereference17hf718fcc86a223baaE(ptr align 8 @alloc_15d23902aaadafde9865c77c53199a16) #4
  unreachable

bb33:                                             ; preds = %bb59
  %_234 = ptrtoint ptr %root to i64
  %_237 = icmp eq i64 %_234, 0
  %_238 = and i1 %_237, true
  %_239 = xor i1 %_238, true
  br i1 %_239, label %bb60, label %panic33

panic32:                                          ; preds = %bb59
; call core::panicking::panic_misaligned_pointer_dereference
  call void @_ZN4core9panicking36panic_misaligned_pointer_dereference17hcc3cbded9382b6e5E(i64 8, i64 %_59, ptr align 8 @alloc_d5bcf93b2d7c8194211c52721551334d) #4
  unreachable

bb60:                                             ; preds = %bb33
  %20 = getelementptr inbounds i8, ptr %root, i64 8
  store ptr %_28, ptr %20, align 8
  %21 = call ptr @RightRotate(ptr %root) #3
  store ptr %21, ptr %_0, align 8
  br label %bb29

panic33:                                          ; preds = %bb33
; call core::panicking::panic_null_pointer_dereference
  call void @_ZN4core9panicking30panic_null_pointer_dereference17hf718fcc86a223baaE(ptr align 8 @alloc_d5bcf93b2d7c8194211c52721551334d) #4
  unreachable
}

; Function Attrs: nounwind nonlazybind
declare ptr @malloc(i64) unnamed_addr #1

; core::panicking::panic_misaligned_pointer_dereference
; Function Attrs: cold minsize noinline noreturn nounwind nonlazybind optsize
declare void @_ZN4core9panicking36panic_misaligned_pointer_dereference17hcc3cbded9382b6e5E(i64, i64, ptr align 8) unnamed_addr #2

; core::panicking::panic_null_pointer_dereference
; Function Attrs: cold minsize noinline noreturn nounwind nonlazybind optsize
declare void @_ZN4core9panicking30panic_null_pointer_dereference17hf718fcc86a223baaE(ptr align 8) unnamed_addr #2

; Function Attrs: nounwind nonlazybind
declare i32 @printf(ptr, ...) unnamed_addr #1

; Function Attrs: nounwind nonlazybind
declare void @free(ptr) unnamed_addr #1

attributes #0 = { inlinehint nounwind nonlazybind "probe-stack"="inline-asm" "target-cpu"="x86-64" }
attributes #1 = { nounwind nonlazybind "probe-stack"="inline-asm" "target-cpu"="x86-64" }
attributes #2 = { cold minsize noinline noreturn nounwind nonlazybind optsize "probe-stack"="inline-asm" "target-cpu"="x86-64" }
attributes #3 = { nounwind }
attributes #4 = { noreturn nounwind }

!llvm.module.flags = !{!0, !1}
!llvm.ident = !{!2}

!0 = !{i32 8, !"PIC Level", i32 2}
!1 = !{i32 2, !"RtLibUseGOT", i32 1}
!2 = !{!"rustc version 1.88.0-nightly (0b45675cf 2025-03-31)"}
