; ModuleID = 'byaznhsqjq545r0obwf9cwhnu'
source_filename = "byaznhsqjq545r0obwf9cwhnu"
target datalayout = "e-m:e-p270:32:32-p271:32:32-p272:64:64-i64:64-i128:128-f80:128-n8:16:32:64-S128"
target triple = "x86_64-unknown-linux-gnu"

@alloc_0ed0763d8bf93ac79247e07858374e35 = private unnamed_addr constant [210 x i8] c"unsafe precondition(s) violated: ptr::offset requires the address calculation to not overflow\0A\0AThis indicates a bug in the program. This Undefined Behavior check is optional, and cannot be relied on for safety.", align 1
@stack = global [800 x i8] zeroinitializer, align 8
@sp = global [4 x i8] c"\FF\FF\FF\FF", align 4
@alloc_f5ffd2fd1476bab43ad89fb40c72d0c5 = private unnamed_addr constant [10 x i8] c"src/lib.rs", align 1
@alloc_2640da09299d9dba4c323728d7635929 = private unnamed_addr constant <{ ptr, [16 x i8] }> <{ ptr @alloc_f5ffd2fd1476bab43ad89fb40c72d0c5, [16 x i8] c"\0A\00\00\00\00\00\00\00$\00\00\00\0D\00\00\00" }>, align 8
@alloc_a5af790506893fecb536f0eb82cf8c98 = private unnamed_addr constant <{ ptr, [16 x i8] }> <{ ptr @alloc_f5ffd2fd1476bab43ad89fb40c72d0c5, [16 x i8] c"\0A\00\00\00\00\00\00\00(\00\00\00\05\00\00\00" }>, align 8
@alloc_8434f5b6071bd4e3efd3fdf290f811df = private unnamed_addr constant <{ ptr, [16 x i8] }> <{ ptr @alloc_f5ffd2fd1476bab43ad89fb40c72d0c5, [16 x i8] c"\0A\00\00\00\00\00\00\00)\00\00\00\0B\00\00\00" }>, align 8
@alloc_c7c39c6091be3a9f85ea3d17117247d9 = private unnamed_addr constant <{ ptr, [16 x i8] }> <{ ptr @alloc_f5ffd2fd1476bab43ad89fb40c72d0c5, [16 x i8] c"\0A\00\00\00\00\00\00\00)\00\00\00\05\00\00\00" }>, align 8
@alloc_782debb62b090b525a0675df684f112c = private unnamed_addr constant <{ ptr, [16 x i8] }> <{ ptr @alloc_f5ffd2fd1476bab43ad89fb40c72d0c5, [16 x i8] c"\0A\00\00\00\00\00\00\00-\00\00\00\05\00\00\00" }>, align 8
@alloc_2f4dea5bbe8d06a583fa8ed950799957 = private unnamed_addr constant <{ ptr, [16 x i8] }> <{ ptr @alloc_f5ffd2fd1476bab43ad89fb40c72d0c5, [16 x i8] c"\0A\00\00\00\00\00\00\00.\00\00\00\12\00\00\00" }>, align 8
@alloc_74e807215f461f377144e15cf8689382 = private unnamed_addr constant <{ ptr, [16 x i8] }> <{ ptr @alloc_f5ffd2fd1476bab43ad89fb40c72d0c5, [16 x i8] c"\0A\00\00\00\00\00\00\00.\00\00\00\0C\00\00\00" }>, align 8
@alloc_b71d35a8f1467390831bdfa791278786 = private unnamed_addr constant <{ ptr, [16 x i8] }> <{ ptr @alloc_f5ffd2fd1476bab43ad89fb40c72d0c5, [16 x i8] c"\0A\00\00\00\00\00\00\002\00\00\00\12\00\00\00" }>, align 8
@alloc_678bf64db5e953ae120f598ce3d6a1c1 = private unnamed_addr constant <{ ptr, [16 x i8] }> <{ ptr @alloc_f5ffd2fd1476bab43ad89fb40c72d0c5, [16 x i8] c"\0A\00\00\00\00\00\00\002\00\00\00\0C\00\00\00" }>, align 8
@alloc_e248de7dc82c0e1c6b46f01b8c13aa5e = private unnamed_addr constant <{ ptr, [16 x i8] }> <{ ptr @alloc_f5ffd2fd1476bab43ad89fb40c72d0c5, [16 x i8] c"\0A\00\00\00\00\00\00\00;\00\00\00\11\00\00\00" }>, align 8
@alloc_9c6f23fa074c8bc5f4a6cc465b577814 = private unnamed_addr constant <{ ptr, [16 x i8] }> <{ ptr @alloc_f5ffd2fd1476bab43ad89fb40c72d0c5, [16 x i8] c"\0A\00\00\00\00\00\00\00=\00\00\00(\00\00\00" }>, align 8
@alloc_3879d1cb3fb6f8ad856af8f2fd71ed0d = private unnamed_addr constant <{ ptr, [16 x i8] }> <{ ptr @alloc_f5ffd2fd1476bab43ad89fb40c72d0c5, [16 x i8] c"\0A\00\00\00\00\00\00\00=\00\00\00L\00\00\00" }>, align 8
@alloc_1521b2039ed115271f3d9565ef429801 = private unnamed_addr constant <{ ptr, [16 x i8] }> <{ ptr @alloc_f5ffd2fd1476bab43ad89fb40c72d0c5, [16 x i8] c"\0A\00\00\00\00\00\00\00D\00\00\00\0D\00\00\00" }>, align 8
@alloc_45b3fe21722c9ba1960708dbafe5b9d7 = private unnamed_addr constant <{ ptr, [16 x i8] }> <{ ptr @alloc_f5ffd2fd1476bab43ad89fb40c72d0c5, [16 x i8] c"\0A\00\00\00\00\00\00\00?\00\00\00\11\00\00\00" }>, align 8
@alloc_90026542cfc7c4c77a53294e003a44e6 = private unnamed_addr constant <{ ptr, [16 x i8] }> <{ ptr @alloc_f5ffd2fd1476bab43ad89fb40c72d0c5, [16 x i8] c"\0A\00\00\00\00\00\00\00@\00\00\00\17\00\00\00" }>, align 8
@min = global [4 x i8] c"\FF\FF\FF\7F", align 4
@alloc_8799ac30fb0670c37d06dee0dcac597f = private unnamed_addr constant <{ ptr, [16 x i8] }> <{ ptr @alloc_f5ffd2fd1476bab43ad89fb40c72d0c5, [16 x i8] c"\0A\00\00\00\00\00\00\00P\00\00\00\14\00\00\00" }>, align 8
@alloc_1c9b9924c5e1ac3abfe7f6aade1ed474 = private unnamed_addr constant <{ ptr, [16 x i8] }> <{ ptr @alloc_f5ffd2fd1476bab43ad89fb40c72d0c5, [16 x i8] c"\0A\00\00\00\00\00\00\00Q\00\00\00\10\00\00\00" }>, align 8
@alloc_79a1c52c0532fc2abedabfb8bb2903e5 = private unnamed_addr constant <{ ptr, [16 x i8] }> <{ ptr @alloc_f5ffd2fd1476bab43ad89fb40c72d0c5, [16 x i8] c"\0A\00\00\00\00\00\00\00Y\00\00\00\0C\00\00\00" }>, align 8
@alloc_0f6d1b94949084044caeaf29b1f6095d = private unnamed_addr constant <{ ptr, [16 x i8] }> <{ ptr @alloc_f5ffd2fd1476bab43ad89fb40c72d0c5, [16 x i8] c"\0A\00\00\00\00\00\00\00\\\00\00\00\10\00\00\00" }>, align 8
@alloc_f02d8f7a07b320bd98ec3e25340af526 = private unnamed_addr constant <{ ptr, [16 x i8] }> <{ ptr @alloc_f5ffd2fd1476bab43ad89fb40c72d0c5, [16 x i8] c"\0A\00\00\00\00\00\00\00b\00\00\00\05\00\00\00" }>, align 8
@alloc_3a31753a0b113451bf74f615363720ce = private unnamed_addr constant [3 x i8] c"%d\00", align 1
@alloc_a76e2e049551bfa704dc36697e4f9b39 = private unnamed_addr constant [8 x i8] c"<===%d \00", align 1
@alloc_dde8e4e6cc5310dcb59b4fd56b49fe2c = private unnamed_addr constant <{ ptr, [16 x i8] }> <{ ptr @alloc_f5ffd2fd1476bab43ad89fb40c72d0c5, [16 x i8] c"\0A\00\00\00\00\00\00\00e\00\00\00B\00\00\00" }>, align 8
@alloc_077aeabefd7e4362fd99fd42d0c7e2dd = private unnamed_addr constant <{ ptr, [16 x i8] }> <{ ptr @alloc_f5ffd2fd1476bab43ad89fb40c72d0c5, [16 x i8] c"\0A\00\00\00\00\00\00\00f\00\00\00\10\00\00\00" }>, align 8
@alloc_5c28bedd534a5dfcd23bed5088d504fa = private unnamed_addr constant [14 x i8] c".And cost=%d\0A\00", align 1
@alloc_d9ead19047a0376ce241279933470e10 = private unnamed_addr constant <{ ptr, [16 x i8] }> <{ ptr @alloc_f5ffd2fd1476bab43ad89fb40c72d0c5, [16 x i8] c"\0A\00\00\00\00\00\00\00h\00\00\00E\00\00\00" }>, align 8
@alloc_dd5ca49258844dd049f35feb90dce4cb = private unnamed_addr constant <{ ptr, [16 x i8] }> <{ ptr @alloc_f5ffd2fd1476bab43ad89fb40c72d0c5, [16 x i8] c"\0A\00\00\00\00\00\00\00o\00\00\00\05\00\00\00" }>, align 8
@alloc_80883ff8e80cbb9d0e87c67dc1a3fa1d = private unnamed_addr constant <{ ptr, [16 x i8] }> <{ ptr @alloc_f5ffd2fd1476bab43ad89fb40c72d0c5, [16 x i8] c"\0A\00\00\00\00\00\00\00p\00\00\00\05\00\00\00" }>, align 8
@alloc_4eafd405e6287f04cb56e32194e29e80 = private unnamed_addr constant <{ ptr, [16 x i8] }> <{ ptr @alloc_f5ffd2fd1476bab43ad89fb40c72d0c5, [16 x i8] c"\0A\00\00\00\00\00\00\00q\00\00\00\05\00\00\00" }>, align 8
@alloc_14183f026f45fd0c022d30220bcbe5bb = private unnamed_addr constant <{ ptr, [16 x i8] }> <{ ptr @alloc_f5ffd2fd1476bab43ad89fb40c72d0c5, [16 x i8] c"\0A\00\00\00\00\00\00\00r\00\00\00\05\00\00\00" }>, align 8
@alloc_ba4958817e64ea53113ad2d0f11e3547 = private unnamed_addr constant <{ ptr, [16 x i8] }> <{ ptr @alloc_f5ffd2fd1476bab43ad89fb40c72d0c5, [16 x i8] c"\0A\00\00\00\00\00\00\00z\00\00\00\0C\00\00\00" }>, align 8
@alloc_48c557ee59b83a5e686aa613d9a7deae = private unnamed_addr constant <{ ptr, [16 x i8] }> <{ ptr @alloc_f5ffd2fd1476bab43ad89fb40c72d0c5, [16 x i8] c"\0A\00\00\00\00\00\00\00{\00\00\00\10\00\00\00" }>, align 8
@alloc_4cd326282da15a1a0c144dd5c8b190c4 = private unnamed_addr constant <{ ptr, [16 x i8] }> <{ ptr @alloc_f5ffd2fd1476bab43ad89fb40c72d0c5, [16 x i8] c"\0A\00\00\00\00\00\00\00|\00\00\00 \00\00\00" }>, align 8
@alloc_956cdab4e38c5db454abc8a1527c97e9 = private unnamed_addr constant <{ ptr, [16 x i8] }> <{ ptr @alloc_f5ffd2fd1476bab43ad89fb40c72d0c5, [16 x i8] c"\0A\00\00\00\00\00\00\00|\00\00\00\13\00\00\00" }>, align 8
@alloc_f1ae162b661c8b5bd8beb6c43adc6c9e = private unnamed_addr constant <{ ptr, [16 x i8] }> <{ ptr @alloc_f5ffd2fd1476bab43ad89fb40c72d0c5, [16 x i8] c"\0A\00\00\00\00\00\00\00}\00\00\00\13\00\00\00" }>, align 8
@alloc_b29d471cbc88e129930354236ed7f5d6 = private unnamed_addr constant <{ ptr, [16 x i8] }> <{ ptr @alloc_f5ffd2fd1476bab43ad89fb40c72d0c5, [16 x i8] c"\0A\00\00\00\00\00\00\00\81\00\00\00\11\00\00\00" }>, align 8
@alloc_f88e8376d100d6f88bb846af8917ea7e = private unnamed_addr constant <{ ptr, [16 x i8] }> <{ ptr @alloc_f5ffd2fd1476bab43ad89fb40c72d0c5, [16 x i8] c"\0A\00\00\00\00\00\00\00\83\00\00\00!\00\00\00" }>, align 8
@alloc_2ffed3ee6ec7956d656e23c93c6bf845 = private unnamed_addr constant <{ ptr, [16 x i8] }> <{ ptr @alloc_f5ffd2fd1476bab43ad89fb40c72d0c5, [16 x i8] c"\0A\00\00\00\00\00\00\00\82\00\00\00\17\00\00\00" }>, align 8
@alloc_27a2a7867512714097587d9b2be2315b = private unnamed_addr constant <{ ptr, [16 x i8] }> <{ ptr @alloc_f5ffd2fd1476bab43ad89fb40c72d0c5, [16 x i8] c"\0A\00\00\00\00\00\00\00\87\00\00\00\0C\00\00\00" }>, align 8
@alloc_4d36b92e5a372e43b2f5f5fbec85b595 = private unnamed_addr constant <{ ptr, [16 x i8] }> <{ ptr @alloc_f5ffd2fd1476bab43ad89fb40c72d0c5, [16 x i8] c"\0A\00\00\00\00\00\00\00\87\00\00\00\22\00\00\00" }>, align 8
@alloc_88b8b3c7f74958be1c7686e74cdc991d = private unnamed_addr constant <{ ptr, [16 x i8] }> <{ ptr @alloc_f5ffd2fd1476bab43ad89fb40c72d0c5, [16 x i8] c"\0A\00\00\00\00\00\00\00\A0\00\00\00\16\00\00\00" }>, align 8
@alloc_5069d81873085296cb3e6b0e1acb2378 = private unnamed_addr constant <{ ptr, [16 x i8] }> <{ ptr @alloc_f5ffd2fd1476bab43ad89fb40c72d0c5, [16 x i8] c"\0A\00\00\00\00\00\00\00\8D\00\00\00\19\00\00\00" }>, align 8
@alloc_09506cc820f8dd749e2669b6f0946218 = private unnamed_addr constant <{ ptr, [16 x i8] }> <{ ptr @alloc_f5ffd2fd1476bab43ad89fb40c72d0c5, [16 x i8] c"\0A\00\00\00\00\00\00\00\90\00\00\00\15\00\00\00" }>, align 8
@alloc_3a78ea53cf87ead900f43e146c0ff429 = private unnamed_addr constant <{ ptr, [16 x i8] }> <{ ptr @alloc_f5ffd2fd1476bab43ad89fb40c72d0c5, [16 x i8] c"\0A\00\00\00\00\00\00\00\91\00\00\00&\00\00\00" }>, align 8
@alloc_e9f7a536f033111205a1d9f3b7b347ff = private unnamed_addr constant <{ ptr, [16 x i8] }> <{ ptr @alloc_f5ffd2fd1476bab43ad89fb40c72d0c5, [16 x i8] c"\0A\00\00\00\00\00\00\00\91\00\00\00\15\00\00\00" }>, align 8
@alloc_05f7eb6830a4619be33f70972144823f = private unnamed_addr constant <{ ptr, [16 x i8] }> <{ ptr @alloc_f5ffd2fd1476bab43ad89fb40c72d0c5, [16 x i8] c"\0A\00\00\00\00\00\00\00\92\00\00\00\15\00\00\00" }>, align 8
@alloc_2e4a8991a791645bf803cdf029d1d97f = private unnamed_addr constant <{ ptr, [16 x i8] }> <{ ptr @alloc_f5ffd2fd1476bab43ad89fb40c72d0c5, [16 x i8] c"\0A\00\00\00\00\00\00\00\94\00\00\00!\00\00\00" }>, align 8
@alloc_ebd24a3bee9777ff9ce38130e53cee82 = private unnamed_addr constant <{ ptr, [16 x i8] }> <{ ptr @alloc_f5ffd2fd1476bab43ad89fb40c72d0c5, [16 x i8] c"\0A\00\00\00\00\00\00\00\95\00\00\00(\00\00\00" }>, align 8
@alloc_961c76b18c3a6d8ccca9e04f360db4b5 = private unnamed_addr constant <{ ptr, [16 x i8] }> <{ ptr @alloc_f5ffd2fd1476bab43ad89fb40c72d0c5, [16 x i8] c"\0A\00\00\00\00\00\00\00\95\00\00\00\1B\00\00\00" }>, align 8
@alloc_48da3a68d537097c5655611dcf9a694e = private unnamed_addr constant <{ ptr, [16 x i8] }> <{ ptr @alloc_f5ffd2fd1476bab43ad89fb40c72d0c5, [16 x i8] c"\0A\00\00\00\00\00\00\00\93\00\00\00\15\00\00\00" }>, align 8
@alloc_3c595015b2644b40b4b66822269ba9ad = private unnamed_addr constant <{ ptr, [16 x i8] }> <{ ptr @alloc_f5ffd2fd1476bab43ad89fb40c72d0c5, [16 x i8] c"\0A\00\00\00\00\00\00\00\98\00\00\00\15\00\00\00" }>, align 8
@alloc_933d61dbeb2a7e8ece04956d115b5030 = private unnamed_addr constant [11 x i8] c"drop one.\0A\00", align 1

; core::intrinsics::cold_path
; Function Attrs: cold nounwind nonlazybind
define internal void @_ZN4core10intrinsics9cold_path17h007664dd276c8526E() unnamed_addr #0 {
start:
  ret void
}

; core::ptr::mut_ptr::<impl *mut T>::offset::precondition_check
; Function Attrs: inlinehint nounwind nonlazybind
define internal void @"_ZN4core3ptr7mut_ptr31_$LT$impl$u20$$BP$mut$u20$T$GT$6offset18precondition_check17hd394a6af1b353550E"(ptr %this, i64 %count, i64 %size) unnamed_addr #1 {
start:
  %0 = call { i64, i1 } @llvm.smul.with.overflow.i64(i64 %count, i64 %size)
  %_10.0 = extractvalue { i64, i1 } %0, 0
  %_10.1 = extractvalue { i64, i1 } %0, 1
  br i1 %_10.1, label %bb3, label %bb5

bb5:                                              ; preds = %start
  %self = ptrtoint ptr %this to i64
  %1 = call { i64, i1 } @llvm.uadd.with.overflow.i64(i64 %self, i64 %_10.0)
  %_19.0 = extractvalue { i64, i1 } %1, 0
  %_19.1 = extractvalue { i64, i1 } %1, 1
  %_17 = icmp slt i64 %_10.0, 0
  %overflow = xor i1 %_19.1, %_17
  %_4 = xor i1 %overflow, true
  br i1 %_4, label %bb1, label %bb2

bb3:                                              ; preds = %start
  br label %bb2

bb2:                                              ; preds = %bb3, %bb5
; call core::panicking::panic_nounwind
  call void @_ZN4core9panicking14panic_nounwind17h211d9ce8d63f12e7E(ptr align 1 @alloc_0ed0763d8bf93ac79247e07858374e35, i64 210) #6
  unreachable

bb1:                                              ; preds = %bb5
  ret void
}

; core::ptr::mut_ptr::<impl *mut T>::is_null
; Function Attrs: inlinehint nounwind nonlazybind
define internal zeroext i1 @"_ZN4core3ptr7mut_ptr31_$LT$impl$u20$$BP$mut$u20$T$GT$7is_null17h7bda649deddc9a24E"(ptr %self) unnamed_addr #1 {
start:
  %_3 = ptrtoint ptr %self to i64
  %_0 = icmp eq i64 %_3, 0
  ret i1 %_0
}

; Function Attrs: nounwind nonlazybind
define i32 @empty() unnamed_addr #2 {
start:
  %_15 = icmp eq i64 ptrtoint (ptr @sp to i64), 0
  %_16 = and i1 %_15, true
  %_17 = xor i1 %_16, true
  br i1 %_17, label %bb2, label %panic

bb2:                                              ; preds = %start
  %_2 = load i32, ptr @sp, align 4
  %_1 = icmp eq i32 %_2, -1
  %_0 = zext i1 %_1 to i32
  ret i32 %_0

panic:                                            ; preds = %start
; call core::panicking::panic_null_pointer_dereference
  call void @_ZN4core9panicking30panic_null_pointer_dereference17hf718fcc86a223baaE(ptr align 8 @alloc_2640da09299d9dba4c323728d7635929) #6
  unreachable
}

; Function Attrs: nounwind nonlazybind
define void @push(ptr %item) unnamed_addr #2 {
start:
  %_43 = icmp eq i64 ptrtoint (ptr @sp to i64), 0
  %_44 = and i1 %_43, true
  %_45 = xor i1 %_44, true
  br i1 %_45, label %bb7, label %panic

bb7:                                              ; preds = %start
  %_36 = icmp eq i64 ptrtoint (ptr @sp to i64), 0
  %_37 = and i1 %_36, true
  %_38 = xor i1 %_37, true
  br i1 %_38, label %bb6, label %panic1

panic:                                            ; preds = %start
; call core::panicking::panic_null_pointer_dereference
  call void @_ZN4core9panicking30panic_null_pointer_dereference17hf718fcc86a223baaE(ptr align 8 @alloc_a5af790506893fecb536f0eb82cf8c98) #6
  unreachable

bb6:                                              ; preds = %bb7
  %0 = load i32, ptr @sp, align 4
  %1 = add i32 %0, 1
  store i32 %1, ptr @sp, align 4
  %_50 = icmp eq i64 ptrtoint (ptr @sp to i64), 0
  %_51 = and i1 %_50, true
  %_52 = xor i1 %_51, true
  br i1 %_52, label %bb8, label %panic2

panic1:                                           ; preds = %bb7
; call core::panicking::panic_null_pointer_dereference
  call void @_ZN4core9panicking30panic_null_pointer_dereference17hf718fcc86a223baaE(ptr align 8 @alloc_a5af790506893fecb536f0eb82cf8c98) #6
  unreachable

bb8:                                              ; preds = %bb6
  %_5 = load i32, ptr @sp, align 4
  %_4 = sext i32 %_5 to i64
  %_7 = icmp ult i64 %_4, 100
  br i1 %_7, label %bb1, label %panic3

panic2:                                           ; preds = %bb6
; call core::panicking::panic_null_pointer_dereference
  call void @_ZN4core9panicking30panic_null_pointer_dereference17hf718fcc86a223baaE(ptr align 8 @alloc_8434f5b6071bd4e3efd3fdf290f811df) #6
  unreachable

bb1:                                              ; preds = %bb8
  %_57 = icmp eq i64 ptrtoint (ptr @stack to i64), 0
  %_58 = and i1 %_57, true
  %_59 = xor i1 %_58, true
  br i1 %_59, label %bb9, label %panic4

panic3:                                           ; preds = %bb8
; call core::panicking::panic_bounds_check
  call void @_ZN4core9panicking18panic_bounds_check17h27d1e4f0cb1112dfE(i64 %_4, i64 100, ptr align 8 @alloc_c7c39c6091be3a9f85ea3d17117247d9) #6
  unreachable

bb9:                                              ; preds = %bb1
  %2 = getelementptr inbounds nuw ptr, ptr @stack, i64 %_4
  store ptr %item, ptr %2, align 8
  ret void

panic4:                                           ; preds = %bb1
; call core::panicking::panic_null_pointer_dereference
  call void @_ZN4core9panicking30panic_null_pointer_dereference17hf718fcc86a223baaE(ptr align 8 @alloc_c7c39c6091be3a9f85ea3d17117247d9) #6
  unreachable
}

; Function Attrs: nounwind nonlazybind
define ptr @pop() unnamed_addr #2 {
start:
  %_42 = icmp eq i64 ptrtoint (ptr @sp to i64), 0
  %_43 = and i1 %_42, true
  %_44 = xor i1 %_43, true
  br i1 %_44, label %bb7, label %panic

bb7:                                              ; preds = %start
  %_35 = icmp eq i64 ptrtoint (ptr @sp to i64), 0
  %_36 = and i1 %_35, true
  %_37 = xor i1 %_36, true
  br i1 %_37, label %bb6, label %panic1

panic:                                            ; preds = %start
; call core::panicking::panic_null_pointer_dereference
  call void @_ZN4core9panicking30panic_null_pointer_dereference17hf718fcc86a223baaE(ptr align 8 @alloc_782debb62b090b525a0675df684f112c) #6
  unreachable

bb6:                                              ; preds = %bb7
  %0 = load i32, ptr @sp, align 4
  %1 = sub i32 %0, 1
  store i32 %1, ptr @sp, align 4
  %_49 = icmp eq i64 ptrtoint (ptr @sp to i64), 0
  %_50 = and i1 %_49, true
  %_51 = xor i1 %_50, true
  br i1 %_51, label %bb8, label %panic2

panic1:                                           ; preds = %bb7
; call core::panicking::panic_null_pointer_dereference
  call void @_ZN4core9panicking30panic_null_pointer_dereference17hf718fcc86a223baaE(ptr align 8 @alloc_782debb62b090b525a0675df684f112c) #6
  unreachable

bb8:                                              ; preds = %bb6
  %_4 = load i32, ptr @sp, align 4
  %_3 = sext i32 %_4 to i64
  %_6 = icmp ult i64 %_3, 100
  br i1 %_6, label %bb1, label %panic3

panic2:                                           ; preds = %bb6
; call core::panicking::panic_null_pointer_dereference
  call void @_ZN4core9panicking30panic_null_pointer_dereference17hf718fcc86a223baaE(ptr align 8 @alloc_2f4dea5bbe8d06a583fa8ed950799957) #6
  unreachable

bb1:                                              ; preds = %bb8
  %_56 = icmp eq i64 ptrtoint (ptr @stack to i64), 0
  %_57 = and i1 %_56, true
  %_58 = xor i1 %_57, true
  br i1 %_58, label %bb9, label %panic4

panic3:                                           ; preds = %bb8
; call core::panicking::panic_bounds_check
  call void @_ZN4core9panicking18panic_bounds_check17h27d1e4f0cb1112dfE(i64 %_3, i64 100, ptr align 8 @alloc_74e807215f461f377144e15cf8689382) #6
  unreachable

bb9:                                              ; preds = %bb1
  %2 = getelementptr inbounds nuw ptr, ptr @stack, i64 %_3
  %_0 = load ptr, ptr %2, align 8
  ret ptr %_0

panic4:                                           ; preds = %bb1
; call core::panicking::panic_null_pointer_dereference
  call void @_ZN4core9panicking30panic_null_pointer_dereference17hf718fcc86a223baaE(ptr align 8 @alloc_74e807215f461f377144e15cf8689382) #6
  unreachable
}

; Function Attrs: nounwind nonlazybind
define ptr @top() unnamed_addr #2 {
start:
  %_22 = icmp eq i64 ptrtoint (ptr @sp to i64), 0
  %_23 = and i1 %_22, true
  %_24 = xor i1 %_23, true
  br i1 %_24, label %bb4, label %panic

bb4:                                              ; preds = %start
  %_3 = load i32, ptr @sp, align 4
  %_2 = sext i32 %_3 to i64
  %_5 = icmp ult i64 %_2, 100
  br i1 %_5, label %bb1, label %panic1

panic:                                            ; preds = %start
; call core::panicking::panic_null_pointer_dereference
  call void @_ZN4core9panicking30panic_null_pointer_dereference17hf718fcc86a223baaE(ptr align 8 @alloc_b71d35a8f1467390831bdfa791278786) #6
  unreachable

bb1:                                              ; preds = %bb4
  %_29 = icmp eq i64 ptrtoint (ptr @stack to i64), 0
  %_30 = and i1 %_29, true
  %_31 = xor i1 %_30, true
  br i1 %_31, label %bb5, label %panic2

panic1:                                           ; preds = %bb4
; call core::panicking::panic_bounds_check
  call void @_ZN4core9panicking18panic_bounds_check17h27d1e4f0cb1112dfE(i64 %_2, i64 100, ptr align 8 @alloc_678bf64db5e953ae120f598ce3d6a1c1) #6
  unreachable

bb5:                                              ; preds = %bb1
  %0 = getelementptr inbounds nuw ptr, ptr @stack, i64 %_2
  %_0 = load ptr, ptr %0, align 8
  ret ptr %_0

panic2:                                           ; preds = %bb1
; call core::panicking::panic_null_pointer_dereference
  call void @_ZN4core9panicking30panic_null_pointer_dereference17hf718fcc86a223baaE(ptr align 8 @alloc_678bf64db5e953ae120f598ce3d6a1c1) #6
  unreachable
}

; Function Attrs: nounwind nonlazybind
define void @insertsort(ptr %nodes, i32 %size) unnamed_addr #2 {
start:
  %pivot = alloca [8 x i8], align 8
  %j = alloca [4 x i8], align 4
  %i = alloca [4 x i8], align 4
  store i32 0, ptr %i, align 4
  store i32 0, ptr %j, align 4
  store ptr null, ptr %pivot, align 8
  store i32 1, ptr %i, align 4
  br label %bb1

bb1:                                              ; preds = %bb21, %start
  %_7 = load i32, ptr %i, align 4
  %_6 = icmp slt i32 %_7, %size
  br i1 %_6, label %bb2, label %bb12

bb12:                                             ; preds = %bb1
  ret void

bb2:                                              ; preds = %bb1
  %_11 = load i32, ptr %i, align 4
  %_10 = sext i32 %_11 to i64
; call core::ptr::mut_ptr::<impl *mut T>::offset::precondition_check
  call void @"_ZN4core3ptr7mut_ptr31_$LT$impl$u20$$BP$mut$u20$T$GT$6offset18precondition_check17hd394a6af1b353550E"(ptr %nodes, i64 %_10, i64 8) #7
  %_0.i13 = getelementptr inbounds ptr, ptr %nodes, i64 %_10
  %_56 = ptrtoint ptr %_0.i13 to i64
  %_59 = and i64 %_56, 7
  %_60 = icmp eq i64 %_59, 0
  br i1 %_60, label %bb16, label %panic

bb16:                                             ; preds = %bb2
  %_62 = ptrtoint ptr %_0.i13 to i64
  %_65 = icmp eq i64 %_62, 0
  %_66 = and i1 %_65, true
  %_67 = xor i1 %_66, true
  br i1 %_67, label %bb17, label %panic1

panic:                                            ; preds = %bb2
; call core::panicking::panic_misaligned_pointer_dereference
  call void @_ZN4core9panicking36panic_misaligned_pointer_dereference17hcc3cbded9382b6e5E(i64 8, i64 %_56, ptr align 8 @alloc_e248de7dc82c0e1c6b46f01b8c13aa5e) #6
  unreachable

bb17:                                             ; preds = %bb16
  %_8 = load ptr, ptr %_0.i13, align 8
  store ptr %_8, ptr %pivot, align 8
  %_12 = load i32, ptr %i, align 4
  %0 = sub i32 %_12, 1
  store i32 %0, ptr %j, align 4
  br label %bb4

panic1:                                           ; preds = %bb16
; call core::panicking::panic_null_pointer_dereference
  call void @_ZN4core9panicking30panic_null_pointer_dereference17hf718fcc86a223baaE(ptr align 8 @alloc_e248de7dc82c0e1c6b46f01b8c13aa5e) #6
  unreachable

bb4:                                              ; preds = %bb20, %bb17
  %_14 = load i32, ptr %j, align 4
  %_13 = icmp sge i32 %_14, 0
  br i1 %_13, label %bb5, label %bb10

bb10:                                             ; preds = %bb19, %bb4
  %_34 = load i32, ptr %j, align 4
  %_33 = add i32 %_34, 1
  %_32 = sext i32 %_33 to i64
; call core::ptr::mut_ptr::<impl *mut T>::offset::precondition_check
  call void @"_ZN4core3ptr7mut_ptr31_$LT$impl$u20$$BP$mut$u20$T$GT$6offset18precondition_check17hd394a6af1b353550E"(ptr %nodes, i64 %_32, i64 8) #7
  %_0.i11 = getelementptr inbounds ptr, ptr %nodes, i64 %_32
  %_90 = ptrtoint ptr %_0.i11 to i64
  %_91 = icmp eq i64 %_90, 0
  %_92 = and i1 %_91, true
  %_93 = xor i1 %_92, true
  br i1 %_93, label %bb21, label %panic6

bb5:                                              ; preds = %bb4
  %_19 = load i32, ptr %j, align 4
  %_18 = sext i32 %_19 to i64
; call core::ptr::mut_ptr::<impl *mut T>::offset::precondition_check
  call void @"_ZN4core3ptr7mut_ptr31_$LT$impl$u20$$BP$mut$u20$T$GT$6offset18precondition_check17hd394a6af1b353550E"(ptr %nodes, i64 %_18, i64 8) #7
  %_0.i12 = getelementptr inbounds ptr, ptr %nodes, i64 %_18
  %_36 = load ptr, ptr %_0.i12, align 8
  %_50 = ptrtoint ptr %_36 to i64
  %_53 = and i64 %_50, 7
  %_54 = icmp eq i64 %_53, 0
  br i1 %_54, label %bb15, label %panic2

bb15:                                             ; preds = %bb5
  %_69 = ptrtoint ptr %_36 to i64
  %_72 = icmp eq i64 %_69, 0
  %_73 = and i1 %_72, true
  %_74 = xor i1 %_73, true
  br i1 %_74, label %bb18, label %panic3

panic2:                                           ; preds = %bb5
; call core::panicking::panic_misaligned_pointer_dereference
  call void @_ZN4core9panicking36panic_misaligned_pointer_dereference17hcc3cbded9382b6e5E(i64 8, i64 %_50, ptr align 8 @alloc_9c6f23fa074c8bc5f4a6cc465b577814) #6
  unreachable

bb18:                                             ; preds = %bb15
  %1 = getelementptr inbounds i8, ptr %_36, i64 4
  %_16 = load i32, ptr %1, align 4
  %_43 = load ptr, ptr %pivot, align 8
  %_44 = ptrtoint ptr %_43 to i64
  %_47 = and i64 %_44, 7
  %_48 = icmp eq i64 %_47, 0
  br i1 %_48, label %bb14, label %panic4

panic3:                                           ; preds = %bb15
; call core::panicking::panic_null_pointer_dereference
  call void @_ZN4core9panicking30panic_null_pointer_dereference17hf718fcc86a223baaE(ptr align 8 @alloc_9c6f23fa074c8bc5f4a6cc465b577814) #6
  unreachable

bb14:                                             ; preds = %bb18
  %_75 = load ptr, ptr %pivot, align 8
  %_76 = ptrtoint ptr %_75 to i64
  %_79 = icmp eq i64 %_76, 0
  %_80 = and i1 %_79, true
  %_81 = xor i1 %_80, true
  br i1 %_81, label %bb19, label %panic5

panic4:                                           ; preds = %bb18
; call core::panicking::panic_misaligned_pointer_dereference
  call void @_ZN4core9panicking36panic_misaligned_pointer_dereference17hcc3cbded9382b6e5E(i64 8, i64 %_44, ptr align 8 @alloc_3879d1cb3fb6f8ad856af8f2fd71ed0d) #6
  unreachable

bb19:                                             ; preds = %bb14
  %2 = load ptr, ptr %pivot, align 8
  %3 = getelementptr inbounds i8, ptr %2, i64 4
  %_20 = load i32, ptr %3, align 4
  %_15 = icmp slt i32 %_16, %_20
  br i1 %_15, label %bb7, label %bb10

panic5:                                           ; preds = %bb14
; call core::panicking::panic_null_pointer_dereference
  call void @_ZN4core9panicking30panic_null_pointer_dereference17hf718fcc86a223baaE(ptr align 8 @alloc_3879d1cb3fb6f8ad856af8f2fd71ed0d) #6
  unreachable

bb7:                                              ; preds = %bb19
  %_25 = load i32, ptr %j, align 4
  %_24 = add i32 %_25, 1
  %_23 = sext i32 %_24 to i64
; call core::ptr::mut_ptr::<impl *mut T>::offset::precondition_check
  call void @"_ZN4core3ptr7mut_ptr31_$LT$impl$u20$$BP$mut$u20$T$GT$6offset18precondition_check17hd394a6af1b353550E"(ptr %nodes, i64 %_23, i64 8) #7
  %_0.i10 = getelementptr inbounds ptr, ptr %nodes, i64 %_23
  %_95 = ptrtoint ptr %_0.i10 to i64
  %_96 = icmp eq i64 %_95, 0
  %_97 = and i1 %_96, true
  %_98 = xor i1 %_97, true
  br i1 %_98, label %bb22, label %panic7

bb21:                                             ; preds = %bb10
  %_35 = load ptr, ptr %pivot, align 8
  store ptr %_35, ptr %_0.i11, align 8
  %4 = load i32, ptr %i, align 4
  %5 = add i32 %4, 1
  store i32 %5, ptr %i, align 4
  br label %bb1

panic6:                                           ; preds = %bb10
; call core::panicking::panic_null_pointer_dereference
  call void @_ZN4core9panicking30panic_null_pointer_dereference17hf718fcc86a223baaE(ptr align 8 @alloc_1521b2039ed115271f3d9565ef429801) #6
  unreachable

bb22:                                             ; preds = %bb7
  %_29 = load i32, ptr %j, align 4
  %_28 = sext i32 %_29 to i64
; call core::ptr::mut_ptr::<impl *mut T>::offset::precondition_check
  call void @"_ZN4core3ptr7mut_ptr31_$LT$impl$u20$$BP$mut$u20$T$GT$6offset18precondition_check17hd394a6af1b353550E"(ptr %nodes, i64 %_28, i64 8) #7
  %_0.i = getelementptr inbounds ptr, ptr %nodes, i64 %_28
  %_38 = ptrtoint ptr %_0.i to i64
  %_41 = and i64 %_38, 7
  %_42 = icmp eq i64 %_41, 0
  br i1 %_42, label %bb13, label %panic8

panic7:                                           ; preds = %bb7
; call core::panicking::panic_null_pointer_dereference
  call void @_ZN4core9panicking30panic_null_pointer_dereference17hf718fcc86a223baaE(ptr align 8 @alloc_45b3fe21722c9ba1960708dbafe5b9d7) #6
  unreachable

bb13:                                             ; preds = %bb22
  %_83 = ptrtoint ptr %_0.i to i64
  %_86 = icmp eq i64 %_83, 0
  %_87 = and i1 %_86, true
  %_88 = xor i1 %_87, true
  br i1 %_88, label %bb20, label %panic9

panic8:                                           ; preds = %bb22
; call core::panicking::panic_misaligned_pointer_dereference
  call void @_ZN4core9panicking36panic_misaligned_pointer_dereference17hcc3cbded9382b6e5E(i64 8, i64 %_38, ptr align 8 @alloc_90026542cfc7c4c77a53294e003a44e6) #6
  unreachable

bb20:                                             ; preds = %bb13
  %_26 = load ptr, ptr %_0.i, align 8
  store ptr %_26, ptr %_0.i10, align 8
  %6 = load i32, ptr %j, align 4
  %7 = sub i32 %6, 1
  store i32 %7, ptr %j, align 4
  br label %bb4

panic9:                                           ; preds = %bb13
; call core::panicking::panic_null_pointer_dereference
  call void @_ZN4core9panicking30panic_null_pointer_dereference17hf718fcc86a223baaE(ptr align 8 @alloc_90026542cfc7c4c77a53294e003a44e6) #6
  unreachable
}

; Function Attrs: nounwind nonlazybind
define i32 @sum(ptr %0) unnamed_addr #2 {
start:
  %summary = alloca [4 x i8], align 4
  %node = alloca [8 x i8], align 8
  store ptr %0, ptr %node, align 8
  store i32 0, ptr %summary, align 4
  br label %bb1

bb1:                                              ; preds = %bb8, %start
  %_4 = load ptr, ptr %node, align 8
; call core::ptr::mut_ptr::<impl *mut T>::is_null
  %_3 = call zeroext i1 @"_ZN4core3ptr7mut_ptr31_$LT$impl$u20$$BP$mut$u20$T$GT$7is_null17h7bda649deddc9a24E"(ptr %_4) #7
  br i1 %_3, label %bb3, label %bb4

bb4:                                              ; preds = %bb1
  %_13 = load ptr, ptr %node, align 8
  %_14 = ptrtoint ptr %_13 to i64
  %_17 = and i64 %_14, 7
  %_18 = icmp eq i64 %_17, 0
  br i1 %_18, label %bb6, label %panic

bb3:                                              ; preds = %bb1
  %_0 = load i32, ptr %summary, align 4
  ret i32 %_0

bb6:                                              ; preds = %bb4
  %_19 = load ptr, ptr %node, align 8
  %_20 = ptrtoint ptr %_19 to i64
  %_23 = icmp eq i64 %_20, 0
  %_24 = and i1 %_23, true
  %_25 = xor i1 %_24, true
  br i1 %_25, label %bb7, label %panic1

panic:                                            ; preds = %bb4
; call core::panicking::panic_misaligned_pointer_dereference
  call void @_ZN4core9panicking36panic_misaligned_pointer_dereference17hcc3cbded9382b6e5E(i64 8, i64 %_14, ptr align 8 @alloc_8799ac30fb0670c37d06dee0dcac597f) #6
  unreachable

bb7:                                              ; preds = %bb6
  %1 = load ptr, ptr %node, align 8
  %2 = getelementptr inbounds i8, ptr %1, i64 4
  %_5 = load i32, ptr %2, align 4
  %3 = load i32, ptr %summary, align 4
  %4 = add i32 %3, %_5
  store i32 %4, ptr %summary, align 4
  %_7 = load ptr, ptr %node, align 8
  %_8 = ptrtoint ptr %_7 to i64
  %_11 = and i64 %_8, 7
  %_12 = icmp eq i64 %_11, 0
  br i1 %_12, label %bb5, label %panic2

panic1:                                           ; preds = %bb6
; call core::panicking::panic_null_pointer_dereference
  call void @_ZN4core9panicking30panic_null_pointer_dereference17hf718fcc86a223baaE(ptr align 8 @alloc_8799ac30fb0670c37d06dee0dcac597f) #6
  unreachable

bb5:                                              ; preds = %bb7
  %_26 = load ptr, ptr %node, align 8
  %_27 = ptrtoint ptr %_26 to i64
  %_30 = icmp eq i64 %_27, 0
  %_31 = and i1 %_30, true
  %_32 = xor i1 %_31, true
  br i1 %_32, label %bb8, label %panic3

panic2:                                           ; preds = %bb7
; call core::panicking::panic_misaligned_pointer_dereference
  call void @_ZN4core9panicking36panic_misaligned_pointer_dereference17hcc3cbded9382b6e5E(i64 8, i64 %_8, ptr align 8 @alloc_1c9b9924c5e1ac3abfe7f6aade1ed474) #6
  unreachable

bb8:                                              ; preds = %bb5
  %5 = load ptr, ptr %node, align 8
  %6 = getelementptr inbounds i8, ptr %5, i64 16
  %_6 = load ptr, ptr %6, align 8
  store ptr %_6, ptr %node, align 8
  br label %bb1

panic3:                                           ; preds = %bb5
; call core::panicking::panic_null_pointer_dereference
  call void @_ZN4core9panicking30panic_null_pointer_dereference17hf718fcc86a223baaE(ptr align 8 @alloc_1c9b9924c5e1ac3abfe7f6aade1ed474) #6
  unreachable
}

; Function Attrs: nounwind nonlazybind
define i32 @inme(ptr %0, i32 %who) unnamed_addr #2 {
start:
  %ok = alloca [4 x i8], align 4
  %node = alloca [8 x i8], align 8
  store ptr %0, ptr %node, align 8
  store i32 0, ptr %ok, align 4
  br label %bb1

bb1:                                              ; preds = %bb11, %start
  %_5 = load ptr, ptr %node, align 8
; call core::ptr::mut_ptr::<impl *mut T>::is_null
  %_4 = call zeroext i1 @"_ZN4core3ptr7mut_ptr31_$LT$impl$u20$$BP$mut$u20$T$GT$7is_null17h7bda649deddc9a24E"(ptr %_5) #7
  br i1 %_4, label %bb7, label %bb3

bb3:                                              ; preds = %bb1
  %_6 = load i32, ptr %ok, align 4
  %1 = icmp eq i32 %_6, 0
  br i1 %1, label %bb4, label %bb7

bb7:                                              ; preds = %bb3, %bb1
  %_0 = load i32, ptr %ok, align 4
  ret i32 %_0

bb4:                                              ; preds = %bb3
  %_16 = load ptr, ptr %node, align 8
  %_17 = ptrtoint ptr %_16 to i64
  %_20 = and i64 %_17, 7
  %_21 = icmp eq i64 %_20, 0
  br i1 %_21, label %bb9, label %panic

bb9:                                              ; preds = %bb4
  %_22 = load ptr, ptr %node, align 8
  %_23 = ptrtoint ptr %_22 to i64
  %_26 = icmp eq i64 %_23, 0
  %_27 = and i1 %_26, true
  %_28 = xor i1 %_27, true
  br i1 %_28, label %bb10, label %panic1

panic:                                            ; preds = %bb4
; call core::panicking::panic_misaligned_pointer_dereference
  call void @_ZN4core9panicking36panic_misaligned_pointer_dereference17hcc3cbded9382b6e5E(i64 8, i64 %_17, ptr align 8 @alloc_79a1c52c0532fc2abedabfb8bb2903e5) #6
  unreachable

bb10:                                             ; preds = %bb9
  %2 = load ptr, ptr %node, align 8
  %_8 = load i32, ptr %2, align 8
  %_7 = icmp eq i32 %_8, %who
  br i1 %_7, label %bb5, label %bb6

panic1:                                           ; preds = %bb9
; call core::panicking::panic_null_pointer_dereference
  call void @_ZN4core9panicking30panic_null_pointer_dereference17hf718fcc86a223baaE(ptr align 8 @alloc_79a1c52c0532fc2abedabfb8bb2903e5) #6
  unreachable

bb6:                                              ; preds = %bb5, %bb10
  %_10 = load ptr, ptr %node, align 8
  %_11 = ptrtoint ptr %_10 to i64
  %_14 = and i64 %_11, 7
  %_15 = icmp eq i64 %_14, 0
  br i1 %_15, label %bb8, label %panic2

bb5:                                              ; preds = %bb10
  store i32 1, ptr %ok, align 4
  br label %bb6

bb8:                                              ; preds = %bb6
  %_29 = load ptr, ptr %node, align 8
  %_30 = ptrtoint ptr %_29 to i64
  %_33 = icmp eq i64 %_30, 0
  %_34 = and i1 %_33, true
  %_35 = xor i1 %_34, true
  br i1 %_35, label %bb11, label %panic3

panic2:                                           ; preds = %bb6
; call core::panicking::panic_misaligned_pointer_dereference
  call void @_ZN4core9panicking36panic_misaligned_pointer_dereference17hcc3cbded9382b6e5E(i64 8, i64 %_11, ptr align 8 @alloc_0f6d1b94949084044caeaf29b1f6095d) #6
  unreachable

bb11:                                             ; preds = %bb8
  %3 = load ptr, ptr %node, align 8
  %4 = getelementptr inbounds i8, ptr %3, i64 16
  %_9 = load ptr, ptr %4, align 8
  store ptr %_9, ptr %node, align 8
  br label %bb1

panic3:                                           ; preds = %bb8
; call core::panicking::panic_null_pointer_dereference
  call void @_ZN4core9panicking30panic_null_pointer_dereference17hf718fcc86a223baaE(ptr align 8 @alloc_0f6d1b94949084044caeaf29b1f6095d) #6
  unreachable
}

; Function Attrs: nounwind nonlazybind
define void @display_outcome(ptr %0, i32 %newmin) unnamed_addr #2 {
start:
  %node = alloca [8 x i8], align 8
  store ptr %0, ptr %node, align 8
  %_53 = icmp eq i64 ptrtoint (ptr @min to i64), 0
  %_54 = and i1 %_53, true
  %_55 = xor i1 %_54, true
  br i1 %_55, label %bb11, label %panic

bb11:                                             ; preds = %start
  store i32 %newmin, ptr @min, align 4
  %_4 = call i32 (ptr, ...) @printf(ptr @alloc_3a31753a0b113451bf74f615363720ce, i32 0) #7
  br label %bb1

panic:                                            ; preds = %start
; call core::panicking::panic_null_pointer_dereference
  call void @_ZN4core9panicking30panic_null_pointer_dereference17hf718fcc86a223baaE(ptr align 8 @alloc_f02d8f7a07b320bd98ec3e25340af526) #6
  unreachable

bb1:                                              ; preds = %bb14, %bb11
  %_10 = load ptr, ptr %node, align 8
; call core::ptr::mut_ptr::<impl *mut T>::is_null
  %_9 = call zeroext i1 @"_ZN4core3ptr7mut_ptr31_$LT$impl$u20$$BP$mut$u20$T$GT$7is_null17h7bda649deddc9a24E"(ptr %_10) #7
  br i1 %_9, label %bb3, label %bb4

bb4:                                              ; preds = %bb1
  %_31 = load ptr, ptr %node, align 8
  %_32 = ptrtoint ptr %_31 to i64
  %_35 = and i64 %_32, 7
  %_36 = icmp eq i64 %_35, 0
  br i1 %_36, label %bb8, label %panic1

bb3:                                              ; preds = %bb1
  %_60 = icmp eq i64 ptrtoint (ptr @min to i64), 0
  %_61 = and i1 %_60, true
  %_62 = xor i1 %_61, true
  br i1 %_62, label %bb12, label %panic5

bb8:                                              ; preds = %bb4
  %_63 = load ptr, ptr %node, align 8
  %_64 = ptrtoint ptr %_63 to i64
  %_67 = icmp eq i64 %_64, 0
  %_68 = and i1 %_67, true
  %_69 = xor i1 %_68, true
  br i1 %_69, label %bb13, label %panic2

panic1:                                           ; preds = %bb4
; call core::panicking::panic_misaligned_pointer_dereference
  call void @_ZN4core9panicking36panic_misaligned_pointer_dereference17hcc3cbded9382b6e5E(i64 8, i64 %_32, ptr align 8 @alloc_dde8e4e6cc5310dcb59b4fd56b49fe2c) #6
  unreachable

bb13:                                             ; preds = %bb8
  %1 = load ptr, ptr %node, align 8
  %_16 = load i32, ptr %1, align 8
  %_11 = call i32 (ptr, ...) @printf(ptr @alloc_a76e2e049551bfa704dc36697e4f9b39, i32 %_16) #7
  %_25 = load ptr, ptr %node, align 8
  %_26 = ptrtoint ptr %_25 to i64
  %_29 = and i64 %_26, 7
  %_30 = icmp eq i64 %_29, 0
  br i1 %_30, label %bb7, label %panic3

panic2:                                           ; preds = %bb8
; call core::panicking::panic_null_pointer_dereference
  call void @_ZN4core9panicking30panic_null_pointer_dereference17hf718fcc86a223baaE(ptr align 8 @alloc_dde8e4e6cc5310dcb59b4fd56b49fe2c) #6
  unreachable

bb7:                                              ; preds = %bb13
  %_70 = load ptr, ptr %node, align 8
  %_71 = ptrtoint ptr %_70 to i64
  %_74 = icmp eq i64 %_71, 0
  %_75 = and i1 %_74, true
  %_76 = xor i1 %_75, true
  br i1 %_76, label %bb14, label %panic4

panic3:                                           ; preds = %bb13
; call core::panicking::panic_misaligned_pointer_dereference
  call void @_ZN4core9panicking36panic_misaligned_pointer_dereference17hcc3cbded9382b6e5E(i64 8, i64 %_26, ptr align 8 @alloc_077aeabefd7e4362fd99fd42d0c7e2dd) #6
  unreachable

bb14:                                             ; preds = %bb7
  %2 = load ptr, ptr %node, align 8
  %3 = getelementptr inbounds i8, ptr %2, i64 16
  %_17 = load ptr, ptr %3, align 8
  store ptr %_17, ptr %node, align 8
  br label %bb1

panic4:                                           ; preds = %bb7
; call core::panicking::panic_null_pointer_dereference
  call void @_ZN4core9panicking30panic_null_pointer_dereference17hf718fcc86a223baaE(ptr align 8 @alloc_077aeabefd7e4362fd99fd42d0c7e2dd) #6
  unreachable

bb12:                                             ; preds = %bb3
  %_23 = load i32, ptr @min, align 4
  %_18 = call i32 (ptr, ...) @printf(ptr @alloc_5c28bedd534a5dfcd23bed5088d504fa, i32 %_23) #7
  ret void

panic5:                                           ; preds = %bb3
; call core::panicking::panic_null_pointer_dereference
  call void @_ZN4core9panicking30panic_null_pointer_dereference17hf718fcc86a223baaE(ptr align 8 @alloc_d9ead19047a0376ce241279933470e10) #6
  unreachable
}

; Function Attrs: nounwind nonlazybind
define void @branchbound(ptr %map) unnamed_addr #2 {
start:
  %i = alloca [4 x i8], align 4
  %neiborsize = alloca [4 x i8], align 4
  %neibors = alloca [40 x i8], align 8
  %node = alloca [8 x i8], align 8
  %currentnode = alloca [8 x i8], align 8
  %_3 = call ptr @malloc(i64 24) #7
  store ptr %_3, ptr %currentnode, align 8
  %_221 = load ptr, ptr %currentnode, align 8
  %_222 = ptrtoint ptr %_221 to i64
  %_225 = and i64 %_222, 7
  %_226 = icmp eq i64 %_225, 0
  br i1 %_226, label %bb59, label %panic

bb59:                                             ; preds = %start
  %_227 = load ptr, ptr %currentnode, align 8
  %_228 = ptrtoint ptr %_227 to i64
  %_231 = icmp eq i64 %_228, 0
  %_232 = and i1 %_231, true
  %_233 = xor i1 %_232, true
  br i1 %_233, label %bb60, label %panic1

panic:                                            ; preds = %start
; call core::panicking::panic_misaligned_pointer_dereference
  call void @_ZN4core9panicking36panic_misaligned_pointer_dereference17hcc3cbded9382b6e5E(i64 8, i64 %_222, ptr align 8 @alloc_dd5ca49258844dd049f35feb90dce4cb) #6
  unreachable

bb60:                                             ; preds = %bb59
  %0 = load ptr, ptr %currentnode, align 8
  store i32 0, ptr %0, align 8
  %_215 = load ptr, ptr %currentnode, align 8
  %_216 = ptrtoint ptr %_215 to i64
  %_219 = and i64 %_216, 7
  %_220 = icmp eq i64 %_219, 0
  br i1 %_220, label %bb58, label %panic2

panic1:                                           ; preds = %bb59
; call core::panicking::panic_null_pointer_dereference
  call void @_ZN4core9panicking30panic_null_pointer_dereference17hf718fcc86a223baaE(ptr align 8 @alloc_dd5ca49258844dd049f35feb90dce4cb) #6
  unreachable

bb58:                                             ; preds = %bb60
  %_234 = load ptr, ptr %currentnode, align 8
  %_235 = ptrtoint ptr %_234 to i64
  %_238 = icmp eq i64 %_235, 0
  %_239 = and i1 %_238, true
  %_240 = xor i1 %_239, true
  br i1 %_240, label %bb61, label %panic3

panic2:                                           ; preds = %bb60
; call core::panicking::panic_misaligned_pointer_dereference
  call void @_ZN4core9panicking36panic_misaligned_pointer_dereference17hcc3cbded9382b6e5E(i64 8, i64 %_216, ptr align 8 @alloc_80883ff8e80cbb9d0e87c67dc1a3fa1d) #6
  unreachable

bb61:                                             ; preds = %bb58
  %1 = load ptr, ptr %currentnode, align 8
  %2 = getelementptr inbounds i8, ptr %1, i64 8
  store i32 0, ptr %2, align 8
  %_209 = load ptr, ptr %currentnode, align 8
  %_210 = ptrtoint ptr %_209 to i64
  %_213 = and i64 %_210, 7
  %_214 = icmp eq i64 %_213, 0
  br i1 %_214, label %bb57, label %panic4

panic3:                                           ; preds = %bb58
; call core::panicking::panic_null_pointer_dereference
  call void @_ZN4core9panicking30panic_null_pointer_dereference17hf718fcc86a223baaE(ptr align 8 @alloc_80883ff8e80cbb9d0e87c67dc1a3fa1d) #6
  unreachable

bb57:                                             ; preds = %bb61
  %_241 = load ptr, ptr %currentnode, align 8
  %_242 = ptrtoint ptr %_241 to i64
  %_245 = icmp eq i64 %_242, 0
  %_246 = and i1 %_245, true
  %_247 = xor i1 %_246, true
  br i1 %_247, label %bb62, label %panic5

panic4:                                           ; preds = %bb61
; call core::panicking::panic_misaligned_pointer_dereference
  call void @_ZN4core9panicking36panic_misaligned_pointer_dereference17hcc3cbded9382b6e5E(i64 8, i64 %_210, ptr align 8 @alloc_4eafd405e6287f04cb56e32194e29e80) #6
  unreachable

bb62:                                             ; preds = %bb57
  %3 = load ptr, ptr %currentnode, align 8
  %4 = getelementptr inbounds i8, ptr %3, i64 16
  store ptr null, ptr %4, align 8
  %_203 = load ptr, ptr %currentnode, align 8
  %_204 = ptrtoint ptr %_203 to i64
  %_207 = and i64 %_204, 7
  %_208 = icmp eq i64 %_207, 0
  br i1 %_208, label %bb56, label %panic6

panic5:                                           ; preds = %bb57
; call core::panicking::panic_null_pointer_dereference
  call void @_ZN4core9panicking30panic_null_pointer_dereference17hf718fcc86a223baaE(ptr align 8 @alloc_4eafd405e6287f04cb56e32194e29e80) #6
  unreachable

bb56:                                             ; preds = %bb62
  %_248 = load ptr, ptr %currentnode, align 8
  %_249 = ptrtoint ptr %_248 to i64
  %_252 = icmp eq i64 %_249, 0
  %_253 = and i1 %_252, true
  %_254 = xor i1 %_253, true
  br i1 %_254, label %bb63, label %panic7

panic6:                                           ; preds = %bb62
; call core::panicking::panic_misaligned_pointer_dereference
  call void @_ZN4core9panicking36panic_misaligned_pointer_dereference17hcc3cbded9382b6e5E(i64 8, i64 %_204, ptr align 8 @alloc_14183f026f45fd0c022d30220bcbe5bb) #6
  unreachable

bb63:                                             ; preds = %bb56
  %5 = load ptr, ptr %currentnode, align 8
  %6 = getelementptr inbounds i8, ptr %5, i64 4
  store i32 0, ptr %6, align 4
  %_7 = load ptr, ptr %currentnode, align 8
  call void @push(ptr %_7) #7
  store ptr null, ptr %node, align 8
  br label %repeat_loop_header

panic7:                                           ; preds = %bb56
; call core::panicking::panic_null_pointer_dereference
  call void @_ZN4core9panicking30panic_null_pointer_dereference17hf718fcc86a223baaE(ptr align 8 @alloc_14183f026f45fd0c022d30220bcbe5bb) #6
  unreachable

repeat_loop_header:                               ; preds = %repeat_loop_body, %bb63
  %7 = phi i64 [ 0, %bb63 ], [ %10, %repeat_loop_body ]
  %8 = icmp ult i64 %7, 5
  br i1 %8, label %repeat_loop_body, label %repeat_loop_next

repeat_loop_body:                                 ; preds = %repeat_loop_header
  %9 = getelementptr inbounds nuw ptr, ptr %neibors, i64 %7
  store ptr null, ptr %9, align 8
  %10 = add nuw i64 %7, 1
  br label %repeat_loop_header

repeat_loop_next:                                 ; preds = %repeat_loop_header
  store i32 0, ptr %neiborsize, align 4
  store i32 0, ptr %i, align 4
  br label %bb4

bb4:                                              ; preds = %bb16, %bb32, %repeat_loop_next
  %_13 = call i32 @empty() #7
  %11 = icmp eq i32 %_13, 0
  br i1 %11, label %bb6, label %bb36

bb6:                                              ; preds = %bb4
  %_14 = call ptr @top() #7
  store ptr %_14, ptr %currentnode, align 8
  %_197 = load ptr, ptr %currentnode, align 8
  %_198 = ptrtoint ptr %_197 to i64
  %_201 = and i64 %_198, 7
  %_202 = icmp eq i64 %_201, 0
  br i1 %_202, label %bb55, label %panic8

bb36:                                             ; preds = %bb4
  ret void

bb55:                                             ; preds = %bb6
  %_255 = load ptr, ptr %currentnode, align 8
  %_256 = ptrtoint ptr %_255 to i64
  %_259 = icmp eq i64 %_256, 0
  %_260 = and i1 %_259, true
  %_261 = xor i1 %_260, true
  br i1 %_261, label %bb64, label %panic9

panic8:                                           ; preds = %bb6
; call core::panicking::panic_misaligned_pointer_dereference
  call void @_ZN4core9panicking36panic_misaligned_pointer_dereference17hcc3cbded9382b6e5E(i64 8, i64 %_198, ptr align 8 @alloc_ba4958817e64ea53113ad2d0f11e3547) #6
  unreachable

bb64:                                             ; preds = %bb55
  %12 = load ptr, ptr %currentnode, align 8
  %13 = getelementptr inbounds i8, ptr %12, i64 8
  %_16 = load i32, ptr %13, align 8
  %_15 = icmp eq i32 %_16, 4
  br i1 %_15, label %bb8, label %bb14

panic9:                                           ; preds = %bb55
; call core::panicking::panic_null_pointer_dereference
  call void @_ZN4core9panicking30panic_null_pointer_dereference17hf718fcc86a223baaE(ptr align 8 @alloc_ba4958817e64ea53113ad2d0f11e3547) #6
  unreachable

bb14:                                             ; preds = %bb71, %bb68, %bb64
  %_39 = call ptr @pop() #7
  %_149 = load ptr, ptr %currentnode, align 8
  %_150 = ptrtoint ptr %_149 to i64
  %_153 = and i64 %_150, 7
  %_154 = icmp eq i64 %_153, 0
  br i1 %_154, label %bb47, label %panic23

bb8:                                              ; preds = %bb64
  %_191 = load ptr, ptr %currentnode, align 8
  %_192 = ptrtoint ptr %_191 to i64
  %_195 = and i64 %_192, 7
  %_196 = icmp eq i64 %_195, 0
  br i1 %_196, label %bb54, label %panic10

bb54:                                             ; preds = %bb8
  %_262 = load ptr, ptr %currentnode, align 8
  %_263 = ptrtoint ptr %_262 to i64
  %_266 = icmp eq i64 %_263, 0
  %_267 = and i1 %_266, true
  %_268 = xor i1 %_267, true
  br i1 %_268, label %bb65, label %panic11

panic10:                                          ; preds = %bb8
; call core::panicking::panic_misaligned_pointer_dereference
  call void @_ZN4core9panicking36panic_misaligned_pointer_dereference17hcc3cbded9382b6e5E(i64 8, i64 %_192, ptr align 8 @alloc_48c557ee59b83a5e686aa613d9a7deae) #6
  unreachable

bb65:                                             ; preds = %bb54
  %14 = load ptr, ptr %currentnode, align 8
  %15 = getelementptr inbounds i8, ptr %14, i64 4
  %_20 = load i32, ptr %15, align 4
  %_185 = load ptr, ptr %currentnode, align 8
  %_186 = ptrtoint ptr %_185 to i64
  %_189 = and i64 %_186, 7
  %_190 = icmp eq i64 %_189, 0
  br i1 %_190, label %bb53, label %panic12

panic11:                                          ; preds = %bb54
; call core::panicking::panic_null_pointer_dereference
  call void @_ZN4core9panicking30panic_null_pointer_dereference17hf718fcc86a223baaE(ptr align 8 @alloc_48c557ee59b83a5e686aa613d9a7deae) #6
  unreachable

bb53:                                             ; preds = %bb65
  %_269 = load ptr, ptr %currentnode, align 8
  %_270 = ptrtoint ptr %_269 to i64
  %_273 = icmp eq i64 %_270, 0
  %_274 = and i1 %_273, true
  %_275 = xor i1 %_274, true
  br i1 %_275, label %bb66, label %panic13

panic12:                                          ; preds = %bb65
; call core::panicking::panic_misaligned_pointer_dereference
  call void @_ZN4core9panicking36panic_misaligned_pointer_dereference17hcc3cbded9382b6e5E(i64 8, i64 %_186, ptr align 8 @alloc_4cd326282da15a1a0c144dd5c8b190c4) #6
  unreachable

bb66:                                             ; preds = %bb53
  %16 = load ptr, ptr %currentnode, align 8
  %_24 = load i32, ptr %16, align 8
  %_23 = sext i32 %_24 to i64
; call core::ptr::mut_ptr::<impl *mut T>::offset::precondition_check
  call void @"_ZN4core3ptr7mut_ptr31_$LT$impl$u20$$BP$mut$u20$T$GT$6offset18precondition_check17hd394a6af1b353550E"(ptr %map, i64 %_23, i64 20) #7
  %_0.i48 = getelementptr inbounds [5 x i32], ptr %map, i64 %_23
  %_180 = ptrtoint ptr %_0.i48 to i64
  %_183 = and i64 %_180, 3
  %_184 = icmp eq i64 %_183, 0
  br i1 %_184, label %bb52, label %panic14

panic13:                                          ; preds = %bb53
; call core::panicking::panic_null_pointer_dereference
  call void @_ZN4core9panicking30panic_null_pointer_dereference17hf718fcc86a223baaE(ptr align 8 @alloc_4cd326282da15a1a0c144dd5c8b190c4) #6
  unreachable

bb52:                                             ; preds = %bb66
  %_277 = ptrtoint ptr %_0.i48 to i64
  %_280 = icmp eq i64 %_277, 0
  %_281 = and i1 %_280, true
  %_282 = xor i1 %_281, true
  br i1 %_282, label %bb67, label %panic15

panic14:                                          ; preds = %bb66
; call core::panicking::panic_misaligned_pointer_dereference
  call void @_ZN4core9panicking36panic_misaligned_pointer_dereference17hcc3cbded9382b6e5E(i64 4, i64 %_180, ptr align 8 @alloc_956cdab4e38c5db454abc8a1527c97e9) #6
  unreachable

bb67:                                             ; preds = %bb52
  %17 = getelementptr inbounds nuw i32, ptr %_0.i48, i64 0
  %_21 = load i32, ptr %17, align 4
  %_19 = add i32 %_20, %_21
  %_287 = icmp eq i64 ptrtoint (ptr @min to i64), 0
  %_288 = and i1 %_287, true
  %_289 = xor i1 %_288, true
  br i1 %_289, label %bb68, label %panic16

panic15:                                          ; preds = %bb52
; call core::panicking::panic_null_pointer_dereference
  call void @_ZN4core9panicking30panic_null_pointer_dereference17hf718fcc86a223baaE(ptr align 8 @alloc_956cdab4e38c5db454abc8a1527c97e9) #6
  unreachable

bb68:                                             ; preds = %bb67
  %_27 = load i32, ptr @min, align 4
  %_18 = icmp slt i32 %_19, %_27
  br i1 %_18, label %bb11, label %bb14

panic16:                                          ; preds = %bb67
; call core::panicking::panic_null_pointer_dereference
  call void @_ZN4core9panicking30panic_null_pointer_dereference17hf718fcc86a223baaE(ptr align 8 @alloc_f1ae162b661c8b5bd8beb6c43adc6c9e) #6
  unreachable

bb11:                                             ; preds = %bb68
  %_30 = load ptr, ptr %currentnode, align 8
  %_167 = load ptr, ptr %currentnode, align 8
  %_168 = ptrtoint ptr %_167 to i64
  %_171 = and i64 %_168, 7
  %_172 = icmp eq i64 %_171, 0
  br i1 %_172, label %bb50, label %panic17

bb50:                                             ; preds = %bb11
  %_290 = load ptr, ptr %currentnode, align 8
  %_291 = ptrtoint ptr %_290 to i64
  %_294 = icmp eq i64 %_291, 0
  %_295 = and i1 %_294, true
  %_296 = xor i1 %_295, true
  br i1 %_296, label %bb69, label %panic18

panic17:                                          ; preds = %bb11
; call core::panicking::panic_misaligned_pointer_dereference
  call void @_ZN4core9panicking36panic_misaligned_pointer_dereference17hcc3cbded9382b6e5E(i64 8, i64 %_168, ptr align 8 @alloc_b29d471cbc88e129930354236ed7f5d6) #6
  unreachable

bb69:                                             ; preds = %bb50
  %18 = load ptr, ptr %currentnode, align 8
  %19 = getelementptr inbounds i8, ptr %18, i64 4
  %_32 = load i32, ptr %19, align 4
  %_161 = load ptr, ptr %currentnode, align 8
  %_162 = ptrtoint ptr %_161 to i64
  %_165 = and i64 %_162, 7
  %_166 = icmp eq i64 %_165, 0
  br i1 %_166, label %bb49, label %panic19

panic18:                                          ; preds = %bb50
; call core::panicking::panic_null_pointer_dereference
  call void @_ZN4core9panicking30panic_null_pointer_dereference17hf718fcc86a223baaE(ptr align 8 @alloc_b29d471cbc88e129930354236ed7f5d6) #6
  unreachable

bb49:                                             ; preds = %bb69
  %_297 = load ptr, ptr %currentnode, align 8
  %_298 = ptrtoint ptr %_297 to i64
  %_301 = icmp eq i64 %_298, 0
  %_302 = and i1 %_301, true
  %_303 = xor i1 %_302, true
  br i1 %_303, label %bb70, label %panic20

panic19:                                          ; preds = %bb69
; call core::panicking::panic_misaligned_pointer_dereference
  call void @_ZN4core9panicking36panic_misaligned_pointer_dereference17hcc3cbded9382b6e5E(i64 8, i64 %_162, ptr align 8 @alloc_f88e8376d100d6f88bb846af8917ea7e) #6
  unreachable

bb70:                                             ; preds = %bb49
  %20 = load ptr, ptr %currentnode, align 8
  %_36 = load i32, ptr %20, align 8
  %_35 = sext i32 %_36 to i64
; call core::ptr::mut_ptr::<impl *mut T>::offset::precondition_check
  call void @"_ZN4core3ptr7mut_ptr31_$LT$impl$u20$$BP$mut$u20$T$GT$6offset18precondition_check17hd394a6af1b353550E"(ptr %map, i64 %_35, i64 20) #7
  %_0.i47 = getelementptr inbounds [5 x i32], ptr %map, i64 %_35
  %_156 = ptrtoint ptr %_0.i47 to i64
  %_159 = and i64 %_156, 3
  %_160 = icmp eq i64 %_159, 0
  br i1 %_160, label %bb48, label %panic21

panic20:                                          ; preds = %bb49
; call core::panicking::panic_null_pointer_dereference
  call void @_ZN4core9panicking30panic_null_pointer_dereference17hf718fcc86a223baaE(ptr align 8 @alloc_f88e8376d100d6f88bb846af8917ea7e) #6
  unreachable

bb48:                                             ; preds = %bb70
  %_305 = ptrtoint ptr %_0.i47 to i64
  %_308 = icmp eq i64 %_305, 0
  %_309 = and i1 %_308, true
  %_310 = xor i1 %_309, true
  br i1 %_310, label %bb71, label %panic22

panic21:                                          ; preds = %bb70
; call core::panicking::panic_misaligned_pointer_dereference
  call void @_ZN4core9panicking36panic_misaligned_pointer_dereference17hcc3cbded9382b6e5E(i64 4, i64 %_156, ptr align 8 @alloc_2ffed3ee6ec7956d656e23c93c6bf845) #6
  unreachable

bb71:                                             ; preds = %bb48
  %21 = getelementptr inbounds nuw i32, ptr %_0.i47, i64 0
  %_33 = load i32, ptr %21, align 4
  %_31 = add i32 %_32, %_33
  call void @display_outcome(ptr %_30, i32 %_31) #7
  br label %bb14

panic22:                                          ; preds = %bb48
; call core::panicking::panic_null_pointer_dereference
  call void @_ZN4core9panicking30panic_null_pointer_dereference17hf718fcc86a223baaE(ptr align 8 @alloc_2ffed3ee6ec7956d656e23c93c6bf845) #6
  unreachable

bb47:                                             ; preds = %bb14
  %_311 = load ptr, ptr %currentnode, align 8
  %_312 = ptrtoint ptr %_311 to i64
  %_315 = icmp eq i64 %_312, 0
  %_316 = and i1 %_315, true
  %_317 = xor i1 %_316, true
  br i1 %_317, label %bb72, label %panic24

panic23:                                          ; preds = %bb14
; call core::panicking::panic_misaligned_pointer_dereference
  call void @_ZN4core9panicking36panic_misaligned_pointer_dereference17hcc3cbded9382b6e5E(i64 8, i64 %_150, ptr align 8 @alloc_27a2a7867512714097587d9b2be2315b) #6
  unreachable

bb72:                                             ; preds = %bb47
  %22 = load ptr, ptr %currentnode, align 8
  %23 = getelementptr inbounds i8, ptr %22, i64 4
  %_41 = load i32, ptr %23, align 4
  %_322 = icmp eq i64 ptrtoint (ptr @min to i64), 0
  %_323 = and i1 %_322, true
  %_324 = xor i1 %_323, true
  br i1 %_324, label %bb73, label %panic25

panic24:                                          ; preds = %bb47
; call core::panicking::panic_null_pointer_dereference
  call void @_ZN4core9panicking30panic_null_pointer_dereference17hf718fcc86a223baaE(ptr align 8 @alloc_27a2a7867512714097587d9b2be2315b) #6
  unreachable

bb73:                                             ; preds = %bb72
  %_42 = load i32, ptr @min, align 4
  %_40 = icmp sgt i32 %_41, %_42
  br i1 %_40, label %bb16, label %bb17

panic25:                                          ; preds = %bb72
; call core::panicking::panic_null_pointer_dereference
  call void @_ZN4core9panicking30panic_null_pointer_dereference17hf718fcc86a223baaE(ptr align 8 @alloc_4d36b92e5a372e43b2f5f5fbec85b595) #6
  unreachable

bb17:                                             ; preds = %bb73
  store i32 0, ptr %neiborsize, align 4
  store i32 0, ptr %i, align 4
  br label %bb18

bb16:                                             ; preds = %bb73
  %_44 = call i32 (ptr, ...) @printf(ptr @alloc_933d61dbeb2a7e8ece04956d115b5030) #7
  br label %bb4

bb18:                                             ; preds = %bb28, %bb17
  %_50 = load i32, ptr %i, align 4
  %_49 = icmp slt i32 %_50, 5
  br i1 %_49, label %bb19, label %bb29

bb29:                                             ; preds = %bb18
  %_80 = load i32, ptr %neiborsize, align 4
  call void @insertsort(ptr %neibors, i32 %_80) #7
  store i32 0, ptr %i, align 4
  br label %bb32

bb19:                                             ; preds = %bb18
  %_52 = load i32, ptr %i, align 4
  %_137 = load ptr, ptr %currentnode, align 8
  %_138 = ptrtoint ptr %_137 to i64
  %_141 = and i64 %_138, 7
  %_142 = icmp eq i64 %_141, 0
  br i1 %_142, label %bb45, label %panic27

bb32:                                             ; preds = %bb34, %bb29
  %_82 = load i32, ptr %i, align 4
  %_83 = load i32, ptr %neiborsize, align 4
  %_81 = icmp slt i32 %_82, %_83
  br i1 %_81, label %bb33, label %bb4

bb33:                                             ; preds = %bb32
  %_87 = load i32, ptr %i, align 4
  %_86 = sext i32 %_87 to i64
  %_88 = icmp ult i64 %_86, 5
  br i1 %_88, label %bb34, label %panic26

bb34:                                             ; preds = %bb33
  %24 = getelementptr inbounds nuw ptr, ptr %neibors, i64 %_86
  %_85 = load ptr, ptr %24, align 8
  call void @push(ptr %_85) #7
  %25 = load i32, ptr %i, align 4
  %26 = add i32 %25, 1
  store i32 %26, ptr %i, align 4
  br label %bb32

panic26:                                          ; preds = %bb33
; call core::panicking::panic_bounds_check
  call void @_ZN4core9panicking18panic_bounds_check17h27d1e4f0cb1112dfE(i64 %_86, i64 5, ptr align 8 @alloc_88b8b3c7f74958be1c7686e74cdc991d) #6
  unreachable

bb45:                                             ; preds = %bb19
  %_325 = load ptr, ptr %currentnode, align 8
  %_326 = ptrtoint ptr %_325 to i64
  %_329 = icmp eq i64 %_326, 0
  %_330 = and i1 %_329, true
  %_331 = xor i1 %_330, true
  br i1 %_331, label %bb74, label %panic28

panic27:                                          ; preds = %bb19
; call core::panicking::panic_misaligned_pointer_dereference
  call void @_ZN4core9panicking36panic_misaligned_pointer_dereference17hcc3cbded9382b6e5E(i64 8, i64 %_138, ptr align 8 @alloc_5069d81873085296cb3e6b0e1acb2378) #6
  unreachable

bb74:                                             ; preds = %bb45
  %27 = load ptr, ptr %currentnode, align 8
  %_53 = load i32, ptr %27, align 8
  %_51 = icmp ne i32 %_52, %_53
  br i1 %_51, label %bb20, label %bb28

panic28:                                          ; preds = %bb45
; call core::panicking::panic_null_pointer_dereference
  call void @_ZN4core9panicking30panic_null_pointer_dereference17hf718fcc86a223baaE(ptr align 8 @alloc_5069d81873085296cb3e6b0e1acb2378) #6
  unreachable

bb28:                                             ; preds = %bb27, %bb20, %bb74
  %28 = load i32, ptr %i, align 4
  %29 = add i32 %28, 1
  store i32 %29, ptr %i, align 4
  br label %bb18

bb20:                                             ; preds = %bb74
  %_55 = load ptr, ptr %currentnode, align 8
  %_56 = load i32, ptr %i, align 4
  %_54 = call i32 @inme(ptr %_55, i32 %_56) #7
  %30 = icmp eq i32 %_54, 0
  br i1 %30, label %bb22, label %bb28

bb22:                                             ; preds = %bb20
  %_57 = call ptr @malloc(i64 24) #7
  store ptr %_57, ptr %node, align 8
  %_60 = load i32, ptr %i, align 4
  %_131 = load ptr, ptr %node, align 8
  %_132 = ptrtoint ptr %_131 to i64
  %_135 = and i64 %_132, 7
  %_136 = icmp eq i64 %_135, 0
  br i1 %_136, label %bb44, label %panic29

bb44:                                             ; preds = %bb22
  %_332 = load ptr, ptr %node, align 8
  %_333 = ptrtoint ptr %_332 to i64
  %_336 = icmp eq i64 %_333, 0
  %_337 = and i1 %_336, true
  %_338 = xor i1 %_337, true
  br i1 %_338, label %bb75, label %panic30

panic29:                                          ; preds = %bb22
; call core::panicking::panic_misaligned_pointer_dereference
  call void @_ZN4core9panicking36panic_misaligned_pointer_dereference17hcc3cbded9382b6e5E(i64 8, i64 %_132, ptr align 8 @alloc_09506cc820f8dd749e2669b6f0946218) #6
  unreachable

bb75:                                             ; preds = %bb44
  %31 = load ptr, ptr %node, align 8
  store i32 %_60, ptr %31, align 8
  %_125 = load ptr, ptr %currentnode, align 8
  %_126 = ptrtoint ptr %_125 to i64
  %_129 = and i64 %_126, 7
  %_130 = icmp eq i64 %_129, 0
  br i1 %_130, label %bb43, label %panic31

panic30:                                          ; preds = %bb44
; call core::panicking::panic_null_pointer_dereference
  call void @_ZN4core9panicking30panic_null_pointer_dereference17hf718fcc86a223baaE(ptr align 8 @alloc_09506cc820f8dd749e2669b6f0946218) #6
  unreachable

bb43:                                             ; preds = %bb75
  %_339 = load ptr, ptr %currentnode, align 8
  %_340 = ptrtoint ptr %_339 to i64
  %_343 = icmp eq i64 %_340, 0
  %_344 = and i1 %_343, true
  %_345 = xor i1 %_344, true
  br i1 %_345, label %bb76, label %panic32

panic31:                                          ; preds = %bb75
; call core::panicking::panic_misaligned_pointer_dereference
  call void @_ZN4core9panicking36panic_misaligned_pointer_dereference17hcc3cbded9382b6e5E(i64 8, i64 %_126, ptr align 8 @alloc_3a78ea53cf87ead900f43e146c0ff429) #6
  unreachable

bb76:                                             ; preds = %bb43
  %32 = load ptr, ptr %currentnode, align 8
  %33 = getelementptr inbounds i8, ptr %32, i64 8
  %_61 = load i32, ptr %33, align 8
  %_119 = load ptr, ptr %node, align 8
  %_120 = ptrtoint ptr %_119 to i64
  %_123 = and i64 %_120, 7
  %_124 = icmp eq i64 %_123, 0
  br i1 %_124, label %bb42, label %panic33

panic32:                                          ; preds = %bb43
; call core::panicking::panic_null_pointer_dereference
  call void @_ZN4core9panicking30panic_null_pointer_dereference17hf718fcc86a223baaE(ptr align 8 @alloc_3a78ea53cf87ead900f43e146c0ff429) #6
  unreachable

bb42:                                             ; preds = %bb76
  %_346 = load ptr, ptr %node, align 8
  %_347 = ptrtoint ptr %_346 to i64
  %_350 = icmp eq i64 %_347, 0
  %_351 = and i1 %_350, true
  %_352 = xor i1 %_351, true
  br i1 %_352, label %bb77, label %panic34

panic33:                                          ; preds = %bb76
; call core::panicking::panic_misaligned_pointer_dereference
  call void @_ZN4core9panicking36panic_misaligned_pointer_dereference17hcc3cbded9382b6e5E(i64 8, i64 %_120, ptr align 8 @alloc_e9f7a536f033111205a1d9f3b7b347ff) #6
  unreachable

bb77:                                             ; preds = %bb42
  %34 = load ptr, ptr %node, align 8
  %35 = getelementptr inbounds i8, ptr %34, i64 8
  %36 = add i32 %_61, 1
  store i32 %36, ptr %35, align 8
  %_62 = load ptr, ptr %currentnode, align 8
  %_113 = load ptr, ptr %node, align 8
  %_114 = ptrtoint ptr %_113 to i64
  %_117 = and i64 %_114, 7
  %_118 = icmp eq i64 %_117, 0
  br i1 %_118, label %bb41, label %panic35

panic34:                                          ; preds = %bb42
; call core::panicking::panic_null_pointer_dereference
  call void @_ZN4core9panicking30panic_null_pointer_dereference17hf718fcc86a223baaE(ptr align 8 @alloc_e9f7a536f033111205a1d9f3b7b347ff) #6
  unreachable

bb41:                                             ; preds = %bb77
  %_353 = load ptr, ptr %node, align 8
  %_354 = ptrtoint ptr %_353 to i64
  %_357 = icmp eq i64 %_354, 0
  %_358 = and i1 %_357, true
  %_359 = xor i1 %_358, true
  br i1 %_359, label %bb78, label %panic36

panic35:                                          ; preds = %bb77
; call core::panicking::panic_misaligned_pointer_dereference
  call void @_ZN4core9panicking36panic_misaligned_pointer_dereference17hcc3cbded9382b6e5E(i64 8, i64 %_114, ptr align 8 @alloc_05f7eb6830a4619be33f70972144823f) #6
  unreachable

bb78:                                             ; preds = %bb41
  %37 = load ptr, ptr %node, align 8
  %38 = getelementptr inbounds i8, ptr %37, i64 16
  store ptr %_62, ptr %38, align 8
  %_107 = load ptr, ptr %currentnode, align 8
  %_108 = ptrtoint ptr %_107 to i64
  %_111 = and i64 %_108, 7
  %_112 = icmp eq i64 %_111, 0
  br i1 %_112, label %bb40, label %panic37

panic36:                                          ; preds = %bb41
; call core::panicking::panic_null_pointer_dereference
  call void @_ZN4core9panicking30panic_null_pointer_dereference17hf718fcc86a223baaE(ptr align 8 @alloc_05f7eb6830a4619be33f70972144823f) #6
  unreachable

bb40:                                             ; preds = %bb78
  %_360 = load ptr, ptr %currentnode, align 8
  %_361 = ptrtoint ptr %_360 to i64
  %_364 = icmp eq i64 %_361, 0
  %_365 = and i1 %_364, true
  %_366 = xor i1 %_365, true
  br i1 %_366, label %bb79, label %panic38

panic37:                                          ; preds = %bb78
; call core::panicking::panic_misaligned_pointer_dereference
  call void @_ZN4core9panicking36panic_misaligned_pointer_dereference17hcc3cbded9382b6e5E(i64 8, i64 %_108, ptr align 8 @alloc_2e4a8991a791645bf803cdf029d1d97f) #6
  unreachable

bb79:                                             ; preds = %bb40
  %39 = load ptr, ptr %currentnode, align 8
  %40 = getelementptr inbounds i8, ptr %39, i64 4
  %_63 = load i32, ptr %40, align 4
  %_101 = load ptr, ptr %currentnode, align 8
  %_102 = ptrtoint ptr %_101 to i64
  %_105 = and i64 %_102, 7
  %_106 = icmp eq i64 %_105, 0
  br i1 %_106, label %bb39, label %panic39

panic38:                                          ; preds = %bb40
; call core::panicking::panic_null_pointer_dereference
  call void @_ZN4core9panicking30panic_null_pointer_dereference17hf718fcc86a223baaE(ptr align 8 @alloc_2e4a8991a791645bf803cdf029d1d97f) #6
  unreachable

bb39:                                             ; preds = %bb79
  %_367 = load ptr, ptr %currentnode, align 8
  %_368 = ptrtoint ptr %_367 to i64
  %_371 = icmp eq i64 %_368, 0
  %_372 = and i1 %_371, true
  %_373 = xor i1 %_372, true
  br i1 %_373, label %bb80, label %panic40

panic39:                                          ; preds = %bb79
; call core::panicking::panic_misaligned_pointer_dereference
  call void @_ZN4core9panicking36panic_misaligned_pointer_dereference17hcc3cbded9382b6e5E(i64 8, i64 %_102, ptr align 8 @alloc_ebd24a3bee9777ff9ce38130e53cee82) #6
  unreachable

bb80:                                             ; preds = %bb39
  %41 = load ptr, ptr %currentnode, align 8
  %_67 = load i32, ptr %41, align 8
  %_66 = sext i32 %_67 to i64
; call core::ptr::mut_ptr::<impl *mut T>::offset::precondition_check
  call void @"_ZN4core3ptr7mut_ptr31_$LT$impl$u20$$BP$mut$u20$T$GT$6offset18precondition_check17hd394a6af1b353550E"(ptr %map, i64 %_66, i64 20) #7
  %_0.i = getelementptr inbounds [5 x i32], ptr %map, i64 %_66
  %_69 = load i32, ptr %i, align 4
  %_68 = sext i32 %_69 to i64
  %_70 = icmp ult i64 %_68, 5
  br i1 %_70, label %bb26, label %panic41

panic40:                                          ; preds = %bb39
; call core::panicking::panic_null_pointer_dereference
  call void @_ZN4core9panicking30panic_null_pointer_dereference17hf718fcc86a223baaE(ptr align 8 @alloc_ebd24a3bee9777ff9ce38130e53cee82) #6
  unreachable

bb26:                                             ; preds = %bb80
  %_96 = ptrtoint ptr %_0.i to i64
  %_99 = and i64 %_96, 3
  %_100 = icmp eq i64 %_99, 0
  br i1 %_100, label %bb38, label %panic42

panic41:                                          ; preds = %bb80
; call core::panicking::panic_bounds_check
  call void @_ZN4core9panicking18panic_bounds_check17h27d1e4f0cb1112dfE(i64 %_68, i64 5, ptr align 8 @alloc_961c76b18c3a6d8ccca9e04f360db4b5) #6
  unreachable

bb38:                                             ; preds = %bb26
  %_375 = ptrtoint ptr %_0.i to i64
  %_378 = icmp eq i64 %_375, 0
  %_379 = and i1 %_378, true
  %_380 = xor i1 %_379, true
  br i1 %_380, label %bb81, label %panic43

panic42:                                          ; preds = %bb26
; call core::panicking::panic_misaligned_pointer_dereference
  call void @_ZN4core9panicking36panic_misaligned_pointer_dereference17hcc3cbded9382b6e5E(i64 4, i64 %_96, ptr align 8 @alloc_961c76b18c3a6d8ccca9e04f360db4b5) #6
  unreachable

bb81:                                             ; preds = %bb38
  %42 = getelementptr inbounds nuw i32, ptr %_0.i, i64 %_68
  %_64 = load i32, ptr %42, align 4
  %_89 = load ptr, ptr %node, align 8
  %_90 = ptrtoint ptr %_89 to i64
  %_93 = and i64 %_90, 7
  %_94 = icmp eq i64 %_93, 0
  br i1 %_94, label %bb37, label %panic44

panic43:                                          ; preds = %bb38
; call core::panicking::panic_null_pointer_dereference
  call void @_ZN4core9panicking30panic_null_pointer_dereference17hf718fcc86a223baaE(ptr align 8 @alloc_961c76b18c3a6d8ccca9e04f360db4b5) #6
  unreachable

bb37:                                             ; preds = %bb81
  %_381 = load ptr, ptr %node, align 8
  %_382 = ptrtoint ptr %_381 to i64
  %_385 = icmp eq i64 %_382, 0
  %_386 = and i1 %_385, true
  %_387 = xor i1 %_386, true
  br i1 %_387, label %bb82, label %panic45

panic44:                                          ; preds = %bb81
; call core::panicking::panic_misaligned_pointer_dereference
  call void @_ZN4core9panicking36panic_misaligned_pointer_dereference17hcc3cbded9382b6e5E(i64 8, i64 %_90, ptr align 8 @alloc_48da3a68d537097c5655611dcf9a694e) #6
  unreachable

bb82:                                             ; preds = %bb37
  %43 = load ptr, ptr %node, align 8
  %44 = getelementptr inbounds i8, ptr %43, i64 4
  %45 = add i32 %_63, %_64
  store i32 %45, ptr %44, align 4
  %fresh2 = load i32, ptr %neiborsize, align 4
  %_72 = load i32, ptr %neiborsize, align 4
  %46 = add i32 %_72, 1
  store i32 %46, ptr %neiborsize, align 4
  %_73 = load ptr, ptr %node, align 8
  %_74 = sext i32 %fresh2 to i64
  %_75 = icmp ult i64 %_74, 5
  br i1 %_75, label %bb27, label %panic46

panic45:                                          ; preds = %bb37
; call core::panicking::panic_null_pointer_dereference
  call void @_ZN4core9panicking30panic_null_pointer_dereference17hf718fcc86a223baaE(ptr align 8 @alloc_48da3a68d537097c5655611dcf9a694e) #6
  unreachable

bb27:                                             ; preds = %bb82
  %47 = getelementptr inbounds nuw ptr, ptr %neibors, i64 %_74
  store ptr %_73, ptr %47, align 8
  br label %bb28

panic46:                                          ; preds = %bb82
; call core::panicking::panic_bounds_check
  call void @_ZN4core9panicking18panic_bounds_check17h27d1e4f0cb1112dfE(i64 %_74, i64 5, ptr align 8 @alloc_3c595015b2644b40b4b66822269ba9ad) #6
  unreachable
}

; Function Attrs: nocallback nofree nosync nounwind speculatable willreturn memory(none)
declare { i64, i1 } @llvm.smul.with.overflow.i64(i64, i64) #3

; Function Attrs: nocallback nofree nosync nounwind speculatable willreturn memory(none)
declare { i64, i1 } @llvm.uadd.with.overflow.i64(i64, i64) #3

; core::panicking::panic_nounwind
; Function Attrs: cold noinline noreturn nounwind nonlazybind
declare void @_ZN4core9panicking14panic_nounwind17h211d9ce8d63f12e7E(ptr align 1, i64) unnamed_addr #4

; core::panicking::panic_null_pointer_dereference
; Function Attrs: cold minsize noinline noreturn nounwind nonlazybind optsize
declare void @_ZN4core9panicking30panic_null_pointer_dereference17hf718fcc86a223baaE(ptr align 8) unnamed_addr #5

; core::panicking::panic_bounds_check
; Function Attrs: cold minsize noinline noreturn nounwind nonlazybind optsize
declare void @_ZN4core9panicking18panic_bounds_check17h27d1e4f0cb1112dfE(i64, i64, ptr align 8) unnamed_addr #5

; core::panicking::panic_misaligned_pointer_dereference
; Function Attrs: cold minsize noinline noreturn nounwind nonlazybind optsize
declare void @_ZN4core9panicking36panic_misaligned_pointer_dereference17hcc3cbded9382b6e5E(i64, i64, ptr align 8) unnamed_addr #5

; Function Attrs: nounwind nonlazybind
declare i32 @printf(ptr, ...) unnamed_addr #2

; Function Attrs: nounwind nonlazybind
declare ptr @malloc(i64) unnamed_addr #2

attributes #0 = { cold nounwind nonlazybind "probe-stack"="inline-asm" "target-cpu"="x86-64" }
attributes #1 = { inlinehint nounwind nonlazybind "probe-stack"="inline-asm" "target-cpu"="x86-64" }
attributes #2 = { nounwind nonlazybind "probe-stack"="inline-asm" "target-cpu"="x86-64" }
attributes #3 = { nocallback nofree nosync nounwind speculatable willreturn memory(none) }
attributes #4 = { cold noinline noreturn nounwind nonlazybind "probe-stack"="inline-asm" "target-cpu"="x86-64" }
attributes #5 = { cold minsize noinline noreturn nounwind nonlazybind optsize "probe-stack"="inline-asm" "target-cpu"="x86-64" }
attributes #6 = { noreturn nounwind }
attributes #7 = { nounwind }

!llvm.module.flags = !{!0, !1}
!llvm.ident = !{!2}

!0 = !{i32 8, !"PIC Level", i32 2}
!1 = !{i32 2, !"RtLibUseGOT", i32 1}
!2 = !{!"rustc version 1.88.0-nightly (0b45675cf 2025-03-31)"}
