; ModuleID = 'program_001.d56404bad0550b83-cgu.0'
source_filename = "program_001.d56404bad0550b83-cgu.0"
target datalayout = "e-m:e-p270:32:32-p271:32:32-p272:64:64-i64:64-i128:128-f80:128-n8:16:32:64-S128"
target triple = "x86_64-unknown-linux-gnu"

@vtable.0 = private unnamed_addr constant <{ [24 x i8], ptr, ptr, ptr }> <{ [24 x i8] c"\00\00\00\00\00\00\00\00\08\00\00\00\00\00\00\00\08\00\00\00\00\00\00\00", ptr @"_ZN4core3ops8function6FnOnce40call_once$u7b$$u7b$vtable.shim$u7d$$u7d$17h056653820d674961E", ptr @"_ZN3std2rt10lang_start28_$u7b$$u7b$closure$u7d$$u7d$17h0abb766a6bdea635E", ptr @"_ZN3std2rt10lang_start28_$u7b$$u7b$closure$u7d$$u7d$17h0abb766a6bdea635E" }>, align 8
@root = local_unnamed_addr global [8 x i8] zeroinitializer, align 8
@alloc_8554a36f49beb814626c9fc6757cb371 = private unnamed_addr constant [29 x i8] c"Creation of B tree for M=%d\0A\00", align 1
@alloc_1fb8952eb3715508278e146c6ddf16fa = private unnamed_addr constant [21 x i8] c"Enter your choice : \00", align 1
@alloc_3a31753a0b113451bf74f615363720ce = private unnamed_addr constant [3 x i8] c"%d\00", align 1
@alloc_f2bf5dbd802ab2610cd3c36ff794aba8 = private unnamed_addr constant [17 x i8] c"Enter the key : \00", align 1
@alloc_3ba7eeeabd3d9c4a56f56d0cfe62277d = private unnamed_addr constant [11 x i8] c"src/main.rs", align 1
@alloc_147e5226db27ecd9663fd9e0b17c9111 = private unnamed_addr constant <{ ptr, [16 x i8] }> <{ ptr @alloc_3ba7eeeabd3d9c4a56f56d0cfe62277d, [16 x i8] c"\0B\00\00\00\00\00\00\00\9B\00\00\00\1A\00\00\00" }>, align 8
@alloc_075842ab4120c74d54443cd5016f836e = private unnamed_addr constant <{ ptr, [16 x i8] }> <{ ptr @alloc_3ba7eeeabd3d9c4a56f56d0cfe62277d, [16 x i8] c"\0B\00\00\00\00\00\00\00\9E\00\00\00\11\00\00\00" }>, align 8
@alloc_08cd2f7426fba34ee2a6047d22e9cab9 = private unnamed_addr constant <{ ptr, [16 x i8] }> <{ ptr @alloc_3ba7eeeabd3d9c4a56f56d0cfe62277d, [16 x i8] c"\0B\00\00\00\00\00\00\00\D3\00\00\00\05\00\00\00" }>, align 8
@alloc_9684fda98c39233cc2802062a9a6d392 = private unnamed_addr constant <{ ptr, [16 x i8] }> <{ ptr @alloc_3ba7eeeabd3d9c4a56f56d0cfe62277d, [16 x i8] c"\0B\00\00\00\00\00\00\00\C8\00\00\00%\00\00\00" }>, align 8
@alloc_ff2c088c72b3213e3948cd7bd5711294 = private unnamed_addr constant <{ ptr, [16 x i8] }> <{ ptr @alloc_3ba7eeeabd3d9c4a56f56d0cfe62277d, [16 x i8] c"\0B\00\00\00\00\00\00\00\CC\00\00\00\1D\00\00\00" }>, align 8
@alloc_3ff38f7a9a2ea5b49ae3296853949afb = private unnamed_addr constant <{ ptr, [16 x i8] }> <{ ptr @alloc_3ba7eeeabd3d9c4a56f56d0cfe62277d, [16 x i8] c"\0B\00\00\00\00\00\00\00\B9\00\00\00'\00\00\00" }>, align 8
@alloc_8afc447b99f762634367a6310bf17041 = private unnamed_addr constant <{ ptr, [16 x i8] }> <{ ptr @alloc_3ba7eeeabd3d9c4a56f56d0cfe62277d, [16 x i8] c"\0B\00\00\00\00\00\00\00\EC\00\00\00\15\00\00\00" }>, align 8
@alloc_b929c71616281bfd1be2bd4038d3ddf1 = private unnamed_addr constant [4 x i8] c"%d \00", align 1
@alloc_6590ae3175fd2d44fa1799500dc41b41 = private unnamed_addr constant <{ ptr, [16 x i8] }> <{ ptr @alloc_3ba7eeeabd3d9c4a56f56d0cfe62277d, [16 x i8] c"\0B\00\00\00\00\00\00\00\E4\00\00\00\11\00\00\00" }>, align 8
@alloc_1ae438b507c34b8b839dbe6b2373ddec = private unnamed_addr constant [25 x i8] c"Key %d is not available\0A\00", align 1
@alloc_ca84e65bd5a577235bd79998e10cfd58 = private unnamed_addr constant <{ ptr, [16 x i8] }> <{ ptr @alloc_3ba7eeeabd3d9c4a56f56d0cfe62277d, [16 x i8] c"\0B\00\00\00\00\00\00\00\06\01\00\00\1E\00\00\00" }>, align 8
@alloc_5cbc71586beba75f04fe13150b3c3446 = private unnamed_addr constant <{ ptr, [16 x i8] }> <{ ptr @alloc_3ba7eeeabd3d9c4a56f56d0cfe62277d, [16 x i8] c"\0B\00\00\00\00\00\00\00\0F\01\00\00\0F\00\00\00" }>, align 8
@alloc_70669417e8f01a5f62ae7ac93ca5ae1c = private unnamed_addr constant [52 x i8] c"Key %d found in position %d of last dispalyed node\0A\00", align 1
@alloc_aec970d04776e6b8a38ae080d935e75f = private unnamed_addr constant [4 x i8] c" %d\00", align 1
@alloc_3a38dadeced5ab4dbf2a40f8bb26fd32 = private unnamed_addr constant <{ ptr, [16 x i8] }> <{ ptr @alloc_3ba7eeeabd3d9c4a56f56d0cfe62277d, [16 x i8] c"\0B\00\00\00\00\00\00\00\FF\00\00\00\11\00\00\00" }>, align 8
@alloc_c515454c1d3c3401bc25c4fbf7198a36 = private unnamed_addr constant <{ ptr, [16 x i8] }> <{ ptr @alloc_3ba7eeeabd3d9c4a56f56d0cfe62277d, [16 x i8] c"\0B\00\00\00\00\00\00\00b\01\00\00\13\00\00\00" }>, align 8
@alloc_d23ced7b98a3ee510f0853b8416306e3 = private unnamed_addr constant <{ ptr, [16 x i8] }> <{ ptr @alloc_3ba7eeeabd3d9c4a56f56d0cfe62277d, [16 x i8] c"\0B\00\00\00\00\00\00\00h\01\00\00)\00\00\00" }>, align 8
@alloc_5ccf52401d259fe5a080d9e3e13e98e7 = private unnamed_addr constant <{ ptr, [16 x i8] }> <{ ptr @alloc_3ba7eeeabd3d9c4a56f56d0cfe62277d, [16 x i8] c"\0B\00\00\00\00\00\00\00\A4\01\00\00\05\00\00\00" }>, align 8
@alloc_fe16c8a887235d29cc218e7760b9a3f1 = private unnamed_addr constant <{ ptr, [16 x i8] }> <{ ptr @alloc_3ba7eeeabd3d9c4a56f56d0cfe62277d, [16 x i8] c"\0B\00\00\00\00\00\00\00\AA\01\00\00\09\00\00\00" }>, align 8
@alloc_0b41642b4bb72d5e6210eacf362840ad = private unnamed_addr constant <{ ptr, [16 x i8] }> <{ ptr @alloc_3ba7eeeabd3d9c4a56f56d0cfe62277d, [16 x i8] c"\0B\00\00\00\00\00\00\00\89\01\00\00\09\00\00\00" }>, align 8
@alloc_2b4431b1c6bb6ddbbdf0def753423777 = private unnamed_addr constant <{ ptr, [16 x i8] }> <{ ptr @alloc_3ba7eeeabd3d9c4a56f56d0cfe62277d, [16 x i8] c"\0B\00\00\00\00\00\00\00\9A\01\00\00&\00\00\00" }>, align 8
@alloc_788b85ba074557741aa4e537d0abf802 = private unnamed_addr constant <{ ptr, [16 x i8] }> <{ ptr @alloc_3ba7eeeabd3d9c4a56f56d0cfe62277d, [16 x i8] c"\0B\00\00\00\00\00\00\00\99\01\00\00\09\00\00\00" }>, align 8
@alloc_531cd8b78d42e5d8dfa7a83ba0f7d218 = private unnamed_addr constant <{ ptr, [16 x i8] }> <{ ptr @alloc_3ba7eeeabd3d9c4a56f56d0cfe62277d, [16 x i8] c"\0B\00\00\00\00\00\00\00\94\01\00\00(\00\00\00" }>, align 8
@alloc_07ef84f08b485adaef21f7c1295732ab = private unnamed_addr constant <{ ptr, [16 x i8] }> <{ ptr @alloc_3ba7eeeabd3d9c4a56f56d0cfe62277d, [16 x i8] c"\0B\00\00\00\00\00\00\00u\01\00\00;\00\00\00" }>, align 8
@alloc_5256997a45c5fae63091e3abfaf2ede4 = private unnamed_addr constant <{ ptr, [16 x i8] }> <{ ptr @alloc_3ba7eeeabd3d9c4a56f56d0cfe62277d, [16 x i8] c"\0B\00\00\00\00\00\00\00t\01\00\00\09\00\00\00" }>, align 8
@alloc_7c54cf60d6b7a073d468e3e23390aec2 = private unnamed_addr constant <{ ptr, [16 x i8] }> <{ ptr @alloc_3ba7eeeabd3d9c4a56f56d0cfe62277d, [16 x i8] c"\0B\00\00\00\00\00\00\00\80\01\00\000\00\00\00" }>, align 8
@alloc_86cd95eb5330b473bdf85a87877e42e2 = private unnamed_addr constant <{ ptr, [16 x i8] }> <{ ptr @alloc_3ba7eeeabd3d9c4a56f56d0cfe62277d, [16 x i8] c"\0B\00\00\00\00\00\00\00\82\01\00\00+\00\00\00" }>, align 8
@alloc_87551382a9de3243abbfdbda2f0b586b = private unnamed_addr constant [4 x i8] c"%d\0A\00", align 1
@alloc_aceb2eeaf01650fa3ac6043e8e246765 = private unnamed_addr constant [7 x i8] c"%d %d\0A\00", align 1
@str = private unnamed_addr constant [9 x i8] c"1.Insert\00", align 1
@str.1 = private unnamed_addr constant [9 x i8] c"2.Delete\00", align 1
@str.2 = private unnamed_addr constant [9 x i8] c"3.Search\00", align 1
@str.3 = private unnamed_addr constant [10 x i8] c"4.Display\00", align 1
@str.4 = private unnamed_addr constant [7 x i8] c"5.Quit\00", align 1
@str.5 = private unnamed_addr constant [12 x i8] c"6.Enumerate\00", align 1
@str.6 = private unnamed_addr constant [13 x i8] c"7.Total Keys\00", align 1
@str.7 = private unnamed_addr constant [19 x i8] c"8.Min and Max Keys\00", align 1
@str.8 = private unnamed_addr constant [12 x i8] c"9.Max Level\00", align 1
@str.9 = private unnamed_addr constant [35 x i8] c"The maximum level in this tree is:\00", align 1
@str.10 = private unnamed_addr constant [42 x i8] c"The total number of keys in this tree is:\00", align 1
@str.11 = private unnamed_addr constant [26 x i8] c"Btree in sorted order is:\00", align 1
@str.12 = private unnamed_addr constant [11 x i8] c"Btree is :\00", align 1
@str.13 = private unnamed_addr constant [13 x i8] c"Wrong choice\00", align 1
@str.14 = private unnamed_addr constant [22 x i8] c"Key already available\00", align 1
@str.15 = private unnamed_addr constant [13 x i8] c"Search path:\00", align 1
@str.16 = private unnamed_addr constant [14 x i8] c"tree is empty\00", align 1

; std::rt::lang_start
; Function Attrs: nonlazybind uwtable
define hidden noundef i64 @_ZN3std2rt10lang_start17h1ea26244cd783014E(ptr noundef nonnull %main, i64 noundef %argc, ptr noundef %argv, i8 noundef %sigpipe) unnamed_addr #0 {
start:
  %_7 = alloca [8 x i8], align 8
  call void @llvm.lifetime.start.p0(i64 8, ptr nonnull %_7)
  store ptr %main, ptr %_7, align 8
; call std::rt::lang_start_internal
  %_0 = call noundef i64 @_ZN3std2rt19lang_start_internal17h6070930d3648b946E(ptr noundef nonnull align 1 %_7, ptr noalias noundef nonnull readonly align 8 dereferenceable(48) @vtable.0, i64 noundef %argc, ptr noundef %argv, i8 noundef %sigpipe)
  call void @llvm.lifetime.end.p0(i64 8, ptr nonnull %_7)
  ret i64 %_0
}

; std::rt::lang_start::{{closure}}
; Function Attrs: inlinehint nonlazybind uwtable
define internal noundef i32 @"_ZN3std2rt10lang_start28_$u7b$$u7b$closure$u7d$$u7d$17h0abb766a6bdea635E"(ptr noalias nocapture noundef readonly align 8 dereferenceable(8) %_1) unnamed_addr #1 {
start:
  %_4 = load ptr, ptr %_1, align 8, !nonnull !4, !noundef !4
; call std::sys::backtrace::__rust_begin_short_backtrace
  tail call fastcc void @_ZN3std3sys9backtrace28__rust_begin_short_backtrace17h127839aa45d7f8b1E(ptr noundef nonnull %_4)
  ret i32 0
}

; std::sys::backtrace::__rust_begin_short_backtrace
; Function Attrs: noinline nonlazybind uwtable
define internal fastcc void @_ZN3std3sys9backtrace28__rust_begin_short_backtrace17h127839aa45d7f8b1E(ptr nocapture noundef nonnull readonly %f) unnamed_addr #2 {
start:
  tail call void %f()
  tail call void asm sideeffect "", "~{memory}"() #19, !srcloc !5
  ret void
}

; core::ops::function::FnOnce::call_once{{vtable.shim}}
; Function Attrs: inlinehint nonlazybind uwtable
define internal noundef i32 @"_ZN4core3ops8function6FnOnce40call_once$u7b$$u7b$vtable.shim$u7d$$u7d$17h056653820d674961E"(ptr nocapture noundef readonly %_1) unnamed_addr #1 personality ptr @rust_eh_personality {
start:
  %0 = load ptr, ptr %_1, align 8, !nonnull !4, !noundef !4
; call std::sys::backtrace::__rust_begin_short_backtrace
  tail call fastcc void @_ZN3std3sys9backtrace28__rust_begin_short_backtrace17h127839aa45d7f8b1E(ptr noundef nonnull readonly %0), !noalias !6
  ret i32 0
}

; program_001::main_0
; Function Attrs: noreturn nounwind nonlazybind uwtable
define internal fastcc void @_ZN11program_0016main_017h9670666fd4d70dd4E() unnamed_addr #3 personality ptr @rust_eh_personality {
start:
  %upKey.i = alloca [4 x i8], align 4
  %newnode.i = alloca [8 x i8], align 8
  %choice = alloca [4 x i8], align 4
  %key = alloca [4 x i8], align 4
  call void @llvm.lifetime.start.p0(i64 4, ptr nonnull %key)
  store i32 0, ptr %key, align 4
  call void @llvm.lifetime.start.p0(i64 4, ptr nonnull %choice)
  store i32 0, ptr %choice, align 4
  %_3 = tail call noundef i32 (ptr, ...) @printf(ptr noundef nonnull dereferenceable(1) @alloc_8554a36f49beb814626c9fc6757cb371, i32 noundef 3) #19
  br label %bb2

bb2:                                              ; preds = %bb2.backedge, %start
  %puts = call i32 @puts(ptr nonnull dereferenceable(1) @str)
  %puts1 = call i32 @puts(ptr nonnull dereferenceable(1) @str.1)
  %puts2 = call i32 @puts(ptr nonnull dereferenceable(1) @str.2)
  %puts3 = call i32 @puts(ptr nonnull dereferenceable(1) @str.3)
  %puts4 = call i32 @puts(ptr nonnull dereferenceable(1) @str.4)
  %puts5 = call i32 @puts(ptr nonnull dereferenceable(1) @str.5)
  %puts6 = call i32 @puts(ptr nonnull dereferenceable(1) @str.6)
  %puts7 = call i32 @puts(ptr nonnull dereferenceable(1) @str.7)
  %puts8 = call i32 @puts(ptr nonnull dereferenceable(1) @str.8)
  %_43 = call noundef i32 (ptr, ...) @printf(ptr noundef nonnull dereferenceable(1) @alloc_1fb8952eb3715508278e146c6ddf16fa) #19
  %_47 = call noundef i32 (ptr, ...) @scanf(ptr noundef nonnull @alloc_3a31753a0b113451bf74f615363720ce, ptr noundef nonnull %choice) #19
  br label %bb2.i

bb2.i:                                            ; preds = %bb2.i, %bb2
  %_8.i = call noundef i32 @getchar() #19
  %_7.not.i = icmp eq i32 %_8.i, 10
  br i1 %_7.not.i, label %eatline.exit, label %bb2.i

eatline.exit:                                     ; preds = %bb2.i
  %0 = load i32, ptr %choice, align 4, !noundef !4
  switch i32 %0, label %bb15 [
    i32 1, label %bb24
    i32 2, label %bb23
    i32 3, label %bb22
    i32 4, label %bb21
    i32 5, label %bb20
    i32 6, label %bb19
    i32 7, label %bb18
    i32 8, label %bb17
    i32 9, label %bb16
  ]

bb15:                                             ; preds = %eatline.exit
  %puts13 = call i32 @puts(ptr nonnull dereferenceable(1) @str.13)
  br label %bb2.backedge

bb24:                                             ; preds = %eatline.exit
  %_53 = call noundef i32 (ptr, ...) @printf(ptr noundef nonnull dereferenceable(1) @alloc_f2bf5dbd802ab2610cd3c36ff794aba8) #19
  %_57 = call noundef i32 (ptr, ...) @scanf(ptr noundef nonnull @alloc_3a31753a0b113451bf74f615363720ce, ptr noundef nonnull %key) #19
  br label %bb2.i14

bb2.i14:                                          ; preds = %bb2.i14, %bb24
  %_8.i15 = call noundef i32 @getchar() #19
  %_7.not.i16 = icmp eq i32 %_8.i15, 10
  br i1 %_7.not.i16, label %eatline.exit17, label %bb2.i14

eatline.exit17:                                   ; preds = %bb2.i14
  %_63 = load i32, ptr %key, align 4, !noundef !4
  call void @llvm.lifetime.start.p0(i64 8, ptr nonnull %newnode.i)
  store ptr null, ptr %newnode.i, align 8
  call void @llvm.lifetime.start.p0(i64 4, ptr nonnull %upKey.i)
  store i32 0, ptr %upKey.i, align 4
  %_6.i = load ptr, ptr @root, align 8, !noundef !4
  %_5.i = call noundef i32 @ins(ptr noundef %_6.i, i32 noundef %_63, ptr noundef nonnull %upKey.i, ptr noundef nonnull %newnode.i) #19
  switch i32 %_5.i, label %insert.exit [
    i32 0, label %bb2.i18
    i32 3, label %bb6.i
  ]

bb2.i18:                                          ; preds = %eatline.exit17
  %puts.i = call i32 @puts(ptr nonnull dereferenceable(1) @str.14)
  br label %insert.exit

bb6.i:                                            ; preds = %eatline.exit17
  %uproot.i = load ptr, ptr @root, align 8, !noundef !4
  %_17.i = call noundef dereferenceable_or_null(40) ptr @malloc(i64 noundef 40) #19
  store ptr %_17.i, ptr @root, align 8
  store i32 1, ptr %_17.i, align 8
  %_18.i = load i32, ptr %upKey.i, align 4, !noundef !4
  %1 = getelementptr inbounds nuw i8, ptr %_17.i, i64 4
  store i32 %_18.i, ptr %1, align 4
  %2 = getelementptr inbounds nuw i8, ptr %_17.i, i64 16
  store ptr %uproot.i, ptr %2, align 8
  %_19.i = load ptr, ptr %newnode.i, align 8, !noundef !4
  %3 = getelementptr inbounds nuw i8, ptr %_17.i, i64 24
  store ptr %_19.i, ptr %3, align 8
  br label %insert.exit

insert.exit:                                      ; preds = %eatline.exit17, %bb2.i18, %bb6.i
  call void @llvm.lifetime.end.p0(i64 4, ptr nonnull %upKey.i)
  call void @llvm.lifetime.end.p0(i64 8, ptr nonnull %newnode.i)
  br label %bb2.backedge

bb23:                                             ; preds = %eatline.exit
  %_64 = call noundef i32 (ptr, ...) @printf(ptr noundef nonnull dereferenceable(1) @alloc_f2bf5dbd802ab2610cd3c36ff794aba8) #19
  %_68 = call noundef i32 (ptr, ...) @scanf(ptr noundef nonnull @alloc_3a31753a0b113451bf74f615363720ce, ptr noundef nonnull %key) #19
  br label %bb2.i19

bb2.i19:                                          ; preds = %bb2.i19, %bb23
  %_8.i20 = call noundef i32 @getchar() #19
  %_7.not.i21 = icmp eq i32 %_8.i20, 10
  br i1 %_7.not.i21, label %eatline.exit22, label %bb2.i19

eatline.exit22:                                   ; preds = %bb2.i19
  %_74 = load i32, ptr %key, align 4, !noundef !4
  %_5.i23 = load ptr, ptr @root, align 8, !noundef !4
  %_4.i = call noundef i32 @del(ptr noundef %_5.i23, i32 noundef %_74) #19
  switch i32 %_4.i, label %bb2.backedge [
    i32 1, label %bb3.i
    i32 4, label %bb2.i24
  ]

bb3.i:                                            ; preds = %eatline.exit22
  %_8.i26 = call noundef i32 (ptr, ...) @printf(ptr noundef nonnull dereferenceable(1) @alloc_1ae438b507c34b8b839dbe6b2373ddec, i32 noundef %_74) #19
  br label %bb2.backedge

bb2.i24:                                          ; preds = %eatline.exit22
  %_12.i = load ptr, ptr @root, align 8, !noundef !4
  %4 = getelementptr inbounds nuw i8, ptr %_12.i, i64 16
  %_13.i = load ptr, ptr %4, align 8, !noundef !4
  store ptr %_13.i, ptr @root, align 8
  call void @free(ptr noundef %_12.i) #19
  br label %bb2.backedge

bb22:                                             ; preds = %eatline.exit
  %_75 = call noundef i32 (ptr, ...) @printf(ptr noundef nonnull dereferenceable(1) @alloc_f2bf5dbd802ab2610cd3c36ff794aba8) #19
  %_79 = call noundef i32 (ptr, ...) @scanf(ptr noundef nonnull @alloc_3a31753a0b113451bf74f615363720ce, ptr noundef nonnull %key) #19
  br label %bb2.i27

bb2.i27:                                          ; preds = %bb2.i27, %bb22
  %_8.i28 = call noundef i32 @getchar() #19
  %_7.not.i29 = icmp eq i32 %_8.i28, 10
  br i1 %_7.not.i29, label %eatline.exit30, label %bb2.i27

eatline.exit30:                                   ; preds = %bb2.i27
  %_85 = load i32, ptr %key, align 4, !noundef !4
  %5 = load ptr, ptr @root, align 8, !noundef !4
  %puts.i31 = call i32 @puts(ptr nonnull dereferenceable(1) @str.15)
  %6 = icmp eq ptr %5, null
  br i1 %6, label %bb3.i33, label %bb4.i

bb3.i33:                                          ; preds = %bb19.i, %eatline.exit30
  %_50.i = call noundef i32 (ptr, ...) @printf(ptr noundef nonnull dereferenceable(1) @alloc_1ae438b507c34b8b839dbe6b2373ddec, i32 noundef %_85) #19
  br label %bb2.backedge

bb4.i:                                            ; preds = %eatline.exit30, %bb19.i
  %ptr.sroa.0.038.i = phi ptr [ %_46.i, %bb19.i ], [ %5, %eatline.exit30 ]
  %_12.i32 = load i32, ptr %ptr.sroa.0.038.i, align 8, !noundef !4
  %_1336.i = icmp sgt i32 %_12.i32, 0
  br i1 %_1336.i, label %bb6.lr.ph.i, label %bb9.i

bb6.lr.ph.i:                                      ; preds = %bb4.i
  %7 = getelementptr inbounds nuw i8, ptr %ptr.sroa.0.038.i, i64 4
  %_20.i = load i32, ptr %7, align 4, !noundef !4
  %_16.i = call noundef i32 (ptr, ...) @printf(ptr noundef nonnull dereferenceable(1) @alloc_aec970d04776e6b8a38ae080d935e75f, i32 noundef %_20.i) #19
  %_15.i = load i32, ptr %ptr.sroa.0.038.i, align 8, !noundef !4
  %_13.i34 = icmp sgt i32 %_15.i, 1
  br i1 %_13.i34, label %bb6.1.i, label %bb2.preheader.i.i

bb9.i:                                            ; preds = %bb4.i
  %putchar.i = call i32 @putchar(i32 10)
  br label %bb19.i

bb2.preheader.i.i:                                ; preds = %bb6.1.i, %bb6.lr.ph.i
  %i.sroa.0.0.lcssa.ph.i = phi i32 [ 2, %bb6.1.i ], [ 1, %bb6.lr.ph.i ]
  %putchar47.i = call i32 @putchar(i32 10)
  %wide.trip.count.i.i = zext nneg i32 %_12.i32 to i64
  br label %bb2.i.i

bb2.i.i:                                          ; preds = %bb3.i.i, %bb2.preheader.i.i
  %indvars.iv.i.i = phi i64 [ 0, %bb2.preheader.i.i ], [ %indvars.iv.next.i.i, %bb3.i.i ]
  %_9.i.i = getelementptr inbounds nuw i32, ptr %7, i64 %indvars.iv.i.i
  %_8.i.i = load i32, ptr %_9.i.i, align 4, !noundef !4
  %_7.i.i = icmp sgt i32 %_85, %_8.i.i
  br i1 %_7.i.i, label %bb3.i.i, label %searchPos.exit.i

bb3.i.i:                                          ; preds = %bb2.i.i
  %indvars.iv.next.i.i = add nuw nsw i64 %indvars.iv.i.i, 1
  %exitcond.not.i.i = icmp eq i64 %indvars.iv.next.i.i, %wide.trip.count.i.i
  br i1 %exitcond.not.i.i, label %bb18.i, label %bb2.i.i

searchPos.exit.i:                                 ; preds = %bb2.i.i
  %8 = trunc nuw nsw i64 %indvars.iv.i.i to i32
  %_33.i = icmp sgt i32 %_12.i32, %8
  br i1 %_33.i, label %bb12.i, label %bb18.i

bb12.i:                                           ; preds = %searchPos.exit.i
  %sext.i = shl i64 %indvars.iv.i.i, 32
  %_38.i = ashr exact i64 %sext.i, 32
  %_40.i = icmp samesign ult i64 %indvars.iv.i.i, 2
  br i1 %_40.i, label %bb13.i, label %panic2.invoke.i

bb18.i:                                           ; preds = %bb3.i.i, %searchPos.exit.i
  %pos.sroa.0.0.lcssa.i16.i = phi i32 [ %8, %searchPos.exit.i ], [ %_12.i32, %bb3.i.i ]
  %_47.i = sext i32 %pos.sroa.0.0.lcssa.i16.i to i64
  %_49.i = icmp ult i32 %pos.sroa.0.0.lcssa.i16.i, 3
  br i1 %_49.i, label %bb19.i, label %panic2.invoke.i

bb13.i:                                           ; preds = %bb12.i
  %9 = getelementptr inbounds nuw i32, ptr %7, i64 %_38.i
  %_37.i = load i32, ptr %9, align 4, !noundef !4
  %_36.i = icmp eq i32 %_85, %_37.i
  br i1 %_36.i, label %bb14.i, label %bb19.i

terminate.i:                                      ; preds = %panic2.invoke.i
  %10 = landingpad { ptr, i32 }
          filter [0 x ptr] zeroinitializer
; call core::panicking::panic_cannot_unwind
  call void @_ZN4core9panicking19panic_cannot_unwind17h8a676681fe866bf0E() #20
  unreachable

bb14.i:                                           ; preds = %bb13.i
  %_41.i = call noundef i32 (ptr, ...) @printf(ptr noundef nonnull dereferenceable(1) @alloc_70669417e8f01a5f62ae7ac93ca5ae1c, i32 noundef %_85, i32 noundef %i.sroa.0.0.lcssa.ph.i) #19
  br label %bb2.backedge

bb19.i:                                           ; preds = %bb13.i, %bb18.i, %bb9.i
  %_4729.i = phi i64 [ %_47.i, %bb18.i ], [ %indvars.iv.i.i, %bb13.i ], [ 0, %bb9.i ]
  %11 = getelementptr inbounds nuw i8, ptr %ptr.sroa.0.038.i, i64 16
  %12 = getelementptr inbounds nuw ptr, ptr %11, i64 %_4729.i
  %_46.i = load ptr, ptr %12, align 8, !noundef !4
  %13 = icmp eq ptr %_46.i, null
  br i1 %13, label %bb3.i33, label %bb4.i

bb6.1.i:                                          ; preds = %bb6.lr.ph.i
  %14 = getelementptr inbounds nuw i8, ptr %ptr.sroa.0.038.i, i64 8
  %_20.1.i = load i32, ptr %14, align 4, !noundef !4
  %_16.1.i = call noundef i32 (ptr, ...) @printf(ptr noundef nonnull dereferenceable(1) @alloc_aec970d04776e6b8a38ae080d935e75f, i32 noundef %_20.1.i) #19
  %_15.1.i = load i32, ptr %ptr.sroa.0.038.i, align 8, !noundef !4
  %_13.1.i = icmp sgt i32 %_15.1.i, 2
  br i1 %_13.1.i, label %panic2.invoke.i, label %bb2.preheader.i.i

panic2.invoke.i:                                  ; preds = %bb6.1.i, %bb18.i, %bb12.i
  %15 = phi i64 [ %_47.i, %bb18.i ], [ 2, %bb6.1.i ], [ %_38.i, %bb12.i ]
  %16 = phi i64 [ 3, %bb18.i ], [ 2, %bb6.1.i ], [ 2, %bb12.i ]
  %17 = phi ptr [ @alloc_5cbc71586beba75f04fe13150b3c3446, %bb18.i ], [ @alloc_3a38dadeced5ab4dbf2a40f8bb26fd32, %bb6.1.i ], [ @alloc_ca84e65bd5a577235bd79998e10cfd58, %bb12.i ]
; invoke core::panicking::panic_bounds_check
  invoke void @_ZN4core9panicking18panic_bounds_check17h27d1e4f0cb1112dfE(i64 noundef %15, i64 noundef %16, ptr noalias noundef nonnull readonly align 8 dereferenceable(24) %17) #21
          to label %panic2.cont.i unwind label %terminate.i

panic2.cont.i:                                    ; preds = %panic2.invoke.i
  unreachable

bb21:                                             ; preds = %eatline.exit
  %puts12 = call i32 @puts(ptr nonnull dereferenceable(1) @str.12)
  %_91 = load ptr, ptr @root, align 8, !noundef !4
  call void @display(ptr noundef %_91, i32 noundef 0) #19
  br label %bb2.backedge

bb20:                                             ; preds = %eatline.exit
  call void @exit(i32 noundef 1) #20
  unreachable

bb19:                                             ; preds = %eatline.exit
  %puts11 = call i32 @puts(ptr nonnull dereferenceable(1) @str.11)
  %_99 = load ptr, ptr @root, align 8, !noundef !4
  call void @inorder(ptr noundef %_99) #19
  %_101 = call noundef i32 @putchar(i32 noundef 10) #19
  br label %bb2.backedge

bb18:                                             ; preds = %eatline.exit
  %puts10 = call i32 @puts(ptr nonnull dereferenceable(1) @str.10)
  %_107 = load ptr, ptr @root, align 8, !noundef !4
  %_6.i35 = call noundef i32 @totalKeys(ptr noundef %_107) #19
  %_2.i = call noundef i32 (ptr, ...) @printf(ptr noundef nonnull dereferenceable(1) @alloc_87551382a9de3243abbfdbda2f0b586b, i32 noundef %_6.i35) #19
  br label %bb2.backedge

bb17:                                             ; preds = %eatline.exit
  %_110 = load ptr, ptr @root, align 8, !noundef !4
  br label %tailrecurse.i.i

tailrecurse.i.i:                                  ; preds = %bb2.i.i36, %bb17
  %ptr.tr.i.i = phi ptr [ %_110, %bb17 ], [ %_3.i.i, %bb2.i.i36 ]
  %18 = icmp eq ptr %ptr.tr.i.i, null
  br i1 %18, label %getMin.exit.i, label %bb2.i.i36

bb2.i.i36:                                        ; preds = %tailrecurse.i.i
  %19 = getelementptr inbounds nuw i8, ptr %ptr.tr.i.i, i64 16
  %_3.i.i = load ptr, ptr %19, align 8, !noundef !4
  %20 = icmp eq ptr %_3.i.i, null
  br i1 %20, label %bb3.i.i37, label %tailrecurse.i.i

bb3.i.i37:                                        ; preds = %bb2.i.i36
  %21 = getelementptr inbounds nuw i8, ptr %ptr.tr.i.i, i64 4
  %_6.i.i = load i32, ptr %21, align 4, !noundef !4
  br label %getMin.exit.i

getMin.exit.i:                                    ; preds = %tailrecurse.i.i, %bb3.i.i37
  %_0.sroa.0.0.i.i = phi i32 [ %_6.i.i, %bb3.i.i37 ], [ 0, %tailrecurse.i.i ]
  %22 = icmp eq ptr %_110, null
  br i1 %22, label %getMinMax.exit, label %bb2.i1.i

bb2.i1.i:                                         ; preds = %getMin.exit.i, %bb2.i1.i.backedge
  %ptr.tr4.i.i = phi ptr [ %ptr.tr4.i.i.be, %bb2.i1.i.backedge ], [ %_110, %getMin.exit.i ]
  %_3.i2.i = load i32, ptr %ptr.tr4.i.i, align 8, !noundef !4
  switch i32 %_3.i2.i, label %getMinMax.exit [
    i32 1, label %bb3.i4.i
    i32 2, label %bb10.i.i
  ]

bb3.i4.i:                                         ; preds = %bb2.i1.i
  %23 = getelementptr inbounds nuw i8, ptr %ptr.tr4.i.i, i64 24
  %_4.i.i = load ptr, ptr %23, align 8, !noundef !4
  %24 = icmp eq ptr %_4.i.i, null
  br i1 %24, label %getMinMax.exit.sink.split, label %bb2.i1.i.backedge

bb10.i.i:                                         ; preds = %bb2.i1.i
  %25 = getelementptr inbounds nuw i8, ptr %ptr.tr4.i.i, i64 32
  %_9.i.i38 = load ptr, ptr %25, align 8, !noundef !4
  %26 = icmp eq ptr %_9.i.i38, null
  br i1 %26, label %getMinMax.exit.sink.split, label %bb2.i1.i.backedge

bb2.i1.i.backedge:                                ; preds = %bb10.i.i, %bb3.i4.i
  %ptr.tr4.i.i.be = phi ptr [ %_4.i.i, %bb3.i4.i ], [ %_9.i.i38, %bb10.i.i ]
  br label %bb2.i1.i

getMinMax.exit.sink.split:                        ; preds = %bb10.i.i, %bb3.i4.i
  %.sink5 = phi i64 [ 4, %bb3.i4.i ], [ 8, %bb10.i.i ]
  %27 = getelementptr inbounds nuw i8, ptr %ptr.tr4.i.i, i64 %.sink5
  %_7.i.i40 = load i32, ptr %27, align 4, !noundef !4
  br label %getMinMax.exit

getMinMax.exit:                                   ; preds = %bb2.i1.i, %getMinMax.exit.sink.split, %getMin.exit.i
  %_0.sroa.0.0.i3.i = phi i32 [ 0, %getMin.exit.i ], [ %_7.i.i40, %getMinMax.exit.sink.split ], [ 0, %bb2.i1.i ]
  %_2.i39 = call noundef i32 (ptr, ...) @printf(ptr noundef nonnull dereferenceable(1) @alloc_aceb2eeaf01650fa3ac6043e8e246765, i32 noundef %_0.sroa.0.0.i.i, i32 noundef %_0.sroa.0.0.i3.i) #19
  br label %bb2.backedge

bb16:                                             ; preds = %eatline.exit
  %puts9 = call i32 @puts(ptr nonnull dereferenceable(1) @str.9)
  %_117 = load ptr, ptr @root, align 8, !noundef !4
  %_3.i = call noundef i32 @maxLevel(ptr noundef %_117) #19
  %28 = icmp eq i32 %_3.i, 0
  br i1 %28, label %bb2.i44, label %bb4.i41

bb2.i44:                                          ; preds = %bb16
  %puts.i45 = call i32 @puts(ptr nonnull dereferenceable(1) @str.16)
  br label %bb2.backedge

bb4.i41:                                          ; preds = %bb16
  %max_0.i = add i32 %_3.i, -1
  %_8.i42 = call noundef i32 (ptr, ...) @printf(ptr noundef nonnull dereferenceable(1) @alloc_87551382a9de3243abbfdbda2f0b586b, i32 noundef %max_0.i) #19
  br label %bb2.backedge

bb2.backedge:                                     ; preds = %bb4.i41, %bb2.i44, %bb14.i, %bb3.i33, %bb2.i24, %bb3.i, %eatline.exit22, %insert.exit, %bb21, %bb19, %bb18, %getMinMax.exit, %bb15
  br label %bb2
}

; Function Attrs: nounwind nonlazybind uwtable
define dso_local void @insert(i32 noundef %key) unnamed_addr #4 {
start:
  %upKey = alloca [4 x i8], align 4
  %newnode = alloca [8 x i8], align 8
  call void @llvm.lifetime.start.p0(i64 8, ptr nonnull %newnode)
  store ptr null, ptr %newnode, align 8
  call void @llvm.lifetime.start.p0(i64 4, ptr nonnull %upKey)
  store i32 0, ptr %upKey, align 4
  %_6 = load ptr, ptr @root, align 8, !noundef !4
  %_5 = call noundef i32 @ins(ptr noundef %_6, i32 noundef %key, ptr noundef nonnull %upKey, ptr noundef nonnull %newnode) #19
  switch i32 %_5, label %bb9 [
    i32 0, label %bb2
    i32 3, label %bb6
  ]

bb2:                                              ; preds = %start
  %puts = tail call i32 @puts(ptr nonnull dereferenceable(1) @str.14)
  br label %bb9

bb6:                                              ; preds = %start
  %uproot = load ptr, ptr @root, align 8, !noundef !4
  %_17 = tail call noundef dereferenceable_or_null(40) ptr @malloc(i64 noundef 40) #19
  store ptr %_17, ptr @root, align 8
  store i32 1, ptr %_17, align 8
  %_18 = load i32, ptr %upKey, align 4, !noundef !4
  %0 = getelementptr inbounds nuw i8, ptr %_17, i64 4
  store i32 %_18, ptr %0, align 4
  %1 = getelementptr inbounds nuw i8, ptr %_17, i64 16
  store ptr %uproot, ptr %1, align 8
  %_19 = load ptr, ptr %newnode, align 8, !noundef !4
  %2 = getelementptr inbounds nuw i8, ptr %_17, i64 24
  store ptr %_19, ptr %2, align 8
  br label %bb9

bb9:                                              ; preds = %bb2, %start, %bb6
  call void @llvm.lifetime.end.p0(i64 4, ptr nonnull %upKey)
  call void @llvm.lifetime.end.p0(i64 8, ptr nonnull %newnode)
  ret void
}

; Function Attrs: nounwind nonlazybind uwtable
define dso_local noundef range(i32 0, 4) i32 @ins(ptr noundef %ptr, i32 noundef %key, ptr nocapture noundef writeonly %upKey, ptr nocapture noundef %newnode) unnamed_addr #4 personality ptr @rust_eh_personality {
start:
  %newKey = alloca [4 x i8], align 4
  %newPtr = alloca [8 x i8], align 8
  call void @llvm.lifetime.start.p0(i64 8, ptr nonnull %newPtr)
  store ptr null, ptr %newPtr, align 8
  call void @llvm.lifetime.start.p0(i64 4, ptr nonnull %newKey)
  store i32 0, ptr %newKey, align 4
  %0 = icmp eq ptr %ptr, null
  br i1 %0, label %bb1, label %bb2

bb1:                                              ; preds = %start
  store ptr null, ptr %newnode, align 8
  store i32 %key, ptr %upKey, align 4
  br label %bb52

bb2:                                              ; preds = %start
  %_14 = load i32, ptr %ptr, align 8, !noundef !4
  %_18 = getelementptr inbounds nuw i8, ptr %ptr, i64 4
  %_54.i = icmp sgt i32 %_14, 0
  br i1 %_54.i, label %bb2.preheader.i, label %bb9.thread

bb2.preheader.i:                                  ; preds = %bb2
  %wide.trip.count.i = zext nneg i32 %_14 to i64
  br label %bb2.i

bb2.i:                                            ; preds = %bb3.i, %bb2.preheader.i
  %indvars.iv.i = phi i64 [ 0, %bb2.preheader.i ], [ %indvars.iv.next.i, %bb3.i ]
  %_9.i = getelementptr inbounds nuw i32, ptr %_18, i64 %indvars.iv.i
  %_8.i = load i32, ptr %_9.i, align 4, !noundef !4
  %_7.i = icmp sgt i32 %key, %_8.i
  br i1 %_7.i, label %bb3.i, label %searchPos.exit

bb3.i:                                            ; preds = %bb2.i
  %indvars.iv.next.i = add nuw nsw i64 %indvars.iv.i, 1
  %exitcond.not.i = icmp eq i64 %indvars.iv.next.i, %wide.trip.count.i
  br i1 %exitcond.not.i, label %bb9, label %bb2.i

searchPos.exit:                                   ; preds = %bb2.i
  %1 = trunc nuw nsw i64 %indvars.iv.i to i32
  %_20 = icmp sgt i32 %_14, %1
  br i1 %_20, label %bb4, label %bb9

bb52:                                             ; preds = %bb10, %bb5, %bb24, %bb51, %bb1
  %_0.sroa.0.0 = phi i32 [ 3, %bb1 ], [ 2, %bb24 ], [ 3, %bb51 ], [ 0, %bb5 ], [ %_28, %bb10 ]
  call void @llvm.lifetime.end.p0(i64 4, ptr nonnull %newKey)
  call void @llvm.lifetime.end.p0(i64 8, ptr nonnull %newPtr)
  ret i32 %_0.sroa.0.0

bb4:                                              ; preds = %searchPos.exit
  %sext = shl i64 %indvars.iv.i, 32
  %_25 = ashr exact i64 %sext, 32
  %_27 = icmp samesign ult i64 %indvars.iv.i, 2
  br i1 %_27, label %bb5, label %panic11.invoke

bb9.thread:                                       ; preds = %bb5, %bb2
  %pos.sroa.0.0.lcssa.i74.ph = phi i32 [ %1, %bb5 ], [ 0, %bb2 ]
  %_3085 = zext nneg i32 %pos.sroa.0.0.lcssa.i74.ph to i64
  br label %bb10

bb9:                                              ; preds = %bb3.i, %searchPos.exit
  %pos.sroa.0.0.lcssa.i74 = phi i32 [ %1, %searchPos.exit ], [ %_14, %bb3.i ]
  %_30 = sext i32 %pos.sroa.0.0.lcssa.i74 to i64
  %_32 = icmp ult i32 %pos.sroa.0.0.lcssa.i74, 3
  br i1 %_32, label %bb10, label %panic11.invoke

bb5:                                              ; preds = %bb4
  %2 = getelementptr inbounds nuw i32, ptr %_18, i64 %_25
  %_24 = load i32, ptr %2, align 4, !noundef !4
  %_23 = icmp eq i32 %key, %_24
  br i1 %_23, label %bb52, label %bb9.thread

terminate:                                        ; preds = %panic11.invoke
  %3 = landingpad { ptr, i32 }
          filter [0 x ptr] zeroinitializer
; call core::panicking::panic_cannot_unwind
  tail call void @_ZN4core9panicking19panic_cannot_unwind17h8a676681fe866bf0E() #20
  unreachable

bb10:                                             ; preds = %bb9.thread, %bb9
  %_3088 = phi i64 [ %_3085, %bb9.thread ], [ %_30, %bb9 ]
  %pos.sroa.0.0.lcssa.i7487 = phi i32 [ %pos.sroa.0.0.lcssa.i74.ph, %bb9.thread ], [ %pos.sroa.0.0.lcssa.i74, %bb9 ]
  %pos.sroa.0.0.lcssa.i7487.fr = freeze i32 %pos.sroa.0.0.lcssa.i7487
  %4 = getelementptr inbounds nuw i8, ptr %ptr, i64 16
  %5 = getelementptr inbounds nuw ptr, ptr %4, i64 %_3088
  %_29 = load ptr, ptr %5, align 8, !noundef !4
  %_28 = call noundef i32 @ins(ptr noundef %_29, i32 noundef %key, ptr noundef nonnull %newKey, ptr noundef nonnull %newPtr) #19
  %6 = icmp eq i32 %_28, 3
  br i1 %6, label %bb13, label %bb52

bb13:                                             ; preds = %bb10
  %_36 = icmp slt i32 %_14, 2
  br i1 %_36, label %bb14, label %bb15

bb15:                                             ; preds = %bb13
  %7 = icmp eq i32 %pos.sroa.0.0.lcssa.i7487.fr, 2
  br i1 %7, label %bb26, label %bb27

bb14:                                             ; preds = %bb13
  %_39 = load i32, ptr %newKey, align 4, !noundef !4
  br i1 %_54.i, label %bb2.preheader.i60, label %bb24

bb2.preheader.i60:                                ; preds = %bb14
  %_8.i65 = load i32, ptr %_18, align 4, !noundef !4
  %_7.i66 = icmp sgt i32 %_39, %_8.i65
  br i1 %_7.i66, label %bb24, label %bb20

bb26:                                             ; preds = %bb15
  %_74 = load i32, ptr %newKey, align 4, !noundef !4
  %_75 = load ptr, ptr %newPtr, align 8, !noundef !4
  br label %bb38

bb27:                                             ; preds = %bb15
  %8 = getelementptr inbounds nuw i8, ptr %ptr, i64 8
  %_76 = load i32, ptr %8, align 4, !noundef !4
  %9 = getelementptr inbounds nuw i8, ptr %ptr, i64 32
  %_77 = load ptr, ptr %9, align 8, !noundef !4
  %_7897 = icmp slt i32 %pos.sroa.0.0.lcssa.i7487.fr, 1
  br i1 %_7897, label %bb29.lr.ph, label %bb35

bb29.lr.ph:                                       ; preds = %bb27
  %_78.not = icmp eq i32 %pos.sroa.0.0.lcssa.i7487.fr, 0
  %_81 = load i32, ptr %_18, align 4, !noundef !4
  store i32 %_81, ptr %8, align 4
  %10 = getelementptr inbounds nuw i8, ptr %ptr, i64 24
  %_89 = load ptr, ptr %10, align 8, !noundef !4
  store ptr %_89, ptr %9, align 8
  br i1 %_78.not, label %bb35, label %panic11.invoke

bb35:                                             ; preds = %bb29.lr.ph, %bb27
  %_97 = load i32, ptr %newKey, align 4, !noundef !4
  %11 = getelementptr inbounds nuw i32, ptr %_18, i64 %_3088
  store i32 %_97, ptr %11, align 4
  %_101 = load ptr, ptr %newPtr, align 8, !noundef !4
  %12 = zext nneg i32 %pos.sroa.0.0.lcssa.i7487.fr to i64
  %13 = getelementptr inbounds nuw ptr, ptr %4, i64 %12
  %14 = getelementptr inbounds nuw i8, ptr %13, i64 8
  store ptr %_101, ptr %14, align 8
  br label %bb38

bb38:                                             ; preds = %bb26, %bb35
  %lastKey.sroa.0.0 = phi i32 [ %_74, %bb26 ], [ %_76, %bb35 ]
  %lastPtr.sroa.0.0 = phi ptr [ %_75, %bb26 ], [ %_77, %bb35 ]
  %15 = getelementptr inbounds nuw i8, ptr %ptr, i64 8
  %_106 = load i32, ptr %15, align 4, !noundef !4
  store i32 %_106, ptr %upKey, align 4
  %_110 = tail call noundef dereferenceable_or_null(40) ptr @malloc(i64 noundef 40) #19
  store ptr %_110, ptr %newnode, align 8
  store i32 1, ptr %ptr, align 8
  %_148 = load ptr, ptr %newnode, align 8, !noundef !4
  store i32 1, ptr %_148, align 8
  %_149101 = load ptr, ptr %newnode, align 8, !noundef !4
  %_115102 = load i32, ptr %_149101, align 8, !noundef !4
  %_113103 = icmp sgt i32 %_115102, 0
  br i1 %_113103, label %bb41.preheader, label %bb50

bb41.preheader:                                   ; preds = %bb38
  %16 = getelementptr inbounds nuw i8, ptr %ptr, i64 32
  %_116 = load ptr, ptr %16, align 8, !noundef !4
  %17 = getelementptr inbounds nuw i8, ptr %_149101, i64 16
  store ptr %_116, ptr %17, align 8
  %_151 = load ptr, ptr %newnode, align 8, !noundef !4
  %_129 = load i32, ptr %_151, align 8, !noundef !4
  %_128 = add i32 %_129, -1
  %_126 = icmp sgt i32 %_128, 0
  br i1 %_126, label %panic11.invoke, label %bb49

bb50:                                             ; preds = %bb49, %bb38
  %_149.lcssa = phi ptr [ %_149101, %bb38 ], [ %_149, %bb49 ]
  %_115.lcssa = phi i32 [ %_115102, %bb38 ], [ %_115, %bb49 ]
  %_145.pre-phi = sext i32 %_115.lcssa to i64
  %_147 = icmp ult i32 %_115.lcssa, 3
  br i1 %_147, label %bb51, label %panic11.invoke

bb51:                                             ; preds = %bb50
  %18 = getelementptr inbounds nuw i8, ptr %_149.lcssa, i64 16
  %19 = getelementptr inbounds nuw ptr, ptr %18, i64 %_145.pre-phi
  store ptr %lastPtr.sroa.0.0, ptr %19, align 8
  br label %bb52

bb49:                                             ; preds = %bb41.preheader
  %20 = getelementptr inbounds nuw i8, ptr %_151, i64 4
  store i32 %lastKey.sroa.0.0, ptr %20, align 4
  %_149 = load ptr, ptr %newnode, align 8, !noundef !4
  %_115 = load i32, ptr %_149, align 8, !noundef !4
  %_113 = icmp sgt i32 %_115, 1
  br i1 %_113, label %panic11.invoke, label %bb50

panic11.invoke:                                   ; preds = %bb4, %bb29.lr.ph, %bb41.preheader, %bb49, %bb50, %bb9
  %21 = phi i64 [ %_30, %bb9 ], [ %_145.pre-phi, %bb50 ], [ 3, %bb49 ], [ 2, %bb41.preheader ], [ -1, %bb29.lr.ph ], [ %_25, %bb4 ]
  %22 = phi i64 [ 3, %bb9 ], [ 3, %bb50 ], [ 3, %bb49 ], [ 2, %bb41.preheader ], [ 2, %bb29.lr.ph ], [ 2, %bb4 ]
  %23 = phi ptr [ @alloc_075842ab4120c74d54443cd5016f836e, %bb9 ], [ @alloc_08cd2f7426fba34ee2a6047d22e9cab9, %bb50 ], [ @alloc_9684fda98c39233cc2802062a9a6d392, %bb49 ], [ @alloc_ff2c088c72b3213e3948cd7bd5711294, %bb41.preheader ], [ @alloc_3ff38f7a9a2ea5b49ae3296853949afb, %bb29.lr.ph ], [ @alloc_147e5226db27ecd9663fd9e0b17c9111, %bb4 ]
; invoke core::panicking::panic_bounds_check
  invoke void @_ZN4core9panicking18panic_bounds_check17h27d1e4f0cb1112dfE(i64 noundef %21, i64 noundef %22, ptr noalias noundef nonnull readonly align 8 dereferenceable(24) %23) #21
          to label %panic11.cont unwind label %terminate

panic11.cont:                                     ; preds = %panic11.invoke
  unreachable

bb24:                                             ; preds = %bb2.preheader.i60, %bb14, %bb20
  %pos.sroa.0.0.lcssa.i59133 = phi i64 [ 0, %bb20 ], [ 0, %bb14 ], [ 1, %bb2.preheader.i60 ]
  %24 = getelementptr inbounds nuw i32, ptr %_18, i64 %pos.sroa.0.0.lcssa.i59133
  store i32 %_39, ptr %24, align 4
  %_68 = load ptr, ptr %newPtr, align 8, !noundef !4
  %25 = getelementptr inbounds nuw ptr, ptr %4, i64 %pos.sroa.0.0.lcssa.i59133
  %26 = getelementptr inbounds nuw i8, ptr %25, i64 8
  store ptr %_68, ptr %26, align 8
  %27 = load i32, ptr %ptr, align 8, !noundef !4
  %28 = add i32 %27, 1
  store i32 %28, ptr %ptr, align 8
  br label %bb52

bb20:                                             ; preds = %bb2.preheader.i60
  %_53 = zext nneg i32 %_14 to i64
  %29 = zext nneg i32 %_14 to i64
  %30 = getelementptr i32, ptr %_18, i64 %29
  %31 = getelementptr i8, ptr %30, i64 -4
  %_48 = load i32, ptr %31, align 4, !noundef !4
  %32 = getelementptr inbounds nuw i32, ptr %_18, i64 %_53
  store i32 %_48, ptr %32, align 4
  %33 = getelementptr inbounds nuw ptr, ptr %4, i64 %_53
  %_56 = load ptr, ptr %33, align 8, !noundef !4
  %34 = getelementptr inbounds nuw i8, ptr %33, i64 8
  store ptr %_56, ptr %34, align 8
  br label %bb24
}

; Function Attrs: nounwind nonlazybind uwtable
define dso_local void @display(ptr noundef readonly %ptr, i32 noundef %blanks) unnamed_addr #4 personality ptr @rust_eh_personality {
start:
  %0 = icmp eq ptr %ptr, null
  br i1 %0, label %bb18, label %bb3.preheader

bb3.preheader:                                    ; preds = %start
  %_4.not10 = icmp slt i32 %blanks, 1
  br i1 %_4.not10, label %bb7.preheader, label %bb4

bb18:                                             ; preds = %bb14.lr.ph, %bb14.1, %bb14.2, %bb11, %start
  ret void

bb7.preheader:                                    ; preds = %bb4, %bb3.preheader
  %_1212 = load i32, ptr %ptr, align 8, !noundef !4
  %_1013 = icmp sgt i32 %_1212, 0
  br i1 %_1013, label %bb8.lr.ph, label %bb11

bb8.lr.ph:                                        ; preds = %bb7.preheader
  %1 = getelementptr inbounds nuw i8, ptr %ptr, i64 4
  %_17 = load i32, ptr %1, align 4, !noundef !4
  %_13 = tail call noundef i32 (ptr, ...) @printf(ptr noundef nonnull dereferenceable(1) @alloc_b929c71616281bfd1be2bd4038d3ddf1, i32 noundef %_17) #19
  %_12 = load i32, ptr %ptr, align 8, !noundef !4
  %_10 = icmp sgt i32 %_12, 1
  br i1 %_10, label %bb8.1, label %bb11

bb4:                                              ; preds = %bb3.preheader, %bb4
  %i.sroa.0.011 = phi i32 [ %2, %bb4 ], [ 1, %bb3.preheader ]
  %putchar9 = tail call i32 @putchar(i32 32)
  %2 = add i32 %i.sroa.0.011, 1
  %_4.not = icmp sgt i32 %2, %blanks
  br i1 %_4.not, label %bb7.preheader, label %bb4

bb11:                                             ; preds = %bb8.lr.ph, %bb8.1, %bb7.preheader
  %putchar = tail call i32 @putchar(i32 10)
  %_2715 = load i32, ptr %ptr, align 8, !noundef !4
  %_25.not16 = icmp slt i32 %_2715, 0
  br i1 %_25.not16, label %bb18, label %bb14.lr.ph

bb14.lr.ph:                                       ; preds = %bb11
  %3 = getelementptr inbounds nuw i8, ptr %ptr, i64 16
  %_33 = add i32 %blanks, 10
  %_29 = load ptr, ptr %3, align 8, !noundef !4
  tail call void @display(ptr noundef %_29, i32 noundef %_33) #19
  %_27 = load i32, ptr %ptr, align 8, !noundef !4
  %_25.not.not = icmp sgt i32 %_27, 0
  br i1 %_25.not.not, label %bb14.1, label %bb18

bb14.1:                                           ; preds = %bb14.lr.ph
  %4 = getelementptr inbounds nuw i8, ptr %ptr, i64 24
  %_29.1 = load ptr, ptr %4, align 8, !noundef !4
  tail call void @display(ptr noundef %_29.1, i32 noundef %_33) #19
  %_27.1 = load i32, ptr %ptr, align 8, !noundef !4
  %_25.not.not.1 = icmp sgt i32 %_27.1, 1
  br i1 %_25.not.not.1, label %bb14.2, label %bb18

bb14.2:                                           ; preds = %bb14.1
  %5 = getelementptr inbounds nuw i8, ptr %ptr, i64 32
  %_29.2 = load ptr, ptr %5, align 8, !noundef !4
  tail call void @display(ptr noundef %_29.2, i32 noundef %_33) #19
  %_27.2 = load i32, ptr %ptr, align 8, !noundef !4
  %_25.not.not.2 = icmp sgt i32 %_27.2, 2
  br i1 %_25.not.not.2, label %panic1.invoke, label %bb18

terminate:                                        ; preds = %panic1.invoke
  %6 = landingpad { ptr, i32 }
          filter [0 x ptr] zeroinitializer
; call core::panicking::panic_cannot_unwind
  tail call void @_ZN4core9panicking19panic_cannot_unwind17h8a676681fe866bf0E() #20
  unreachable

bb8.1:                                            ; preds = %bb8.lr.ph
  %7 = getelementptr inbounds nuw i8, ptr %ptr, i64 8
  %_17.1 = load i32, ptr %7, align 4, !noundef !4
  %_13.1 = tail call noundef i32 (ptr, ...) @printf(ptr noundef nonnull dereferenceable(1) @alloc_b929c71616281bfd1be2bd4038d3ddf1, i32 noundef %_17.1) #19
  %_12.1 = load i32, ptr %ptr, align 8, !noundef !4
  %_10.1 = icmp sgt i32 %_12.1, 2
  br i1 %_10.1, label %panic1.invoke, label %bb11

panic1.invoke:                                    ; preds = %bb14.2, %bb8.1
  %8 = phi i64 [ 2, %bb8.1 ], [ 3, %bb14.2 ]
  %9 = phi ptr [ @alloc_6590ae3175fd2d44fa1799500dc41b41, %bb8.1 ], [ @alloc_8afc447b99f762634367a6310bf17041, %bb14.2 ]
; invoke core::panicking::panic_bounds_check
  invoke void @_ZN4core9panicking18panic_bounds_check17h27d1e4f0cb1112dfE(i64 noundef %8, i64 noundef %8, ptr noalias noundef nonnull readonly align 8 dereferenceable(24) %9) #21
          to label %panic1.cont unwind label %terminate

panic1.cont:                                      ; preds = %panic1.invoke
  unreachable
}

; Function Attrs: nounwind nonlazybind uwtable
define dso_local void @search(i32 noundef %key) unnamed_addr #4 personality ptr @rust_eh_personality {
start:
  %0 = load ptr, ptr @root, align 8, !noundef !4
  %puts = tail call i32 @puts(ptr nonnull dereferenceable(1) @str.15)
  %1 = icmp eq ptr %0, null
  br i1 %1, label %bb3, label %bb4

bb3:                                              ; preds = %bb19, %start
  %_50 = tail call noundef i32 (ptr, ...) @printf(ptr noundef nonnull dereferenceable(1) @alloc_1ae438b507c34b8b839dbe6b2373ddec, i32 noundef %key) #19
  br label %bb21

bb4:                                              ; preds = %start, %bb19
  %ptr.sroa.0.038 = phi ptr [ %_46, %bb19 ], [ %0, %start ]
  %_12 = load i32, ptr %ptr.sroa.0.038, align 8, !noundef !4
  %_1336 = icmp sgt i32 %_12, 0
  br i1 %_1336, label %bb6.lr.ph, label %bb9

bb6.lr.ph:                                        ; preds = %bb4
  %2 = getelementptr inbounds nuw i8, ptr %ptr.sroa.0.038, i64 4
  %_20 = load i32, ptr %2, align 4, !noundef !4
  %_16 = tail call noundef i32 (ptr, ...) @printf(ptr noundef nonnull dereferenceable(1) @alloc_aec970d04776e6b8a38ae080d935e75f, i32 noundef %_20) #19
  %_15 = load i32, ptr %ptr.sroa.0.038, align 8, !noundef !4
  %_13 = icmp sgt i32 %_15, 1
  br i1 %_13, label %bb6.1, label %bb2.preheader.i

bb21:                                             ; preds = %bb14, %bb3
  ret void

bb9:                                              ; preds = %bb4
  %putchar = tail call i32 @putchar(i32 10)
  br label %bb19

bb2.preheader.i:                                  ; preds = %bb6.lr.ph, %bb6.1
  %i.sroa.0.0.lcssa.ph = phi i32 [ 2, %bb6.1 ], [ 1, %bb6.lr.ph ]
  %putchar47 = tail call i32 @putchar(i32 10)
  %_3148 = getelementptr inbounds nuw i8, ptr %ptr.sroa.0.038, i64 4
  %wide.trip.count.i = zext nneg i32 %_12 to i64
  br label %bb2.i

bb2.i:                                            ; preds = %bb3.i, %bb2.preheader.i
  %indvars.iv.i = phi i64 [ 0, %bb2.preheader.i ], [ %indvars.iv.next.i, %bb3.i ]
  %_9.i = getelementptr inbounds nuw i32, ptr %_3148, i64 %indvars.iv.i
  %_8.i = load i32, ptr %_9.i, align 4, !noundef !4
  %_7.i = icmp sgt i32 %key, %_8.i
  br i1 %_7.i, label %bb3.i, label %searchPos.exit

bb3.i:                                            ; preds = %bb2.i
  %indvars.iv.next.i = add nuw nsw i64 %indvars.iv.i, 1
  %exitcond.not.i = icmp eq i64 %indvars.iv.next.i, %wide.trip.count.i
  br i1 %exitcond.not.i, label %bb18, label %bb2.i

searchPos.exit:                                   ; preds = %bb2.i
  %3 = trunc nuw nsw i64 %indvars.iv.i to i32
  %_33 = icmp sgt i32 %_12, %3
  br i1 %_33, label %bb12, label %bb18

bb12:                                             ; preds = %searchPos.exit
  %sext = shl i64 %indvars.iv.i, 32
  %_38 = ashr exact i64 %sext, 32
  %_40 = icmp samesign ult i64 %indvars.iv.i, 2
  br i1 %_40, label %bb13, label %panic2.invoke

bb18:                                             ; preds = %bb3.i, %searchPos.exit
  %pos.sroa.0.0.lcssa.i16 = phi i32 [ %3, %searchPos.exit ], [ %_12, %bb3.i ]
  %_47 = sext i32 %pos.sroa.0.0.lcssa.i16 to i64
  %_49 = icmp ult i32 %pos.sroa.0.0.lcssa.i16, 3
  br i1 %_49, label %bb19, label %panic2.invoke

bb13:                                             ; preds = %bb12
  %4 = getelementptr inbounds nuw i32, ptr %_3148, i64 %_38
  %_37 = load i32, ptr %4, align 4, !noundef !4
  %_36 = icmp eq i32 %key, %_37
  br i1 %_36, label %bb14, label %bb19

terminate:                                        ; preds = %panic2.invoke
  %5 = landingpad { ptr, i32 }
          filter [0 x ptr] zeroinitializer
; call core::panicking::panic_cannot_unwind
  tail call void @_ZN4core9panicking19panic_cannot_unwind17h8a676681fe866bf0E() #20
  unreachable

bb14:                                             ; preds = %bb13
  %_41 = tail call noundef i32 (ptr, ...) @printf(ptr noundef nonnull dereferenceable(1) @alloc_70669417e8f01a5f62ae7ac93ca5ae1c, i32 noundef %key, i32 noundef %i.sroa.0.0.lcssa.ph) #19
  br label %bb21

bb19:                                             ; preds = %bb9, %bb13, %bb18
  %_4729 = phi i64 [ %_47, %bb18 ], [ %indvars.iv.i, %bb13 ], [ 0, %bb9 ]
  %6 = getelementptr inbounds nuw i8, ptr %ptr.sroa.0.038, i64 16
  %7 = getelementptr inbounds nuw ptr, ptr %6, i64 %_4729
  %_46 = load ptr, ptr %7, align 8, !noundef !4
  %8 = icmp eq ptr %_46, null
  br i1 %8, label %bb3, label %bb4

bb6.1:                                            ; preds = %bb6.lr.ph
  %9 = getelementptr inbounds nuw i8, ptr %ptr.sroa.0.038, i64 8
  %_20.1 = load i32, ptr %9, align 4, !noundef !4
  %_16.1 = tail call noundef i32 (ptr, ...) @printf(ptr noundef nonnull dereferenceable(1) @alloc_aec970d04776e6b8a38ae080d935e75f, i32 noundef %_20.1) #19
  %_15.1 = load i32, ptr %ptr.sroa.0.038, align 8, !noundef !4
  %_13.1 = icmp sgt i32 %_15.1, 2
  br i1 %_13.1, label %panic2.invoke, label %bb2.preheader.i

panic2.invoke:                                    ; preds = %bb12, %bb6.1, %bb18
  %10 = phi i64 [ %_47, %bb18 ], [ 2, %bb6.1 ], [ %_38, %bb12 ]
  %11 = phi i64 [ 3, %bb18 ], [ 2, %bb6.1 ], [ 2, %bb12 ]
  %12 = phi ptr [ @alloc_5cbc71586beba75f04fe13150b3c3446, %bb18 ], [ @alloc_3a38dadeced5ab4dbf2a40f8bb26fd32, %bb6.1 ], [ @alloc_ca84e65bd5a577235bd79998e10cfd58, %bb12 ]
; invoke core::panicking::panic_bounds_check
  invoke void @_ZN4core9panicking18panic_bounds_check17h27d1e4f0cb1112dfE(i64 noundef %10, i64 noundef %11, ptr noalias noundef nonnull readonly align 8 dereferenceable(24) %12) #21
          to label %panic2.cont unwind label %terminate

panic2.cont:                                      ; preds = %panic2.invoke
  unreachable
}

; Function Attrs: nofree norecurse nosync nounwind nonlazybind memory(argmem: read) uwtable
define dso_local noundef i32 @searchPos(i32 noundef %key, ptr nocapture noundef readonly %key_arr, i32 noundef %n) unnamed_addr #5 {
start:
  %_54 = icmp sgt i32 %n, 0
  br i1 %_54, label %bb2.preheader, label %bb6

bb2.preheader:                                    ; preds = %start
  %wide.trip.count = zext nneg i32 %n to i64
  br label %bb2

bb2:                                              ; preds = %bb2.preheader, %bb3
  %indvars.iv = phi i64 [ 0, %bb2.preheader ], [ %indvars.iv.next, %bb3 ]
  %_9 = getelementptr inbounds nuw i32, ptr %key_arr, i64 %indvars.iv
  %_8 = load i32, ptr %_9, align 4, !noundef !4
  %_7 = icmp sgt i32 %key, %_8
  br i1 %_7, label %bb3, label %bb6.loopexit.split.loop.exit

bb6.loopexit.split.loop.exit:                     ; preds = %bb2
  %0 = trunc nuw nsw i64 %indvars.iv to i32
  br label %bb6

bb6:                                              ; preds = %bb3, %bb6.loopexit.split.loop.exit, %start
  %pos.sroa.0.0.lcssa = phi i32 [ 0, %start ], [ %0, %bb6.loopexit.split.loop.exit ], [ %n, %bb3 ]
  ret i32 %pos.sroa.0.0.lcssa

bb3:                                              ; preds = %bb2
  %indvars.iv.next = add nuw nsw i64 %indvars.iv, 1
  %exitcond.not = icmp eq i64 %indvars.iv.next, %wide.trip.count
  br i1 %exitcond.not, label %bb6, label %bb2
}

; Function Attrs: nounwind nonlazybind uwtable
define dso_local void @DelNode(i32 noundef %key) unnamed_addr #4 {
start:
  %_5 = load ptr, ptr @root, align 8, !noundef !4
  %_4 = tail call noundef i32 @del(ptr noundef %_5, i32 noundef %key) #19
  switch i32 %_4, label %bb6 [
    i32 1, label %bb3
    i32 4, label %bb2
  ]

bb6:                                              ; preds = %bb2, %bb3, %start
  ret void

bb3:                                              ; preds = %start
  %_8 = tail call noundef i32 (ptr, ...) @printf(ptr noundef nonnull dereferenceable(1) @alloc_1ae438b507c34b8b839dbe6b2373ddec, i32 noundef %key) #19
  br label %bb6

bb2:                                              ; preds = %start
  %_12 = load ptr, ptr @root, align 8, !noundef !4
  %0 = getelementptr inbounds nuw i8, ptr %_12, i64 16
  %_13 = load ptr, ptr %0, align 8, !noundef !4
  store ptr %_13, ptr @root, align 8
  tail call void @free(ptr noundef %_12) #19
  br label %bb6
}

; Function Attrs: nounwind nonlazybind uwtable
define dso_local noundef range(i32 1, 5) i32 @del(ptr noundef %ptr, i32 noundef %key) unnamed_addr #4 personality ptr @rust_eh_personality {
start:
  %0 = icmp eq ptr %ptr, null
  br i1 %0, label %bb89, label %bb2

bb2:                                              ; preds = %start
  %_13 = load i32, ptr %ptr, align 8, !noundef !4
  %_16 = getelementptr inbounds nuw i8, ptr %ptr, i64 4
  %_19 = getelementptr inbounds nuw i8, ptr %ptr, i64 16
  %_54.i = icmp sgt i32 %_13, 0
  br i1 %_54.i, label %bb2.preheader.i, label %searchPos.exit

bb2.preheader.i:                                  ; preds = %bb2
  %wide.trip.count.i = zext nneg i32 %_13 to i64
  br label %bb2.i

bb2.i:                                            ; preds = %bb3.i, %bb2.preheader.i
  %indvars.iv.i = phi i64 [ 0, %bb2.preheader.i ], [ %indvars.iv.next.i, %bb3.i ]
  %_9.i = getelementptr inbounds nuw i32, ptr %_16, i64 %indvars.iv.i
  %_8.i = load i32, ptr %_9.i, align 4, !noundef !4
  %_7.i = icmp sgt i32 %key, %_8.i
  br i1 %_7.i, label %bb3.i, label %bb6.loopexit.split.loop.exit.i

bb6.loopexit.split.loop.exit.i:                   ; preds = %bb2.i
  %1 = trunc nuw nsw i64 %indvars.iv.i to i32
  br label %searchPos.exit

bb3.i:                                            ; preds = %bb2.i
  %indvars.iv.next.i = add nuw nsw i64 %indvars.iv.i, 1
  %exitcond.not.i = icmp eq i64 %indvars.iv.next.i, %wide.trip.count.i
  br i1 %exitcond.not.i, label %searchPos.exit, label %bb2.i

searchPos.exit:                                   ; preds = %bb3.i, %bb2, %bb6.loopexit.split.loop.exit.i
  %pos.sroa.0.0.lcssa.i = phi i32 [ 0, %bb2 ], [ %1, %bb6.loopexit.split.loop.exit.i ], [ %_13, %bb3.i ]
  %_23 = load ptr, ptr %_19, align 8, !noundef !4
  %2 = icmp eq ptr %_23, null
  br i1 %2, label %bb4, label %bb19

bb89:                                             ; preds = %bb30, %bb4, %bb6, %start, %bb12, %bb47, %bb63, %bb81
  %_0.sroa.0.0 = phi i32 [ %_58.sroa.0.0, %bb12 ], [ 2, %bb47 ], [ 2, %bb63 ], [ %_324.sroa.0.0, %bb81 ], [ 1, %start ], [ 1, %bb6 ], [ 1, %bb4 ], [ %_101, %bb30 ]
  ret i32 %_0.sroa.0.0

bb4:                                              ; preds = %searchPos.exit
  %_25 = icmp eq i32 %pos.sroa.0.0.lcssa.i, %_13
  br i1 %_25, label %bb89, label %bb6

bb19:                                             ; preds = %searchPos.exit
  %_65 = icmp slt i32 %pos.sroa.0.0.lcssa.i, %_13
  %_72 = sext i32 %pos.sroa.0.0.lcssa.i to i64
  br i1 %_65, label %bb20, label %bb30

bb6:                                              ; preds = %bb4
  %_32 = sext i32 %pos.sroa.0.0.lcssa.i to i64
  %_30 = getelementptr inbounds i32, ptr %_16, i64 %_32
  %_29 = load i32, ptr %_30, align 4, !noundef !4
  %_28 = icmp slt i32 %key, %_29
  br i1 %_28, label %bb89, label %bb9

bb9:                                              ; preds = %bb6
  %3 = add i32 %pos.sroa.0.0.lcssa.i, 1
  %_35169 = icmp slt i32 %3, %_13
  br i1 %_35169, label %bb11.preheader, label %bb12

bb11.preheader:                                   ; preds = %bb9
  %4 = sext i32 %3 to i64
  %5 = add i32 %_13, -2
  %6 = sub i32 %5, %pos.sroa.0.0.lcssa.i
  %7 = zext i32 %6 to i64
  %8 = add nuw nsw i64 %7, 1
  %min.iters.check268 = icmp ult i32 %6, 63
  br i1 %min.iters.check268, label %bb11.preheader282, label %vector.scevcheck234

vector.scevcheck234:                              ; preds = %bb11.preheader
  %9 = add i32 %_13, -2
  %10 = sub i32 %9, %pos.sroa.0.0.lcssa.i
  %11 = sext i32 %3 to i34
  %12 = shl nsw i34 %11, 2
  %13 = add i34 %12, -4
  %14 = zext i32 %10 to i34
  %15 = add nsw i34 %11, %14
  %16 = shl i34 %15, 2
  %17 = add i34 %16, -4
  %18 = icmp slt i34 %17, %13
  br i1 %18, label %bb11.preheader282, label %vector.memcheck238

vector.memcheck238:                               ; preds = %vector.scevcheck234
  %19 = sext i32 %3 to i34
  %20 = shl nsw i34 %19, 2
  %21 = add i34 %20, -4
  %22 = sext i34 %21 to i64
  %23 = getelementptr i8, ptr %ptr, i64 %22
  %scevgep239 = getelementptr i8, ptr %23, i64 4
  %24 = add i32 %_13, -2
  %25 = sub i32 %24, %pos.sroa.0.0.lcssa.i
  %26 = zext i32 %25 to i64
  %27 = shl nuw nsw i64 %26, 2
  %28 = getelementptr i8, ptr %ptr, i64 %27
  %29 = getelementptr i8, ptr %28, i64 %22
  %scevgep240 = getelementptr i8, ptr %29, i64 8
  %30 = shl nsw i64 %4, 3
  %31 = getelementptr i8, ptr %ptr, i64 %30
  %scevgep241 = getelementptr i8, ptr %31, i64 16
  %32 = shl nuw nsw i64 %26, 3
  %33 = getelementptr i8, ptr %ptr, i64 %30
  %34 = getelementptr i8, ptr %33, i64 %32
  %scevgep242 = getelementptr i8, ptr %34, i64 24
  %35 = shl nsw i64 %4, 2
  %36 = getelementptr i8, ptr %ptr, i64 %35
  %scevgep243 = getelementptr i8, ptr %36, i64 4
  %37 = getelementptr i8, ptr %ptr, i64 %35
  %38 = getelementptr i8, ptr %37, i64 %27
  %scevgep244 = getelementptr i8, ptr %38, i64 8
  %39 = getelementptr i8, ptr %ptr, i64 %30
  %scevgep245 = getelementptr i8, ptr %39, i64 24
  %40 = getelementptr i8, ptr %ptr, i64 %30
  %41 = getelementptr i8, ptr %40, i64 %32
  %scevgep246 = getelementptr i8, ptr %41, i64 32
  %bound0247 = icmp ult ptr %scevgep239, %scevgep242
  %bound1248 = icmp ult ptr %scevgep241, %scevgep240
  %found.conflict249 = and i1 %bound0247, %bound1248
  %bound0250 = icmp ult ptr %scevgep239, %scevgep244
  %bound1251 = icmp ult ptr %scevgep243, %scevgep240
  %found.conflict252 = and i1 %bound0250, %bound1251
  %conflict.rdx253 = or i1 %found.conflict249, %found.conflict252
  %bound0254 = icmp ult ptr %scevgep239, %scevgep246
  %bound1255 = icmp ult ptr %scevgep245, %scevgep240
  %found.conflict256 = and i1 %bound0254, %bound1255
  %conflict.rdx257 = or i1 %conflict.rdx253, %found.conflict256
  %bound0258 = icmp ult ptr %scevgep241, %scevgep244
  %bound1259 = icmp ult ptr %scevgep243, %scevgep242
  %found.conflict260 = and i1 %bound0258, %bound1259
  %conflict.rdx261 = or i1 %conflict.rdx257, %found.conflict260
  %bound0262 = icmp ult ptr %scevgep241, %scevgep246
  %bound1263 = icmp ult ptr %scevgep245, %scevgep242
  %found.conflict264 = and i1 %bound0262, %bound1263
  %conflict.rdx265 = or i1 %conflict.rdx261, %found.conflict264
  br i1 %conflict.rdx265, label %bb11.preheader282, label %vector.ph269

vector.ph269:                                     ; preds = %vector.memcheck238
  %n.vec271 = and i64 %8, 8589934588
  %42 = add nsw i64 %n.vec271, %4
  br label %vector.body272

vector.body272:                                   ; preds = %vector.body272, %vector.ph269
  %index273 = phi i64 [ 0, %vector.ph269 ], [ %index.next279, %vector.body272 ]
  %offset.idx274 = add i64 %index273, %4
  %43 = getelementptr inbounds i32, ptr %_16, i64 %offset.idx274
  %44 = getelementptr inbounds nuw i8, ptr %43, i64 8
  %wide.load275 = load <2 x i32>, ptr %43, align 4, !alias.scope !9
  %wide.load276 = load <2 x i32>, ptr %44, align 4, !alias.scope !9
  %45 = shl i64 %offset.idx274, 32
  %46 = add i64 %45, -4294967296
  %47 = ashr exact i64 %46, 30
  %48 = getelementptr inbounds i8, ptr %_16, i64 %47
  %49 = getelementptr inbounds nuw i8, ptr %48, i64 8
  store <2 x i32> %wide.load275, ptr %48, align 4, !alias.scope !12, !noalias !14
  store <2 x i32> %wide.load276, ptr %49, align 4, !alias.scope !12, !noalias !14
  %50 = getelementptr inbounds ptr, ptr %_19, i64 %offset.idx274
  %51 = getelementptr ptr, ptr %_19, i64 %offset.idx274
  %52 = getelementptr i8, ptr %51, i64 8
  %53 = getelementptr i8, ptr %51, i64 24
  %wide.load277 = load <2 x ptr>, ptr %52, align 8, !alias.scope !17
  %wide.load278 = load <2 x ptr>, ptr %53, align 8, !alias.scope !17
  %54 = getelementptr inbounds nuw i8, ptr %50, i64 16
  store <2 x ptr> %wide.load277, ptr %50, align 8, !alias.scope !18, !noalias !19
  store <2 x ptr> %wide.load278, ptr %54, align 8, !alias.scope !18, !noalias !19
  %index.next279 = add nuw i64 %index273, 4
  %55 = icmp eq i64 %index.next279, %n.vec271
  br i1 %55, label %middle.block266, label %vector.body272, !llvm.loop !20

middle.block266:                                  ; preds = %vector.body272
  %cmp.n280 = icmp eq i64 %8, %n.vec271
  br i1 %cmp.n280, label %bb12.loopexit, label %bb11.preheader282

bb11.preheader282:                                ; preds = %vector.memcheck238, %vector.scevcheck234, %bb11.preheader, %middle.block266
  %indvars.iv186.ph = phi i64 [ %4, %bb11.preheader ], [ %4, %vector.scevcheck234 ], [ %4, %vector.memcheck238 ], [ %42, %middle.block266 ]
  %56 = trunc i64 %indvars.iv186.ph to i32
  %57 = sub i32 %_13, %56
  %.neg290 = add i32 %56, 1
  %xtraiter288 = and i32 %57, 1
  %lcmp.mod289.not = icmp eq i32 %xtraiter288, 0
  br i1 %lcmp.mod289.not, label %bb11.prol.loopexit, label %bb11.prol

bb11.prol:                                        ; preds = %bb11.preheader282
  %_39.prol = getelementptr inbounds i32, ptr %_16, i64 %indvars.iv186.ph
  %_38.prol = load i32, ptr %_39.prol, align 4, !noundef !4
  %_46.prol = shl i64 %indvars.iv186.ph, 32
  %sext192.prol = add i64 %_46.prol, -4294967296
  %58 = ashr exact i64 %sext192.prol, 30
  %_43.prol = getelementptr inbounds i8, ptr %_16, i64 %58
  store i32 %_38.prol, ptr %_43.prol, align 4
  %fresh0.prol = getelementptr inbounds ptr, ptr %_19, i64 %indvars.iv186.ph
  %indvars.iv.next187.prol = add nsw i64 %indvars.iv186.ph, 1
  %_53.prol = getelementptr inbounds ptr, ptr %_19, i64 %indvars.iv.next187.prol
  %_52.prol = load ptr, ptr %_53.prol, align 8, !noundef !4
  store ptr %_52.prol, ptr %fresh0.prol, align 8
  br label %bb11.prol.loopexit

bb11.prol.loopexit:                               ; preds = %bb11.prol, %bb11.preheader282
  %indvars.iv186.unr = phi i64 [ %indvars.iv186.ph, %bb11.preheader282 ], [ %indvars.iv.next187.prol, %bb11.prol ]
  %59 = icmp eq i32 %_13, %.neg290
  br i1 %59, label %bb12.loopexit, label %bb11

bb12.loopexit:                                    ; preds = %bb11.prol.loopexit, %bb11, %middle.block266
  %.pre = load i32, ptr %ptr, align 8
  br label %bb12

bb12:                                             ; preds = %bb12.loopexit, %bb9
  %60 = phi i32 [ %.pre, %bb12.loopexit ], [ %_13, %bb9 ]
  %61 = add i32 %60, -1
  store i32 %61, ptr %ptr, align 8
  %_59 = icmp sgt i32 %61, 0
  %_58.sroa.0.0 = select i1 %_59, i32 2, i32 4
  br label %bb89

bb11:                                             ; preds = %bb11.prol.loopexit, %bb11
  %indvars.iv186 = phi i64 [ %indvars.iv.next187.1, %bb11 ], [ %indvars.iv186.unr, %bb11.prol.loopexit ]
  %_39 = getelementptr inbounds i32, ptr %_16, i64 %indvars.iv186
  %_38 = load i32, ptr %_39, align 4, !noundef !4
  %_46 = shl i64 %indvars.iv186, 32
  %sext192 = add i64 %_46, -4294967296
  %62 = ashr exact i64 %sext192, 30
  %_43 = getelementptr inbounds i8, ptr %_16, i64 %62
  store i32 %_38, ptr %_43, align 4
  %fresh0 = getelementptr inbounds ptr, ptr %_19, i64 %indvars.iv186
  %indvars.iv.next187 = add nsw i64 %indvars.iv186, 1
  %_53 = getelementptr inbounds ptr, ptr %_19, i64 %indvars.iv.next187
  %_52 = load ptr, ptr %_53, align 8, !noundef !4
  store ptr %_52, ptr %fresh0, align 8
  %_39.1 = getelementptr inbounds i32, ptr %_16, i64 %indvars.iv.next187
  %_38.1 = load i32, ptr %_39.1, align 4, !noundef !4
  %_46.1 = shl i64 %indvars.iv.next187, 32
  %sext192.1 = add i64 %_46.1, -4294967296
  %63 = ashr exact i64 %sext192.1, 30
  %_43.1 = getelementptr inbounds i8, ptr %_16, i64 %63
  store i32 %_38.1, ptr %_43.1, align 4
  %fresh0.1 = getelementptr inbounds ptr, ptr %_19, i64 %indvars.iv.next187
  %indvars.iv.next187.1 = add nsw i64 %indvars.iv186, 2
  %_53.1 = getelementptr inbounds ptr, ptr %_19, i64 %indvars.iv.next187.1
  %_52.1 = load ptr, ptr %_53.1, align 8, !noundef !4
  store ptr %_52.1, ptr %fresh0.1, align 8
  %lftr.wideiv189.1 = trunc i64 %indvars.iv.next187.1 to i32
  %exitcond190.not.1 = icmp eq i32 %_13, %lftr.wideiv189.1
  br i1 %exitcond190.not.1, label %bb12.loopexit, label %bb11, !llvm.loop !23

bb20:                                             ; preds = %bb19
  %_70 = getelementptr inbounds i32, ptr %_16, i64 %_72
  %_69 = load i32, ptr %_70, align 4, !noundef !4
  %_68 = icmp eq i32 %key, %_69
  br i1 %_68, label %bb22, label %bb30

bb30:                                             ; preds = %bb19, %bb20, %bb27
  %_103 = getelementptr ptr, ptr %_19, i64 %_72
  %_102 = load ptr, ptr %_103, align 8, !noundef !4
  %_101 = tail call noundef i32 @del(ptr noundef %_102, i32 noundef %key) #19
  %64 = icmp eq i32 %_101, 4
  br i1 %64, label %bb33, label %bb89

bb22:                                             ; preds = %bb20
  %_75 = getelementptr inbounds ptr, ptr %_19, i64 %_72
  %65 = load ptr, ptr %_75, align 8, !noundef !4
  br label %bb23

bb23:                                             ; preds = %bb24, %bb22
  %qp.sroa.0.0 = phi ptr [ %65, %bb22 ], [ %_82, %bb24 ]
  %_81 = load i32, ptr %qp.sroa.0.0, align 8, !noundef !4
  %_83 = sext i32 %_81 to i64
  %_85 = icmp ult i32 %_81, 3
  br i1 %_85, label %bb24, label %panic20.invoke

bb24:                                             ; preds = %bb23
  %66 = getelementptr inbounds nuw i8, ptr %qp.sroa.0.0, i64 16
  %67 = getelementptr inbounds nuw ptr, ptr %66, i64 %_83
  %_82 = load ptr, ptr %67, align 8, !noundef !4
  %68 = icmp eq ptr %_82, null
  br i1 %68, label %bb25, label %bb23

terminate:                                        ; preds = %panic20.invoke
  %69 = landingpad { ptr, i32 }
          filter [0 x ptr] zeroinitializer
; call core::panicking::panic_cannot_unwind
  tail call void @_ZN4core9panicking19panic_cannot_unwind17h8a676681fe866bf0E() #20
  unreachable

bb25:                                             ; preds = %bb24
  %_90 = add nsw i32 %_81, -1
  %_89 = sext i32 %_90 to i64
  %_92 = icmp ult i32 %_90, 2
  br i1 %_92, label %bb27, label %panic20.invoke

bb27:                                             ; preds = %bb25
  %70 = getelementptr inbounds nuw i8, ptr %qp.sroa.0.0, i64 4
  %71 = getelementptr inbounds nuw i32, ptr %70, i64 %_89
  %_88 = load i32, ptr %71, align 4, !noundef !4
  store i32 %_88, ptr %_70, align 4
  store i32 %key, ptr %71, align 4
  br label %bb30

bb33:                                             ; preds = %bb30
  %_108 = icmp sgt i32 %pos.sroa.0.0.lcssa.i, 0
  br i1 %_108, label %bb34, label %bb49

bb34:                                             ; preds = %bb33
  %_115 = add nsw i32 %pos.sroa.0.0.lcssa.i, -1
  %_114 = zext nneg i32 %_115 to i64
  %_112 = getelementptr inbounds nuw ptr, ptr %_19, i64 %_114
  %_331 = load ptr, ptr %_112, align 8, !noundef !4
  %_111 = load i32, ptr %_331, align 8, !noundef !4
  %_110 = icmp sgt i32 %_111, 1
  br i1 %_110, label %bb36, label %bb49

bb49:                                             ; preds = %bb34, %bb33
  br i1 %_65, label %bb50, label %bb65

bb36:                                             ; preds = %bb34
  %_124 = load ptr, ptr %_103, align 8, !noundef !4
  %_131 = load i32, ptr %_124, align 8, !noundef !4
  %_130 = sext i32 %_131 to i64
  %_132 = icmp ult i32 %_131, 3
  br i1 %_132, label %bb37, label %panic20.invoke

bb50:                                             ; preds = %bb49
  %_178 = getelementptr i8, ptr %_103, i64 8
  %_332 = load ptr, ptr %_178, align 8, !noundef !4
  %_177 = load i32, ptr %_332, align 8, !noundef !4
  %_176 = icmp sgt i32 %_177, 1
  br i1 %_176, label %bb52, label %bb65

bb65:                                             ; preds = %bb50, %bb49
  %_241 = icmp eq i32 %pos.sroa.0.0.lcssa.i, %_13
  %72 = sext i1 %_241 to i32
  %pivot.sroa.0.0 = add i32 %pos.sroa.0.0.lcssa.i, %72
  %_249 = sext i32 %pivot.sroa.0.0 to i64
  %_247 = getelementptr inbounds ptr, ptr %_19, i64 %_249
  %_246 = load ptr, ptr %_247, align 8, !noundef !4
  %_255 = add i32 %pivot.sroa.0.0, 1
  %_254 = sext i32 %_255 to i64
  %_252 = getelementptr inbounds ptr, ptr %_19, i64 %_254
  %_251 = load ptr, ptr %_252, align 8, !noundef !4
  %_263 = load i32, ptr %_246, align 8, !noundef !4
  %_262 = sext i32 %_263 to i64
  %_264 = icmp ult i32 %_263, 2
  br i1 %_264, label %bb70, label %panic20.invoke

bb52:                                             ; preds = %bb50
  %_185 = load ptr, ptr %_103, align 8, !noundef !4
  %_202 = load i32, ptr %_185, align 8, !noundef !4
  %_201 = sext i32 %_202 to i64
  %_203 = icmp ult i32 %_202, 2
  br i1 %_203, label %bb54, label %panic20.invoke

bb70:                                             ; preds = %bb65
  %_258 = getelementptr inbounds i32, ptr %_16, i64 %_249
  %_257 = load i32, ptr %_258, align 4, !noundef !4
  %73 = getelementptr inbounds nuw i8, ptr %_246, i64 4
  %74 = getelementptr inbounds nuw i32, ptr %73, i64 %_262
  store i32 %_257, ptr %74, align 4
  %75 = getelementptr inbounds nuw i8, ptr %_251, i64 16
  %_265 = load ptr, ptr %75, align 8, !noundef !4
  %76 = getelementptr inbounds nuw i8, ptr %_246, i64 16
  %77 = zext nneg i32 %_263 to i64
  %78 = getelementptr inbounds nuw ptr, ptr %76, i64 %77
  %79 = getelementptr inbounds nuw i8, ptr %78, i64 8
  store ptr %_265, ptr %79, align 8
  %_272158 = load i32, ptr %_251, align 8, !noundef !4
  %_270159 = icmp sgt i32 %_272158, 0
  br i1 %_270159, label %bb72.lr.ph, label %bb77

bb72.lr.ph:                                       ; preds = %bb70
  %_278 = add nuw nsw i32 %_263, 1
  %_277 = zext nneg i32 %_278 to i64
  %_282 = icmp eq i32 %_263, 0
  br i1 %_282, label %bb76, label %panic20.invoke

bb77:                                             ; preds = %bb76, %bb70
  %_272.lcssa = phi i32 [ %_272158, %bb70 ], [ %_272, %bb76 ]
  %_294 = add nsw i32 %_272.lcssa, 1
  %80 = add nsw i32 %_294, %_263
  store i32 %80, ptr %_246, align 8
  tail call void @free(ptr noundef nonnull %_251) #19
  %81 = add i32 %pos.sroa.0.0.lcssa.i, 1
  %_301161 = icmp slt i32 %81, %_13
  br i1 %_301161, label %bb80.preheader, label %bb81

bb80.preheader:                                   ; preds = %bb77
  %82 = sext i32 %81 to i64
  %83 = add i32 %_13, -2
  %84 = sub i32 %83, %pos.sroa.0.0.lcssa.i
  %85 = zext i32 %84 to i64
  %86 = add nuw nsw i64 %85, 1
  %min.iters.check = icmp ult i32 %84, 63
  br i1 %min.iters.check, label %bb80.preheader283, label %vector.scevcheck

vector.scevcheck:                                 ; preds = %bb80.preheader
  %87 = add i32 %_13, -2
  %88 = sub i32 %87, %pos.sroa.0.0.lcssa.i
  %89 = sext i32 %81 to i34
  %90 = shl nsw i34 %89, 2
  %91 = add i34 %90, -4
  %92 = zext i32 %88 to i34
  %93 = add nsw i34 %89, %92
  %94 = shl i34 %93, 2
  %95 = add i34 %94, -4
  %96 = icmp slt i34 %95, %91
  br i1 %96, label %bb80.preheader283, label %vector.memcheck

vector.memcheck:                                  ; preds = %vector.scevcheck
  %97 = sext i32 %81 to i34
  %98 = shl nsw i34 %97, 2
  %99 = add i34 %98, -4
  %100 = sext i34 %99 to i64
  %101 = getelementptr i8, ptr %ptr, i64 %100
  %scevgep = getelementptr i8, ptr %101, i64 4
  %102 = add i32 %_13, -2
  %103 = sub i32 %102, %pos.sroa.0.0.lcssa.i
  %104 = zext i32 %103 to i64
  %105 = shl nuw nsw i64 %104, 2
  %106 = getelementptr i8, ptr %ptr, i64 %105
  %107 = getelementptr i8, ptr %106, i64 %100
  %scevgep209 = getelementptr i8, ptr %107, i64 8
  %108 = shl nsw i64 %82, 3
  %109 = getelementptr i8, ptr %ptr, i64 %108
  %scevgep210 = getelementptr i8, ptr %109, i64 16
  %110 = shl nuw nsw i64 %104, 3
  %111 = getelementptr i8, ptr %ptr, i64 %108
  %112 = getelementptr i8, ptr %111, i64 %110
  %scevgep211 = getelementptr i8, ptr %112, i64 24
  %113 = shl nsw i64 %82, 2
  %114 = getelementptr i8, ptr %ptr, i64 %113
  %scevgep212 = getelementptr i8, ptr %114, i64 4
  %115 = getelementptr i8, ptr %ptr, i64 %113
  %116 = getelementptr i8, ptr %115, i64 %105
  %scevgep213 = getelementptr i8, ptr %116, i64 8
  %117 = getelementptr i8, ptr %ptr, i64 %108
  %scevgep214 = getelementptr i8, ptr %117, i64 24
  %118 = getelementptr i8, ptr %ptr, i64 %108
  %119 = getelementptr i8, ptr %118, i64 %110
  %scevgep215 = getelementptr i8, ptr %119, i64 32
  %bound0 = icmp ult ptr %scevgep, %scevgep211
  %bound1 = icmp ult ptr %scevgep210, %scevgep209
  %found.conflict = and i1 %bound0, %bound1
  %bound0216 = icmp ult ptr %scevgep, %scevgep213
  %bound1217 = icmp ult ptr %scevgep212, %scevgep209
  %found.conflict218 = and i1 %bound0216, %bound1217
  %conflict.rdx = or i1 %found.conflict, %found.conflict218
  %bound0219 = icmp ult ptr %scevgep, %scevgep215
  %bound1220 = icmp ult ptr %scevgep214, %scevgep209
  %found.conflict221 = and i1 %bound0219, %bound1220
  %conflict.rdx222 = or i1 %conflict.rdx, %found.conflict221
  %bound0223 = icmp ult ptr %scevgep210, %scevgep213
  %bound1224 = icmp ult ptr %scevgep212, %scevgep211
  %found.conflict225 = and i1 %bound0223, %bound1224
  %conflict.rdx226 = or i1 %conflict.rdx222, %found.conflict225
  %bound0227 = icmp ult ptr %scevgep210, %scevgep215
  %bound1228 = icmp ult ptr %scevgep214, %scevgep211
  %found.conflict229 = and i1 %bound0227, %bound1228
  %conflict.rdx230 = or i1 %conflict.rdx226, %found.conflict229
  br i1 %conflict.rdx230, label %bb80.preheader283, label %vector.ph

vector.ph:                                        ; preds = %vector.memcheck
  %n.vec = and i64 %86, 8589934588
  %120 = add nsw i64 %n.vec, %82
  br label %vector.body

vector.body:                                      ; preds = %vector.body, %vector.ph
  %index = phi i64 [ 0, %vector.ph ], [ %index.next, %vector.body ]
  %offset.idx = add i64 %index, %82
  %121 = getelementptr inbounds i32, ptr %_16, i64 %offset.idx
  %122 = getelementptr inbounds nuw i8, ptr %121, i64 8
  %wide.load = load <2 x i32>, ptr %121, align 4, !alias.scope !24
  %wide.load231 = load <2 x i32>, ptr %122, align 4, !alias.scope !24
  %123 = shl i64 %offset.idx, 32
  %124 = add i64 %123, -4294967296
  %125 = ashr exact i64 %124, 30
  %126 = getelementptr inbounds i8, ptr %_16, i64 %125
  %127 = getelementptr inbounds nuw i8, ptr %126, i64 8
  store <2 x i32> %wide.load, ptr %126, align 4, !alias.scope !27, !noalias !29
  store <2 x i32> %wide.load231, ptr %127, align 4, !alias.scope !27, !noalias !29
  %128 = getelementptr inbounds ptr, ptr %_19, i64 %offset.idx
  %129 = getelementptr ptr, ptr %_19, i64 %offset.idx
  %130 = getelementptr i8, ptr %129, i64 8
  %131 = getelementptr i8, ptr %129, i64 24
  %wide.load232 = load <2 x ptr>, ptr %130, align 8, !alias.scope !32
  %wide.load233 = load <2 x ptr>, ptr %131, align 8, !alias.scope !32
  %132 = getelementptr inbounds nuw i8, ptr %128, i64 16
  store <2 x ptr> %wide.load232, ptr %128, align 8, !alias.scope !33, !noalias !34
  store <2 x ptr> %wide.load233, ptr %132, align 8, !alias.scope !33, !noalias !34
  %index.next = add nuw i64 %index, 4
  %133 = icmp eq i64 %index.next, %n.vec
  br i1 %133, label %middle.block, label %vector.body, !llvm.loop !35

middle.block:                                     ; preds = %vector.body
  %cmp.n = icmp eq i64 %86, %n.vec
  br i1 %cmp.n, label %bb81, label %bb80.preheader283

bb80.preheader283:                                ; preds = %vector.memcheck, %vector.scevcheck, %bb80.preheader, %middle.block
  %indvars.iv.ph = phi i64 [ %82, %bb80.preheader ], [ %82, %vector.scevcheck ], [ %82, %vector.memcheck ], [ %120, %middle.block ]
  %134 = trunc i64 %indvars.iv.ph to i32
  %135 = sub i32 %_13, %134
  %.neg = add i32 %134, 1
  %xtraiter = and i32 %135, 1
  %lcmp.mod.not = icmp eq i32 %xtraiter, 0
  br i1 %lcmp.mod.not, label %bb80.prol.loopexit, label %bb80.prol

bb80.prol:                                        ; preds = %bb80.preheader283
  %_305.prol = getelementptr inbounds i32, ptr %_16, i64 %indvars.iv.ph
  %_304.prol = load i32, ptr %_305.prol, align 4, !noundef !4
  %_312.prol = shl i64 %indvars.iv.ph, 32
  %sext.prol = add i64 %_312.prol, -4294967296
  %136 = ashr exact i64 %sext.prol, 30
  %_309.prol = getelementptr inbounds i8, ptr %_16, i64 %136
  store i32 %_304.prol, ptr %_309.prol, align 4
  %fresh1.prol = getelementptr inbounds ptr, ptr %_19, i64 %indvars.iv.ph
  %indvars.iv.next.prol = add nsw i64 %indvars.iv.ph, 1
  %_319.prol = getelementptr inbounds ptr, ptr %_19, i64 %indvars.iv.next.prol
  %_318.prol = load ptr, ptr %_319.prol, align 8, !noundef !4
  store ptr %_318.prol, ptr %fresh1.prol, align 8
  br label %bb80.prol.loopexit

bb80.prol.loopexit:                               ; preds = %bb80.prol, %bb80.preheader283
  %indvars.iv.unr = phi i64 [ %indvars.iv.ph, %bb80.preheader283 ], [ %indvars.iv.next.prol, %bb80.prol ]
  %137 = icmp eq i32 %_13, %.neg
  br i1 %137, label %bb81, label %bb80

bb81:                                             ; preds = %bb80.prol.loopexit, %bb80, %middle.block, %bb77
  %138 = load i32, ptr %ptr, align 8, !noundef !4
  %139 = add i32 %138, -1
  store i32 %139, ptr %ptr, align 8
  %_325 = icmp sgt i32 %139, 0
  %_324.sroa.0.0 = select i1 %_325, i32 2, i32 4
  br label %bb89

bb80:                                             ; preds = %bb80.prol.loopexit, %bb80
  %indvars.iv = phi i64 [ %indvars.iv.next.1, %bb80 ], [ %indvars.iv.unr, %bb80.prol.loopexit ]
  %_305 = getelementptr inbounds i32, ptr %_16, i64 %indvars.iv
  %_304 = load i32, ptr %_305, align 4, !noundef !4
  %_312 = shl i64 %indvars.iv, 32
  %sext = add i64 %_312, -4294967296
  %140 = ashr exact i64 %sext, 30
  %_309 = getelementptr inbounds i8, ptr %_16, i64 %140
  store i32 %_304, ptr %_309, align 4
  %fresh1 = getelementptr inbounds ptr, ptr %_19, i64 %indvars.iv
  %indvars.iv.next = add nsw i64 %indvars.iv, 1
  %_319 = getelementptr inbounds ptr, ptr %_19, i64 %indvars.iv.next
  %_318 = load ptr, ptr %_319, align 8, !noundef !4
  store ptr %_318, ptr %fresh1, align 8
  %_305.1 = getelementptr inbounds i32, ptr %_16, i64 %indvars.iv.next
  %_304.1 = load i32, ptr %_305.1, align 4, !noundef !4
  %_312.1 = shl i64 %indvars.iv.next, 32
  %sext.1 = add i64 %_312.1, -4294967296
  %141 = ashr exact i64 %sext.1, 30
  %_309.1 = getelementptr inbounds i8, ptr %_16, i64 %141
  store i32 %_304.1, ptr %_309.1, align 4
  %fresh1.1 = getelementptr inbounds ptr, ptr %_19, i64 %indvars.iv.next
  %indvars.iv.next.1 = add nsw i64 %indvars.iv, 2
  %_319.1 = getelementptr inbounds ptr, ptr %_19, i64 %indvars.iv.next.1
  %_318.1 = load ptr, ptr %_319.1, align 8, !noundef !4
  store ptr %_318.1, ptr %fresh1.1, align 8
  %lftr.wideiv.1 = trunc i64 %indvars.iv.next.1 to i32
  %exitcond.not.1 = icmp eq i32 %_13, %lftr.wideiv.1
  br i1 %exitcond.not.1, label %bb81, label %bb80, !llvm.loop !36

bb76:                                             ; preds = %bb72.lr.ph
  %142 = getelementptr inbounds nuw i8, ptr %_251, i64 4
  %_273 = load i32, ptr %142, align 4, !noundef !4
  %143 = getelementptr inbounds nuw i32, ptr %73, i64 %_277
  store i32 %_273, ptr %143, align 4
  %144 = getelementptr inbounds nuw i8, ptr %_251, i64 24
  %_283 = load ptr, ptr %144, align 8, !noundef !4
  %145 = getelementptr inbounds nuw i8, ptr %_246, i64 32
  store ptr %_283, ptr %145, align 8
  %_272 = load i32, ptr %_251, align 8, !noundef !4
  %_270 = icmp sgt i32 %_272, 1
  br i1 %_270, label %panic20.invoke, label %bb77

bb54:                                             ; preds = %bb52
  %_197 = getelementptr inbounds i32, ptr %_16, i64 %_72
  %_196 = load i32, ptr %_197, align 4, !noundef !4
  %146 = getelementptr inbounds nuw i8, ptr %_185, i64 4
  %147 = getelementptr inbounds nuw i32, ptr %146, i64 %_201
  store i32 %_196, ptr %147, align 4
  %148 = getelementptr inbounds nuw i8, ptr %_332, i64 16
  %_204 = load ptr, ptr %148, align 8, !noundef !4
  %149 = getelementptr inbounds nuw i8, ptr %_185, i64 16
  %150 = zext nneg i32 %_202 to i64
  %151 = getelementptr inbounds nuw ptr, ptr %149, i64 %150
  %152 = getelementptr inbounds nuw i8, ptr %151, i64 8
  store ptr %_204, ptr %152, align 8
  %153 = getelementptr inbounds nuw i8, ptr %_332, i64 4
  %_209 = load i32, ptr %153, align 4, !noundef !4
  store i32 %_209, ptr %_197, align 4
  %154 = load i32, ptr %_185, align 8, !noundef !4
  %155 = add i32 %154, 1
  store i32 %155, ptr %_185, align 8
  %156 = load i32, ptr %_332, align 8, !noundef !4
  %157 = add i32 %156, -1
  store i32 %157, ptr %_332, align 8
  %_214163 = icmp sgt i32 %157, 0
  br i1 %_214163, label %bb56.preheader, label %bb61

bb56.preheader:                                   ; preds = %bb54
  %158 = getelementptr inbounds nuw i8, ptr %_332, i64 8
  %_217 = load i32, ptr %158, align 4, !noundef !4
  store i32 %_217, ptr %153, align 4
  %159 = getelementptr inbounds nuw i8, ptr %_332, i64 24
  %_225 = load ptr, ptr %159, align 8, !noundef !4
  store ptr %_225, ptr %148, align 8
  %_214.not = icmp eq i32 %157, 1
  br i1 %_214.not, label %bb63, label %panic20.invoke

bb61:                                             ; preds = %bb54
  %_234 = sext i32 %156 to i64
  %_237 = icmp ult i32 %156, 3
  br i1 %_237, label %bb62, label %panic20.invoke

bb62:                                             ; preds = %bb61
  %_238 = sext i32 %157 to i64
  %_240 = icmp eq i32 %157, 0
  br i1 %_240, label %bb63, label %panic20.invoke

bb63:                                             ; preds = %bb56.preheader, %bb62
  %_238200 = phi i64 [ %_238, %bb62 ], [ 1, %bb56.preheader ]
  %_234195199 = phi i64 [ %_234, %bb62 ], [ 2, %bb56.preheader ]
  %160 = getelementptr inbounds nuw ptr, ptr %148, i64 %_234195199
  %_233 = load ptr, ptr %160, align 8, !noundef !4
  %161 = getelementptr inbounds nuw ptr, ptr %148, i64 %_238200
  store ptr %_233, ptr %161, align 8
  br label %bb89

bb37:                                             ; preds = %bb36
  %162 = getelementptr inbounds nuw i8, ptr %_124, i64 16
  %_134 = add nuw nsw i32 %_131, 1
  %_133 = zext nneg i32 %_134 to i64
  %_136.not = icmp eq i32 %_131, 2
  br i1 %_136.not, label %panic20.invoke, label %bb38

bb38:                                             ; preds = %bb37
  %163 = getelementptr inbounds nuw ptr, ptr %162, i64 %_130
  %_129 = load ptr, ptr %163, align 8, !noundef !4
  %164 = getelementptr inbounds nuw ptr, ptr %162, i64 %_133
  store ptr %_129, ptr %164, align 8
  %_138.not167 = icmp eq i32 %_131, 0
  br i1 %_138.not167, label %bb45, label %bb42.us

bb42.us:                                          ; preds = %bb38
  %165 = getelementptr inbounds nuw i8, ptr %_124, i64 24
  %166 = getelementptr inbounds nuw i8, ptr %_124, i64 8
  %167 = getelementptr inbounds nuw i8, ptr %_124, i64 4
  %_142.us = add nsw i32 %_131, -1
  %_141.us = zext nneg i32 %_142.us to i64
  %168 = getelementptr inbounds nuw i32, ptr %167, i64 %_141.us
  %_140.us = load i32, ptr %168, align 4, !noundef !4
  store i32 %_140.us, ptr %166, align 4
  %169 = getelementptr inbounds nuw ptr, ptr %162, i64 %_141.us
  %_148.us = load ptr, ptr %169, align 8, !noundef !4
  store ptr %_148.us, ptr %165, align 8
  br label %bb45

bb45:                                             ; preds = %bb42.us, %bb38
  store i32 %_134, ptr %_124, align 8
  %_157 = getelementptr inbounds nuw i32, ptr %_16, i64 %_114
  %_156 = load i32, ptr %_157, align 4, !noundef !4
  %170 = getelementptr inbounds nuw i8, ptr %_124, i64 4
  store i32 %_156, ptr %170, align 4
  %_163 = load i32, ptr %_331, align 8, !noundef !4
  %_162 = sext i32 %_163 to i64
  %_164 = icmp ult i32 %_163, 3
  br i1 %_164, label %bb46, label %panic20.invoke

bb46:                                             ; preds = %bb45
  %171 = getelementptr inbounds nuw i8, ptr %_331, i64 16
  %172 = getelementptr inbounds nuw ptr, ptr %171, i64 %_162
  %_161 = load ptr, ptr %172, align 8, !noundef !4
  store ptr %_161, ptr %162, align 8
  %173 = load i32, ptr %_331, align 8, !noundef !4
  %174 = add i32 %173, -1
  store i32 %174, ptr %_331, align 8
  %_166 = sext i32 %174 to i64
  %_168 = icmp ult i32 %174, 2
  br i1 %_168, label %bb47, label %panic20.invoke

bb47:                                             ; preds = %bb46
  %175 = getelementptr inbounds nuw i8, ptr %_331, i64 4
  %176 = getelementptr inbounds nuw i32, ptr %175, i64 %_166
  %_165 = load i32, ptr %176, align 4, !noundef !4
  store i32 %_165, ptr %_157, align 4
  br label %bb89

panic20.invoke:                                   ; preds = %bb23, %bb46, %bb45, %bb37, %bb36, %bb56.preheader, %bb62, %bb61, %bb52, %bb72.lr.ph, %bb76, %bb65, %bb25
  %177 = phi i64 [ %_89, %bb25 ], [ %_262, %bb65 ], [ %_277, %bb72.lr.ph ], [ 2, %bb76 ], [ %_201, %bb52 ], [ %_234, %bb61 ], [ %_238, %bb62 ], [ 2, %bb56.preheader ], [ %_130, %bb36 ], [ %_133, %bb37 ], [ %_162, %bb45 ], [ %_166, %bb46 ], [ %_83, %bb23 ]
  %178 = phi i64 [ 2, %bb25 ], [ 2, %bb65 ], [ 2, %bb72.lr.ph ], [ 2, %bb76 ], [ 2, %bb52 ], [ 3, %bb61 ], [ 3, %bb62 ], [ 2, %bb56.preheader ], [ 3, %bb36 ], [ 3, %bb37 ], [ 3, %bb45 ], [ 2, %bb46 ], [ 3, %bb23 ]
  %179 = phi ptr [ @alloc_d23ced7b98a3ee510f0853b8416306e3, %bb25 ], [ @alloc_5ccf52401d259fe5a080d9e3e13e98e7, %bb65 ], [ @alloc_fe16c8a887235d29cc218e7760b9a3f1, %bb72.lr.ph ], [ @alloc_fe16c8a887235d29cc218e7760b9a3f1, %bb76 ], [ @alloc_0b41642b4bb72d5e6210eacf362840ad, %bb52 ], [ @alloc_2b4431b1c6bb6ddbbdf0def753423777, %bb61 ], [ @alloc_788b85ba074557741aa4e537d0abf802, %bb62 ], [ @alloc_531cd8b78d42e5d8dfa7a83ba0f7d218, %bb56.preheader ], [ @alloc_07ef84f08b485adaef21f7c1295732ab, %bb36 ], [ @alloc_5256997a45c5fae63091e3abfaf2ede4, %bb37 ], [ @alloc_7c54cf60d6b7a073d468e3e23390aec2, %bb45 ], [ @alloc_86cd95eb5330b473bdf85a87877e42e2, %bb46 ], [ @alloc_c515454c1d3c3401bc25c4fbf7198a36, %bb23 ]
; invoke core::panicking::panic_bounds_check
  invoke void @_ZN4core9panicking18panic_bounds_check17h27d1e4f0cb1112dfE(i64 noundef %177, i64 noundef %178, ptr noalias noundef nonnull readonly align 8 dereferenceable(24) %179) #21
          to label %panic20.cont unwind label %terminate

panic20.cont:                                     ; preds = %panic20.invoke
  unreachable
}

; Function Attrs: nofree nounwind nonlazybind uwtable
define dso_local void @eatline() unnamed_addr #6 {
start:
  br label %bb2

bb2:                                              ; preds = %bb2, %start
  %_8 = tail call noundef i32 @getchar() #19
  %_7.not = icmp eq i32 %_8, 10
  br i1 %_7.not, label %bb5, label %bb2

bb5:                                              ; preds = %bb2
  ret void
}

; Function Attrs: nofree nounwind nonlazybind uwtable
define dso_local void @inorder(ptr noundef readonly %ptr) unnamed_addr #6 {
start:
  %0 = icmp eq ptr %ptr, null
  br i1 %0, label %bb14, label %bb2

bb2:                                              ; preds = %start, %bb7
  %ptr.tr1 = phi ptr [ %_19, %bb7 ], [ %ptr, %start ]
  %_3 = load i32, ptr %ptr.tr1, align 8, !noundef !4
  %_2 = icmp sgt i32 %_3, 0
  br i1 %_2, label %bb3, label %bb14

bb14:                                             ; preds = %bb7, %bb2, %bb3, %start
  ret void

bb3:                                              ; preds = %bb2
  %1 = getelementptr inbounds nuw i8, ptr %ptr.tr1, i64 16
  %_5 = load ptr, ptr %1, align 8, !noundef !4
  tail call void @inorder(ptr noundef %_5) #19
  %2 = getelementptr inbounds nuw i8, ptr %ptr.tr1, i64 4
  %_10 = load i32, ptr %2, align 4, !noundef !4
  %_6 = tail call noundef i32 (ptr, ...) @printf(ptr noundef nonnull dereferenceable(1) @alloc_b929c71616281bfd1be2bd4038d3ddf1, i32 noundef %_10) #19
  %3 = getelementptr inbounds nuw i8, ptr %ptr.tr1, i64 24
  %_12 = load ptr, ptr %3, align 8, !noundef !4
  tail call void @inorder(ptr noundef %_12) #19
  %_13 = load i32, ptr %ptr.tr1, align 8, !noundef !4
  %4 = icmp eq i32 %_13, 2
  br i1 %4, label %bb7, label %bb14

bb7:                                              ; preds = %bb3
  %5 = getelementptr inbounds nuw i8, ptr %ptr.tr1, i64 8
  %_17 = load i32, ptr %5, align 4, !noundef !4
  %_14 = tail call noundef i32 (ptr, ...) @printf(ptr noundef nonnull dereferenceable(1) @alloc_b929c71616281bfd1be2bd4038d3ddf1, i32 noundef %_17) #19
  %6 = getelementptr inbounds nuw i8, ptr %ptr.tr1, i64 32
  %_19 = load ptr, ptr %6, align 8, !noundef !4
  %7 = icmp eq ptr %_19, null
  br i1 %7, label %bb14, label %bb2
}

; Function Attrs: nofree nosync nounwind nonlazybind memory(read, inaccessiblemem: none) uwtable
define dso_local noundef i32 @totalKeys(ptr noundef readonly %ptr) unnamed_addr #7 {
start:
  br label %tailrecurse

tailrecurse:                                      ; preds = %bb6, %start
  %accumulator.tr = phi i32 [ 0, %start ], [ %7, %bb6 ]
  %ptr.tr = phi ptr [ %ptr, %start ], [ %_12, %bb6 ]
  %0 = icmp eq ptr %ptr.tr, null
  br i1 %0, label %common.ret, label %bb2

bb2:                                              ; preds = %tailrecurse
  %_4 = load i32, ptr %ptr.tr, align 8, !noundef !4
  %_3 = icmp sgt i32 %_4, 0
  br i1 %_3, label %bb3, label %common.ret

common.ret:                                       ; preds = %tailrecurse, %bb3, %bb2
  %common.ret.op = phi i32 [ 0, %tailrecurse ], [ %4, %bb3 ], [ 1, %bb2 ]
  %accumulator.ret.tr = add i32 %common.ret.op, %accumulator.tr
  ret i32 %accumulator.ret.tr

bb3:                                              ; preds = %bb2
  %1 = getelementptr inbounds nuw i8, ptr %ptr.tr, i64 16
  %_6 = load ptr, ptr %1, align 8, !noundef !4
  %_5 = tail call noundef i32 @totalKeys(ptr noundef %_6) #19
  %2 = add i32 %_5, 1
  %3 = getelementptr inbounds nuw i8, ptr %ptr.tr, i64 24
  %_8 = load ptr, ptr %3, align 8, !noundef !4
  %_7 = tail call noundef i32 @totalKeys(ptr noundef %_8) #19
  %4 = add i32 %2, %_7
  %5 = icmp eq i32 %_4, 2
  br i1 %5, label %bb6, label %common.ret

bb6:                                              ; preds = %bb3
  %6 = getelementptr inbounds nuw i8, ptr %ptr.tr, i64 32
  %_12 = load ptr, ptr %6, align 8, !noundef !4
  %_10 = add i32 %4, 1
  %7 = add i32 %_10, %accumulator.tr
  br label %tailrecurse
}

; Function Attrs: nofree nounwind nonlazybind uwtable
define dso_local void @printTotal(ptr noundef %ptr) unnamed_addr #6 {
start:
  %_6 = tail call noundef i32 @totalKeys(ptr noundef %ptr) #19
  %_2 = tail call noundef i32 (ptr, ...) @printf(ptr noundef nonnull dereferenceable(1) @alloc_87551382a9de3243abbfdbda2f0b586b, i32 noundef %_6) #19
  ret void
}

; Function Attrs: nofree norecurse nosync nounwind nonlazybind memory(read, inaccessiblemem: none) uwtable
define dso_local noundef i32 @getMin(ptr noundef readonly %ptr) unnamed_addr #8 {
start:
  br label %tailrecurse

tailrecurse:                                      ; preds = %bb2, %start
  %ptr.tr = phi ptr [ %ptr, %start ], [ %_3, %bb2 ]
  %0 = icmp eq ptr %ptr.tr, null
  br i1 %0, label %bb7, label %bb2

bb2:                                              ; preds = %tailrecurse
  %1 = getelementptr inbounds nuw i8, ptr %ptr.tr, i64 16
  %_3 = load ptr, ptr %1, align 8, !noundef !4
  %2 = icmp eq ptr %_3, null
  br i1 %2, label %bb3, label %tailrecurse

bb7:                                              ; preds = %tailrecurse, %bb3
  %_0.sroa.0.0 = phi i32 [ %_6, %bb3 ], [ 0, %tailrecurse ]
  ret i32 %_0.sroa.0.0

bb3:                                              ; preds = %bb2
  %3 = getelementptr inbounds nuw i8, ptr %ptr.tr, i64 4
  %_6 = load i32, ptr %3, align 4, !noundef !4
  br label %bb7
}

; Function Attrs: nofree norecurse nosync nounwind nonlazybind memory(read, inaccessiblemem: none) uwtable
define dso_local noundef i32 @getMax(ptr noundef readonly %ptr) unnamed_addr #8 {
start:
  %0 = icmp eq ptr %ptr, null
  br i1 %0, label %bb17, label %bb2

bb2:                                              ; preds = %start, %bb2.backedge
  %ptr.tr4 = phi ptr [ %ptr.tr4.be, %bb2.backedge ], [ %ptr, %start ]
  %_3 = load i32, ptr %ptr.tr4, align 8, !noundef !4
  switch i32 %_3, label %bb17 [
    i32 1, label %bb3
    i32 2, label %bb10
  ]

bb17.sink.split:                                  ; preds = %bb10, %bb3
  %.sink11 = phi i64 [ 4, %bb3 ], [ 8, %bb10 ]
  %1 = getelementptr inbounds nuw i8, ptr %ptr.tr4, i64 %.sink11
  %_7 = load i32, ptr %1, align 4, !noundef !4
  br label %bb17

bb17:                                             ; preds = %bb2, %bb17.sink.split, %start
  %_0.sroa.0.0 = phi i32 [ 0, %start ], [ %_7, %bb17.sink.split ], [ 0, %bb2 ]
  ret i32 %_0.sroa.0.0

bb3:                                              ; preds = %bb2
  %2 = getelementptr inbounds nuw i8, ptr %ptr.tr4, i64 24
  %_4 = load ptr, ptr %2, align 8, !noundef !4
  %3 = icmp eq ptr %_4, null
  br i1 %3, label %bb17.sink.split, label %bb2.backedge

bb2.backedge:                                     ; preds = %bb3, %bb10
  %ptr.tr4.be = phi ptr [ %_4, %bb3 ], [ %_9, %bb10 ]
  br label %bb2

bb10:                                             ; preds = %bb2
  %4 = getelementptr inbounds nuw i8, ptr %ptr.tr4, i64 32
  %_9 = load ptr, ptr %4, align 8, !noundef !4
  %5 = icmp eq ptr %_9, null
  br i1 %5, label %bb17.sink.split, label %bb2.backedge
}

; Function Attrs: nofree nounwind nonlazybind uwtable
define dso_local void @getMinMax(ptr noundef readonly %ptr) unnamed_addr #6 {
start:
  br label %tailrecurse.i

tailrecurse.i:                                    ; preds = %bb2.i, %start
  %ptr.tr.i = phi ptr [ %ptr, %start ], [ %_3.i, %bb2.i ]
  %0 = icmp eq ptr %ptr.tr.i, null
  br i1 %0, label %getMin.exit, label %bb2.i

bb2.i:                                            ; preds = %tailrecurse.i
  %1 = getelementptr inbounds nuw i8, ptr %ptr.tr.i, i64 16
  %_3.i = load ptr, ptr %1, align 8, !noundef !4
  %2 = icmp eq ptr %_3.i, null
  br i1 %2, label %bb3.i, label %tailrecurse.i

bb3.i:                                            ; preds = %bb2.i
  %3 = getelementptr inbounds nuw i8, ptr %ptr.tr.i, i64 4
  %_6.i = load i32, ptr %3, align 4, !noundef !4
  br label %getMin.exit

getMin.exit:                                      ; preds = %tailrecurse.i, %bb3.i
  %_0.sroa.0.0.i = phi i32 [ %_6.i, %bb3.i ], [ 0, %tailrecurse.i ]
  %4 = icmp eq ptr %ptr, null
  br i1 %4, label %getMax.exit, label %bb2.i1

bb2.i1:                                           ; preds = %getMin.exit, %bb2.i1.backedge
  %ptr.tr4.i = phi ptr [ %ptr.tr4.i.be, %bb2.i1.backedge ], [ %ptr, %getMin.exit ]
  %_3.i2 = load i32, ptr %ptr.tr4.i, align 8, !noundef !4
  switch i32 %_3.i2, label %getMax.exit [
    i32 1, label %bb3.i4
    i32 2, label %bb10.i
  ]

bb3.i4:                                           ; preds = %bb2.i1
  %5 = getelementptr inbounds nuw i8, ptr %ptr.tr4.i, i64 24
  %_4.i = load ptr, ptr %5, align 8, !noundef !4
  %6 = icmp eq ptr %_4.i, null
  br i1 %6, label %getMax.exit.sink.split, label %bb2.i1.backedge

bb10.i:                                           ; preds = %bb2.i1
  %7 = getelementptr inbounds nuw i8, ptr %ptr.tr4.i, i64 32
  %_9.i = load ptr, ptr %7, align 8, !noundef !4
  %8 = icmp eq ptr %_9.i, null
  br i1 %8, label %getMax.exit.sink.split, label %bb2.i1.backedge

bb2.i1.backedge:                                  ; preds = %bb10.i, %bb3.i4
  %ptr.tr4.i.be = phi ptr [ %_4.i, %bb3.i4 ], [ %_9.i, %bb10.i ]
  br label %bb2.i1

getMax.exit.sink.split:                           ; preds = %bb10.i, %bb3.i4
  %.sink17 = phi i64 [ 4, %bb3.i4 ], [ 8, %bb10.i ]
  %9 = getelementptr inbounds nuw i8, ptr %ptr.tr4.i, i64 %.sink17
  %_7.i = load i32, ptr %9, align 4, !noundef !4
  br label %getMax.exit

getMax.exit:                                      ; preds = %bb2.i1, %getMax.exit.sink.split, %getMin.exit
  %_0.sroa.0.0.i3 = phi i32 [ 0, %getMin.exit ], [ %_7.i, %getMax.exit.sink.split ], [ 0, %bb2.i1 ]
  %_2 = tail call noundef i32 (ptr, ...) @printf(ptr noundef nonnull dereferenceable(1) @alloc_aceb2eeaf01650fa3ac6043e8e246765, i32 noundef %_0.sroa.0.0.i, i32 noundef %_0.sroa.0.0.i3) #19
  ret void
}

; Function Attrs: mustprogress nofree norecurse nosync nounwind nonlazybind willreturn memory(none) uwtable
define dso_local noundef i32 @max(i32 noundef %first, i32 noundef %second, i32 noundef %third) unnamed_addr #9 {
start:
  %spec.store.select = tail call i32 @llvm.smax.i32(i32 %second, i32 %first)
  %spec.store.select1 = tail call i32 @llvm.smax.i32(i32 %third, i32 %spec.store.select)
  ret i32 %spec.store.select1
}

; Function Attrs: nofree nosync nounwind nonlazybind memory(read, inaccessiblemem: none) uwtable
define dso_local noundef i32 @maxLevel(ptr noundef readonly %ptr) unnamed_addr #7 {
start:
  %0 = icmp eq ptr %ptr, null
  br i1 %0, label %bb19, label %bb2

bb2:                                              ; preds = %start
  %1 = getelementptr inbounds nuw i8, ptr %ptr, i64 16
  %_6 = load ptr, ptr %1, align 8, !noundef !4
  %2 = icmp eq ptr %_6, null
  br i1 %2, label %bb6, label %bb4

bb19:                                             ; preds = %start, %bb17
  %_0.sroa.0.0 = phi i32 [ %8, %bb17 ], [ 0, %start ]
  ret i32 %_0.sroa.0.0

bb4:                                              ; preds = %bb2
  %_7 = tail call noundef i32 @maxLevel(ptr noundef nonnull %_6) #19
  br label %bb6

bb6:                                              ; preds = %bb2, %bb4
  %l.sroa.0.0 = phi i32 [ 0, %bb2 ], [ %_7, %bb4 ]
  %3 = getelementptr inbounds nuw i8, ptr %ptr, i64 24
  %_9 = load ptr, ptr %3, align 8, !noundef !4
  %4 = icmp eq ptr %_9, null
  br i1 %4, label %bb10, label %bb8

bb8:                                              ; preds = %bb6
  %_10 = tail call noundef i32 @maxLevel(ptr noundef nonnull %_9) #19
  br label %bb10

bb10:                                             ; preds = %bb6, %bb8
  %mr.sroa.0.0 = phi i32 [ 0, %bb6 ], [ %_10, %bb8 ]
  %_12 = load i32, ptr %ptr, align 8, !noundef !4
  %5 = icmp eq i32 %_12, 2
  br i1 %5, label %bb11, label %bb17

bb11:                                             ; preds = %bb10
  %6 = getelementptr inbounds nuw i8, ptr %ptr, i64 32
  %_13 = load ptr, ptr %6, align 8, !noundef !4
  %7 = icmp eq ptr %_13, null
  br i1 %7, label %bb17, label %bb13

bb13:                                             ; preds = %bb11
  %_14 = tail call noundef i32 @maxLevel(ptr noundef nonnull %_13) #19
  br label %bb17

bb17:                                             ; preds = %bb13, %bb11, %bb10
  %r.sroa.0.0 = phi i32 [ 0, %bb11 ], [ %_14, %bb13 ], [ 0, %bb10 ]
  %spec.store.select.i = tail call i32 @llvm.smax.i32(i32 %mr.sroa.0.0, i32 %l.sroa.0.0)
  %spec.store.select1.i = tail call noundef i32 @llvm.smax.i32(i32 %r.sroa.0.0, i32 %spec.store.select.i)
  %8 = add i32 %spec.store.select1.i, 1
  br label %bb19
}

; Function Attrs: nofree nounwind nonlazybind uwtable
define dso_local void @printMaxLevel(ptr noundef %ptr) unnamed_addr #6 {
start:
  %_3 = tail call noundef i32 @maxLevel(ptr noundef %ptr) #19
  %0 = icmp eq i32 %_3, 0
  br i1 %0, label %bb2, label %bb4

bb2:                                              ; preds = %start
  %puts = tail call i32 @puts(ptr nonnull dereferenceable(1) @str.16)
  br label %bb6

bb4:                                              ; preds = %start
  %max_0 = add i32 %_3, -1
  %_8 = tail call noundef i32 (ptr, ...) @printf(ptr noundef nonnull dereferenceable(1) @alloc_87551382a9de3243abbfdbda2f0b586b, i32 noundef %max_0) #19
  br label %bb6

bb6:                                              ; preds = %bb4, %bb2
  ret void
}

; program_001::main
; Function Attrs: noreturn nounwind nonlazybind uwtable
define internal void @_ZN11program_0014main17h3a66ec62d895b4b5E() unnamed_addr #3 {
start:
; call program_001::main_0
  tail call fastcc void @_ZN11program_0016main_017h9670666fd4d70dd4E()
  unreachable
}

; std::rt::lang_start_internal
; Function Attrs: nonlazybind uwtable
declare noundef i64 @_ZN3std2rt19lang_start_internal17h6070930d3648b946E(ptr noundef nonnull align 1, ptr noalias noundef readonly align 8 dereferenceable(48), i64 noundef, ptr noundef, i8 noundef) unnamed_addr #0

; Function Attrs: nounwind nonlazybind uwtable
declare noundef range(i32 0, 10) i32 @rust_eh_personality(i32 noundef, i32 noundef, i64 noundef, ptr noundef, ptr noundef) unnamed_addr #4

; Function Attrs: nofree nounwind nonlazybind uwtable
declare noundef i32 @printf(ptr nocapture noundef readonly, ...) unnamed_addr #6

; Function Attrs: nofree nounwind nonlazybind uwtable
declare noundef i32 @scanf(ptr nocapture noundef readonly, ...) unnamed_addr #6

; Function Attrs: nofree noreturn nounwind nonlazybind uwtable
declare void @exit(i32 noundef) unnamed_addr #10

; Function Attrs: nofree nounwind nonlazybind uwtable
declare noundef i32 @putchar(i32 noundef) unnamed_addr #6

; Function Attrs: mustprogress nofree nounwind nonlazybind willreturn allockind("alloc,uninitialized") allocsize(0) memory(inaccessiblemem: readwrite) uwtable
declare noalias noundef ptr @malloc(i64 noundef) unnamed_addr #11

; core::panicking::panic_bounds_check
; Function Attrs: cold minsize noinline noreturn nonlazybind optsize uwtable
declare void @_ZN4core9panicking18panic_bounds_check17h27d1e4f0cb1112dfE(i64 noundef, i64 noundef, ptr noalias noundef readonly align 8 dereferenceable(24)) unnamed_addr #12

; core::panicking::panic_cannot_unwind
; Function Attrs: cold minsize noinline noreturn nounwind nonlazybind optsize uwtable
declare void @_ZN4core9panicking19panic_cannot_unwind17h8a676681fe866bf0E() unnamed_addr #13

; Function Attrs: mustprogress nounwind nonlazybind willreturn allockind("free") memory(argmem: readwrite, inaccessiblemem: readwrite) uwtable
declare void @free(ptr allocptr nocapture noundef) unnamed_addr #14

; Function Attrs: nofree nounwind nonlazybind uwtable
declare noundef i32 @getchar() unnamed_addr #6

; Function Attrs: nonlazybind
define noundef i32 @main(i32 %0, ptr %1) unnamed_addr #15 {
top:
  %_7.i = alloca [8 x i8], align 8
  %2 = sext i32 %0 to i64
  call void @llvm.lifetime.start.p0(i64 8, ptr nonnull %_7.i)
  store ptr @_ZN11program_0014main17h3a66ec62d895b4b5E, ptr %_7.i, align 8
; call std::rt::lang_start_internal
  %_0.i = call noundef i64 @_ZN3std2rt19lang_start_internal17h6070930d3648b946E(ptr noundef nonnull align 1 %_7.i, ptr noalias noundef nonnull readonly align 8 dereferenceable(48) @vtable.0, i64 noundef %2, ptr noundef %1, i8 noundef 0)
  call void @llvm.lifetime.end.p0(i64 8, ptr nonnull %_7.i)
  %3 = trunc i64 %_0.i to i32
  ret i32 %3
}

; Function Attrs: mustprogress nocallback nofree nosync nounwind willreturn memory(argmem: readwrite)
declare void @llvm.lifetime.start.p0(i64 immarg, ptr nocapture) #16

; Function Attrs: mustprogress nocallback nofree nosync nounwind willreturn memory(argmem: readwrite)
declare void @llvm.lifetime.end.p0(i64 immarg, ptr nocapture) #16

; Function Attrs: nofree nounwind nonlazybind
declare noundef i32 @puts(ptr nocapture noundef readonly) local_unnamed_addr #17

; Function Attrs: nocallback nofree nosync nounwind speculatable willreturn memory(none)
declare i32 @llvm.smax.i32(i32, i32) #18

attributes #0 = { nonlazybind uwtable "probe-stack"="inline-asm" "target-cpu"="x86-64" }
attributes #1 = { inlinehint nonlazybind uwtable "probe-stack"="inline-asm" "target-cpu"="x86-64" }
attributes #2 = { noinline nonlazybind uwtable "probe-stack"="inline-asm" "target-cpu"="x86-64" }
attributes #3 = { noreturn nounwind nonlazybind uwtable "probe-stack"="inline-asm" "target-cpu"="x86-64" }
attributes #4 = { nounwind nonlazybind uwtable "probe-stack"="inline-asm" "target-cpu"="x86-64" }
attributes #5 = { nofree norecurse nosync nounwind nonlazybind memory(argmem: read) uwtable "probe-stack"="inline-asm" "target-cpu"="x86-64" }
attributes #6 = { nofree nounwind nonlazybind uwtable "probe-stack"="inline-asm" "target-cpu"="x86-64" }
attributes #7 = { nofree nosync nounwind nonlazybind memory(read, inaccessiblemem: none) uwtable "probe-stack"="inline-asm" "target-cpu"="x86-64" }
attributes #8 = { nofree norecurse nosync nounwind nonlazybind memory(read, inaccessiblemem: none) uwtable "probe-stack"="inline-asm" "target-cpu"="x86-64" }
attributes #9 = { mustprogress nofree norecurse nosync nounwind nonlazybind willreturn memory(none) uwtable "probe-stack"="inline-asm" "target-cpu"="x86-64" }
attributes #10 = { nofree noreturn nounwind nonlazybind uwtable "probe-stack"="inline-asm" "target-cpu"="x86-64" }
attributes #11 = { mustprogress nofree nounwind nonlazybind willreturn allockind("alloc,uninitialized") allocsize(0) memory(inaccessiblemem: readwrite) uwtable "alloc-family"="malloc" "probe-stack"="inline-asm" "target-cpu"="x86-64" }
attributes #12 = { cold minsize noinline noreturn nonlazybind optsize uwtable "probe-stack"="inline-asm" "target-cpu"="x86-64" }
attributes #13 = { cold minsize noinline noreturn nounwind nonlazybind optsize uwtable "probe-stack"="inline-asm" "target-cpu"="x86-64" }
attributes #14 = { mustprogress nounwind nonlazybind willreturn allockind("free") memory(argmem: readwrite, inaccessiblemem: readwrite) uwtable "alloc-family"="malloc" "probe-stack"="inline-asm" "target-cpu"="x86-64" }
attributes #15 = { nonlazybind "probe-stack"="inline-asm" "target-cpu"="x86-64" }
attributes #16 = { mustprogress nocallback nofree nosync nounwind willreturn memory(argmem: readwrite) }
attributes #17 = { nofree nounwind nonlazybind }
attributes #18 = { nocallback nofree nosync nounwind speculatable willreturn memory(none) }
attributes #19 = { nounwind }
attributes #20 = { cold noreturn nounwind }
attributes #21 = { noreturn }

!llvm.module.flags = !{!0, !1, !2}
!llvm.ident = !{!3}

!0 = !{i32 8, !"PIC Level", i32 2}
!1 = !{i32 7, !"PIE Level", i32 2}
!2 = !{i32 2, !"RtLibUseGOT", i32 1}
!3 = !{!"rustc version 1.88.0-nightly (0b45675cf 2025-03-31)"}
!4 = !{}
!5 = !{i64 14874562671204403}
!6 = !{!7}
!7 = distinct !{!7, !8, !"_ZN3std2rt10lang_start28_$u7b$$u7b$closure$u7d$$u7d$17h0abb766a6bdea635E: %_1"}
!8 = distinct !{!8, !"_ZN3std2rt10lang_start28_$u7b$$u7b$closure$u7d$$u7d$17h0abb766a6bdea635E"}
!9 = !{!10}
!10 = distinct !{!10, !11}
!11 = distinct !{!11, !"LVerDomain"}
!12 = !{!13}
!13 = distinct !{!13, !11}
!14 = !{!15, !10, !16}
!15 = distinct !{!15, !11}
!16 = distinct !{!16, !11}
!17 = !{!16}
!18 = !{!15}
!19 = !{!10, !16}
!20 = distinct !{!20, !21, !22}
!21 = !{!"llvm.loop.isvectorized", i32 1}
!22 = !{!"llvm.loop.unroll.runtime.disable"}
!23 = distinct !{!23, !21}
!24 = !{!25}
!25 = distinct !{!25, !26}
!26 = distinct !{!26, !"LVerDomain"}
!27 = !{!28}
!28 = distinct !{!28, !26}
!29 = !{!30, !25, !31}
!30 = distinct !{!30, !26}
!31 = distinct !{!31, !26}
!32 = !{!31}
!33 = !{!30}
!34 = !{!25, !31}
!35 = distinct !{!35, !21, !22}
!36 = distinct !{!36, !21}
