; ModuleID = 'ek3sfxc4ueh4rhr2v9igyq8ms'
source_filename = "ek3sfxc4ueh4rhr2v9igyq8ms"
target datalayout = "e-m:e-p270:32:32-p271:32:32-p272:64:64-i64:64-i128:128-f80:128-n8:16:32:64-S128"
target triple = "x86_64-unknown-linux-gnu"

@alloc_0ed0763d8bf93ac79247e07858374e35 = private unnamed_addr constant [210 x i8] c"unsafe precondition(s) violated: ptr::offset requires the address calculation to not overflow\0A\0AThis indicates a bug in the program. This Undefined Behavior check is optional, and cannot be relied on for safety.", align 1
@Head = global [8 x i8] zeroinitializer, align 8
@alloc_f5ffd2fd1476bab43ad89fb40c72d0c5 = private unnamed_addr constant [10 x i8] c"src/lib.rs", align 1
@alloc_6d4b9a63a3a7d57837cacbb81faee635 = private unnamed_addr constant <{ ptr, [16 x i8] }> <{ ptr @alloc_f5ffd2fd1476bab43ad89fb40c72d0c5, [16 x i8] c"\0A\00\00\00\00\00\00\00#\00\00\00\05\00\00\00" }>, align 8
@alloc_1246e0776b198dcc257b8c1ce1bfa04e = private unnamed_addr constant <{ ptr, [16 x i8] }> <{ ptr @alloc_f5ffd2fd1476bab43ad89fb40c72d0c5, [16 x i8] c"\0A\00\00\00\00\00\00\00$\00\00\00\05\00\00\00" }>, align 8
@alloc_91938f4c0a8778134eecfb5b5f91b93a = private unnamed_addr constant <{ ptr, [16 x i8] }> <{ ptr @alloc_f5ffd2fd1476bab43ad89fb40c72d0c5, [16 x i8] c"\0A\00\00\00\00\00\00\00.\00\00\00\1F\00\00\00" }>, align 8
@alloc_7830c888f7e3366782590f9eab6adbed = private unnamed_addr constant <{ ptr, [16 x i8] }> <{ ptr @alloc_f5ffd2fd1476bab43ad89fb40c72d0c5, [16 x i8] c"\0A\00\00\00\00\00\00\00.\00\00\00\05\00\00\00" }>, align 8
@alloc_8b264d62c90359aaebb8e205a8bb4599 = private unnamed_addr constant <{ ptr, [16 x i8] }> <{ ptr @alloc_f5ffd2fd1476bab43ad89fb40c72d0c5, [16 x i8] c"\0A\00\00\00\00\00\00\00/\00\00\00\0C\00\00\00" }>, align 8
@alloc_866488907dc9ed6d0b3031e37d2b0e6e = private unnamed_addr constant <{ ptr, [16 x i8] }> <{ ptr @alloc_f5ffd2fd1476bab43ad89fb40c72d0c5, [16 x i8] c"\0A\00\00\00\00\00\00\002\00\00\00&\00\00\00" }>, align 8
@alloc_218d9d0452f6bf4ce299c6265c8e4b17 = private unnamed_addr constant <{ ptr, [16 x i8] }> <{ ptr @alloc_f5ffd2fd1476bab43ad89fb40c72d0c5, [16 x i8] c"\0A\00\00\00\00\00\00\003\00\00\00\09\00\00\00" }>, align 8
@alloc_6d543bd6dce114ee494eab7b6b856a66 = private unnamed_addr constant <{ ptr, [16 x i8] }> <{ ptr @alloc_f5ffd2fd1476bab43ad89fb40c72d0c5, [16 x i8] c"\0A\00\00\00\00\00\00\004\00\00\00\1B\00\00\00" }>, align 8
@alloc_c0984e0c1315b13285c38c2571ace8bd = private unnamed_addr constant <{ ptr, [16 x i8] }> <{ ptr @alloc_f5ffd2fd1476bab43ad89fb40c72d0c5, [16 x i8] c"\0A\00\00\00\00\00\00\004\00\00\00\09\00\00\00" }>, align 8
@alloc_e402e427c789862e60eb92ba3d43ecff = private unnamed_addr constant <{ ptr, [16 x i8] }> <{ ptr @alloc_f5ffd2fd1476bab43ad89fb40c72d0c5, [16 x i8] c"\0A\00\00\00\00\00\00\00@\00\00\00\10\00\00\00" }>, align 8
@alloc_96f5997154bb046d9f8ce9e7f25f6267 = private unnamed_addr constant <{ ptr, [16 x i8] }> <{ ptr @alloc_f5ffd2fd1476bab43ad89fb40c72d0c5, [16 x i8] c"\0A\00\00\00\00\00\00\00A\00\00\00\16\00\00\00" }>, align 8
@alloc_2992717b1fbbb5fccf004109e2b6b4b3 = private unnamed_addr constant <{ ptr, [16 x i8] }> <{ ptr @alloc_f5ffd2fd1476bab43ad89fb40c72d0c5, [16 x i8] c"\0A\00\00\00\00\00\00\00I\00\00\00\0C\00\00\00" }>, align 8
@alloc_b929c71616281bfd1be2bd4038d3ddf1 = private unnamed_addr constant [4 x i8] c"%d \00", align 1
@alloc_c25822b2cbc962a61c98a24c66a66ba5 = private unnamed_addr constant <{ ptr, [16 x i8] }> <{ ptr @alloc_f5ffd2fd1476bab43ad89fb40c72d0c5, [16 x i8] c"\0A\00\00\00\00\00\00\00K\00\00\00>\00\00\00" }>, align 8
@alloc_b91fbfdeaccd5d788465fab3755bda06 = private unnamed_addr constant <{ ptr, [16 x i8] }> <{ ptr @alloc_f5ffd2fd1476bab43ad89fb40c72d0c5, [16 x i8] c"\0A\00\00\00\00\00\00\00L\00\00\00\10\00\00\00" }>, align 8
@alloc_acbd0bffe616a7429f2df243e78d0c70 = private unnamed_addr constant <{ ptr, [16 x i8] }> <{ ptr @alloc_f5ffd2fd1476bab43ad89fb40c72d0c5, [16 x i8] c"\0A\00\00\00\00\00\00\00M\00\00\00\16\00\00\00" }>, align 8
@alloc_f3588b28b94f0809fcc8d717033d3e48 = private unnamed_addr constant [2 x i8] c"\0A\00", align 1
@alloc_e47319a08cdb4126b20b546e37f14038 = private unnamed_addr constant <{ ptr, [16 x i8] }> <{ ptr @alloc_f5ffd2fd1476bab43ad89fb40c72d0c5, [16 x i8] c"\0A\00\00\00\00\00\00\00Z\00\00\00<\00\00\00" }>, align 8
@alloc_692ad4bf9035ba1c9d2c08f07df73e9a = private unnamed_addr constant <{ ptr, [16 x i8] }> <{ ptr @alloc_f5ffd2fd1476bab43ad89fb40c72d0c5, [16 x i8] c"\0A\00\00\00\00\00\00\00a\00\00\00\13\00\00\00" }>, align 8
@alloc_c12e5f5022cecdfa71be428810d59290 = private unnamed_addr constant <{ ptr, [16 x i8] }> <{ ptr @alloc_f5ffd2fd1476bab43ad89fb40c72d0c5, [16 x i8] c"\0A\00\00\00\00\00\00\00a\00\00\00#\00\00\00" }>, align 8
@alloc_3270b2b68331a3bcb1255f952a94fbae = private unnamed_addr constant <{ ptr, [16 x i8] }> <{ ptr @alloc_f5ffd2fd1476bab43ad89fb40c72d0c5, [16 x i8] c"\0A\00\00\00\00\00\00\00d\00\00\00\1C\00\00\00" }>, align 8
@alloc_e577449b88d269ebd831e409cc97e8ac = private unnamed_addr constant <{ ptr, [16 x i8] }> <{ ptr @alloc_f5ffd2fd1476bab43ad89fb40c72d0c5, [16 x i8] c"\0A\00\00\00\00\00\00\00d\00\00\00\0D\00\00\00" }>, align 8
@alloc_88d35e2688e20d58b2364e2e9f502ca3 = private unnamed_addr constant <{ ptr, [16 x i8] }> <{ ptr @alloc_f5ffd2fd1476bab43ad89fb40c72d0c5, [16 x i8] c"\0A\00\00\00\00\00\00\00e\00\00\00\0D\00\00\00" }>, align 8
@alloc_25cccdb447fd3f34ffdfc4817c88ace6 = private unnamed_addr constant <{ ptr, [16 x i8] }> <{ ptr @alloc_f5ffd2fd1476bab43ad89fb40c72d0c5, [16 x i8] c"\0A\00\00\00\00\00\00\00f\00\00\00\0D\00\00\00" }>, align 8
@alloc_b49fe86d45df92025359f52a35ac792a = private unnamed_addr constant <{ ptr, [16 x i8] }> <{ ptr @alloc_f5ffd2fd1476bab43ad89fb40c72d0c5, [16 x i8] c"\0A\00\00\00\00\00\00\00b\00\00\00\18\00\00\00" }>, align 8
@alloc_adfcd0046ccc5dda0b60e691e47e9a06 = private unnamed_addr constant <{ ptr, [16 x i8] }> <{ ptr @alloc_f5ffd2fd1476bab43ad89fb40c72d0c5, [16 x i8] c"\0A\00\00\00\00\00\00\00o\00\00\00\18\00\00\00" }>, align 8
@alloc_35903e2beae833791f15e8c3785889c6 = private unnamed_addr constant <{ ptr, [16 x i8] }> <{ ptr @alloc_f5ffd2fd1476bab43ad89fb40c72d0c5, [16 x i8] c"\0A\00\00\00\00\00\00\00o\00\00\00\09\00\00\00" }>, align 8
@alloc_f2f081886f331dc949da0f4fbdad1cbe = private unnamed_addr constant <{ ptr, [16 x i8] }> <{ ptr @alloc_f5ffd2fd1476bab43ad89fb40c72d0c5, [16 x i8] c"\0A\00\00\00\00\00\00\00p\00\00\00\09\00\00\00" }>, align 8
@alloc_e4a476e1b93788e58e8e068cccf75bd2 = private unnamed_addr constant <{ ptr, [16 x i8] }> <{ ptr @alloc_f5ffd2fd1476bab43ad89fb40c72d0c5, [16 x i8] c"\0A\00\00\00\00\00\00\00k\00\00\00\14\00\00\00" }>, align 8
@alloc_895efbad2db1396e235002dca0141b1a = private unnamed_addr constant <{ ptr, [16 x i8] }> <{ ptr @alloc_f5ffd2fd1476bab43ad89fb40c72d0c5, [16 x i8] c"\0A\00\00\00\00\00\00\00z\00\00\00 \00\00\00" }>, align 8
@alloc_74c5aee057f6a6d15e806701ad54d84c = private unnamed_addr constant <{ ptr, [16 x i8] }> <{ ptr @alloc_f5ffd2fd1476bab43ad89fb40c72d0c5, [16 x i8] c"\0A\00\00\00\00\00\00\00~\00\00\00\0F\00\00\00" }>, align 8
@alloc_bb5167234962db86f4cbde2cecdc9677 = private unnamed_addr constant <{ ptr, [16 x i8] }> <{ ptr @alloc_f5ffd2fd1476bab43ad89fb40c72d0c5, [16 x i8] c"\0A\00\00\00\00\00\00\00~\00\00\00\22\00\00\00" }>, align 8
@alloc_a0a27c72f5b3418860f8378a7362a192 = private unnamed_addr constant <{ ptr, [16 x i8] }> <{ ptr @alloc_f5ffd2fd1476bab43ad89fb40c72d0c5, [16 x i8] c"\0A\00\00\00\00\00\00\00\81\00\00\00\1B\00\00\00" }>, align 8
@alloc_89961032cc8c4a7dcdb0a48b5861b468 = private unnamed_addr constant <{ ptr, [16 x i8] }> <{ ptr @alloc_f5ffd2fd1476bab43ad89fb40c72d0c5, [16 x i8] c"\0A\00\00\00\00\00\00\00\81\00\00\00\09\00\00\00" }>, align 8
@alloc_4af4b2fa23c25dbb4f30b57378ba7170 = private unnamed_addr constant <{ ptr, [16 x i8] }> <{ ptr @alloc_f5ffd2fd1476bab43ad89fb40c72d0c5, [16 x i8] c"\0A\00\00\00\00\00\00\00\82\00\00\00\11\00\00\00" }>, align 8
@alloc_6ed4b3e0c769c9d78600764f466ec42a = private unnamed_addr constant <{ ptr, [16 x i8] }> <{ ptr @alloc_f5ffd2fd1476bab43ad89fb40c72d0c5, [16 x i8] c"\0A\00\00\00\00\00\00\00\83\00\00\00\0E\00\00\00" }>, align 8
@alloc_96f7bad295e1b0b894b15c6a29900e75 = private unnamed_addr constant <{ ptr, [16 x i8] }> <{ ptr @alloc_f5ffd2fd1476bab43ad89fb40c72d0c5, [16 x i8] c"\0A\00\00\00\00\00\00\00\84\00\00\00\10\00\00\00" }>, align 8
@alloc_9d2ddb5b6f6721ff4e9bffc51cea228b = private unnamed_addr constant <{ ptr, [16 x i8] }> <{ ptr @alloc_f5ffd2fd1476bab43ad89fb40c72d0c5, [16 x i8] c"\0A\00\00\00\00\00\00\00\84\00\00\00\09\00\00\00" }>, align 8
@alloc_9613ad750744247a68a1ddb0f14b5f84 = private unnamed_addr constant <{ ptr, [16 x i8] }> <{ ptr @alloc_f5ffd2fd1476bab43ad89fb40c72d0c5, [16 x i8] c"\0A\00\00\00\00\00\00\00\7F\00\00\00\17\00\00\00" }>, align 8
@alloc_9502eb7a5cde51e8eb6777232304421a = private unnamed_addr constant <{ ptr, [16 x i8] }> <{ ptr @alloc_f5ffd2fd1476bab43ad89fb40c72d0c5, [16 x i8] c"\0A\00\00\00\00\00\00\00\8D\00\00\00\1D\00\00\00" }>, align 8
@alloc_5086773ec26bb191205697fb7e200158 = private unnamed_addr constant <{ ptr, [16 x i8] }> <{ ptr @alloc_f5ffd2fd1476bab43ad89fb40c72d0c5, [16 x i8] c"\0A\00\00\00\00\00\00\00\8D\00\00\00\09\00\00\00" }>, align 8
@alloc_a813b41cecb5552172b3797f463c3a5d = private unnamed_addr constant <{ ptr, [16 x i8] }> <{ ptr @alloc_f5ffd2fd1476bab43ad89fb40c72d0c5, [16 x i8] c"\0A\00\00\00\00\00\00\00\8E\00\00\00\11\00\00\00" }>, align 8
@alloc_850972be3976463c2d85b26cd253ea7e = private unnamed_addr constant <{ ptr, [16 x i8] }> <{ ptr @alloc_f5ffd2fd1476bab43ad89fb40c72d0c5, [16 x i8] c"\0A\00\00\00\00\00\00\00\89\00\00\00\17\00\00\00" }>, align 8

; core::intrinsics::cold_path
; Function Attrs: cold nounwind nonlazybind
define internal void @_ZN4core10intrinsics9cold_path17h4b41d629a78e274eE() unnamed_addr #0 {
start:
  ret void
}

; core::ptr::mut_ptr::<impl *mut T>::offset::precondition_check
; Function Attrs: inlinehint nounwind nonlazybind
define internal void @"_ZN4core3ptr7mut_ptr31_$LT$impl$u20$$BP$mut$u20$T$GT$6offset18precondition_check17h831627260f5cbd58E"(ptr %this, i64 %count, i64 %size) unnamed_addr #1 {
start:
  %0 = call { i64, i1 } @llvm.smul.with.overflow.i64(i64 %count, i64 %size)
  %_10.0 = extractvalue { i64, i1 } %0, 0
  %_10.1 = extractvalue { i64, i1 } %0, 1
  br i1 %_10.1, label %bb3, label %bb5

bb5:                                              ; preds = %start
  %self = ptrtoint ptr %this to i64
  %1 = call { i64, i1 } @llvm.uadd.with.overflow.i64(i64 %self, i64 %_10.0)
  %_19.0 = extractvalue { i64, i1 } %1, 0
  %_19.1 = extractvalue { i64, i1 } %1, 1
  %_17 = icmp slt i64 %_10.0, 0
  %overflow = xor i1 %_19.1, %_17
  %_4 = xor i1 %overflow, true
  br i1 %_4, label %bb1, label %bb2

bb3:                                              ; preds = %start
  br label %bb2

bb2:                                              ; preds = %bb3, %bb5
; call core::panicking::panic_nounwind
  call void @_ZN4core9panicking14panic_nounwind17h211d9ce8d63f12e7E(ptr align 1 @alloc_0ed0763d8bf93ac79247e07858374e35, i64 210) #6
  unreachable

bb1:                                              ; preds = %bb5
  ret void
}

; core::ptr::mut_ptr::<impl *mut T>::is_null
; Function Attrs: inlinehint nounwind nonlazybind
define internal zeroext i1 @"_ZN4core3ptr7mut_ptr31_$LT$impl$u20$$BP$mut$u20$T$GT$7is_null17ha59c2f0a24f8c97fE"(ptr %self) unnamed_addr #1 {
start:
  %_3 = ptrtoint ptr %self to i64
  %_0 = icmp eq i64 %_3, 0
  ret i1 %_0
}

; Function Attrs: nounwind nonlazybind
define ptr @createCircularNode(i32 %value) unnamed_addr #2 {
start:
  %_2 = call ptr @malloc(i64 16) #7
  %_12 = ptrtoint ptr %_2 to i64
  %_15 = and i64 %_12, 7
  %_16 = icmp eq i64 %_15, 0
  br i1 %_16, label %bb4, label %panic

bb4:                                              ; preds = %start
  %_18 = ptrtoint ptr %_2 to i64
  %_21 = icmp eq i64 %_18, 0
  %_22 = and i1 %_21, true
  %_23 = xor i1 %_22, true
  br i1 %_23, label %bb5, label %panic1

panic:                                            ; preds = %start
; call core::panicking::panic_misaligned_pointer_dereference
  call void @_ZN4core9panicking36panic_misaligned_pointer_dereference17hcc3cbded9382b6e5E(i64 8, i64 %_12, ptr align 8 @alloc_6d4b9a63a3a7d57837cacbb81faee635) #6
  unreachable

bb5:                                              ; preds = %bb4
  store i32 %value, ptr %_2, align 8
  %_6 = ptrtoint ptr %_2 to i64
  %_9 = and i64 %_6, 7
  %_10 = icmp eq i64 %_9, 0
  br i1 %_10, label %bb3, label %panic2

panic1:                                           ; preds = %bb4
; call core::panicking::panic_null_pointer_dereference
  call void @_ZN4core9panicking30panic_null_pointer_dereference17hf718fcc86a223baaE(ptr align 8 @alloc_6d4b9a63a3a7d57837cacbb81faee635) #6
  unreachable

bb3:                                              ; preds = %bb5
  %_25 = ptrtoint ptr %_2 to i64
  %_28 = icmp eq i64 %_25, 0
  %_29 = and i1 %_28, true
  %_30 = xor i1 %_29, true
  br i1 %_30, label %bb6, label %panic3

panic2:                                           ; preds = %bb5
; call core::panicking::panic_misaligned_pointer_dereference
  call void @_ZN4core9panicking36panic_misaligned_pointer_dereference17hcc3cbded9382b6e5E(i64 8, i64 %_6, ptr align 8 @alloc_1246e0776b198dcc257b8c1ce1bfa04e) #6
  unreachable

bb6:                                              ; preds = %bb3
  %0 = getelementptr inbounds i8, ptr %_2, i64 8
  store ptr %_2, ptr %0, align 8
  ret ptr %_2

panic3:                                           ; preds = %bb3
; call core::panicking::panic_null_pointer_dereference
  call void @_ZN4core9panicking30panic_null_pointer_dereference17hf718fcc86a223baaE(ptr align 8 @alloc_1246e0776b198dcc257b8c1ce1bfa04e) #6
  unreachable
}

; Function Attrs: nounwind nonlazybind
define void @createLinkList(ptr %values, i32 %length) unnamed_addr #2 {
start:
  %i = alloca [4 x i8], align 4
  %current = alloca [8 x i8], align 8
  %last = alloca [8 x i8], align 8
  store ptr null, ptr %last, align 8
  store ptr null, ptr %current, align 8
; call core::ptr::mut_ptr::<impl *mut T>::offset::precondition_check
  call void @"_ZN4core3ptr7mut_ptr31_$LT$impl$u20$$BP$mut$u20$T$GT$6offset18precondition_check17h831627260f5cbd58E"(ptr %values, i64 0, i64 4) #7
  %_61 = ptrtoint ptr %values to i64
  %_64 = and i64 %_61, 3
  %_65 = icmp eq i64 %_64, 0
  br i1 %_65, label %bb14, label %panic

bb14:                                             ; preds = %start
  %_67 = ptrtoint ptr %values to i64
  %_70 = icmp eq i64 %_67, 0
  %_71 = and i1 %_70, true
  %_72 = xor i1 %_71, true
  br i1 %_72, label %bb15, label %panic1

panic:                                            ; preds = %start
; call core::panicking::panic_misaligned_pointer_dereference
  call void @_ZN4core9panicking36panic_misaligned_pointer_dereference17hcc3cbded9382b6e5E(i64 4, i64 %_61, ptr align 8 @alloc_91938f4c0a8778134eecfb5b5f91b93a) #6
  unreachable

bb15:                                             ; preds = %bb14
  %_6 = load i32, ptr %values, align 4
  %_5 = call ptr @createCircularNode(i32 %_6) #7
  %_77 = icmp eq i64 ptrtoint (ptr @Head to i64), 0
  %_78 = and i1 %_77, true
  %_79 = xor i1 %_78, true
  br i1 %_79, label %bb16, label %panic2

panic1:                                           ; preds = %bb14
; call core::panicking::panic_null_pointer_dereference
  call void @_ZN4core9panicking30panic_null_pointer_dereference17hf718fcc86a223baaE(ptr align 8 @alloc_91938f4c0a8778134eecfb5b5f91b93a) #6
  unreachable

bb16:                                             ; preds = %bb15
  store ptr %_5, ptr @Head, align 8
  %_84 = icmp eq i64 ptrtoint (ptr @Head to i64), 0
  %_85 = and i1 %_84, true
  %_86 = xor i1 %_85, true
  br i1 %_86, label %bb17, label %panic3

panic2:                                           ; preds = %bb15
; call core::panicking::panic_null_pointer_dereference
  call void @_ZN4core9panicking30panic_null_pointer_dereference17hf718fcc86a223baaE(ptr align 8 @alloc_7830c888f7e3366782590f9eab6adbed) #6
  unreachable

bb17:                                             ; preds = %bb16
  %_10 = load ptr, ptr @Head, align 8
  store ptr %_10, ptr %last, align 8
  store i32 1, ptr %i, align 4
  br label %bb3

panic3:                                           ; preds = %bb16
; call core::panicking::panic_null_pointer_dereference
  call void @_ZN4core9panicking30panic_null_pointer_dereference17hf718fcc86a223baaE(ptr align 8 @alloc_8b264d62c90359aaebb8e205a8bb4599) #6
  unreachable

bb3:                                              ; preds = %bb21, %bb17
  %_14 = load i32, ptr %i, align 4
  %_13 = icmp slt i32 %_14, %length
  br i1 %_13, label %bb4, label %bb7

bb7:                                              ; preds = %bb3
  ret void

bb4:                                              ; preds = %bb3
  %_19 = load i32, ptr %i, align 4
  %_18 = sext i32 %_19 to i64
; call core::ptr::mut_ptr::<impl *mut T>::offset::precondition_check
  call void @"_ZN4core3ptr7mut_ptr31_$LT$impl$u20$$BP$mut$u20$T$GT$6offset18precondition_check17h831627260f5cbd58E"(ptr %values, i64 %_18, i64 4) #7
  %_0.i = getelementptr inbounds i32, ptr %values, i64 %_18
  %_43 = ptrtoint ptr %_0.i to i64
  %_46 = and i64 %_43, 3
  %_47 = icmp eq i64 %_46, 0
  br i1 %_47, label %bb11, label %panic4

bb11:                                             ; preds = %bb4
  %_88 = ptrtoint ptr %_0.i to i64
  %_91 = icmp eq i64 %_88, 0
  %_92 = and i1 %_91, true
  %_93 = xor i1 %_92, true
  br i1 %_93, label %bb18, label %panic5

panic4:                                           ; preds = %bb4
; call core::panicking::panic_misaligned_pointer_dereference
  call void @_ZN4core9panicking36panic_misaligned_pointer_dereference17hcc3cbded9382b6e5E(i64 4, i64 %_43, ptr align 8 @alloc_866488907dc9ed6d0b3031e37d2b0e6e) #6
  unreachable

bb18:                                             ; preds = %bb11
  %_16 = load i32, ptr %_0.i, align 4
  %_15 = call ptr @createCircularNode(i32 %_16) #7
  store ptr %_15, ptr %current, align 8
  %_20 = load ptr, ptr %current, align 8
  %_36 = load ptr, ptr %last, align 8
  %_37 = ptrtoint ptr %_36 to i64
  %_40 = and i64 %_37, 7
  %_41 = icmp eq i64 %_40, 0
  br i1 %_41, label %bb10, label %panic6

panic5:                                           ; preds = %bb11
; call core::panicking::panic_null_pointer_dereference
  call void @_ZN4core9panicking30panic_null_pointer_dereference17hf718fcc86a223baaE(ptr align 8 @alloc_866488907dc9ed6d0b3031e37d2b0e6e) #6
  unreachable

bb10:                                             ; preds = %bb18
  %_94 = load ptr, ptr %last, align 8
  %_95 = ptrtoint ptr %_94 to i64
  %_98 = icmp eq i64 %_95, 0
  %_99 = and i1 %_98, true
  %_100 = xor i1 %_99, true
  br i1 %_100, label %bb19, label %panic7

panic6:                                           ; preds = %bb18
; call core::panicking::panic_misaligned_pointer_dereference
  call void @_ZN4core9panicking36panic_misaligned_pointer_dereference17hcc3cbded9382b6e5E(i64 8, i64 %_37, ptr align 8 @alloc_218d9d0452f6bf4ce299c6265c8e4b17) #6
  unreachable

bb19:                                             ; preds = %bb10
  %0 = load ptr, ptr %last, align 8
  %1 = getelementptr inbounds i8, ptr %0, i64 8
  store ptr %_20, ptr %1, align 8
  %_105 = icmp eq i64 ptrtoint (ptr @Head to i64), 0
  %_106 = and i1 %_105, true
  %_107 = xor i1 %_106, true
  br i1 %_107, label %bb20, label %panic8

panic7:                                           ; preds = %bb10
; call core::panicking::panic_null_pointer_dereference
  call void @_ZN4core9panicking30panic_null_pointer_dereference17hf718fcc86a223baaE(ptr align 8 @alloc_218d9d0452f6bf4ce299c6265c8e4b17) #6
  unreachable

bb20:                                             ; preds = %bb19
  %_21 = load ptr, ptr @Head, align 8
  %_24 = load ptr, ptr %current, align 8
  %_25 = ptrtoint ptr %_24 to i64
  %_28 = and i64 %_25, 7
  %_29 = icmp eq i64 %_28, 0
  br i1 %_29, label %bb8, label %panic9

panic8:                                           ; preds = %bb19
; call core::panicking::panic_null_pointer_dereference
  call void @_ZN4core9panicking30panic_null_pointer_dereference17hf718fcc86a223baaE(ptr align 8 @alloc_6d543bd6dce114ee494eab7b6b856a66) #6
  unreachable

bb8:                                              ; preds = %bb20
  %_108 = load ptr, ptr %current, align 8
  %_109 = ptrtoint ptr %_108 to i64
  %_112 = icmp eq i64 %_109, 0
  %_113 = and i1 %_112, true
  %_114 = xor i1 %_113, true
  br i1 %_114, label %bb21, label %panic10

panic9:                                           ; preds = %bb20
; call core::panicking::panic_misaligned_pointer_dereference
  call void @_ZN4core9panicking36panic_misaligned_pointer_dereference17hcc3cbded9382b6e5E(i64 8, i64 %_25, ptr align 8 @alloc_c0984e0c1315b13285c38c2571ace8bd) #6
  unreachable

bb21:                                             ; preds = %bb8
  %2 = load ptr, ptr %current, align 8
  %3 = getelementptr inbounds i8, ptr %2, i64 8
  store ptr %_21, ptr %3, align 8
  %_23 = load ptr, ptr %current, align 8
  store ptr %_23, ptr %last, align 8
  %4 = load i32, ptr %i, align 4
  %5 = add i32 %4, 1
  store i32 %5, ptr %i, align 4
  br label %bb3

panic10:                                          ; preds = %bb8
; call core::panicking::panic_null_pointer_dereference
  call void @_ZN4core9panicking30panic_null_pointer_dereference17hf718fcc86a223baaE(ptr align 8 @alloc_c0984e0c1315b13285c38c2571ace8bd) #6
  unreachable
}

; Function Attrs: nounwind nonlazybind
define i32 @calculateLength(ptr %0) unnamed_addr #2 {
start:
  %length = alloca [4 x i8], align 4
  %head = alloca [8 x i8], align 8
  store ptr %0, ptr %head, align 8
  store i32 0, ptr %length, align 4
  br label %bb1

bb1:                                              ; preds = %bb6, %start
  %1 = load i32, ptr %length, align 4
  %2 = add i32 %1, 1
  store i32 %2, ptr %length, align 4
  %_14 = load ptr, ptr %head, align 8
  %_15 = ptrtoint ptr %_14 to i64
  %_18 = and i64 %_15, 7
  %_19 = icmp eq i64 %_18, 0
  br i1 %_19, label %bb4, label %panic

bb4:                                              ; preds = %bb1
  %_20 = load ptr, ptr %head, align 8
  %_21 = ptrtoint ptr %_20 to i64
  %_24 = icmp eq i64 %_21, 0
  %_25 = and i1 %_24, true
  %_26 = xor i1 %_25, true
  br i1 %_26, label %bb5, label %panic1

panic:                                            ; preds = %bb1
; call core::panicking::panic_misaligned_pointer_dereference
  call void @_ZN4core9panicking36panic_misaligned_pointer_dereference17hcc3cbded9382b6e5E(i64 8, i64 %_15, ptr align 8 @alloc_e402e427c789862e60eb92ba3d43ecff) #6
  unreachable

bb5:                                              ; preds = %bb4
  %3 = load ptr, ptr %head, align 8
  %4 = getelementptr inbounds i8, ptr %3, i64 8
  %_3 = load ptr, ptr %4, align 8
  store ptr %_3, ptr %head, align 8
  %_5 = load ptr, ptr %head, align 8
  %_31 = icmp eq i64 ptrtoint (ptr @Head to i64), 0
  %_32 = and i1 %_31, true
  %_33 = xor i1 %_32, true
  br i1 %_33, label %bb6, label %panic2

panic1:                                           ; preds = %bb4
; call core::panicking::panic_null_pointer_dereference
  call void @_ZN4core9panicking30panic_null_pointer_dereference17hf718fcc86a223baaE(ptr align 8 @alloc_e402e427c789862e60eb92ba3d43ecff) #6
  unreachable

bb6:                                              ; preds = %bb5
  %_6 = load ptr, ptr @Head, align 8
  %_4 = icmp ne ptr %_5, %_6
  br i1 %_4, label %bb1, label %bb2

panic2:                                           ; preds = %bb5
; call core::panicking::panic_null_pointer_dereference
  call void @_ZN4core9panicking30panic_null_pointer_dereference17hf718fcc86a223baaE(ptr align 8 @alloc_96f5997154bb046d9f8ce9e7f25f6267) #6
  unreachable

bb2:                                              ; preds = %bb6
  %_0 = load i32, ptr %length, align 4
  ret i32 %_0
}

; Function Attrs: nounwind nonlazybind
define void @PrintList(ptr %0) unnamed_addr #2 {
start:
  %head = alloca [8 x i8], align 8
  store ptr %0, ptr %head, align 8
  %_48 = icmp eq i64 ptrtoint (ptr @Head to i64), 0
  %_49 = and i1 %_48, true
  %_50 = xor i1 %_49, true
  br i1 %_50, label %bb9, label %panic

bb9:                                              ; preds = %start
  %_2 = load ptr, ptr @Head, align 8
  store ptr %_2, ptr %head, align 8
  br label %bb1

panic:                                            ; preds = %start
; call core::panicking::panic_null_pointer_dereference
  call void @_ZN4core9panicking30panic_null_pointer_dereference17hf718fcc86a223baaE(ptr align 8 @alloc_2992717b1fbbb5fccf004109e2b6b4b3) #6
  unreachable

bb1:                                              ; preds = %bb12, %bb9
  %_32 = load ptr, ptr %head, align 8
  %_33 = ptrtoint ptr %_32 to i64
  %_36 = and i64 %_33, 7
  %_37 = icmp eq i64 %_36, 0
  br i1 %_37, label %bb7, label %panic1

bb7:                                              ; preds = %bb1
  %_51 = load ptr, ptr %head, align 8
  %_52 = ptrtoint ptr %_51 to i64
  %_55 = icmp eq i64 %_52, 0
  %_56 = and i1 %_55, true
  %_57 = xor i1 %_56, true
  br i1 %_57, label %bb10, label %panic2

panic1:                                           ; preds = %bb1
; call core::panicking::panic_misaligned_pointer_dereference
  call void @_ZN4core9panicking36panic_misaligned_pointer_dereference17hcc3cbded9382b6e5E(i64 8, i64 %_33, ptr align 8 @alloc_c25822b2cbc962a61c98a24c66a66ba5) #6
  unreachable

bb10:                                             ; preds = %bb7
  %1 = load ptr, ptr %head, align 8
  %_9 = load i32, ptr %1, align 8
  %_4 = call i32 (ptr, ...) @printf(ptr @alloc_b929c71616281bfd1be2bd4038d3ddf1, i32 %_9) #7
  %_26 = load ptr, ptr %head, align 8
  %_27 = ptrtoint ptr %_26 to i64
  %_30 = and i64 %_27, 7
  %_31 = icmp eq i64 %_30, 0
  br i1 %_31, label %bb6, label %panic3

panic2:                                           ; preds = %bb7
; call core::panicking::panic_null_pointer_dereference
  call void @_ZN4core9panicking30panic_null_pointer_dereference17hf718fcc86a223baaE(ptr align 8 @alloc_c25822b2cbc962a61c98a24c66a66ba5) #6
  unreachable

bb6:                                              ; preds = %bb10
  %_58 = load ptr, ptr %head, align 8
  %_59 = ptrtoint ptr %_58 to i64
  %_62 = icmp eq i64 %_59, 0
  %_63 = and i1 %_62, true
  %_64 = xor i1 %_63, true
  br i1 %_64, label %bb11, label %panic4

panic3:                                           ; preds = %bb10
; call core::panicking::panic_misaligned_pointer_dereference
  call void @_ZN4core9panicking36panic_misaligned_pointer_dereference17hcc3cbded9382b6e5E(i64 8, i64 %_27, ptr align 8 @alloc_b91fbfdeaccd5d788465fab3755bda06) #6
  unreachable

bb11:                                             ; preds = %bb6
  %2 = load ptr, ptr %head, align 8
  %3 = getelementptr inbounds i8, ptr %2, i64 8
  %_10 = load ptr, ptr %3, align 8
  store ptr %_10, ptr %head, align 8
  %_12 = load ptr, ptr %head, align 8
  %_69 = icmp eq i64 ptrtoint (ptr @Head to i64), 0
  %_70 = and i1 %_69, true
  %_71 = xor i1 %_70, true
  br i1 %_71, label %bb12, label %panic5

panic4:                                           ; preds = %bb6
; call core::panicking::panic_null_pointer_dereference
  call void @_ZN4core9panicking30panic_null_pointer_dereference17hf718fcc86a223baaE(ptr align 8 @alloc_b91fbfdeaccd5d788465fab3755bda06) #6
  unreachable

bb12:                                             ; preds = %bb11
  %_13 = load ptr, ptr @Head, align 8
  %_11 = icmp ne ptr %_12, %_13
  br i1 %_11, label %bb1, label %bb3

panic5:                                           ; preds = %bb11
; call core::panicking::panic_null_pointer_dereference
  call void @_ZN4core9panicking30panic_null_pointer_dereference17hf718fcc86a223baaE(ptr align 8 @alloc_acbd0bffe616a7429f2df243e78d0c70) #6
  unreachable

bb3:                                              ; preds = %bb12
  %_15 = call i32 (ptr, ...) @printf(ptr @alloc_f3588b28b94f0809fcc8d717033d3e48) #7
  ret void
}

; Function Attrs: nounwind nonlazybind
define void @insertValue(ptr %0, i32 %index, i32 %value) unnamed_addr #2 {
start:
  %i = alloca [4 x i8], align 4
  %head = alloca [8 x i8], align 8
  store ptr %0, ptr %head, align 8
  %node = call ptr @createCircularNode(i32 %value) #7
  %_5 = icmp slt i32 %index, 0
  br i1 %_5, label %bb15, label %bb2

bb2:                                              ; preds = %start
  %_102 = icmp eq i64 ptrtoint (ptr @Head to i64), 0
  %_103 = and i1 %_102, true
  %_104 = xor i1 %_103, true
  br i1 %_104, label %bb28, label %panic

bb15:                                             ; preds = %bb39, %bb8, %bb35, %bb28, %start
  ret void

bb28:                                             ; preds = %bb2
  %_8 = load ptr, ptr @Head, align 8
  %_7 = call i32 @calculateLength(ptr %_8) #7
  %_6 = icmp sgt i32 %index, %_7
  br i1 %_6, label %bb15, label %bb4

panic:                                            ; preds = %bb2
; call core::panicking::panic_null_pointer_dereference
  call void @_ZN4core9panicking30panic_null_pointer_dereference17hf718fcc86a223baaE(ptr align 8 @alloc_e47319a08cdb4126b20b546e37f14038) #6
  unreachable

bb4:                                              ; preds = %bb28
  %1 = icmp eq i32 %index, 0
  br i1 %1, label %bb5, label %bb6

bb5:                                              ; preds = %bb4
  %_11 = load ptr, ptr %head, align 8
; call core::ptr::mut_ptr::<impl *mut T>::is_null
  %_10 = call zeroext i1 @"_ZN4core3ptr7mut_ptr31_$LT$impl$u20$$BP$mut$u20$T$GT$7is_null17ha59c2f0a24f8c97fE"(ptr %_11) #7
  br i1 %_10, label %bb8, label %bb9

bb6:                                              ; preds = %bb4
  store i32 0, ptr %i, align 4
  br label %bb12

bb9:                                              ; preds = %bb31, %bb5
  %_86 = load ptr, ptr %head, align 8
  %_87 = ptrtoint ptr %_86 to i64
  %_90 = and i64 %_87, 7
  %_91 = icmp eq i64 %_90, 0
  br i1 %_91, label %bb26, label %panic1

bb8:                                              ; preds = %bb5
  store ptr %node, ptr %head, align 8
  br label %bb15

bb26:                                             ; preds = %bb9
  %_105 = load ptr, ptr %head, align 8
  %_106 = ptrtoint ptr %_105 to i64
  %_109 = icmp eq i64 %_106, 0
  %_110 = and i1 %_109, true
  %_111 = xor i1 %_110, true
  br i1 %_111, label %bb29, label %panic2

panic1:                                           ; preds = %bb9
; call core::panicking::panic_misaligned_pointer_dereference
  call void @_ZN4core9panicking36panic_misaligned_pointer_dereference17hcc3cbded9382b6e5E(i64 8, i64 %_87, ptr align 8 @alloc_692ad4bf9035ba1c9d2c08f07df73e9a) #6
  unreachable

bb29:                                             ; preds = %bb26
  %2 = load ptr, ptr %head, align 8
  %3 = getelementptr inbounds i8, ptr %2, i64 8
  %_13 = load ptr, ptr %3, align 8
  %_116 = icmp eq i64 ptrtoint (ptr @Head to i64), 0
  %_117 = and i1 %_116, true
  %_118 = xor i1 %_117, true
  br i1 %_118, label %bb30, label %panic3

panic2:                                           ; preds = %bb26
; call core::panicking::panic_null_pointer_dereference
  call void @_ZN4core9panicking30panic_null_pointer_dereference17hf718fcc86a223baaE(ptr align 8 @alloc_692ad4bf9035ba1c9d2c08f07df73e9a) #6
  unreachable

bb30:                                             ; preds = %bb29
  %_14 = load ptr, ptr @Head, align 8
  %_12 = icmp ne ptr %_13, %_14
  br i1 %_12, label %bb10, label %bb11

panic3:                                           ; preds = %bb29
; call core::panicking::panic_null_pointer_dereference
  call void @_ZN4core9panicking30panic_null_pointer_dereference17hf718fcc86a223baaE(ptr align 8 @alloc_c12e5f5022cecdfa71be428810d59290) #6
  unreachable

bb11:                                             ; preds = %bb30
  %_130 = icmp eq i64 ptrtoint (ptr @Head to i64), 0
  %_131 = and i1 %_130, true
  %_132 = xor i1 %_131, true
  br i1 %_132, label %bb32, label %panic4

bb10:                                             ; preds = %bb30
  %_74 = load ptr, ptr %head, align 8
  %_75 = ptrtoint ptr %_74 to i64
  %_78 = and i64 %_75, 7
  %_79 = icmp eq i64 %_78, 0
  br i1 %_79, label %bb24, label %panic10

bb32:                                             ; preds = %bb11
  %_17 = load ptr, ptr @Head, align 8
  %_63 = ptrtoint ptr %node to i64
  %_66 = and i64 %_63, 7
  %_67 = icmp eq i64 %_66, 0
  br i1 %_67, label %bb22, label %panic5

panic4:                                           ; preds = %bb11
; call core::panicking::panic_null_pointer_dereference
  call void @_ZN4core9panicking30panic_null_pointer_dereference17hf718fcc86a223baaE(ptr align 8 @alloc_3270b2b68331a3bcb1255f952a94fbae) #6
  unreachable

bb22:                                             ; preds = %bb32
  %_134 = ptrtoint ptr %node to i64
  %_137 = icmp eq i64 %_134, 0
  %_138 = and i1 %_137, true
  %_139 = xor i1 %_138, true
  br i1 %_139, label %bb33, label %panic6

panic5:                                           ; preds = %bb32
; call core::panicking::panic_misaligned_pointer_dereference
  call void @_ZN4core9panicking36panic_misaligned_pointer_dereference17hcc3cbded9382b6e5E(i64 8, i64 %_63, ptr align 8 @alloc_e577449b88d269ebd831e409cc97e8ac) #6
  unreachable

bb33:                                             ; preds = %bb22
  %4 = getelementptr inbounds i8, ptr %node, i64 8
  store ptr %_17, ptr %4, align 8
  %_56 = load ptr, ptr %head, align 8
  %_57 = ptrtoint ptr %_56 to i64
  %_60 = and i64 %_57, 7
  %_61 = icmp eq i64 %_60, 0
  br i1 %_61, label %bb21, label %panic7

panic6:                                           ; preds = %bb22
; call core::panicking::panic_null_pointer_dereference
  call void @_ZN4core9panicking30panic_null_pointer_dereference17hf718fcc86a223baaE(ptr align 8 @alloc_e577449b88d269ebd831e409cc97e8ac) #6
  unreachable

bb21:                                             ; preds = %bb33
  %_140 = load ptr, ptr %head, align 8
  %_141 = ptrtoint ptr %_140 to i64
  %_144 = icmp eq i64 %_141, 0
  %_145 = and i1 %_144, true
  %_146 = xor i1 %_145, true
  br i1 %_146, label %bb34, label %panic8

panic7:                                           ; preds = %bb33
; call core::panicking::panic_misaligned_pointer_dereference
  call void @_ZN4core9panicking36panic_misaligned_pointer_dereference17hcc3cbded9382b6e5E(i64 8, i64 %_57, ptr align 8 @alloc_88d35e2688e20d58b2364e2e9f502ca3) #6
  unreachable

bb34:                                             ; preds = %bb21
  %5 = load ptr, ptr %head, align 8
  %6 = getelementptr inbounds i8, ptr %5, i64 8
  store ptr %node, ptr %6, align 8
  %_151 = icmp eq i64 ptrtoint (ptr @Head to i64), 0
  %_152 = and i1 %_151, true
  %_153 = xor i1 %_152, true
  br i1 %_153, label %bb35, label %panic9

panic8:                                           ; preds = %bb21
; call core::panicking::panic_null_pointer_dereference
  call void @_ZN4core9panicking30panic_null_pointer_dereference17hf718fcc86a223baaE(ptr align 8 @alloc_88d35e2688e20d58b2364e2e9f502ca3) #6
  unreachable

bb35:                                             ; preds = %bb34
  store ptr %node, ptr @Head, align 8
  br label %bb15

panic9:                                           ; preds = %bb34
; call core::panicking::panic_null_pointer_dereference
  call void @_ZN4core9panicking30panic_null_pointer_dereference17hf718fcc86a223baaE(ptr align 8 @alloc_25cccdb447fd3f34ffdfc4817c88ace6) #6
  unreachable

bb24:                                             ; preds = %bb10
  %_119 = load ptr, ptr %head, align 8
  %_120 = ptrtoint ptr %_119 to i64
  %_123 = icmp eq i64 %_120, 0
  %_124 = and i1 %_123, true
  %_125 = xor i1 %_124, true
  br i1 %_125, label %bb31, label %panic11

panic10:                                          ; preds = %bb10
; call core::panicking::panic_misaligned_pointer_dereference
  call void @_ZN4core9panicking36panic_misaligned_pointer_dereference17hcc3cbded9382b6e5E(i64 8, i64 %_75, ptr align 8 @alloc_b49fe86d45df92025359f52a35ac792a) #6
  unreachable

bb31:                                             ; preds = %bb24
  %7 = load ptr, ptr %head, align 8
  %8 = getelementptr inbounds i8, ptr %7, i64 8
  %_16 = load ptr, ptr %8, align 8
  store ptr %_16, ptr %head, align 8
  br label %bb9

panic11:                                          ; preds = %bb24
; call core::panicking::panic_null_pointer_dereference
  call void @_ZN4core9panicking30panic_null_pointer_dereference17hf718fcc86a223baaE(ptr align 8 @alloc_b49fe86d45df92025359f52a35ac792a) #6
  unreachable

bb12:                                             ; preds = %bb36, %bb6
  %_22 = load i32, ptr %i, align 4
  %_23 = sub i32 %index, 1
  %_21 = icmp slt i32 %_22, %_23
  br i1 %_21, label %bb13, label %bb14

bb14:                                             ; preds = %bb12
  %_38 = load ptr, ptr %head, align 8
  %_39 = ptrtoint ptr %_38 to i64
  %_42 = and i64 %_39, 7
  %_43 = icmp eq i64 %_42, 0
  br i1 %_43, label %bb18, label %panic12

bb13:                                             ; preds = %bb12
  %_44 = load ptr, ptr %head, align 8
  %_45 = ptrtoint ptr %_44 to i64
  %_48 = and i64 %_45, 7
  %_49 = icmp eq i64 %_48, 0
  br i1 %_49, label %bb19, label %panic18

bb18:                                             ; preds = %bb14
  %_161 = load ptr, ptr %head, align 8
  %_162 = ptrtoint ptr %_161 to i64
  %_165 = icmp eq i64 %_162, 0
  %_166 = and i1 %_165, true
  %_167 = xor i1 %_166, true
  br i1 %_167, label %bb37, label %panic13

panic12:                                          ; preds = %bb14
; call core::panicking::panic_misaligned_pointer_dereference
  call void @_ZN4core9panicking36panic_misaligned_pointer_dereference17hcc3cbded9382b6e5E(i64 8, i64 %_39, ptr align 8 @alloc_adfcd0046ccc5dda0b60e691e47e9a06) #6
  unreachable

bb37:                                             ; preds = %bb18
  %9 = load ptr, ptr %head, align 8
  %10 = getelementptr inbounds i8, ptr %9, i64 8
  %_25 = load ptr, ptr %10, align 8
  %_33 = ptrtoint ptr %node to i64
  %_36 = and i64 %_33, 7
  %_37 = icmp eq i64 %_36, 0
  br i1 %_37, label %bb17, label %panic14

panic13:                                          ; preds = %bb18
; call core::panicking::panic_null_pointer_dereference
  call void @_ZN4core9panicking30panic_null_pointer_dereference17hf718fcc86a223baaE(ptr align 8 @alloc_adfcd0046ccc5dda0b60e691e47e9a06) #6
  unreachable

bb17:                                             ; preds = %bb37
  %_169 = ptrtoint ptr %node to i64
  %_172 = icmp eq i64 %_169, 0
  %_173 = and i1 %_172, true
  %_174 = xor i1 %_173, true
  br i1 %_174, label %bb38, label %panic15

panic14:                                          ; preds = %bb37
; call core::panicking::panic_misaligned_pointer_dereference
  call void @_ZN4core9panicking36panic_misaligned_pointer_dereference17hcc3cbded9382b6e5E(i64 8, i64 %_33, ptr align 8 @alloc_35903e2beae833791f15e8c3785889c6) #6
  unreachable

bb38:                                             ; preds = %bb17
  %11 = getelementptr inbounds i8, ptr %node, i64 8
  store ptr %_25, ptr %11, align 8
  %_26 = load ptr, ptr %head, align 8
  %_27 = ptrtoint ptr %_26 to i64
  %_30 = and i64 %_27, 7
  %_31 = icmp eq i64 %_30, 0
  br i1 %_31, label %bb16, label %panic16

panic15:                                          ; preds = %bb17
; call core::panicking::panic_null_pointer_dereference
  call void @_ZN4core9panicking30panic_null_pointer_dereference17hf718fcc86a223baaE(ptr align 8 @alloc_35903e2beae833791f15e8c3785889c6) #6
  unreachable

bb16:                                             ; preds = %bb38
  %_175 = load ptr, ptr %head, align 8
  %_176 = ptrtoint ptr %_175 to i64
  %_179 = icmp eq i64 %_176, 0
  %_180 = and i1 %_179, true
  %_181 = xor i1 %_180, true
  br i1 %_181, label %bb39, label %panic17

panic16:                                          ; preds = %bb38
; call core::panicking::panic_misaligned_pointer_dereference
  call void @_ZN4core9panicking36panic_misaligned_pointer_dereference17hcc3cbded9382b6e5E(i64 8, i64 %_27, ptr align 8 @alloc_f2f081886f331dc949da0f4fbdad1cbe) #6
  unreachable

bb39:                                             ; preds = %bb16
  %12 = load ptr, ptr %head, align 8
  %13 = getelementptr inbounds i8, ptr %12, i64 8
  store ptr %node, ptr %13, align 8
  br label %bb15

panic17:                                          ; preds = %bb16
; call core::panicking::panic_null_pointer_dereference
  call void @_ZN4core9panicking30panic_null_pointer_dereference17hf718fcc86a223baaE(ptr align 8 @alloc_f2f081886f331dc949da0f4fbdad1cbe) #6
  unreachable

bb19:                                             ; preds = %bb13
  %_154 = load ptr, ptr %head, align 8
  %_155 = ptrtoint ptr %_154 to i64
  %_158 = icmp eq i64 %_155, 0
  %_159 = and i1 %_158, true
  %_160 = xor i1 %_159, true
  br i1 %_160, label %bb36, label %panic19

panic18:                                          ; preds = %bb13
; call core::panicking::panic_misaligned_pointer_dereference
  call void @_ZN4core9panicking36panic_misaligned_pointer_dereference17hcc3cbded9382b6e5E(i64 8, i64 %_45, ptr align 8 @alloc_e4a476e1b93788e58e8e068cccf75bd2) #6
  unreachable

bb36:                                             ; preds = %bb19
  %14 = load ptr, ptr %head, align 8
  %15 = getelementptr inbounds i8, ptr %14, i64 8
  %_24 = load ptr, ptr %15, align 8
  store ptr %_24, ptr %head, align 8
  %16 = load i32, ptr %i, align 4
  %17 = add i32 %16, 1
  store i32 %17, ptr %i, align 4
  br label %bb12

panic19:                                          ; preds = %bb19
; call core::panicking::panic_null_pointer_dereference
  call void @_ZN4core9panicking30panic_null_pointer_dereference17hf718fcc86a223baaE(ptr align 8 @alloc_e4a476e1b93788e58e8e068cccf75bd2) #6
  unreachable
}

; Function Attrs: nounwind nonlazybind
define i32 @removeNode(ptr %0, ptr %1, i32 %index) unnamed_addr #2 {
start:
  %i = alloca [4 x i8], align 4
  %value = alloca [4 x i8], align 4
  %_0 = alloca [4 x i8], align 4
  %prev_node = alloca [8 x i8], align 8
  %current = alloca [8 x i8], align 8
  store ptr %0, ptr %current, align 8
  store ptr %1, ptr %prev_node, align 8
  store i32 -1, ptr %value, align 4
  %_125 = icmp eq i64 ptrtoint (ptr @Head to i64), 0
  %_126 = and i1 %_125, true
  %_127 = xor i1 %_126, true
  br i1 %_127, label %bb29, label %panic

bb29:                                             ; preds = %start
  %_7 = load ptr, ptr @Head, align 8
  %_6 = call i32 @calculateLength(ptr %_7) #7
  %_5 = icmp sgt i32 %index, %_6
  br i1 %_5, label %bb3, label %bb2

panic:                                            ; preds = %start
; call core::panicking::panic_null_pointer_dereference
  call void @_ZN4core9panicking30panic_null_pointer_dereference17hf718fcc86a223baaE(ptr align 8 @alloc_895efbad2db1396e235002dca0141b1a) #6
  unreachable

bb2:                                              ; preds = %bb29
  %_9 = icmp slt i32 %index, 0
  br i1 %_9, label %bb3, label %bb4

bb3:                                              ; preds = %bb2, %bb29
  store i32 -1, ptr %_0, align 4
  br label %bb14

bb4:                                              ; preds = %bb2
  %2 = icmp eq i32 %index, 0
  br i1 %2, label %bb6, label %bb5

bb6:                                              ; preds = %bb32, %bb4
  %_109 = load ptr, ptr %current, align 8
  %_110 = ptrtoint ptr %_109 to i64
  %_113 = and i64 %_110, 7
  %_114 = icmp eq i64 %_113, 0
  br i1 %_114, label %bb27, label %panic1

bb5:                                              ; preds = %bb4
  store i32 0, ptr %i, align 4
  br label %bb10

bb27:                                             ; preds = %bb6
  %_128 = load ptr, ptr %current, align 8
  %_129 = ptrtoint ptr %_128 to i64
  %_132 = icmp eq i64 %_129, 0
  %_133 = and i1 %_132, true
  %_134 = xor i1 %_133, true
  br i1 %_134, label %bb30, label %panic2

panic1:                                           ; preds = %bb6
; call core::panicking::panic_misaligned_pointer_dereference
  call void @_ZN4core9panicking36panic_misaligned_pointer_dereference17hcc3cbded9382b6e5E(i64 8, i64 %_110, ptr align 8 @alloc_74c5aee057f6a6d15e806701ad54d84c) #6
  unreachable

bb30:                                             ; preds = %bb27
  %3 = load ptr, ptr %current, align 8
  %4 = getelementptr inbounds i8, ptr %3, i64 8
  %_11 = load ptr, ptr %4, align 8
  %_139 = icmp eq i64 ptrtoint (ptr @Head to i64), 0
  %_140 = and i1 %_139, true
  %_141 = xor i1 %_140, true
  br i1 %_141, label %bb31, label %panic3

panic2:                                           ; preds = %bb27
; call core::panicking::panic_null_pointer_dereference
  call void @_ZN4core9panicking30panic_null_pointer_dereference17hf718fcc86a223baaE(ptr align 8 @alloc_74c5aee057f6a6d15e806701ad54d84c) #6
  unreachable

bb31:                                             ; preds = %bb30
  %_12 = load ptr, ptr @Head, align 8
  %_10 = icmp ne ptr %_11, %_12
  br i1 %_10, label %bb7, label %bb8

panic3:                                           ; preds = %bb30
; call core::panicking::panic_null_pointer_dereference
  call void @_ZN4core9panicking30panic_null_pointer_dereference17hf718fcc86a223baaE(ptr align 8 @alloc_bb5167234962db86f4cbde2cecdc9677) #6
  unreachable

bb8:                                              ; preds = %bb31
  %_35 = load ptr, ptr @Head, align 8
  %_92 = ptrtoint ptr %_35 to i64
  %_95 = and i64 %_92, 7
  %_96 = icmp eq i64 %_95, 0
  br i1 %_96, label %bb24, label %panic4

bb7:                                              ; preds = %bb31
  %_97 = load ptr, ptr %current, align 8
  %_98 = ptrtoint ptr %_97 to i64
  %_101 = and i64 %_98, 7
  %_102 = icmp eq i64 %_101, 0
  br i1 %_102, label %bb25, label %panic14

bb24:                                             ; preds = %bb8
  %_150 = ptrtoint ptr %_35 to i64
  %_153 = icmp eq i64 %_150, 0
  %_154 = and i1 %_153, true
  %_155 = xor i1 %_154, true
  br i1 %_155, label %bb33, label %panic5

panic4:                                           ; preds = %bb8
; call core::panicking::panic_misaligned_pointer_dereference
  call void @_ZN4core9panicking36panic_misaligned_pointer_dereference17hcc3cbded9382b6e5E(i64 8, i64 %_92, ptr align 8 @alloc_a0a27c72f5b3418860f8378a7362a192) #6
  unreachable

bb33:                                             ; preds = %bb24
  %5 = getelementptr inbounds i8, ptr %_35, i64 8
  %_15 = load ptr, ptr %5, align 8
  %_85 = load ptr, ptr %current, align 8
  %_86 = ptrtoint ptr %_85 to i64
  %_89 = and i64 %_86, 7
  %_90 = icmp eq i64 %_89, 0
  br i1 %_90, label %bb23, label %panic6

panic5:                                           ; preds = %bb24
; call core::panicking::panic_null_pointer_dereference
  call void @_ZN4core9panicking30panic_null_pointer_dereference17hf718fcc86a223baaE(ptr align 8 @alloc_a0a27c72f5b3418860f8378a7362a192) #6
  unreachable

bb23:                                             ; preds = %bb33
  %_156 = load ptr, ptr %current, align 8
  %_157 = ptrtoint ptr %_156 to i64
  %_160 = icmp eq i64 %_157, 0
  %_161 = and i1 %_160, true
  %_162 = xor i1 %_161, true
  br i1 %_162, label %bb34, label %panic7

panic6:                                           ; preds = %bb33
; call core::panicking::panic_misaligned_pointer_dereference
  call void @_ZN4core9panicking36panic_misaligned_pointer_dereference17hcc3cbded9382b6e5E(i64 8, i64 %_86, ptr align 8 @alloc_89961032cc8c4a7dcdb0a48b5861b468) #6
  unreachable

bb34:                                             ; preds = %bb23
  %6 = load ptr, ptr %current, align 8
  %7 = getelementptr inbounds i8, ptr %6, i64 8
  store ptr %_15, ptr %7, align 8
  %_36 = load ptr, ptr @Head, align 8
  %_80 = ptrtoint ptr %_36 to i64
  %_83 = and i64 %_80, 7
  %_84 = icmp eq i64 %_83, 0
  br i1 %_84, label %bb22, label %panic8

panic7:                                           ; preds = %bb23
; call core::panicking::panic_null_pointer_dereference
  call void @_ZN4core9panicking30panic_null_pointer_dereference17hf718fcc86a223baaE(ptr align 8 @alloc_89961032cc8c4a7dcdb0a48b5861b468) #6
  unreachable

bb22:                                             ; preds = %bb34
  %_164 = ptrtoint ptr %_36 to i64
  %_167 = icmp eq i64 %_164, 0
  %_168 = and i1 %_167, true
  %_169 = xor i1 %_168, true
  br i1 %_169, label %bb35, label %panic9

panic8:                                           ; preds = %bb34
; call core::panicking::panic_misaligned_pointer_dereference
  call void @_ZN4core9panicking36panic_misaligned_pointer_dereference17hcc3cbded9382b6e5E(i64 8, i64 %_80, ptr align 8 @alloc_4af4b2fa23c25dbb4f30b57378ba7170) #6
  unreachable

bb35:                                             ; preds = %bb22
  %_17 = load i32, ptr %_36, align 8
  store i32 %_17, ptr %value, align 4
  %_174 = icmp eq i64 ptrtoint (ptr @Head to i64), 0
  %_175 = and i1 %_174, true
  %_176 = xor i1 %_175, true
  br i1 %_176, label %bb36, label %panic10

panic9:                                           ; preds = %bb22
; call core::panicking::panic_null_pointer_dereference
  call void @_ZN4core9panicking30panic_null_pointer_dereference17hf718fcc86a223baaE(ptr align 8 @alloc_4af4b2fa23c25dbb4f30b57378ba7170) #6
  unreachable

bb36:                                             ; preds = %bb35
  %_21 = load ptr, ptr @Head, align 8
  call void @free(ptr %_21) #7
  %_67 = load ptr, ptr %current, align 8
  %_68 = ptrtoint ptr %_67 to i64
  %_71 = and i64 %_68, 7
  %_72 = icmp eq i64 %_71, 0
  br i1 %_72, label %bb20, label %panic11

panic10:                                          ; preds = %bb35
; call core::panicking::panic_null_pointer_dereference
  call void @_ZN4core9panicking30panic_null_pointer_dereference17hf718fcc86a223baaE(ptr align 8 @alloc_6ed4b3e0c769c9d78600764f466ec42a) #6
  unreachable

bb20:                                             ; preds = %bb36
  %_177 = load ptr, ptr %current, align 8
  %_178 = ptrtoint ptr %_177 to i64
  %_181 = icmp eq i64 %_178, 0
  %_182 = and i1 %_181, true
  %_183 = xor i1 %_182, true
  br i1 %_183, label %bb37, label %panic12

panic11:                                          ; preds = %bb36
; call core::panicking::panic_misaligned_pointer_dereference
  call void @_ZN4core9panicking36panic_misaligned_pointer_dereference17hcc3cbded9382b6e5E(i64 8, i64 %_68, ptr align 8 @alloc_96f7bad295e1b0b894b15c6a29900e75) #6
  unreachable

bb37:                                             ; preds = %bb20
  %8 = load ptr, ptr %current, align 8
  %9 = getelementptr inbounds i8, ptr %8, i64 8
  %_23 = load ptr, ptr %9, align 8
  %_188 = icmp eq i64 ptrtoint (ptr @Head to i64), 0
  %_189 = and i1 %_188, true
  %_190 = xor i1 %_189, true
  br i1 %_190, label %bb38, label %panic13

panic12:                                          ; preds = %bb20
; call core::panicking::panic_null_pointer_dereference
  call void @_ZN4core9panicking30panic_null_pointer_dereference17hf718fcc86a223baaE(ptr align 8 @alloc_96f7bad295e1b0b894b15c6a29900e75) #6
  unreachable

bb38:                                             ; preds = %bb37
  store ptr %_23, ptr @Head, align 8
  br label %bb13

panic13:                                          ; preds = %bb37
; call core::panicking::panic_null_pointer_dereference
  call void @_ZN4core9panicking30panic_null_pointer_dereference17hf718fcc86a223baaE(ptr align 8 @alloc_9d2ddb5b6f6721ff4e9bffc51cea228b) #6
  unreachable

bb13:                                             ; preds = %bb42, %bb38
  %10 = load i32, ptr %value, align 4
  store i32 %10, ptr %_0, align 4
  br label %bb14

bb25:                                             ; preds = %bb7
  %_142 = load ptr, ptr %current, align 8
  %_143 = ptrtoint ptr %_142 to i64
  %_146 = icmp eq i64 %_143, 0
  %_147 = and i1 %_146, true
  %_148 = xor i1 %_147, true
  br i1 %_148, label %bb32, label %panic15

panic14:                                          ; preds = %bb7
; call core::panicking::panic_misaligned_pointer_dereference
  call void @_ZN4core9panicking36panic_misaligned_pointer_dereference17hcc3cbded9382b6e5E(i64 8, i64 %_98, ptr align 8 @alloc_9613ad750744247a68a1ddb0f14b5f84) #6
  unreachable

bb32:                                             ; preds = %bb25
  %11 = load ptr, ptr %current, align 8
  %12 = getelementptr inbounds i8, ptr %11, i64 8
  %_14 = load ptr, ptr %12, align 8
  store ptr %_14, ptr %current, align 8
  br label %bb6

panic15:                                          ; preds = %bb25
; call core::panicking::panic_null_pointer_dereference
  call void @_ZN4core9panicking30panic_null_pointer_dereference17hf718fcc86a223baaE(ptr align 8 @alloc_9613ad750744247a68a1ddb0f14b5f84) #6
  unreachable

bb10:                                             ; preds = %bb39, %bb5
  %_27 = load i32, ptr %i, align 4
  %_26 = icmp slt i32 %_27, %index
  br i1 %_26, label %bb11, label %bb12

bb12:                                             ; preds = %bb10
  %_49 = load ptr, ptr %current, align 8
  %_50 = ptrtoint ptr %_49 to i64
  %_53 = and i64 %_50, 7
  %_54 = icmp eq i64 %_53, 0
  br i1 %_54, label %bb17, label %panic16

bb11:                                             ; preds = %bb10
  %_28 = load ptr, ptr %current, align 8
  store ptr %_28, ptr %prev_node, align 8
  %_55 = load ptr, ptr %current, align 8
  %_56 = ptrtoint ptr %_55 to i64
  %_59 = and i64 %_56, 7
  %_60 = icmp eq i64 %_59, 0
  br i1 %_60, label %bb18, label %panic22

bb17:                                             ; preds = %bb12
  %_198 = load ptr, ptr %current, align 8
  %_199 = ptrtoint ptr %_198 to i64
  %_202 = icmp eq i64 %_199, 0
  %_203 = and i1 %_202, true
  %_204 = xor i1 %_203, true
  br i1 %_204, label %bb40, label %panic17

panic16:                                          ; preds = %bb12
; call core::panicking::panic_misaligned_pointer_dereference
  call void @_ZN4core9panicking36panic_misaligned_pointer_dereference17hcc3cbded9382b6e5E(i64 8, i64 %_50, ptr align 8 @alloc_9502eb7a5cde51e8eb6777232304421a) #6
  unreachable

bb40:                                             ; preds = %bb17
  %13 = load ptr, ptr %current, align 8
  %14 = getelementptr inbounds i8, ptr %13, i64 8
  %_30 = load ptr, ptr %14, align 8
  %_43 = load ptr, ptr %prev_node, align 8
  %_44 = ptrtoint ptr %_43 to i64
  %_47 = and i64 %_44, 7
  %_48 = icmp eq i64 %_47, 0
  br i1 %_48, label %bb16, label %panic18

panic17:                                          ; preds = %bb17
; call core::panicking::panic_null_pointer_dereference
  call void @_ZN4core9panicking30panic_null_pointer_dereference17hf718fcc86a223baaE(ptr align 8 @alloc_9502eb7a5cde51e8eb6777232304421a) #6
  unreachable

bb16:                                             ; preds = %bb40
  %_205 = load ptr, ptr %prev_node, align 8
  %_206 = ptrtoint ptr %_205 to i64
  %_209 = icmp eq i64 %_206, 0
  %_210 = and i1 %_209, true
  %_211 = xor i1 %_210, true
  br i1 %_211, label %bb41, label %panic19

panic18:                                          ; preds = %bb40
; call core::panicking::panic_misaligned_pointer_dereference
  call void @_ZN4core9panicking36panic_misaligned_pointer_dereference17hcc3cbded9382b6e5E(i64 8, i64 %_44, ptr align 8 @alloc_5086773ec26bb191205697fb7e200158) #6
  unreachable

bb41:                                             ; preds = %bb16
  %15 = load ptr, ptr %prev_node, align 8
  %16 = getelementptr inbounds i8, ptr %15, i64 8
  store ptr %_30, ptr %16, align 8
  %_37 = load ptr, ptr %current, align 8
  %_38 = ptrtoint ptr %_37 to i64
  %_41 = and i64 %_38, 7
  %_42 = icmp eq i64 %_41, 0
  br i1 %_42, label %bb15, label %panic20

panic19:                                          ; preds = %bb16
; call core::panicking::panic_null_pointer_dereference
  call void @_ZN4core9panicking30panic_null_pointer_dereference17hf718fcc86a223baaE(ptr align 8 @alloc_5086773ec26bb191205697fb7e200158) #6
  unreachable

bb15:                                             ; preds = %bb41
  %_212 = load ptr, ptr %current, align 8
  %_213 = ptrtoint ptr %_212 to i64
  %_216 = icmp eq i64 %_213, 0
  %_217 = and i1 %_216, true
  %_218 = xor i1 %_217, true
  br i1 %_218, label %bb42, label %panic21

panic20:                                          ; preds = %bb41
; call core::panicking::panic_misaligned_pointer_dereference
  call void @_ZN4core9panicking36panic_misaligned_pointer_dereference17hcc3cbded9382b6e5E(i64 8, i64 %_38, ptr align 8 @alloc_a813b41cecb5552172b3797f463c3a5d) #6
  unreachable

bb42:                                             ; preds = %bb15
  %17 = load ptr, ptr %current, align 8
  %_31 = load i32, ptr %17, align 8
  store i32 %_31, ptr %value, align 4
  %_34 = load ptr, ptr %current, align 8
  call void @free(ptr %_34) #7
  br label %bb13

panic21:                                          ; preds = %bb15
; call core::panicking::panic_null_pointer_dereference
  call void @_ZN4core9panicking30panic_null_pointer_dereference17hf718fcc86a223baaE(ptr align 8 @alloc_a813b41cecb5552172b3797f463c3a5d) #6
  unreachable

bb14:                                             ; preds = %bb3, %bb13
  %18 = load i32, ptr %_0, align 4
  ret i32 %18

bb18:                                             ; preds = %bb11
  %_191 = load ptr, ptr %current, align 8
  %_192 = ptrtoint ptr %_191 to i64
  %_195 = icmp eq i64 %_192, 0
  %_196 = and i1 %_195, true
  %_197 = xor i1 %_196, true
  br i1 %_197, label %bb39, label %panic23

panic22:                                          ; preds = %bb11
; call core::panicking::panic_misaligned_pointer_dereference
  call void @_ZN4core9panicking36panic_misaligned_pointer_dereference17hcc3cbded9382b6e5E(i64 8, i64 %_56, ptr align 8 @alloc_850972be3976463c2d85b26cd253ea7e) #6
  unreachable

bb39:                                             ; preds = %bb18
  %19 = load ptr, ptr %current, align 8
  %20 = getelementptr inbounds i8, ptr %19, i64 8
  %_29 = load ptr, ptr %20, align 8
  store ptr %_29, ptr %current, align 8
  %21 = load i32, ptr %i, align 4
  %22 = add i32 %21, 1
  store i32 %22, ptr %i, align 4
  br label %bb10

panic23:                                          ; preds = %bb18
; call core::panicking::panic_null_pointer_dereference
  call void @_ZN4core9panicking30panic_null_pointer_dereference17hf718fcc86a223baaE(ptr align 8 @alloc_850972be3976463c2d85b26cd253ea7e) #6
  unreachable
}

; Function Attrs: nocallback nofree nosync nounwind speculatable willreturn memory(none)
declare { i64, i1 } @llvm.smul.with.overflow.i64(i64, i64) #3

; Function Attrs: nocallback nofree nosync nounwind speculatable willreturn memory(none)
declare { i64, i1 } @llvm.uadd.with.overflow.i64(i64, i64) #3

; core::panicking::panic_nounwind
; Function Attrs: cold noinline noreturn nounwind nonlazybind
declare void @_ZN4core9panicking14panic_nounwind17h211d9ce8d63f12e7E(ptr align 1, i64) unnamed_addr #4

; Function Attrs: nounwind nonlazybind
declare ptr @malloc(i64) unnamed_addr #2

; core::panicking::panic_misaligned_pointer_dereference
; Function Attrs: cold minsize noinline noreturn nounwind nonlazybind optsize
declare void @_ZN4core9panicking36panic_misaligned_pointer_dereference17hcc3cbded9382b6e5E(i64, i64, ptr align 8) unnamed_addr #5

; core::panicking::panic_null_pointer_dereference
; Function Attrs: cold minsize noinline noreturn nounwind nonlazybind optsize
declare void @_ZN4core9panicking30panic_null_pointer_dereference17hf718fcc86a223baaE(ptr align 8) unnamed_addr #5

; Function Attrs: nounwind nonlazybind
declare i32 @printf(ptr, ...) unnamed_addr #2

; Function Attrs: nounwind nonlazybind
declare void @free(ptr) unnamed_addr #2

attributes #0 = { cold nounwind nonlazybind "probe-stack"="inline-asm" "target-cpu"="x86-64" }
attributes #1 = { inlinehint nounwind nonlazybind "probe-stack"="inline-asm" "target-cpu"="x86-64" }
attributes #2 = { nounwind nonlazybind "probe-stack"="inline-asm" "target-cpu"="x86-64" }
attributes #3 = { nocallback nofree nosync nounwind speculatable willreturn memory(none) }
attributes #4 = { cold noinline noreturn nounwind nonlazybind "probe-stack"="inline-asm" "target-cpu"="x86-64" }
attributes #5 = { cold minsize noinline noreturn nounwind nonlazybind optsize "probe-stack"="inline-asm" "target-cpu"="x86-64" }
attributes #6 = { noreturn nounwind }
attributes #7 = { nounwind }

!llvm.module.flags = !{!0, !1}
!llvm.ident = !{!2}

!0 = !{i32 8, !"PIC Level", i32 2}
!1 = !{i32 2, !"RtLibUseGOT", i32 1}
!2 = !{!"rustc version 1.88.0-nightly (0b45675cf 2025-03-31)"}
