; ModuleID = 'dd6y23x70qsbri5x8wyfzl1oo'
source_filename = "dd6y23x70qsbri5x8wyfzl1oo"
target datalayout = "e-m:e-p270:32:32-p271:32:32-p272:64:64-i64:64-i128:128-f80:128-n8:16:32:64-S128"
target triple = "x86_64-unknown-linux-gnu"

@alloc_0ed0763d8bf93ac79247e07858374e35 = private unnamed_addr constant [210 x i8] c"unsafe precondition(s) violated: ptr::offset requires the address calculation to not overflow\0A\0AThis indicates a bug in the program. This Undefined Behavior check is optional, and cannot be relied on for safety.", align 1
@alloc_28e86da7097919e7b913744b95c9fd2c = private unnamed_addr constant [16 x i8] c"--------------\0A\00", align 1
@alloc_519245da23be4a29a7999b211260d4d4 = private unnamed_addr constant [22 x i8] c"Buckets after sorted\0A\00", align 1
@alloc_f5ffd2fd1476bab43ad89fb40c72d0c5 = private unnamed_addr constant [10 x i8] c"src/lib.rs", align 1
@alloc_a7a319421da9a77576ac7888b1491544 = private unnamed_addr constant <{ ptr, [16 x i8] }> <{ ptr @alloc_f5ffd2fd1476bab43ad89fb40c72d0c5, [16 x i8] c"\0A\00\00\00\00\00\00\00u\00\00\00\12\00\00\00" }>, align 8
@alloc_e7f7c3492452b02466692136d6c42eb0 = private unnamed_addr constant <{ ptr, [16 x i8] }> <{ ptr @alloc_f5ffd2fd1476bab43ad89fb40c72d0c5, [16 x i8] c"\0A\00\00\00\00\00\00\00y\00\00\00\16\00\00\00" }>, align 8
@alloc_0f6d1b94949084044caeaf29b1f6095d = private unnamed_addr constant <{ ptr, [16 x i8] }> <{ ptr @alloc_f5ffd2fd1476bab43ad89fb40c72d0c5, [16 x i8] c"\0A\00\00\00\00\00\00\00\\\00\00\00\10\00\00\00" }>, align 8
@alloc_ba0f0433856036763d5f1cf09d04a200 = private unnamed_addr constant [11 x i8] c"j < NARRAY\00", align 1
@alloc_a90ae8869a14b30b38ddb9053154fd37 = private unnamed_addr constant [14 x i8] c"program_012.c\00", align 1
@alloc_6231c37b8fc2cec05eac6eeaf74ce9d2 = private unnamed_addr constant [23 x i8] c"void BucketSort(int *)\00", align 1
@alloc_0ffb67e83a67ffca0f0b75e9294a4cd0 = private unnamed_addr constant <{ ptr, [16 x i8] }> <{ ptr @alloc_f5ffd2fd1476bab43ad89fb40c72d0c5, [16 x i8] c"\0A\00\00\00\00\00\00\00l\00\00\00,\00\00\00" }>, align 8
@alloc_ed51078e6dc684779de3934d5e746b2a = private unnamed_addr constant <{ ptr, [16 x i8] }> <{ ptr @alloc_f5ffd2fd1476bab43ad89fb40c72d0c5, [16 x i8] c"\0A\00\00\00\00\00\00\00l\00\00\00\0D\00\00\00" }>, align 8
@alloc_c9d974f032f2e0c7159647483e9183b1 = private unnamed_addr constant <{ ptr, [16 x i8] }> <{ ptr @alloc_f5ffd2fd1476bab43ad89fb40c72d0c5, [16 x i8] c"\0A\00\00\00\00\00\00\00m\00\00\00\14\00\00\00" }>, align 8
@alloc_ab18ed20745df956d868a0a5b724c73f = private unnamed_addr constant [16 x i8] c"Bucket[\22%d\22] : \00", align 1
@alloc_002ba188a868a98d93cb87bb9e8477d9 = private unnamed_addr constant <{ ptr, [16 x i8] }> <{ ptr @alloc_f5ffd2fd1476bab43ad89fb40c72d0c5, [16 x i8] c"\0A\00\00\00\00\00\00\00S\00\00\00\16\00\00\00" }>, align 8
@alloc_f3588b28b94f0809fcc8d717033d3e48 = private unnamed_addr constant [2 x i8] c"\0A\00", align 1
@alloc_9d5717b4b074bb65c7f6dbd462dd54ba = private unnamed_addr constant <{ ptr, [16 x i8] }> <{ ptr @alloc_f5ffd2fd1476bab43ad89fb40c72d0c5, [16 x i8] c"\0A\00\00\00\00\00\00\00I\00\00\00\0D\00\00\00" }>, align 8
@alloc_1bfd86aae95dbfc6c1667585fbfe2951 = private unnamed_addr constant <{ ptr, [16 x i8] }> <{ ptr @alloc_f5ffd2fd1476bab43ad89fb40c72d0c5, [16 x i8] c"\0A\00\00\00\00\00\00\00J\00\00\00!\00\00\00" }>, align 8
@alloc_d8f3ae883c7c483feb59282980c89a3e = private unnamed_addr constant <{ ptr, [16 x i8] }> <{ ptr @alloc_f5ffd2fd1476bab43ad89fb40c72d0c5, [16 x i8] c"\0A\00\00\00\00\00\00\00B\00\00\00\16\00\00\00" }>, align 8
@alloc_28c31f7c444a4bdb85887feb5c3c1b99 = private unnamed_addr constant <{ ptr, [16 x i8] }> <{ ptr @alloc_f5ffd2fd1476bab43ad89fb40c72d0c5, [16 x i8] c"\0A\00\00\00\00\00\00\006\00\00\003\00\00\00" }>, align 8
@alloc_ab466ebffe9ff9f491e69153d12d4598 = private unnamed_addr constant <{ ptr, [16 x i8] }> <{ ptr @alloc_f5ffd2fd1476bab43ad89fb40c72d0c5, [16 x i8] c"\0A\00\00\00\00\00\00\008\00\00\00\1B\00\00\00" }>, align 8
@alloc_2e21785ec7e2d2bffd360fb5a6d35da7 = private unnamed_addr constant <{ ptr, [16 x i8] }> <{ ptr @alloc_f5ffd2fd1476bab43ad89fb40c72d0c5, [16 x i8] c"\0A\00\00\00\00\00\00\008\00\00\00\09\00\00\00" }>, align 8
@alloc_23cf98fd9ce131a1e731d1c3ebcf322b = private unnamed_addr constant <{ ptr, [16 x i8] }> <{ ptr @alloc_f5ffd2fd1476bab43ad89fb40c72d0c5, [16 x i8] c"\0A\00\00\00\00\00\00\009\00\00\00\1B\00\00\00" }>, align 8
@alloc_54661a6bf4c4c14d833e867732f015c6 = private unnamed_addr constant <{ ptr, [16 x i8] }> <{ ptr @alloc_f5ffd2fd1476bab43ad89fb40c72d0c5, [16 x i8] c"\0A\00\00\00\00\00\00\009\00\00\00\09\00\00\00" }>, align 8
@alloc_4fcd05f532518444ab81013c4ebdb1f3 = private unnamed_addr constant <{ ptr, [16 x i8] }> <{ ptr @alloc_f5ffd2fd1476bab43ad89fb40c72d0c5, [16 x i8] c"\0A\00\00\00\00\00\00\00:\00\00\00\0D\00\00\00" }>, align 8
@alloc_3756f2a6fdac19865b2b1f9f39cd660b = private unnamed_addr constant <{ ptr, [16 x i8] }> <{ ptr @alloc_f5ffd2fd1476bab43ad89fb40c72d0c5, [16 x i8] c"\0A\00\00\00\00\00\00\00.\00\00\00\0D\00\00\00" }>, align 8
@alloc_dfd4471ce4f291cdcb3f31bae0d05d1f = private unnamed_addr constant <{ ptr, [16 x i8] }> <{ ptr @alloc_f5ffd2fd1476bab43ad89fb40c72d0c5, [16 x i8] c"\0A\00\00\00\00\00\00\00\85\00\00\00\1A\00\00\00" }>, align 8
@alloc_6e8a19f73b06021a33cf11f3b2d48238 = private unnamed_addr constant <{ ptr, [16 x i8] }> <{ ptr @alloc_f5ffd2fd1476bab43ad89fb40c72d0c5, [16 x i8] c"\0A\00\00\00\00\00\00\00\89\00\00\00\09\00\00\00" }>, align 8
@alloc_70178eb7113c3c0b445ab205f817bb84 = private unnamed_addr constant <{ ptr, [16 x i8] }> <{ ptr @alloc_f5ffd2fd1476bab43ad89fb40c72d0c5, [16 x i8] c"\0A\00\00\00\00\00\00\00\8A\00\00\00\05\00\00\00" }>, align 8
@alloc_8ab490a61e5094234e20afca7467eaf8 = private unnamed_addr constant <{ ptr, [16 x i8] }> <{ ptr @alloc_f5ffd2fd1476bab43ad89fb40c72d0c5, [16 x i8] c"\0A\00\00\00\00\00\00\00\8D\00\00\00\0C\00\00\00" }>, align 8
@alloc_fe0950db09b561d038dab754c0209e61 = private unnamed_addr constant <{ ptr, [16 x i8] }> <{ ptr @alloc_f5ffd2fd1476bab43ad89fb40c72d0c5, [16 x i8] c"\0A\00\00\00\00\00\00\00\8D\00\00\00\1F\00\00\00" }>, align 8
@alloc_8ab8ca721ba83876665bf7752f4923c3 = private unnamed_addr constant <{ ptr, [16 x i8] }> <{ ptr @alloc_f5ffd2fd1476bab43ad89fb40c72d0c5, [16 x i8] c"\0A\00\00\00\00\00\00\00\95\00\00\00\14\00\00\00" }>, align 8
@alloc_2332dec42e445e90f04408688658fa29 = private unnamed_addr constant <{ ptr, [16 x i8] }> <{ ptr @alloc_f5ffd2fd1476bab43ad89fb40c72d0c5, [16 x i8] c"\0A\00\00\00\00\00\00\00\96\00\00\00\14\00\00\00" }>, align 8
@alloc_27b5dd20896ff8e004aa83c3b8ba6b3a = private unnamed_addr constant <{ ptr, [16 x i8] }> <{ ptr @alloc_f5ffd2fd1476bab43ad89fb40c72d0c5, [16 x i8] c"\0A\00\00\00\00\00\00\00\96\00\00\00*\00\00\00" }>, align 8
@alloc_5d0b38fda7ab33925609d0ca77c16b3e = private unnamed_addr constant <{ ptr, [16 x i8] }> <{ ptr @alloc_f5ffd2fd1476bab43ad89fb40c72d0c5, [16 x i8] c"\0A\00\00\00\00\00\00\00\99\00\00\00\17\00\00\00" }>, align 8
@alloc_4949b33712781d6e2c71982ca5dad801 = private unnamed_addr constant <{ ptr, [16 x i8] }> <{ ptr @alloc_f5ffd2fd1476bab43ad89fb40c72d0c5, [16 x i8] c"\0A\00\00\00\00\00\00\00\9B\00\00\00\11\00\00\00" }>, align 8
@alloc_7cf8d66a3227b5eed5edcd7bc5e279da = private unnamed_addr constant <{ ptr, [16 x i8] }> <{ ptr @alloc_f5ffd2fd1476bab43ad89fb40c72d0c5, [16 x i8] c"\0A\00\00\00\00\00\00\00\9E\00\00\00\15\00\00\00" }>, align 8
@alloc_c4f5b5d7f8712adf31aa5aea1797bae8 = private unnamed_addr constant <{ ptr, [16 x i8] }> <{ ptr @alloc_f5ffd2fd1476bab43ad89fb40c72d0c5, [16 x i8] c"\0A\00\00\00\00\00\00\00\9F\00\00\00!\00\00\00" }>, align 8
@alloc_3b88cb096d84cffd3c7630aa4a929537 = private unnamed_addr constant <{ ptr, [16 x i8] }> <{ ptr @alloc_f5ffd2fd1476bab43ad89fb40c72d0c5, [16 x i8] c"\0A\00\00\00\00\00\00\00\9F\00\00\00\11\00\00\00" }>, align 8
@alloc_8ae28b4e85a8ef60c9105d59156564e5 = private unnamed_addr constant <{ ptr, [16 x i8] }> <{ ptr @alloc_f5ffd2fd1476bab43ad89fb40c72d0c5, [16 x i8] c"\0A\00\00\00\00\00\00\00\A0\00\00\00\11\00\00\00" }>, align 8
@alloc_355951375ed3ecab77da4ec7761081a3 = private unnamed_addr constant <{ ptr, [16 x i8] }> <{ ptr @alloc_f5ffd2fd1476bab43ad89fb40c72d0c5, [16 x i8] c"\0A\00\00\00\00\00\00\00\A2\00\00\00\11\00\00\00" }>, align 8
@alloc_1c68d5b7ae6b93638c0421a0473d350d = private unnamed_addr constant <{ ptr, [16 x i8] }> <{ ptr @alloc_f5ffd2fd1476bab43ad89fb40c72d0c5, [16 x i8] c"\0A\00\00\00\00\00\00\00\A3\00\00\00\15\00\00\00" }>, align 8
@alloc_65c030de5a93a5087ce4e26a720a77ea = private unnamed_addr constant <{ ptr, [16 x i8] }> <{ ptr @alloc_f5ffd2fd1476bab43ad89fb40c72d0c5, [16 x i8] c"\0A\00\00\00\00\00\00\00\A4\00\00\00\11\00\00\00" }>, align 8
@alloc_6c2c81a11003f3e2ac544ba98f416f52 = private unnamed_addr constant <{ ptr, [16 x i8] }> <{ ptr @alloc_f5ffd2fd1476bab43ad89fb40c72d0c5, [16 x i8] c"\0A\00\00\00\00\00\00\00\90\00\00\00\11\00\00\00" }>, align 8
@alloc_645f077d7f05a638230e54f4fcbdc852 = private unnamed_addr constant <{ ptr, [16 x i8] }> <{ ptr @alloc_f5ffd2fd1476bab43ad89fb40c72d0c5, [16 x i8] c"\0A\00\00\00\00\00\00\00\91\00\00\00\0D\00\00\00" }>, align 8
@alloc_b30c12b0737b96de71ba6af6b71f0f8b = private unnamed_addr constant <{ ptr, [16 x i8] }> <{ ptr @alloc_f5ffd2fd1476bab43ad89fb40c72d0c5, [16 x i8] c"\0A\00\00\00\00\00\00\00\AC\00\00\00\0C\00\00\00" }>, align 8
@alloc_b929c71616281bfd1be2bd4038d3ddf1 = private unnamed_addr constant [4 x i8] c"%d \00", align 1
@alloc_a1cf68a6c8d0f89ad8943ccd2e0094bf = private unnamed_addr constant <{ ptr, [16 x i8] }> <{ ptr @alloc_f5ffd2fd1476bab43ad89fb40c72d0c5, [16 x i8] c"\0A\00\00\00\00\00\00\00\B3\00\00\00>\00\00\00" }>, align 8
@alloc_82d8421c21afbe87ecad509db195b846 = private unnamed_addr constant <{ ptr, [16 x i8] }> <{ ptr @alloc_f5ffd2fd1476bab43ad89fb40c72d0c5, [16 x i8] c"\0A\00\00\00\00\00\00\00\BD\00\00\00>\00\00\00" }>, align 8
@alloc_290d3f95d7032a243f5d61ec79b2ca4b = private unnamed_addr constant <{ ptr, [16 x i8] }> <{ ptr @alloc_f5ffd2fd1476bab43ad89fb40c72d0c5, [16 x i8] c"\0A\00\00\00\00\00\00\00\BE\00\00\00\0F\00\00\00" }>, align 8

; core::intrinsics::cold_path
; Function Attrs: cold nounwind nonlazybind
define internal void @_ZN4core10intrinsics9cold_path17h12beefe65820a5f0E() unnamed_addr #0 {
start:
  ret void
}

; core::ptr::mut_ptr::<impl *mut T>::offset::precondition_check
; Function Attrs: inlinehint nounwind nonlazybind
define internal void @"_ZN4core3ptr7mut_ptr31_$LT$impl$u20$$BP$mut$u20$T$GT$6offset18precondition_check17h21c384f3cfd2fa2aE"(ptr %this, i64 %count, i64 %size) unnamed_addr #1 {
start:
  %0 = call { i64, i1 } @llvm.smul.with.overflow.i64(i64 %count, i64 %size)
  %_10.0 = extractvalue { i64, i1 } %0, 0
  %_10.1 = extractvalue { i64, i1 } %0, 1
  br i1 %_10.1, label %bb3, label %bb5

bb5:                                              ; preds = %start
  %self = ptrtoint ptr %this to i64
  %1 = call { i64, i1 } @llvm.uadd.with.overflow.i64(i64 %self, i64 %_10.0)
  %_19.0 = extractvalue { i64, i1 } %1, 0
  %_19.1 = extractvalue { i64, i1 } %1, 1
  %_17 = icmp slt i64 %_10.0, 0
  %overflow = xor i1 %_19.1, %_17
  %_4 = xor i1 %overflow, true
  br i1 %_4, label %bb1, label %bb2

bb3:                                              ; preds = %start
  br label %bb2

bb2:                                              ; preds = %bb3, %bb5
; call core::panicking::panic_nounwind
  call void @_ZN4core9panicking14panic_nounwind17h211d9ce8d63f12e7E(ptr align 1 @alloc_0ed0763d8bf93ac79247e07858374e35, i64 210) #7
  unreachable

bb1:                                              ; preds = %bb5
  ret void
}

; core::ptr::mut_ptr::<impl *mut T>::is_null
; Function Attrs: inlinehint nounwind nonlazybind
define internal zeroext i1 @"_ZN4core3ptr7mut_ptr31_$LT$impl$u20$$BP$mut$u20$T$GT$7is_null17h849b0546369e934fE"(ptr %self) unnamed_addr #1 {
start:
  %_3 = ptrtoint ptr %self to i64
  %_0 = icmp eq i64 %_3, 0
  ret i1 %_0
}

; Function Attrs: nounwind nonlazybind
define void @BucketSort(ptr %arr) unnamed_addr #2 {
start:
  %tmp = alloca [8 x i8], align 8
  %node_0 = alloca [8 x i8], align 8
  %node = alloca [8 x i8], align 8
  %current = alloca [8 x i8], align 8
  %buckets = alloca [8 x i8], align 8
  %j = alloca [4 x i8], align 4
  %i = alloca [4 x i8], align 4
  store i32 0, ptr %i, align 4
  store i32 0, ptr %j, align 4
  store ptr null, ptr %buckets, align 8
  %_5 = call ptr @malloc(i64 40) #8
  store ptr %_5, ptr %buckets, align 8
  store i32 0, ptr %i, align 4
  br label %bb4

bb4:                                              ; preds = %bb91, %start
  %_11 = load i32, ptr %i, align 4
  %_10 = icmp slt i32 %_11, 5
  br i1 %_10, label %bb5, label %bb7

bb7:                                              ; preds = %bb4
  store i32 0, ptr %i, align 4
  br label %bb8

bb5:                                              ; preds = %bb4
  %_14 = load ptr, ptr %buckets, align 8
  %_16 = load i32, ptr %i, align 4
  %_15 = sext i32 %_16 to i64
; call core::ptr::mut_ptr::<impl *mut T>::offset::precondition_check
  call void @"_ZN4core3ptr7mut_ptr31_$LT$impl$u20$$BP$mut$u20$T$GT$6offset18precondition_check17h21c384f3cfd2fa2aE"(ptr %_14, i64 %_15, i64 8) #8
  %_0.i = getelementptr inbounds ptr, ptr %_14, i64 %_15
  %_346 = ptrtoint ptr %_0.i to i64
  %_347 = icmp eq i64 %_346, 0
  %_348 = and i1 %_347, true
  %_349 = xor i1 %_348, true
  br i1 %_349, label %bb91, label %panic30

bb8:                                              ; preds = %bb90, %bb7
  %_18 = load i32, ptr %i, align 4
  %_17 = icmp slt i32 %_18, 8
  br i1 %_17, label %bb9, label %bb17

bb17:                                             ; preds = %bb8
  store i32 0, ptr %i, align 4
  br label %bb18

bb9:                                              ; preds = %bb8
  store ptr null, ptr %current, align 8
  %_24 = load i32, ptr %i, align 4
  %_23 = sext i32 %_24 to i64
; call core::ptr::mut_ptr::<impl *mut T>::offset::precondition_check
  call void @"_ZN4core3ptr7mut_ptr31_$LT$impl$u20$$BP$mut$u20$T$GT$6offset18precondition_check17h21c384f3cfd2fa2aE"(ptr %arr, i64 %_23, i64 4) #8
  %_0.i40 = getelementptr inbounds i32, ptr %arr, i64 %_23
  %_232 = ptrtoint ptr %_0.i40 to i64
  %_235 = and i64 %_232, 3
  %_236 = icmp eq i64 %_235, 0
  br i1 %_236, label %bb74, label %panic19

bb18:                                             ; preds = %bb80, %bb17
  %_42 = load i32, ptr %i, align 4
  %_41 = icmp slt i32 %_42, 5
  br i1 %_41, label %bb19, label %bb24

bb24:                                             ; preds = %bb18
  store i32 0, ptr %i, align 4
  br label %bb25

bb19:                                             ; preds = %bb18
  %_48 = load i32, ptr %i, align 4
  %_43 = call i32 (ptr, ...) @printf(ptr @alloc_ab18ed20745df956d868a0a5b724c73f, i32 %_48) #8
  %_52 = load ptr, ptr %buckets, align 8
  %_54 = load i32, ptr %i, align 4
  %_53 = sext i32 %_54 to i64
; call core::ptr::mut_ptr::<impl *mut T>::offset::precondition_check
  call void @"_ZN4core3ptr7mut_ptr31_$LT$impl$u20$$BP$mut$u20$T$GT$6offset18precondition_check17h21c384f3cfd2fa2aE"(ptr %_52, i64 %_53, i64 8) #8
  %_0.i33 = getelementptr inbounds ptr, ptr %_52, i64 %_53
  %_202 = ptrtoint ptr %_0.i33 to i64
  %_205 = and i64 %_202, 7
  %_206 = icmp eq i64 %_205, 0
  br i1 %_206, label %bb69, label %panic17

bb25:                                             ; preds = %bb81, %bb24
  %_61 = load i32, ptr %i, align 4
  %_60 = icmp slt i32 %_61, 5
  br i1 %_60, label %bb26, label %bb30

bb30:                                             ; preds = %bb25
  %_73 = call i32 (ptr, ...) @printf(ptr @alloc_28e86da7097919e7b913744b95c9fd2c) #8
  %_78 = call i32 (ptr, ...) @printf(ptr @alloc_519245da23be4a29a7999b211260d4d4) #8
  store i32 0, ptr %i, align 4
  br label %bb33

bb26:                                             ; preds = %bb25
  %_64 = load ptr, ptr %buckets, align 8
  %_66 = load i32, ptr %i, align 4
  %_65 = sext i32 %_66 to i64
; call core::ptr::mut_ptr::<impl *mut T>::offset::precondition_check
  call void @"_ZN4core3ptr7mut_ptr31_$LT$impl$u20$$BP$mut$u20$T$GT$6offset18precondition_check17h21c384f3cfd2fa2aE"(ptr %_64, i64 %_65, i64 8) #8
  %_0.i35 = getelementptr inbounds ptr, ptr %_64, i64 %_65
  %_336 = ptrtoint ptr %_0.i35 to i64
  %_337 = icmp eq i64 %_336, 0
  %_338 = and i1 %_337, true
  %_339 = xor i1 %_338, true
  br i1 %_339, label %bb89, label %panic14

bb33:                                             ; preds = %bb82, %bb30
  %_84 = load i32, ptr %i, align 4
  %_83 = icmp slt i32 %_84, 5
  br i1 %_83, label %bb34, label %bb39

bb39:                                             ; preds = %bb33
  store i32 0, ptr %j, align 4
  store i32 0, ptr %i, align 4
  br label %bb40

bb34:                                             ; preds = %bb33
  %_90 = load i32, ptr %i, align 4
  %_85 = call i32 (ptr, ...) @printf(ptr @alloc_ab18ed20745df956d868a0a5b724c73f, i32 %_90) #8
  %_94 = load ptr, ptr %buckets, align 8
  %_96 = load i32, ptr %i, align 4
  %_95 = sext i32 %_96 to i64
; call core::ptr::mut_ptr::<impl *mut T>::offset::precondition_check
  call void @"_ZN4core3ptr7mut_ptr31_$LT$impl$u20$$BP$mut$u20$T$GT$6offset18precondition_check17h21c384f3cfd2fa2aE"(ptr %_94, i64 %_95, i64 8) #8
  %_0.i36 = getelementptr inbounds ptr, ptr %_94, i64 %_95
  %_190 = ptrtoint ptr %_0.i36 to i64
  %_193 = and i64 %_190, 7
  %_194 = icmp eq i64 %_193, 0
  br i1 %_194, label %bb67, label %panic12

bb40:                                             ; preds = %bb45, %bb39
  %_103 = load i32, ptr %i, align 4
  %_102 = icmp slt i32 %_103, 5
  br i1 %_102, label %bb41, label %bb51

bb51:                                             ; preds = %bb40
  store i32 0, ptr %i, align 4
  br label %bb52

bb41:                                             ; preds = %bb40
  store ptr null, ptr %node, align 8
  %_107 = load ptr, ptr %buckets, align 8
  %_109 = load i32, ptr %i, align 4
  %_108 = sext i32 %_109 to i64
; call core::ptr::mut_ptr::<impl *mut T>::offset::precondition_check
  call void @"_ZN4core3ptr7mut_ptr31_$LT$impl$u20$$BP$mut$u20$T$GT$6offset18precondition_check17h21c384f3cfd2fa2aE"(ptr %_107, i64 %_108, i64 8) #8
  %_0.i37 = getelementptr inbounds ptr, ptr %_107, i64 %_108
  %_184 = ptrtoint ptr %_0.i37 to i64
  %_187 = and i64 %_184, 7
  %_188 = icmp eq i64 %_187, 0
  br i1 %_188, label %bb66, label %panic4

bb52:                                             ; preds = %bb57, %bb51
  %_135 = load i32, ptr %i, align 4
  %_134 = icmp slt i32 %_135, 5
  br i1 %_134, label %bb53, label %bb59

bb59:                                             ; preds = %bb52
  %_152 = load ptr, ptr %buckets, align 8
  call void @free(ptr %_152) #8
  ret void

bb53:                                             ; preds = %bb52
  store ptr null, ptr %node_0, align 8
  %_139 = load ptr, ptr %buckets, align 8
  %_141 = load i32, ptr %i, align 4
  %_140 = sext i32 %_141 to i64
; call core::ptr::mut_ptr::<impl *mut T>::offset::precondition_check
  call void @"_ZN4core3ptr7mut_ptr31_$LT$impl$u20$$BP$mut$u20$T$GT$6offset18precondition_check17h21c384f3cfd2fa2aE"(ptr %_139, i64 %_140, i64 8) #8
  %_0.i38 = getelementptr inbounds ptr, ptr %_139, i64 %_140
  %_160 = ptrtoint ptr %_0.i38 to i64
  %_163 = and i64 %_160, 7
  %_164 = icmp eq i64 %_163, 0
  br i1 %_164, label %bb62, label %panic

bb62:                                             ; preds = %bb53
  %_322 = ptrtoint ptr %_0.i38 to i64
  %_325 = icmp eq i64 %_322, 0
  %_326 = and i1 %_325, true
  %_327 = xor i1 %_326, true
  br i1 %_327, label %bb87, label %panic1

panic:                                            ; preds = %bb53
; call core::panicking::panic_misaligned_pointer_dereference
  call void @_ZN4core9panicking36panic_misaligned_pointer_dereference17hcc3cbded9382b6e5E(i64 8, i64 %_160, ptr align 8 @alloc_a7a319421da9a77576ac7888b1491544) #7
  unreachable

bb87:                                             ; preds = %bb62
  %_137 = load ptr, ptr %_0.i38, align 8
  store ptr %_137, ptr %node_0, align 8
  br label %bb55

panic1:                                           ; preds = %bb62
; call core::panicking::panic_null_pointer_dereference
  call void @_ZN4core9panicking30panic_null_pointer_dereference17hf718fcc86a223baaE(ptr align 8 @alloc_a7a319421da9a77576ac7888b1491544) #7
  unreachable

bb55:                                             ; preds = %bb88, %bb87
  %_143 = load ptr, ptr %node_0, align 8
; call core::ptr::mut_ptr::<impl *mut T>::is_null
  %_142 = call zeroext i1 @"_ZN4core3ptr7mut_ptr31_$LT$impl$u20$$BP$mut$u20$T$GT$7is_null17h849b0546369e934fE"(ptr %_143) #8
  br i1 %_142, label %bb57, label %bb58

bb58:                                             ; preds = %bb55
  store ptr null, ptr %tmp, align 8
  %_145 = load ptr, ptr %node_0, align 8
  store ptr %_145, ptr %tmp, align 8
  %_153 = load ptr, ptr %node_0, align 8
  %_154 = ptrtoint ptr %_153 to i64
  %_157 = and i64 %_154, 7
  %_158 = icmp eq i64 %_157, 0
  br i1 %_158, label %bb61, label %panic2

bb57:                                             ; preds = %bb55
  %0 = load i32, ptr %i, align 4
  %1 = add i32 %0, 1
  store i32 %1, ptr %i, align 4
  br label %bb52

bb61:                                             ; preds = %bb58
  %_328 = load ptr, ptr %node_0, align 8
  %_329 = ptrtoint ptr %_328 to i64
  %_332 = icmp eq i64 %_329, 0
  %_333 = and i1 %_332, true
  %_334 = xor i1 %_333, true
  br i1 %_334, label %bb88, label %panic3

panic2:                                           ; preds = %bb58
; call core::panicking::panic_misaligned_pointer_dereference
  call void @_ZN4core9panicking36panic_misaligned_pointer_dereference17hcc3cbded9382b6e5E(i64 8, i64 %_154, ptr align 8 @alloc_e7f7c3492452b02466692136d6c42eb0) #7
  unreachable

bb88:                                             ; preds = %bb61
  %2 = load ptr, ptr %node_0, align 8
  %3 = getelementptr inbounds i8, ptr %2, i64 8
  %_146 = load ptr, ptr %3, align 8
  store ptr %_146, ptr %node_0, align 8
  %_149 = load ptr, ptr %tmp, align 8
  call void @free(ptr %_149) #8
  br label %bb55

panic3:                                           ; preds = %bb61
; call core::panicking::panic_null_pointer_dereference
  call void @_ZN4core9panicking30panic_null_pointer_dereference17hf718fcc86a223baaE(ptr align 8 @alloc_e7f7c3492452b02466692136d6c42eb0) #7
  unreachable

bb66:                                             ; preds = %bb41
  %_294 = ptrtoint ptr %_0.i37 to i64
  %_297 = icmp eq i64 %_294, 0
  %_298 = and i1 %_297, true
  %_299 = xor i1 %_298, true
  br i1 %_299, label %bb83, label %panic5

panic4:                                           ; preds = %bb41
; call core::panicking::panic_misaligned_pointer_dereference
  call void @_ZN4core9panicking36panic_misaligned_pointer_dereference17hcc3cbded9382b6e5E(i64 8, i64 %_184, ptr align 8 @alloc_0f6d1b94949084044caeaf29b1f6095d) #7
  unreachable

bb83:                                             ; preds = %bb66
  %_105 = load ptr, ptr %_0.i37, align 8
  store ptr %_105, ptr %node, align 8
  br label %bb43

panic5:                                           ; preds = %bb66
; call core::panicking::panic_null_pointer_dereference
  call void @_ZN4core9panicking30panic_null_pointer_dereference17hf718fcc86a223baaE(ptr align 8 @alloc_0f6d1b94949084044caeaf29b1f6095d) #7
  unreachable

bb43:                                             ; preds = %bb86, %bb83
  %_111 = load ptr, ptr %node, align 8
; call core::ptr::mut_ptr::<impl *mut T>::is_null
  %_110 = call zeroext i1 @"_ZN4core3ptr7mut_ptr31_$LT$impl$u20$$BP$mut$u20$T$GT$7is_null17h849b0546369e934fE"(ptr %_111) #8
  br i1 %_110, label %bb45, label %bb46

bb46:                                             ; preds = %bb43
  %_113 = load i32, ptr %j, align 4
  %_112 = icmp slt i32 %_113, 8
  br i1 %_112, label %bb47, label %bb48

bb45:                                             ; preds = %bb43
  %4 = load i32, ptr %i, align 4
  %5 = add i32 %4, 1
  store i32 %5, ptr %i, align 4
  br label %bb40

bb48:                                             ; preds = %bb46
  call void @__assert_fail(ptr @alloc_ba0f0433856036763d5f1cf09d04a200, ptr @alloc_a90ae8869a14b30b38ddb9053154fd37, i32 83, ptr @alloc_6231c37b8fc2cec05eac6eeaf74ce9d2) #7
  unreachable

bb47:                                             ; preds = %bb46
  %fresh3 = load i32, ptr %j, align 4
  %_129 = load i32, ptr %j, align 4
  %6 = add i32 %_129, 1
  store i32 %6, ptr %j, align 4
  %_177 = load ptr, ptr %node, align 8
  %_178 = ptrtoint ptr %_177 to i64
  %_181 = and i64 %_178, 7
  %_182 = icmp eq i64 %_181, 0
  br i1 %_182, label %bb65, label %panic6

bb65:                                             ; preds = %bb47
  %_300 = load ptr, ptr %node, align 8
  %_301 = ptrtoint ptr %_300 to i64
  %_304 = icmp eq i64 %_301, 0
  %_305 = and i1 %_304, true
  %_306 = xor i1 %_305, true
  br i1 %_306, label %bb84, label %panic7

panic6:                                           ; preds = %bb47
; call core::panicking::panic_misaligned_pointer_dereference
  call void @_ZN4core9panicking36panic_misaligned_pointer_dereference17hcc3cbded9382b6e5E(i64 8, i64 %_178, ptr align 8 @alloc_0ffb67e83a67ffca0f0b75e9294a4cd0) #7
  unreachable

bb84:                                             ; preds = %bb65
  %7 = load ptr, ptr %node, align 8
  %_130 = load i32, ptr %7, align 8
  %_132 = sext i32 %fresh3 to i64
; call core::ptr::mut_ptr::<impl *mut T>::offset::precondition_check
  call void @"_ZN4core3ptr7mut_ptr31_$LT$impl$u20$$BP$mut$u20$T$GT$6offset18precondition_check17h21c384f3cfd2fa2aE"(ptr %arr, i64 %_132, i64 4) #8
  %_0.i41 = getelementptr inbounds i32, ptr %arr, i64 %_132
  %_172 = ptrtoint ptr %_0.i41 to i64
  %_175 = and i64 %_172, 3
  %_176 = icmp eq i64 %_175, 0
  br i1 %_176, label %bb64, label %panic8

panic7:                                           ; preds = %bb65
; call core::panicking::panic_null_pointer_dereference
  call void @_ZN4core9panicking30panic_null_pointer_dereference17hf718fcc86a223baaE(ptr align 8 @alloc_0ffb67e83a67ffca0f0b75e9294a4cd0) #7
  unreachable

bb64:                                             ; preds = %bb84
  %_308 = ptrtoint ptr %_0.i41 to i64
  %_311 = icmp eq i64 %_308, 0
  %_312 = and i1 %_311, true
  %_313 = xor i1 %_312, true
  br i1 %_313, label %bb85, label %panic9

panic8:                                           ; preds = %bb84
; call core::panicking::panic_misaligned_pointer_dereference
  call void @_ZN4core9panicking36panic_misaligned_pointer_dereference17hcc3cbded9382b6e5E(i64 4, i64 %_172, ptr align 8 @alloc_ed51078e6dc684779de3934d5e746b2a) #7
  unreachable

bb85:                                             ; preds = %bb64
  store i32 %_130, ptr %_0.i41, align 4
  %_165 = load ptr, ptr %node, align 8
  %_166 = ptrtoint ptr %_165 to i64
  %_169 = and i64 %_166, 7
  %_170 = icmp eq i64 %_169, 0
  br i1 %_170, label %bb63, label %panic10

panic9:                                           ; preds = %bb64
; call core::panicking::panic_null_pointer_dereference
  call void @_ZN4core9panicking30panic_null_pointer_dereference17hf718fcc86a223baaE(ptr align 8 @alloc_ed51078e6dc684779de3934d5e746b2a) #7
  unreachable

bb63:                                             ; preds = %bb85
  %_314 = load ptr, ptr %node, align 8
  %_315 = ptrtoint ptr %_314 to i64
  %_318 = icmp eq i64 %_315, 0
  %_319 = and i1 %_318, true
  %_320 = xor i1 %_319, true
  br i1 %_320, label %bb86, label %panic11

panic10:                                          ; preds = %bb85
; call core::panicking::panic_misaligned_pointer_dereference
  call void @_ZN4core9panicking36panic_misaligned_pointer_dereference17hcc3cbded9382b6e5E(i64 8, i64 %_166, ptr align 8 @alloc_c9d974f032f2e0c7159647483e9183b1) #7
  unreachable

bb86:                                             ; preds = %bb63
  %8 = load ptr, ptr %node, align 8
  %9 = getelementptr inbounds i8, ptr %8, i64 8
  %_133 = load ptr, ptr %9, align 8
  store ptr %_133, ptr %node, align 8
  br label %bb43

panic11:                                          ; preds = %bb63
; call core::panicking::panic_null_pointer_dereference
  call void @_ZN4core9panicking30panic_null_pointer_dereference17hf718fcc86a223baaE(ptr align 8 @alloc_c9d974f032f2e0c7159647483e9183b1) #7
  unreachable

bb67:                                             ; preds = %bb34
  %_287 = ptrtoint ptr %_0.i36 to i64
  %_290 = icmp eq i64 %_287, 0
  %_291 = and i1 %_290, true
  %_292 = xor i1 %_291, true
  br i1 %_292, label %bb82, label %panic13

panic12:                                          ; preds = %bb34
; call core::panicking::panic_misaligned_pointer_dereference
  call void @_ZN4core9panicking36panic_misaligned_pointer_dereference17hcc3cbded9382b6e5E(i64 8, i64 %_190, ptr align 8 @alloc_002ba188a868a98d93cb87bb9e8477d9) #7
  unreachable

bb82:                                             ; preds = %bb67
  %_92 = load ptr, ptr %_0.i36, align 8
  call void @printBuckets(ptr %_92) #8
  %_97 = call i32 (ptr, ...) @printf(ptr @alloc_f3588b28b94f0809fcc8d717033d3e48) #8
  %10 = load i32, ptr %i, align 4
  %11 = add i32 %10, 1
  store i32 %11, ptr %i, align 4
  br label %bb33

panic13:                                          ; preds = %bb67
; call core::panicking::panic_null_pointer_dereference
  call void @_ZN4core9panicking30panic_null_pointer_dereference17hf718fcc86a223baaE(ptr align 8 @alloc_002ba188a868a98d93cb87bb9e8477d9) #7
  unreachable

bb89:                                             ; preds = %bb26
  %_70 = load ptr, ptr %buckets, align 8
  %_72 = load i32, ptr %i, align 4
  %_71 = sext i32 %_72 to i64
; call core::ptr::mut_ptr::<impl *mut T>::offset::precondition_check
  call void @"_ZN4core3ptr7mut_ptr31_$LT$impl$u20$$BP$mut$u20$T$GT$6offset18precondition_check17h21c384f3cfd2fa2aE"(ptr %_70, i64 %_71, i64 8) #8
  %_0.i34 = getelementptr inbounds ptr, ptr %_70, i64 %_71
  %_196 = ptrtoint ptr %_0.i34 to i64
  %_199 = and i64 %_196, 7
  %_200 = icmp eq i64 %_199, 0
  br i1 %_200, label %bb68, label %panic15

panic14:                                          ; preds = %bb26
; call core::panicking::panic_null_pointer_dereference
  call void @_ZN4core9panicking30panic_null_pointer_dereference17hf718fcc86a223baaE(ptr align 8 @alloc_9d5717b4b074bb65c7f6dbd462dd54ba) #7
  unreachable

bb68:                                             ; preds = %bb89
  %_280 = ptrtoint ptr %_0.i34 to i64
  %_283 = icmp eq i64 %_280, 0
  %_284 = and i1 %_283, true
  %_285 = xor i1 %_284, true
  br i1 %_285, label %bb81, label %panic16

panic15:                                          ; preds = %bb89
; call core::panicking::panic_misaligned_pointer_dereference
  call void @_ZN4core9panicking36panic_misaligned_pointer_dereference17hcc3cbded9382b6e5E(i64 8, i64 %_196, ptr align 8 @alloc_1bfd86aae95dbfc6c1667585fbfe2951) #7
  unreachable

bb81:                                             ; preds = %bb68
  %_68 = load ptr, ptr %_0.i34, align 8
  %_67 = call ptr @InsertionSort(ptr %_68) #8
  store ptr %_67, ptr %_0.i35, align 8
  %12 = load i32, ptr %i, align 4
  %13 = add i32 %12, 1
  store i32 %13, ptr %i, align 4
  br label %bb25

panic16:                                          ; preds = %bb68
; call core::panicking::panic_null_pointer_dereference
  call void @_ZN4core9panicking30panic_null_pointer_dereference17hf718fcc86a223baaE(ptr align 8 @alloc_1bfd86aae95dbfc6c1667585fbfe2951) #7
  unreachable

bb69:                                             ; preds = %bb19
  %_273 = ptrtoint ptr %_0.i33 to i64
  %_276 = icmp eq i64 %_273, 0
  %_277 = and i1 %_276, true
  %_278 = xor i1 %_277, true
  br i1 %_278, label %bb80, label %panic18

panic17:                                          ; preds = %bb19
; call core::panicking::panic_misaligned_pointer_dereference
  call void @_ZN4core9panicking36panic_misaligned_pointer_dereference17hcc3cbded9382b6e5E(i64 8, i64 %_202, ptr align 8 @alloc_d8f3ae883c7c483feb59282980c89a3e) #7
  unreachable

bb80:                                             ; preds = %bb69
  %_50 = load ptr, ptr %_0.i33, align 8
  call void @printBuckets(ptr %_50) #8
  %_55 = call i32 (ptr, ...) @printf(ptr @alloc_f3588b28b94f0809fcc8d717033d3e48) #8
  %14 = load i32, ptr %i, align 4
  %15 = add i32 %14, 1
  store i32 %15, ptr %i, align 4
  br label %bb18

panic18:                                          ; preds = %bb69
; call core::panicking::panic_null_pointer_dereference
  call void @_ZN4core9panicking30panic_null_pointer_dereference17hf718fcc86a223baaE(ptr align 8 @alloc_d8f3ae883c7c483feb59282980c89a3e) #7
  unreachable

bb74:                                             ; preds = %bb9
  %_238 = ptrtoint ptr %_0.i40 to i64
  %_241 = icmp eq i64 %_238, 0
  %_242 = and i1 %_241, true
  %_243 = xor i1 %_242, true
  br i1 %_243, label %bb75, label %panic20

panic19:                                          ; preds = %bb9
; call core::panicking::panic_misaligned_pointer_dereference
  call void @_ZN4core9panicking36panic_misaligned_pointer_dereference17hcc3cbded9382b6e5E(i64 4, i64 %_232, ptr align 8 @alloc_28c31f7c444a4bdb85887feb5c3c1b99) #7
  unreachable

bb75:                                             ; preds = %bb74
  %_21 = load i32, ptr %_0.i40, align 4
  %pos = call i32 @getBucketIndex(i32 %_21) #8
  %_25 = call ptr @malloc(i64 16) #8
  store ptr %_25, ptr %current, align 8
  %_31 = load i32, ptr %i, align 4
  %_30 = sext i32 %_31 to i64
; call core::ptr::mut_ptr::<impl *mut T>::offset::precondition_check
  call void @"_ZN4core3ptr7mut_ptr31_$LT$impl$u20$$BP$mut$u20$T$GT$6offset18precondition_check17h21c384f3cfd2fa2aE"(ptr %arr, i64 %_30, i64 4) #8
  %_0.i39 = getelementptr inbounds i32, ptr %arr, i64 %_30
  %_226 = ptrtoint ptr %_0.i39 to i64
  %_229 = and i64 %_226, 3
  %_230 = icmp eq i64 %_229, 0
  br i1 %_230, label %bb73, label %panic21

panic20:                                          ; preds = %bb74
; call core::panicking::panic_null_pointer_dereference
  call void @_ZN4core9panicking30panic_null_pointer_dereference17hf718fcc86a223baaE(ptr align 8 @alloc_28c31f7c444a4bdb85887feb5c3c1b99) #7
  unreachable

bb73:                                             ; preds = %bb75
  %_245 = ptrtoint ptr %_0.i39 to i64
  %_248 = icmp eq i64 %_245, 0
  %_249 = and i1 %_248, true
  %_250 = xor i1 %_249, true
  br i1 %_250, label %bb76, label %panic22

panic21:                                          ; preds = %bb75
; call core::panicking::panic_misaligned_pointer_dereference
  call void @_ZN4core9panicking36panic_misaligned_pointer_dereference17hcc3cbded9382b6e5E(i64 4, i64 %_226, ptr align 8 @alloc_ab466ebffe9ff9f491e69153d12d4598) #7
  unreachable

bb76:                                             ; preds = %bb73
  %_28 = load i32, ptr %_0.i39, align 4
  %_219 = load ptr, ptr %current, align 8
  %_220 = ptrtoint ptr %_219 to i64
  %_223 = and i64 %_220, 7
  %_224 = icmp eq i64 %_223, 0
  br i1 %_224, label %bb72, label %panic23

panic22:                                          ; preds = %bb73
; call core::panicking::panic_null_pointer_dereference
  call void @_ZN4core9panicking30panic_null_pointer_dereference17hf718fcc86a223baaE(ptr align 8 @alloc_ab466ebffe9ff9f491e69153d12d4598) #7
  unreachable

bb72:                                             ; preds = %bb76
  %_251 = load ptr, ptr %current, align 8
  %_252 = ptrtoint ptr %_251 to i64
  %_255 = icmp eq i64 %_252, 0
  %_256 = and i1 %_255, true
  %_257 = xor i1 %_256, true
  br i1 %_257, label %bb77, label %panic24

panic23:                                          ; preds = %bb76
; call core::panicking::panic_misaligned_pointer_dereference
  call void @_ZN4core9panicking36panic_misaligned_pointer_dereference17hcc3cbded9382b6e5E(i64 8, i64 %_220, ptr align 8 @alloc_2e21785ec7e2d2bffd360fb5a6d35da7) #7
  unreachable

bb77:                                             ; preds = %bb72
  %16 = load ptr, ptr %current, align 8
  store i32 %_28, ptr %16, align 8
  %_34 = load ptr, ptr %buckets, align 8
  %_35 = sext i32 %pos to i64
; call core::ptr::mut_ptr::<impl *mut T>::offset::precondition_check
  call void @"_ZN4core3ptr7mut_ptr31_$LT$impl$u20$$BP$mut$u20$T$GT$6offset18precondition_check17h21c384f3cfd2fa2aE"(ptr %_34, i64 %_35, i64 8) #8
  %_0.i32 = getelementptr inbounds ptr, ptr %_34, i64 %_35
  %_214 = ptrtoint ptr %_0.i32 to i64
  %_217 = and i64 %_214, 7
  %_218 = icmp eq i64 %_217, 0
  br i1 %_218, label %bb71, label %panic25

panic24:                                          ; preds = %bb72
; call core::panicking::panic_null_pointer_dereference
  call void @_ZN4core9panicking30panic_null_pointer_dereference17hf718fcc86a223baaE(ptr align 8 @alloc_2e21785ec7e2d2bffd360fb5a6d35da7) #7
  unreachable

bb71:                                             ; preds = %bb77
  %_259 = ptrtoint ptr %_0.i32 to i64
  %_262 = icmp eq i64 %_259, 0
  %_263 = and i1 %_262, true
  %_264 = xor i1 %_263, true
  br i1 %_264, label %bb78, label %panic26

panic25:                                          ; preds = %bb77
; call core::panicking::panic_misaligned_pointer_dereference
  call void @_ZN4core9panicking36panic_misaligned_pointer_dereference17hcc3cbded9382b6e5E(i64 8, i64 %_214, ptr align 8 @alloc_23cf98fd9ce131a1e731d1c3ebcf322b) #7
  unreachable

bb78:                                             ; preds = %bb71
  %_32 = load ptr, ptr %_0.i32, align 8
  %_207 = load ptr, ptr %current, align 8
  %_208 = ptrtoint ptr %_207 to i64
  %_211 = and i64 %_208, 7
  %_212 = icmp eq i64 %_211, 0
  br i1 %_212, label %bb70, label %panic27

panic26:                                          ; preds = %bb71
; call core::panicking::panic_null_pointer_dereference
  call void @_ZN4core9panicking30panic_null_pointer_dereference17hf718fcc86a223baaE(ptr align 8 @alloc_23cf98fd9ce131a1e731d1c3ebcf322b) #7
  unreachable

bb70:                                             ; preds = %bb78
  %_265 = load ptr, ptr %current, align 8
  %_266 = ptrtoint ptr %_265 to i64
  %_269 = icmp eq i64 %_266, 0
  %_270 = and i1 %_269, true
  %_271 = xor i1 %_270, true
  br i1 %_271, label %bb79, label %panic28

panic27:                                          ; preds = %bb78
; call core::panicking::panic_misaligned_pointer_dereference
  call void @_ZN4core9panicking36panic_misaligned_pointer_dereference17hcc3cbded9382b6e5E(i64 8, i64 %_208, ptr align 8 @alloc_54661a6bf4c4c14d833e867732f015c6) #7
  unreachable

bb79:                                             ; preds = %bb70
  %17 = load ptr, ptr %current, align 8
  %18 = getelementptr inbounds i8, ptr %17, i64 8
  store ptr %_32, ptr %18, align 8
  %_38 = load ptr, ptr %buckets, align 8
  %_39 = sext i32 %pos to i64
; call core::ptr::mut_ptr::<impl *mut T>::offset::precondition_check
  call void @"_ZN4core3ptr7mut_ptr31_$LT$impl$u20$$BP$mut$u20$T$GT$6offset18precondition_check17h21c384f3cfd2fa2aE"(ptr %_38, i64 %_39, i64 8) #8
  %_0.i31 = getelementptr inbounds ptr, ptr %_38, i64 %_39
  %_341 = ptrtoint ptr %_0.i31 to i64
  %_342 = icmp eq i64 %_341, 0
  %_343 = and i1 %_342, true
  %_344 = xor i1 %_343, true
  br i1 %_344, label %bb90, label %panic29

panic28:                                          ; preds = %bb70
; call core::panicking::panic_null_pointer_dereference
  call void @_ZN4core9panicking30panic_null_pointer_dereference17hf718fcc86a223baaE(ptr align 8 @alloc_54661a6bf4c4c14d833e867732f015c6) #7
  unreachable

bb90:                                             ; preds = %bb79
  %_40 = load ptr, ptr %current, align 8
  store ptr %_40, ptr %_0.i31, align 8
  %19 = load i32, ptr %i, align 4
  %20 = add i32 %19, 1
  store i32 %20, ptr %i, align 4
  br label %bb8

panic29:                                          ; preds = %bb79
; call core::panicking::panic_null_pointer_dereference
  call void @_ZN4core9panicking30panic_null_pointer_dereference17hf718fcc86a223baaE(ptr align 8 @alloc_4fcd05f532518444ab81013c4ebdb1f3) #7
  unreachable

bb91:                                             ; preds = %bb5
  store ptr null, ptr %_0.i, align 8
  %21 = load i32, ptr %i, align 4
  %22 = add i32 %21, 1
  store i32 %22, ptr %i, align 4
  br label %bb4

panic30:                                          ; preds = %bb5
; call core::panicking::panic_null_pointer_dereference
  call void @_ZN4core9panicking30panic_null_pointer_dereference17hf718fcc86a223baaE(ptr align 8 @alloc_3756f2a6fdac19865b2b1f9f39cd660b) #7
  unreachable
}

; Function Attrs: nounwind nonlazybind
define ptr @InsertionSort(ptr %list) unnamed_addr #2 {
start:
  %tmp_0 = alloca [8 x i8], align 8
  %tmp = alloca [8 x i8], align 8
  %ptr = alloca [8 x i8], align 8
  %nodeList = alloca [8 x i8], align 8
  %k = alloca [8 x i8], align 8
  %_0 = alloca [8 x i8], align 8
  store ptr null, ptr %k, align 8
  store ptr null, ptr %nodeList, align 8
; call core::ptr::mut_ptr::<impl *mut T>::is_null
  %_4 = call zeroext i1 @"_ZN4core3ptr7mut_ptr31_$LT$impl$u20$$BP$mut$u20$T$GT$7is_null17h849b0546369e934fE"(ptr %list) #8
  br i1 %_4, label %bb4, label %bb2

bb2:                                              ; preds = %start
  %_146 = ptrtoint ptr %list to i64
  %_149 = and i64 %_146, 7
  %_150 = icmp eq i64 %_149, 0
  br i1 %_150, label %bb39, label %panic

bb4:                                              ; preds = %bb40, %start
  store ptr %list, ptr %_0, align 8
  br label %bb20

bb39:                                             ; preds = %bb2
  %_152 = ptrtoint ptr %list to i64
  %_155 = icmp eq i64 %_152, 0
  %_156 = and i1 %_155, true
  %_157 = xor i1 %_156, true
  br i1 %_157, label %bb40, label %panic1

panic:                                            ; preds = %bb2
; call core::panicking::panic_misaligned_pointer_dereference
  call void @_ZN4core9panicking36panic_misaligned_pointer_dereference17hcc3cbded9382b6e5E(i64 8, i64 %_146, ptr align 8 @alloc_dfd4471ce4f291cdcb3f31bae0d05d1f) #7
  unreachable

bb40:                                             ; preds = %bb39
  %0 = getelementptr inbounds i8, ptr %list, i64 8
  %_6 = load ptr, ptr %0, align 8
; call core::ptr::mut_ptr::<impl *mut T>::is_null
  %_5 = call zeroext i1 @"_ZN4core3ptr7mut_ptr31_$LT$impl$u20$$BP$mut$u20$T$GT$7is_null17h849b0546369e934fE"(ptr %_6) #8
  br i1 %_5, label %bb4, label %bb5

panic1:                                           ; preds = %bb39
; call core::panicking::panic_null_pointer_dereference
  call void @_ZN4core9panicking30panic_null_pointer_dereference17hf718fcc86a223baaE(ptr align 8 @alloc_dfd4471ce4f291cdcb3f31bae0d05d1f) #7
  unreachable

bb5:                                              ; preds = %bb40
  store ptr %list, ptr %nodeList, align 8
  %_140 = ptrtoint ptr %list to i64
  %_143 = and i64 %_140, 7
  %_144 = icmp eq i64 %_143, 0
  br i1 %_144, label %bb38, label %panic2

bb38:                                             ; preds = %bb5
  %_159 = ptrtoint ptr %list to i64
  %_162 = icmp eq i64 %_159, 0
  %_163 = and i1 %_162, true
  %_164 = xor i1 %_163, true
  br i1 %_164, label %bb41, label %panic3

panic2:                                           ; preds = %bb5
; call core::panicking::panic_misaligned_pointer_dereference
  call void @_ZN4core9panicking36panic_misaligned_pointer_dereference17hcc3cbded9382b6e5E(i64 8, i64 %_140, ptr align 8 @alloc_6e8a19f73b06021a33cf11f3b2d48238) #7
  unreachable

bb41:                                             ; preds = %bb38
  %1 = getelementptr inbounds i8, ptr %list, i64 8
  %_7 = load ptr, ptr %1, align 8
  store ptr %_7, ptr %k, align 8
  %_133 = load ptr, ptr %nodeList, align 8
  %_134 = ptrtoint ptr %_133 to i64
  %_137 = and i64 %_134, 7
  %_138 = icmp eq i64 %_137, 0
  br i1 %_138, label %bb37, label %panic4

panic3:                                           ; preds = %bb38
; call core::panicking::panic_null_pointer_dereference
  call void @_ZN4core9panicking30panic_null_pointer_dereference17hf718fcc86a223baaE(ptr align 8 @alloc_6e8a19f73b06021a33cf11f3b2d48238) #7
  unreachable

bb37:                                             ; preds = %bb41
  %_165 = load ptr, ptr %nodeList, align 8
  %_166 = ptrtoint ptr %_165 to i64
  %_169 = icmp eq i64 %_166, 0
  %_170 = and i1 %_169, true
  %_171 = xor i1 %_170, true
  br i1 %_171, label %bb42, label %panic5

panic4:                                           ; preds = %bb41
; call core::panicking::panic_misaligned_pointer_dereference
  call void @_ZN4core9panicking36panic_misaligned_pointer_dereference17hcc3cbded9382b6e5E(i64 8, i64 %_134, ptr align 8 @alloc_70178eb7113c3c0b445ab205f817bb84) #7
  unreachable

bb42:                                             ; preds = %bb37
  %2 = load ptr, ptr %nodeList, align 8
  %3 = getelementptr inbounds i8, ptr %2, i64 8
  store ptr null, ptr %3, align 8
  br label %bb6

panic5:                                           ; preds = %bb37
; call core::panicking::panic_null_pointer_dereference
  call void @_ZN4core9panicking30panic_null_pointer_dereference17hf718fcc86a223baaE(ptr align 8 @alloc_70178eb7113c3c0b445ab205f817bb84) #7
  unreachable

bb6:                                              ; preds = %bb46, %bb54, %bb58, %bb42
  %_9 = load ptr, ptr %k, align 8
; call core::ptr::mut_ptr::<impl *mut T>::is_null
  %_8 = call zeroext i1 @"_ZN4core3ptr7mut_ptr31_$LT$impl$u20$$BP$mut$u20$T$GT$7is_null17h849b0546369e934fE"(ptr %_9) #8
  br i1 %_8, label %bb8, label %bb9

bb9:                                              ; preds = %bb6
  store ptr null, ptr %ptr, align 8
  %_127 = load ptr, ptr %nodeList, align 8
  %_128 = ptrtoint ptr %_127 to i64
  %_131 = and i64 %_128, 7
  %_132 = icmp eq i64 %_131, 0
  br i1 %_132, label %bb36, label %panic6

bb8:                                              ; preds = %bb6
  %4 = load ptr, ptr %nodeList, align 8
  store ptr %4, ptr %_0, align 8
  br label %bb20

bb36:                                             ; preds = %bb9
  %_172 = load ptr, ptr %nodeList, align 8
  %_173 = ptrtoint ptr %_172 to i64
  %_176 = icmp eq i64 %_173, 0
  %_177 = and i1 %_176, true
  %_178 = xor i1 %_177, true
  br i1 %_178, label %bb43, label %panic7

panic6:                                           ; preds = %bb9
; call core::panicking::panic_misaligned_pointer_dereference
  call void @_ZN4core9panicking36panic_misaligned_pointer_dereference17hcc3cbded9382b6e5E(i64 8, i64 %_128, ptr align 8 @alloc_8ab490a61e5094234e20afca7467eaf8) #7
  unreachable

bb43:                                             ; preds = %bb36
  %5 = load ptr, ptr %nodeList, align 8
  %_12 = load i32, ptr %5, align 8
  %_121 = load ptr, ptr %k, align 8
  %_122 = ptrtoint ptr %_121 to i64
  %_125 = and i64 %_122, 7
  %_126 = icmp eq i64 %_125, 0
  br i1 %_126, label %bb35, label %panic8

panic7:                                           ; preds = %bb36
; call core::panicking::panic_null_pointer_dereference
  call void @_ZN4core9panicking30panic_null_pointer_dereference17hf718fcc86a223baaE(ptr align 8 @alloc_8ab490a61e5094234e20afca7467eaf8) #7
  unreachable

bb35:                                             ; preds = %bb43
  %_179 = load ptr, ptr %k, align 8
  %_180 = ptrtoint ptr %_179 to i64
  %_183 = icmp eq i64 %_180, 0
  %_184 = and i1 %_183, true
  %_185 = xor i1 %_184, true
  br i1 %_185, label %bb44, label %panic9

panic8:                                           ; preds = %bb43
; call core::panicking::panic_misaligned_pointer_dereference
  call void @_ZN4core9panicking36panic_misaligned_pointer_dereference17hcc3cbded9382b6e5E(i64 8, i64 %_122, ptr align 8 @alloc_fe0950db09b561d038dab754c0209e61) #7
  unreachable

bb44:                                             ; preds = %bb35
  %6 = load ptr, ptr %k, align 8
  %_13 = load i32, ptr %6, align 8
  %_11 = icmp sgt i32 %_12, %_13
  br i1 %_11, label %bb10, label %bb11

panic9:                                           ; preds = %bb35
; call core::panicking::panic_null_pointer_dereference
  call void @_ZN4core9panicking30panic_null_pointer_dereference17hf718fcc86a223baaE(ptr align 8 @alloc_fe0950db09b561d038dab754c0209e61) #7
  unreachable

bb11:                                             ; preds = %bb44
  %_19 = load ptr, ptr %nodeList, align 8
  store ptr %_19, ptr %ptr, align 8
  br label %bb12

bb10:                                             ; preds = %bb44
  store ptr null, ptr %tmp, align 8
  %_15 = load ptr, ptr %k, align 8
  store ptr %_15, ptr %tmp, align 8
  %_115 = load ptr, ptr %k, align 8
  %_116 = ptrtoint ptr %_115 to i64
  %_119 = and i64 %_116, 7
  %_120 = icmp eq i64 %_119, 0
  br i1 %_120, label %bb34, label %panic34

bb12:                                             ; preds = %bb50, %bb11
  %_103 = load ptr, ptr %ptr, align 8
  %_104 = ptrtoint ptr %_103 to i64
  %_107 = and i64 %_104, 7
  %_108 = icmp eq i64 %_107, 0
  br i1 %_108, label %bb32, label %panic10

bb32:                                             ; preds = %bb12
  %_200 = load ptr, ptr %ptr, align 8
  %_201 = ptrtoint ptr %_200 to i64
  %_204 = icmp eq i64 %_201, 0
  %_205 = and i1 %_204, true
  %_206 = xor i1 %_205, true
  br i1 %_206, label %bb47, label %panic11

panic10:                                          ; preds = %bb12
; call core::panicking::panic_misaligned_pointer_dereference
  call void @_ZN4core9panicking36panic_misaligned_pointer_dereference17hcc3cbded9382b6e5E(i64 8, i64 %_104, ptr align 8 @alloc_8ab8ca721ba83876665bf7752f4923c3) #7
  unreachable

bb47:                                             ; preds = %bb32
  %7 = load ptr, ptr %ptr, align 8
  %8 = getelementptr inbounds i8, ptr %7, i64 8
  %_21 = load ptr, ptr %8, align 8
; call core::ptr::mut_ptr::<impl *mut T>::is_null
  %_20 = call zeroext i1 @"_ZN4core3ptr7mut_ptr31_$LT$impl$u20$$BP$mut$u20$T$GT$7is_null17h849b0546369e934fE"(ptr %_21) #8
  br i1 %_20, label %bb16, label %bb14

panic11:                                          ; preds = %bb32
; call core::panicking::panic_null_pointer_dereference
  call void @_ZN4core9panicking30panic_null_pointer_dereference17hf718fcc86a223baaE(ptr align 8 @alloc_8ab8ca721ba83876665bf7752f4923c3) #7
  unreachable

bb14:                                             ; preds = %bb47
  %9 = load ptr, ptr %ptr, align 8
  %10 = getelementptr inbounds i8, ptr %9, i64 8
  %_35 = load ptr, ptr %10, align 8
  %_98 = ptrtoint ptr %_35 to i64
  %_101 = and i64 %_98, 7
  %_102 = icmp eq i64 %_101, 0
  br i1 %_102, label %bb31, label %panic12

bb16:                                             ; preds = %bb49, %bb47
  %_79 = load ptr, ptr %ptr, align 8
  %_80 = ptrtoint ptr %_79 to i64
  %_83 = and i64 %_80, 7
  %_84 = icmp eq i64 %_83, 0
  br i1 %_84, label %bb28, label %panic18

bb31:                                             ; preds = %bb14
  %_208 = ptrtoint ptr %_35 to i64
  %_211 = icmp eq i64 %_208, 0
  %_212 = and i1 %_211, true
  %_213 = xor i1 %_212, true
  br i1 %_213, label %bb48, label %panic13

panic12:                                          ; preds = %bb14
; call core::panicking::panic_misaligned_pointer_dereference
  call void @_ZN4core9panicking36panic_misaligned_pointer_dereference17hcc3cbded9382b6e5E(i64 8, i64 %_98, ptr align 8 @alloc_2332dec42e445e90f04408688658fa29) #7
  unreachable

bb48:                                             ; preds = %bb31
  %_23 = load i32, ptr %_35, align 8
  %_91 = load ptr, ptr %k, align 8
  %_92 = ptrtoint ptr %_91 to i64
  %_95 = and i64 %_92, 7
  %_96 = icmp eq i64 %_95, 0
  br i1 %_96, label %bb30, label %panic14

panic13:                                          ; preds = %bb31
; call core::panicking::panic_null_pointer_dereference
  call void @_ZN4core9panicking30panic_null_pointer_dereference17hf718fcc86a223baaE(ptr align 8 @alloc_2332dec42e445e90f04408688658fa29) #7
  unreachable

bb30:                                             ; preds = %bb48
  %_214 = load ptr, ptr %k, align 8
  %_215 = ptrtoint ptr %_214 to i64
  %_218 = icmp eq i64 %_215, 0
  %_219 = and i1 %_218, true
  %_220 = xor i1 %_219, true
  br i1 %_220, label %bb49, label %panic15

panic14:                                          ; preds = %bb48
; call core::panicking::panic_misaligned_pointer_dereference
  call void @_ZN4core9panicking36panic_misaligned_pointer_dereference17hcc3cbded9382b6e5E(i64 8, i64 %_92, ptr align 8 @alloc_27b5dd20896ff8e004aa83c3b8ba6b3a) #7
  unreachable

bb49:                                             ; preds = %bb30
  %11 = load ptr, ptr %k, align 8
  %_24 = load i32, ptr %11, align 8
  %_22 = icmp sgt i32 %_23, %_24
  br i1 %_22, label %bb16, label %bb15

panic15:                                          ; preds = %bb30
; call core::panicking::panic_null_pointer_dereference
  call void @_ZN4core9panicking30panic_null_pointer_dereference17hf718fcc86a223baaE(ptr align 8 @alloc_27b5dd20896ff8e004aa83c3b8ba6b3a) #7
  unreachable

bb15:                                             ; preds = %bb49
  %_85 = load ptr, ptr %ptr, align 8
  %_86 = ptrtoint ptr %_85 to i64
  %_89 = and i64 %_86, 7
  %_90 = icmp eq i64 %_89, 0
  br i1 %_90, label %bb29, label %panic16

bb29:                                             ; preds = %bb15
  %_221 = load ptr, ptr %ptr, align 8
  %_222 = ptrtoint ptr %_221 to i64
  %_225 = icmp eq i64 %_222, 0
  %_226 = and i1 %_225, true
  %_227 = xor i1 %_226, true
  br i1 %_227, label %bb50, label %panic17

panic16:                                          ; preds = %bb15
; call core::panicking::panic_misaligned_pointer_dereference
  call void @_ZN4core9panicking36panic_misaligned_pointer_dereference17hcc3cbded9382b6e5E(i64 8, i64 %_86, ptr align 8 @alloc_5d0b38fda7ab33925609d0ca77c16b3e) #7
  unreachable

bb50:                                             ; preds = %bb29
  %12 = load ptr, ptr %ptr, align 8
  %13 = getelementptr inbounds i8, ptr %12, i64 8
  %_25 = load ptr, ptr %13, align 8
  store ptr %_25, ptr %ptr, align 8
  br label %bb12

panic17:                                          ; preds = %bb29
; call core::panicking::panic_null_pointer_dereference
  call void @_ZN4core9panicking30panic_null_pointer_dereference17hf718fcc86a223baaE(ptr align 8 @alloc_5d0b38fda7ab33925609d0ca77c16b3e) #7
  unreachable

bb28:                                             ; preds = %bb16
  %_228 = load ptr, ptr %ptr, align 8
  %_229 = ptrtoint ptr %_228 to i64
  %_232 = icmp eq i64 %_229, 0
  %_233 = and i1 %_232, true
  %_234 = xor i1 %_233, true
  br i1 %_234, label %bb51, label %panic19

panic18:                                          ; preds = %bb16
; call core::panicking::panic_misaligned_pointer_dereference
  call void @_ZN4core9panicking36panic_misaligned_pointer_dereference17hcc3cbded9382b6e5E(i64 8, i64 %_80, ptr align 8 @alloc_4949b33712781d6e2c71982ca5dad801) #7
  unreachable

bb51:                                             ; preds = %bb28
  %14 = load ptr, ptr %ptr, align 8
  %15 = getelementptr inbounds i8, ptr %14, i64 8
  %_27 = load ptr, ptr %15, align 8
; call core::ptr::mut_ptr::<impl *mut T>::is_null
  %_26 = call zeroext i1 @"_ZN4core3ptr7mut_ptr31_$LT$impl$u20$$BP$mut$u20$T$GT$7is_null17h849b0546369e934fE"(ptr %_27) #8
  br i1 %_26, label %bb18, label %bb19

panic19:                                          ; preds = %bb28
; call core::panicking::panic_null_pointer_dereference
  call void @_ZN4core9panicking30panic_null_pointer_dereference17hf718fcc86a223baaE(ptr align 8 @alloc_4949b33712781d6e2c71982ca5dad801) #7
  unreachable

bb19:                                             ; preds = %bb51
  store ptr null, ptr %tmp_0, align 8
  %_29 = load ptr, ptr %k, align 8
  store ptr %_29, ptr %tmp_0, align 8
  %_55 = load ptr, ptr %k, align 8
  %_56 = ptrtoint ptr %_55 to i64
  %_59 = and i64 %_56, 7
  %_60 = icmp eq i64 %_59, 0
  br i1 %_60, label %bb24, label %panic20

bb18:                                             ; preds = %bb51
  %_33 = load ptr, ptr %k, align 8
  %_73 = load ptr, ptr %ptr, align 8
  %_74 = ptrtoint ptr %_73 to i64
  %_77 = and i64 %_74, 7
  %_78 = icmp eq i64 %_77, 0
  br i1 %_78, label %bb27, label %panic28

bb24:                                             ; preds = %bb19
  %_256 = load ptr, ptr %k, align 8
  %_257 = ptrtoint ptr %_256 to i64
  %_260 = icmp eq i64 %_257, 0
  %_261 = and i1 %_260, true
  %_262 = xor i1 %_261, true
  br i1 %_262, label %bb55, label %panic21

panic20:                                          ; preds = %bb19
; call core::panicking::panic_misaligned_pointer_dereference
  call void @_ZN4core9panicking36panic_misaligned_pointer_dereference17hcc3cbded9382b6e5E(i64 8, i64 %_56, ptr align 8 @alloc_7cf8d66a3227b5eed5edcd7bc5e279da) #7
  unreachable

bb55:                                             ; preds = %bb24
  %16 = load ptr, ptr %k, align 8
  %17 = getelementptr inbounds i8, ptr %16, i64 8
  %_30 = load ptr, ptr %17, align 8
  store ptr %_30, ptr %k, align 8
  %_49 = load ptr, ptr %ptr, align 8
  %_50 = ptrtoint ptr %_49 to i64
  %_53 = and i64 %_50, 7
  %_54 = icmp eq i64 %_53, 0
  br i1 %_54, label %bb23, label %panic22

panic21:                                          ; preds = %bb24
; call core::panicking::panic_null_pointer_dereference
  call void @_ZN4core9panicking30panic_null_pointer_dereference17hf718fcc86a223baaE(ptr align 8 @alloc_7cf8d66a3227b5eed5edcd7bc5e279da) #7
  unreachable

bb23:                                             ; preds = %bb55
  %_263 = load ptr, ptr %ptr, align 8
  %_264 = ptrtoint ptr %_263 to i64
  %_267 = icmp eq i64 %_264, 0
  %_268 = and i1 %_267, true
  %_269 = xor i1 %_268, true
  br i1 %_269, label %bb56, label %panic23

panic22:                                          ; preds = %bb55
; call core::panicking::panic_misaligned_pointer_dereference
  call void @_ZN4core9panicking36panic_misaligned_pointer_dereference17hcc3cbded9382b6e5E(i64 8, i64 %_50, ptr align 8 @alloc_c4f5b5d7f8712adf31aa5aea1797bae8) #7
  unreachable

bb56:                                             ; preds = %bb23
  %18 = load ptr, ptr %ptr, align 8
  %19 = getelementptr inbounds i8, ptr %18, i64 8
  %_31 = load ptr, ptr %19, align 8
  %_43 = load ptr, ptr %tmp_0, align 8
  %_44 = ptrtoint ptr %_43 to i64
  %_47 = and i64 %_44, 7
  %_48 = icmp eq i64 %_47, 0
  br i1 %_48, label %bb22, label %panic24

panic23:                                          ; preds = %bb23
; call core::panicking::panic_null_pointer_dereference
  call void @_ZN4core9panicking30panic_null_pointer_dereference17hf718fcc86a223baaE(ptr align 8 @alloc_c4f5b5d7f8712adf31aa5aea1797bae8) #7
  unreachable

bb22:                                             ; preds = %bb56
  %_270 = load ptr, ptr %tmp_0, align 8
  %_271 = ptrtoint ptr %_270 to i64
  %_274 = icmp eq i64 %_271, 0
  %_275 = and i1 %_274, true
  %_276 = xor i1 %_275, true
  br i1 %_276, label %bb57, label %panic25

panic24:                                          ; preds = %bb56
; call core::panicking::panic_misaligned_pointer_dereference
  call void @_ZN4core9panicking36panic_misaligned_pointer_dereference17hcc3cbded9382b6e5E(i64 8, i64 %_44, ptr align 8 @alloc_3b88cb096d84cffd3c7630aa4a929537) #7
  unreachable

bb57:                                             ; preds = %bb22
  %20 = load ptr, ptr %tmp_0, align 8
  %21 = getelementptr inbounds i8, ptr %20, i64 8
  store ptr %_31, ptr %21, align 8
  %_32 = load ptr, ptr %tmp_0, align 8
  %_37 = load ptr, ptr %ptr, align 8
  %_38 = ptrtoint ptr %_37 to i64
  %_41 = and i64 %_38, 7
  %_42 = icmp eq i64 %_41, 0
  br i1 %_42, label %bb21, label %panic26

panic25:                                          ; preds = %bb22
; call core::panicking::panic_null_pointer_dereference
  call void @_ZN4core9panicking30panic_null_pointer_dereference17hf718fcc86a223baaE(ptr align 8 @alloc_3b88cb096d84cffd3c7630aa4a929537) #7
  unreachable

bb21:                                             ; preds = %bb57
  %_277 = load ptr, ptr %ptr, align 8
  %_278 = ptrtoint ptr %_277 to i64
  %_281 = icmp eq i64 %_278, 0
  %_282 = and i1 %_281, true
  %_283 = xor i1 %_282, true
  br i1 %_283, label %bb58, label %panic27

panic26:                                          ; preds = %bb57
; call core::panicking::panic_misaligned_pointer_dereference
  call void @_ZN4core9panicking36panic_misaligned_pointer_dereference17hcc3cbded9382b6e5E(i64 8, i64 %_38, ptr align 8 @alloc_8ae28b4e85a8ef60c9105d59156564e5) #7
  unreachable

bb58:                                             ; preds = %bb21
  %22 = load ptr, ptr %ptr, align 8
  %23 = getelementptr inbounds i8, ptr %22, i64 8
  store ptr %_32, ptr %23, align 8
  br label %bb6

panic27:                                          ; preds = %bb21
; call core::panicking::panic_null_pointer_dereference
  call void @_ZN4core9panicking30panic_null_pointer_dereference17hf718fcc86a223baaE(ptr align 8 @alloc_8ae28b4e85a8ef60c9105d59156564e5) #7
  unreachable

bb27:                                             ; preds = %bb18
  %_235 = load ptr, ptr %ptr, align 8
  %_236 = ptrtoint ptr %_235 to i64
  %_239 = icmp eq i64 %_236, 0
  %_240 = and i1 %_239, true
  %_241 = xor i1 %_240, true
  br i1 %_241, label %bb52, label %panic29

panic28:                                          ; preds = %bb18
; call core::panicking::panic_misaligned_pointer_dereference
  call void @_ZN4core9panicking36panic_misaligned_pointer_dereference17hcc3cbded9382b6e5E(i64 8, i64 %_74, ptr align 8 @alloc_355951375ed3ecab77da4ec7761081a3) #7
  unreachable

bb52:                                             ; preds = %bb27
  %24 = load ptr, ptr %ptr, align 8
  %25 = getelementptr inbounds i8, ptr %24, i64 8
  store ptr %_33, ptr %25, align 8
  %_67 = load ptr, ptr %k, align 8
  %_68 = ptrtoint ptr %_67 to i64
  %_71 = and i64 %_68, 7
  %_72 = icmp eq i64 %_71, 0
  br i1 %_72, label %bb26, label %panic30

panic29:                                          ; preds = %bb27
; call core::panicking::panic_null_pointer_dereference
  call void @_ZN4core9panicking30panic_null_pointer_dereference17hf718fcc86a223baaE(ptr align 8 @alloc_355951375ed3ecab77da4ec7761081a3) #7
  unreachable

bb26:                                             ; preds = %bb52
  %_242 = load ptr, ptr %k, align 8
  %_243 = ptrtoint ptr %_242 to i64
  %_246 = icmp eq i64 %_243, 0
  %_247 = and i1 %_246, true
  %_248 = xor i1 %_247, true
  br i1 %_248, label %bb53, label %panic31

panic30:                                          ; preds = %bb52
; call core::panicking::panic_misaligned_pointer_dereference
  call void @_ZN4core9panicking36panic_misaligned_pointer_dereference17hcc3cbded9382b6e5E(i64 8, i64 %_68, ptr align 8 @alloc_1c68d5b7ae6b93638c0421a0473d350d) #7
  unreachable

bb53:                                             ; preds = %bb26
  %26 = load ptr, ptr %k, align 8
  %27 = getelementptr inbounds i8, ptr %26, i64 8
  %_34 = load ptr, ptr %27, align 8
  store ptr %_34, ptr %k, align 8
  %28 = load ptr, ptr %ptr, align 8
  %29 = getelementptr inbounds i8, ptr %28, i64 8
  %_36 = load ptr, ptr %29, align 8
  %_62 = ptrtoint ptr %_36 to i64
  %_65 = and i64 %_62, 7
  %_66 = icmp eq i64 %_65, 0
  br i1 %_66, label %bb25, label %panic32

panic31:                                          ; preds = %bb26
; call core::panicking::panic_null_pointer_dereference
  call void @_ZN4core9panicking30panic_null_pointer_dereference17hf718fcc86a223baaE(ptr align 8 @alloc_1c68d5b7ae6b93638c0421a0473d350d) #7
  unreachable

bb25:                                             ; preds = %bb53
  %_250 = ptrtoint ptr %_36 to i64
  %_253 = icmp eq i64 %_250, 0
  %_254 = and i1 %_253, true
  %_255 = xor i1 %_254, true
  br i1 %_255, label %bb54, label %panic33

panic32:                                          ; preds = %bb53
; call core::panicking::panic_misaligned_pointer_dereference
  call void @_ZN4core9panicking36panic_misaligned_pointer_dereference17hcc3cbded9382b6e5E(i64 8, i64 %_62, ptr align 8 @alloc_65c030de5a93a5087ce4e26a720a77ea) #7
  unreachable

bb54:                                             ; preds = %bb25
  %30 = getelementptr inbounds i8, ptr %_36, i64 8
  store ptr null, ptr %30, align 8
  br label %bb6

panic33:                                          ; preds = %bb25
; call core::panicking::panic_null_pointer_dereference
  call void @_ZN4core9panicking30panic_null_pointer_dereference17hf718fcc86a223baaE(ptr align 8 @alloc_65c030de5a93a5087ce4e26a720a77ea) #7
  unreachable

bb34:                                             ; preds = %bb10
  %_186 = load ptr, ptr %k, align 8
  %_187 = ptrtoint ptr %_186 to i64
  %_190 = icmp eq i64 %_187, 0
  %_191 = and i1 %_190, true
  %_192 = xor i1 %_191, true
  br i1 %_192, label %bb45, label %panic35

panic34:                                          ; preds = %bb10
; call core::panicking::panic_misaligned_pointer_dereference
  call void @_ZN4core9panicking36panic_misaligned_pointer_dereference17hcc3cbded9382b6e5E(i64 8, i64 %_116, ptr align 8 @alloc_6c2c81a11003f3e2ac544ba98f416f52) #7
  unreachable

bb45:                                             ; preds = %bb34
  %31 = load ptr, ptr %k, align 8
  %32 = getelementptr inbounds i8, ptr %31, i64 8
  %_16 = load ptr, ptr %32, align 8
  store ptr %_16, ptr %k, align 8
  %_17 = load ptr, ptr %nodeList, align 8
  %_109 = load ptr, ptr %tmp, align 8
  %_110 = ptrtoint ptr %_109 to i64
  %_113 = and i64 %_110, 7
  %_114 = icmp eq i64 %_113, 0
  br i1 %_114, label %bb33, label %panic36

panic35:                                          ; preds = %bb34
; call core::panicking::panic_null_pointer_dereference
  call void @_ZN4core9panicking30panic_null_pointer_dereference17hf718fcc86a223baaE(ptr align 8 @alloc_6c2c81a11003f3e2ac544ba98f416f52) #7
  unreachable

bb33:                                             ; preds = %bb45
  %_193 = load ptr, ptr %tmp, align 8
  %_194 = ptrtoint ptr %_193 to i64
  %_197 = icmp eq i64 %_194, 0
  %_198 = and i1 %_197, true
  %_199 = xor i1 %_198, true
  br i1 %_199, label %bb46, label %panic37

panic36:                                          ; preds = %bb45
; call core::panicking::panic_misaligned_pointer_dereference
  call void @_ZN4core9panicking36panic_misaligned_pointer_dereference17hcc3cbded9382b6e5E(i64 8, i64 %_110, ptr align 8 @alloc_645f077d7f05a638230e54f4fcbdc852) #7
  unreachable

bb46:                                             ; preds = %bb33
  %33 = load ptr, ptr %tmp, align 8
  %34 = getelementptr inbounds i8, ptr %33, i64 8
  store ptr %_17, ptr %34, align 8
  %_18 = load ptr, ptr %tmp, align 8
  store ptr %_18, ptr %nodeList, align 8
  br label %bb6

panic37:                                          ; preds = %bb33
; call core::panicking::panic_null_pointer_dereference
  call void @_ZN4core9panicking30panic_null_pointer_dereference17hf718fcc86a223baaE(ptr align 8 @alloc_645f077d7f05a638230e54f4fcbdc852) #7
  unreachable

bb20:                                             ; preds = %bb4, %bb8
  %35 = load ptr, ptr %_0, align 8
  ret ptr %35
}

; Function Attrs: nounwind nonlazybind
define i32 @getBucketIndex(i32 %value) unnamed_addr #2 {
start:
  %_5 = icmp eq i32 %value, -2147483648
  %_6 = and i1 false, %_5
  br i1 %_6, label %panic, label %bb2

bb2:                                              ; preds = %start
  %_0 = sdiv i32 %value, 10
  ret i32 %_0

panic:                                            ; preds = %start
; call core::panicking::panic_const::panic_const_div_overflow
  call void @_ZN4core9panicking11panic_const24panic_const_div_overflow17h1ac73c9e33e18298E(ptr align 8 @alloc_b30c12b0737b96de71ba6af6b71f0f8b) #7
  unreachable
}

; Function Attrs: nounwind nonlazybind
define void @print(ptr %ar) unnamed_addr #2 {
start:
  %i = alloca [4 x i8], align 4
  store i32 0, ptr %i, align 4
  store i32 0, ptr %i, align 4
  br label %bb1

bb1:                                              ; preds = %bb8, %start
  %_4 = load i32, ptr %i, align 4
  %_3 = icmp slt i32 %_4, 8
  br i1 %_3, label %bb2, label %bb5

bb5:                                              ; preds = %bb1
  %_14 = call i32 (ptr, ...) @printf(ptr @alloc_f3588b28b94f0809fcc8d717033d3e48) #8
  ret void

bb2:                                              ; preds = %bb1
  %_13 = load i32, ptr %i, align 4
  %_12 = sext i32 %_13 to i64
; call core::ptr::mut_ptr::<impl *mut T>::offset::precondition_check
  call void @"_ZN4core3ptr7mut_ptr31_$LT$impl$u20$$BP$mut$u20$T$GT$6offset18precondition_check17h21c384f3cfd2fa2aE"(ptr %ar, i64 %_12, i64 4) #8
  %_0.i = getelementptr inbounds i32, ptr %ar, i64 %_12
  %_20 = ptrtoint ptr %_0.i to i64
  %_23 = and i64 %_20, 3
  %_24 = icmp eq i64 %_23, 0
  br i1 %_24, label %bb7, label %panic

bb7:                                              ; preds = %bb2
  %_26 = ptrtoint ptr %_0.i to i64
  %_29 = icmp eq i64 %_26, 0
  %_30 = and i1 %_29, true
  %_31 = xor i1 %_30, true
  br i1 %_31, label %bb8, label %panic1

panic:                                            ; preds = %bb2
; call core::panicking::panic_misaligned_pointer_dereference
  call void @_ZN4core9panicking36panic_misaligned_pointer_dereference17hcc3cbded9382b6e5E(i64 4, i64 %_20, ptr align 8 @alloc_a1cf68a6c8d0f89ad8943ccd2e0094bf) #7
  unreachable

bb8:                                              ; preds = %bb7
  %_10 = load i32, ptr %_0.i, align 4
  %_5 = call i32 (ptr, ...) @printf(ptr @alloc_b929c71616281bfd1be2bd4038d3ddf1, i32 %_10) #8
  %0 = load i32, ptr %i, align 4
  %1 = add i32 %0, 1
  store i32 %1, ptr %i, align 4
  br label %bb1

panic1:                                           ; preds = %bb7
; call core::panicking::panic_null_pointer_dereference
  call void @_ZN4core9panicking30panic_null_pointer_dereference17hf718fcc86a223baaE(ptr align 8 @alloc_a1cf68a6c8d0f89ad8943ccd2e0094bf) #7
  unreachable
}

; Function Attrs: nounwind nonlazybind
define void @printBuckets(ptr %list) unnamed_addr #2 {
start:
  %cur = alloca [8 x i8], align 8
  store ptr %list, ptr %cur, align 8
  br label %bb1

bb1:                                              ; preds = %bb9, %start
  %_4 = load ptr, ptr %cur, align 8
; call core::ptr::mut_ptr::<impl *mut T>::is_null
  %_3 = call zeroext i1 @"_ZN4core3ptr7mut_ptr31_$LT$impl$u20$$BP$mut$u20$T$GT$7is_null17h849b0546369e934fE"(ptr %_4) #8
  br i1 %_3, label %bb3, label %bb4

bb4:                                              ; preds = %bb1
  %_18 = load ptr, ptr %cur, align 8
  %_19 = ptrtoint ptr %_18 to i64
  %_22 = and i64 %_19, 7
  %_23 = icmp eq i64 %_22, 0
  br i1 %_23, label %bb7, label %panic

bb3:                                              ; preds = %bb1
  ret void

bb7:                                              ; preds = %bb4
  %_24 = load ptr, ptr %cur, align 8
  %_25 = ptrtoint ptr %_24 to i64
  %_28 = icmp eq i64 %_25, 0
  %_29 = and i1 %_28, true
  %_30 = xor i1 %_29, true
  br i1 %_30, label %bb8, label %panic1

panic:                                            ; preds = %bb4
; call core::panicking::panic_misaligned_pointer_dereference
  call void @_ZN4core9panicking36panic_misaligned_pointer_dereference17hcc3cbded9382b6e5E(i64 8, i64 %_19, ptr align 8 @alloc_82d8421c21afbe87ecad509db195b846) #7
  unreachable

bb8:                                              ; preds = %bb7
  %0 = load ptr, ptr %cur, align 8
  %_10 = load i32, ptr %0, align 8
  %_5 = call i32 (ptr, ...) @printf(ptr @alloc_b929c71616281bfd1be2bd4038d3ddf1, i32 %_10) #8
  %_12 = load ptr, ptr %cur, align 8
  %_13 = ptrtoint ptr %_12 to i64
  %_16 = and i64 %_13, 7
  %_17 = icmp eq i64 %_16, 0
  br i1 %_17, label %bb6, label %panic2

panic1:                                           ; preds = %bb7
; call core::panicking::panic_null_pointer_dereference
  call void @_ZN4core9panicking30panic_null_pointer_dereference17hf718fcc86a223baaE(ptr align 8 @alloc_82d8421c21afbe87ecad509db195b846) #7
  unreachable

bb6:                                              ; preds = %bb8
  %_31 = load ptr, ptr %cur, align 8
  %_32 = ptrtoint ptr %_31 to i64
  %_35 = icmp eq i64 %_32, 0
  %_36 = and i1 %_35, true
  %_37 = xor i1 %_36, true
  br i1 %_37, label %bb9, label %panic3

panic2:                                           ; preds = %bb8
; call core::panicking::panic_misaligned_pointer_dereference
  call void @_ZN4core9panicking36panic_misaligned_pointer_dereference17hcc3cbded9382b6e5E(i64 8, i64 %_13, ptr align 8 @alloc_290d3f95d7032a243f5d61ec79b2ca4b) #7
  unreachable

bb9:                                              ; preds = %bb6
  %1 = load ptr, ptr %cur, align 8
  %2 = getelementptr inbounds i8, ptr %1, i64 8
  %_11 = load ptr, ptr %2, align 8
  store ptr %_11, ptr %cur, align 8
  br label %bb1

panic3:                                           ; preds = %bb6
; call core::panicking::panic_null_pointer_dereference
  call void @_ZN4core9panicking30panic_null_pointer_dereference17hf718fcc86a223baaE(ptr align 8 @alloc_290d3f95d7032a243f5d61ec79b2ca4b) #7
  unreachable
}

; Function Attrs: nocallback nofree nosync nounwind speculatable willreturn memory(none)
declare { i64, i1 } @llvm.smul.with.overflow.i64(i64, i64) #3

; Function Attrs: nocallback nofree nosync nounwind speculatable willreturn memory(none)
declare { i64, i1 } @llvm.uadd.with.overflow.i64(i64, i64) #3

; core::panicking::panic_nounwind
; Function Attrs: cold noinline noreturn nounwind nonlazybind
declare void @_ZN4core9panicking14panic_nounwind17h211d9ce8d63f12e7E(ptr align 1, i64) unnamed_addr #4

; Function Attrs: nounwind nonlazybind
declare ptr @malloc(i64) unnamed_addr #2

; Function Attrs: nounwind nonlazybind
declare i32 @printf(ptr, ...) unnamed_addr #2

; Function Attrs: nounwind nonlazybind
declare void @free(ptr) unnamed_addr #2

; core::panicking::panic_misaligned_pointer_dereference
; Function Attrs: cold minsize noinline noreturn nounwind nonlazybind optsize
declare void @_ZN4core9panicking36panic_misaligned_pointer_dereference17hcc3cbded9382b6e5E(i64, i64, ptr align 8) unnamed_addr #5

; core::panicking::panic_null_pointer_dereference
; Function Attrs: cold minsize noinline noreturn nounwind nonlazybind optsize
declare void @_ZN4core9panicking30panic_null_pointer_dereference17hf718fcc86a223baaE(ptr align 8) unnamed_addr #5

; Function Attrs: noreturn nounwind nonlazybind
declare void @__assert_fail(ptr, ptr, i32, ptr) unnamed_addr #6

; core::panicking::panic_const::panic_const_div_overflow
; Function Attrs: cold noinline noreturn nounwind nonlazybind
declare void @_ZN4core9panicking11panic_const24panic_const_div_overflow17h1ac73c9e33e18298E(ptr align 8) unnamed_addr #4

attributes #0 = { cold nounwind nonlazybind "probe-stack"="inline-asm" "target-cpu"="x86-64" }
attributes #1 = { inlinehint nounwind nonlazybind "probe-stack"="inline-asm" "target-cpu"="x86-64" }
attributes #2 = { nounwind nonlazybind "probe-stack"="inline-asm" "target-cpu"="x86-64" }
attributes #3 = { nocallback nofree nosync nounwind speculatable willreturn memory(none) }
attributes #4 = { cold noinline noreturn nounwind nonlazybind "probe-stack"="inline-asm" "target-cpu"="x86-64" }
attributes #5 = { cold minsize noinline noreturn nounwind nonlazybind optsize "probe-stack"="inline-asm" "target-cpu"="x86-64" }
attributes #6 = { noreturn nounwind nonlazybind "probe-stack"="inline-asm" "target-cpu"="x86-64" }
attributes #7 = { noreturn nounwind }
attributes #8 = { nounwind }

!llvm.module.flags = !{!0, !1}
!llvm.ident = !{!2}

!0 = !{i32 8, !"PIC Level", i32 2}
!1 = !{i32 2, !"RtLibUseGOT", i32 1}
!2 = !{!"rustc version 1.88.0-nightly (0b45675cf 2025-03-31)"}
