; ModuleID = '75k18qv421qquit5wnr9xu5dx'
source_filename = "75k18qv421qquit5wnr9xu5dx"
target datalayout = "e-m:e-p270:32:32-p271:32:32-p272:64:64-i64:64-i128:128-f80:128-n8:16:32:64-S128"
target triple = "x86_64-unknown-linux-gnu"

@root = global [8 x i8] zeroinitializer, align 8
@alloc_f5ffd2fd1476bab43ad89fb40c72d0c5 = private unnamed_addr constant [10 x i8] c"src/lib.rs", align 1
@alloc_0b50959ea5d314dc6ee942953635721f = private unnamed_addr constant <{ ptr, [16 x i8] }> <{ ptr @alloc_f5ffd2fd1476bab43ad89fb40c72d0c5, [16 x i8] c"\0A\00\00\00\00\00\00\00&\00\00\00\05\00\00\00" }>, align 8
@alloc_b27378ee2bd181288edc40722b5e7ff9 = private unnamed_addr constant <{ ptr, [16 x i8] }> <{ ptr @alloc_f5ffd2fd1476bab43ad89fb40c72d0c5, [16 x i8] c"\0A\00\00\00\00\00\00\00'\00\00\00\05\00\00\00" }>, align 8
@alloc_5719ab7e604c9bc446c09ddcca6690aa = private unnamed_addr constant <{ ptr, [16 x i8] }> <{ ptr @alloc_f5ffd2fd1476bab43ad89fb40c72d0c5, [16 x i8] c"\0A\00\00\00\00\00\00\00(\00\00\00\14\00\00\00" }>, align 8
@alloc_a5af790506893fecb536f0eb82cf8c98 = private unnamed_addr constant <{ ptr, [16 x i8] }> <{ ptr @alloc_f5ffd2fd1476bab43ad89fb40c72d0c5, [16 x i8] c"\0A\00\00\00\00\00\00\00(\00\00\00\05\00\00\00" }>, align 8
@alloc_0fa31c1059ed1a3b1eba14d36ff0670f = private unnamed_addr constant <{ ptr, [16 x i8] }> <{ ptr @alloc_f5ffd2fd1476bab43ad89fb40c72d0c5, [16 x i8] c"\0A\00\00\00\00\00\00\004\00\00\00\08\00\00\00" }>, align 8
@alloc_9bd0abc9ec3b7810a7a9ce243bfd5d1a = private unnamed_addr constant <{ ptr, [16 x i8] }> <{ ptr @alloc_f5ffd2fd1476bab43ad89fb40c72d0c5, [16 x i8] c"\0A\00\00\00\00\00\00\006\00\00\00\0F\00\00\00" }>, align 8
@alloc_f431675f053d3bb3d77234aabf5568b0 = private unnamed_addr constant <{ ptr, [16 x i8] }> <{ ptr @alloc_f5ffd2fd1476bab43ad89fb40c72d0c5, [16 x i8] c"\0A\00\00\00\00\00\00\007\00\00\00 \00\00\00" }>, align 8
@alloc_63188e69ffb2521d05f02437e1ad7f52 = private unnamed_addr constant <{ ptr, [16 x i8] }> <{ ptr @alloc_f5ffd2fd1476bab43ad89fb40c72d0c5, [16 x i8] c"\0A\00\00\00\00\00\00\007\00\00\00\09\00\00\00" }>, align 8
@alloc_a819fe7f41abf128ae5f06fb5cdf5738 = private unnamed_addr constant <{ ptr, [16 x i8] }> <{ ptr @alloc_f5ffd2fd1476bab43ad89fb40c72d0c5, [16 x i8] c"\0A\00\00\00\00\00\00\005\00\00\00\1F\00\00\00" }>, align 8
@alloc_c0f90236b5e415c2ebc24f248a4af884 = private unnamed_addr constant <{ ptr, [16 x i8] }> <{ ptr @alloc_f5ffd2fd1476bab43ad89fb40c72d0c5, [16 x i8] c"\0A\00\00\00\00\00\00\005\00\00\00\09\00\00\00" }>, align 8
@alloc_9b3c35796abf8d4ba949ad8bf952cdff = private unnamed_addr constant <{ ptr, [16 x i8] }> <{ ptr @alloc_f5ffd2fd1476bab43ad89fb40c72d0c5, [16 x i8] c"\0A\00\00\00\00\00\00\00>\00\00\00\11\00\00\00" }>, align 8
@alloc_b929c71616281bfd1be2bd4038d3ddf1 = private unnamed_addr constant [4 x i8] c"%d \00", align 1
@alloc_6349fcd195881136df2af64dc0845066 = private unnamed_addr constant <{ ptr, [16 x i8] }> <{ ptr @alloc_f5ffd2fd1476bab43ad89fb40c72d0c5, [16 x i8] c"\0A\00\00\00\00\00\00\00?\00\00\00>\00\00\00" }>, align 8
@alloc_612b49f2c55164dec69835b368bbf8be = private unnamed_addr constant <{ ptr, [16 x i8] }> <{ ptr @alloc_f5ffd2fd1476bab43ad89fb40c72d0c5, [16 x i8] c"\0A\00\00\00\00\00\00\00@\00\00\00\11\00\00\00" }>, align 8
@alloc_2992717b1fbbb5fccf004109e2b6b4b3 = private unnamed_addr constant <{ ptr, [16 x i8] }> <{ ptr @alloc_f5ffd2fd1476bab43ad89fb40c72d0c5, [16 x i8] c"\0A\00\00\00\00\00\00\00I\00\00\00\0C\00\00\00" }>, align 8
@alloc_02219069ab79ce2e9ad50cf96985f640 = private unnamed_addr constant <{ ptr, [16 x i8] }> <{ ptr @alloc_f5ffd2fd1476bab43ad89fb40c72d0c5, [16 x i8] c"\0A\00\00\00\00\00\00\00K\00\00\00\13\00\00\00" }>, align 8
@alloc_a90fddf2a41d8ed5d366fd6ed72e003a = private unnamed_addr constant <{ ptr, [16 x i8] }> <{ ptr @alloc_f5ffd2fd1476bab43ad89fb40c72d0c5, [16 x i8] c"\0A\00\00\00\00\00\00\00L\00\00\00\1B\00\00\00" }>, align 8
@alloc_449490a54103b9bd72fa9bef7362a1ab = private unnamed_addr constant <{ ptr, [16 x i8] }> <{ ptr @alloc_f5ffd2fd1476bab43ad89fb40c72d0c5, [16 x i8] c"\0A\00\00\00\00\00\00\00J\00\00\00\1B\00\00\00" }>, align 8
@alloc_fa4bc888ad07019f0db2bcbda0386040 = private unnamed_addr constant <{ ptr, [16 x i8] }> <{ ptr @alloc_f5ffd2fd1476bab43ad89fb40c72d0c5, [16 x i8] c"\0A\00\00\00\00\00\00\00Z\00\00\00\10\00\00\00" }>, align 8
@alloc_0256b51cd303b4e9f5d46bf5a7b28fd7 = private unnamed_addr constant <{ ptr, [16 x i8] }> <{ ptr @alloc_f5ffd2fd1476bab43ad89fb40c72d0c5, [16 x i8] c"\0A\00\00\00\00\00\00\00[\00\00\00\10\00\00\00" }>, align 8
@alloc_dabf7a207d0e0e1d2a75c1a1499a7bdb = private unnamed_addr constant <{ ptr, [16 x i8] }> <{ ptr @alloc_f5ffd2fd1476bab43ad89fb40c72d0c5, [16 x i8] c"\0A\00\00\00\00\00\00\00`\00\00\00!\00\00\00" }>, align 8
@alloc_f52a6a0f35f685d3f4f5832cd8cb552e = private unnamed_addr constant <{ ptr, [16 x i8] }> <{ ptr @alloc_f5ffd2fd1476bab43ad89fb40c72d0c5, [16 x i8] c"\0A\00\00\00\00\00\00\00a\00\00\00\12\00\00\00" }>, align 8
@alloc_9c9dbf41cee9c97ded0f81695a125bfc = private unnamed_addr constant <{ ptr, [16 x i8] }> <{ ptr @alloc_f5ffd2fd1476bab43ad89fb40c72d0c5, [16 x i8] c"\0A\00\00\00\00\00\00\00g\00\00\00!\00\00\00" }>, align 8
@alloc_c780f4010b0084b32cb7c367f8422337 = private unnamed_addr constant <{ ptr, [16 x i8] }> <{ ptr @alloc_f5ffd2fd1476bab43ad89fb40c72d0c5, [16 x i8] c"\0A\00\00\00\00\00\00\00h\00\00\00\12\00\00\00" }>, align 8
@alloc_79d022a193b5b18623f24ef5489055ff = private unnamed_addr constant <{ ptr, [16 x i8] }> <{ ptr @alloc_f5ffd2fd1476bab43ad89fb40c72d0c5, [16 x i8] c"\0A\00\00\00\00\00\00\00r\00\00\00\08\00\00\00" }>, align 8
@alloc_5a6b867fdb161f7a631514e776173a5c = private unnamed_addr constant <{ ptr, [16 x i8] }> <{ ptr @alloc_f5ffd2fd1476bab43ad89fb40c72d0c5, [16 x i8] c"\0A\00\00\00\00\00\00\00r\00\00\00$\00\00\00" }>, align 8
@alloc_2e806aa2ef41396da14e7972bdbe1198 = private unnamed_addr constant <{ ptr, [16 x i8] }> <{ ptr @alloc_f5ffd2fd1476bab43ad89fb40c72d0c5, [16 x i8] c"\0A\00\00\00\00\00\00\00r\00\00\00A\00\00\00" }>, align 8
@alloc_6401f0a48912deb80b0d435724609e1e = private unnamed_addr constant <{ ptr, [16 x i8] }> <{ ptr @alloc_f5ffd2fd1476bab43ad89fb40c72d0c5, [16 x i8] c"\0A\00\00\00\00\00\00\00y\00\00\00\08\00\00\00" }>, align 8
@alloc_ba7749a5b3b343e4c02bc04c91a75a0a = private unnamed_addr constant <{ ptr, [16 x i8] }> <{ ptr @alloc_f5ffd2fd1476bab43ad89fb40c72d0c5, [16 x i8] c"\0A\00\00\00\00\00\00\00{\00\00\00\0F\00\00\00" }>, align 8
@alloc_4c0a472ce006d7d5574cd940ba856815 = private unnamed_addr constant <{ ptr, [16 x i8] }> <{ ptr @alloc_f5ffd2fd1476bab43ad89fb40c72d0c5, [16 x i8] c"\0A\00\00\00\00\00\00\00\80\00\00\00\17\00\00\00" }>, align 8
@alloc_623441d570b663fc7659f6aebe05d264 = private unnamed_addr constant <{ ptr, [16 x i8] }> <{ ptr @alloc_f5ffd2fd1476bab43ad89fb40c72d0c5, [16 x i8] c"\0A\00\00\00\00\00\00\00\81\00\00\00\18\00\00\00" }>, align 8
@alloc_d2fe1441111550b9b6599f0b242f5a47 = private unnamed_addr constant <{ ptr, [16 x i8] }> <{ ptr @alloc_f5ffd2fd1476bab43ad89fb40c72d0c5, [16 x i8] c"\0A\00\00\00\00\00\00\00\87\00\00\00\1E\00\00\00" }>, align 8
@alloc_8631efbdd1b4b33adf0bbdb2c2a0e38f = private unnamed_addr constant <{ ptr, [16 x i8] }> <{ ptr @alloc_f5ffd2fd1476bab43ad89fb40c72d0c5, [16 x i8] c"\0A\00\00\00\00\00\00\00\88\00\00\00\1C\00\00\00" }>, align 8
@alloc_2b2567ee47e5af2a32cd25b892bc51cd = private unnamed_addr constant <{ ptr, [16 x i8] }> <{ ptr @alloc_f5ffd2fd1476bab43ad89fb40c72d0c5, [16 x i8] c"\0A\00\00\00\00\00\00\00\88\00\00\00\0D\00\00\00" }>, align 8
@alloc_1152936f1bd54fc1c1cf7be441131fac = private unnamed_addr constant <{ ptr, [16 x i8] }> <{ ptr @alloc_f5ffd2fd1476bab43ad89fb40c72d0c5, [16 x i8] c"\0A\00\00\00\00\00\00\00\89\00\00\00$\00\00\00" }>, align 8
@alloc_5f61254a9425e11fbb1806df1b4d36cc = private unnamed_addr constant <{ ptr, [16 x i8] }> <{ ptr @alloc_f5ffd2fd1476bab43ad89fb40c72d0c5, [16 x i8] c"\0A\00\00\00\00\00\00\00\89\00\00\003\00\00\00" }>, align 8
@alloc_60c5e30d815d66a2ad0eabef9a44123b = private unnamed_addr constant <{ ptr, [16 x i8] }> <{ ptr @alloc_f5ffd2fd1476bab43ad89fb40c72d0c5, [16 x i8] c"\0A\00\00\00\00\00\00\00\89\00\00\00\0D\00\00\00" }>, align 8
@alloc_44707523d78d2fefb7c1cb802f976acb = private unnamed_addr constant <{ ptr, [16 x i8] }> <{ ptr @alloc_f5ffd2fd1476bab43ad89fb40c72d0c5, [16 x i8] c"\0A\00\00\00\00\00\00\00\83\00\00\00 \00\00\00" }>, align 8
@alloc_2d953616b048aae7623800fbf23a505b = private unnamed_addr constant <{ ptr, [16 x i8] }> <{ ptr @alloc_f5ffd2fd1476bab43ad89fb40c72d0c5, [16 x i8] c"\0A\00\00\00\00\00\00\00\84\00\00\00\1C\00\00\00" }>, align 8
@alloc_00bef763b7c8a922818ac65265b89b4b = private unnamed_addr constant <{ ptr, [16 x i8] }> <{ ptr @alloc_f5ffd2fd1476bab43ad89fb40c72d0c5, [16 x i8] c"\0A\00\00\00\00\00\00\00\84\00\00\00\0D\00\00\00" }>, align 8
@alloc_216093043c767cac8e253a6f1013ae40 = private unnamed_addr constant <{ ptr, [16 x i8] }> <{ ptr @alloc_f5ffd2fd1476bab43ad89fb40c72d0c5, [16 x i8] c"\0A\00\00\00\00\00\00\00\85\00\00\00#\00\00\00" }>, align 8
@alloc_90506b482cb006df152f8b4597e95a19 = private unnamed_addr constant <{ ptr, [16 x i8] }> <{ ptr @alloc_f5ffd2fd1476bab43ad89fb40c72d0c5, [16 x i8] c"\0A\00\00\00\00\00\00\00\85\00\00\001\00\00\00" }>, align 8
@alloc_8f4e2aa55ecfe6726981da220c5122ab = private unnamed_addr constant <{ ptr, [16 x i8] }> <{ ptr @alloc_f5ffd2fd1476bab43ad89fb40c72d0c5, [16 x i8] c"\0A\00\00\00\00\00\00\00\85\00\00\00\0D\00\00\00" }>, align 8
@alloc_4cd326282da15a1a0c144dd5c8b190c4 = private unnamed_addr constant <{ ptr, [16 x i8] }> <{ ptr @alloc_f5ffd2fd1476bab43ad89fb40c72d0c5, [16 x i8] c"\0A\00\00\00\00\00\00\00|\00\00\00 \00\00\00" }>, align 8
@alloc_6315b79dba6f789e11adb693d3b81db7 = private unnamed_addr constant <{ ptr, [16 x i8] }> <{ ptr @alloc_f5ffd2fd1476bab43ad89fb40c72d0c5, [16 x i8] c"\0A\00\00\00\00\00\00\00|\00\00\00\09\00\00\00" }>, align 8
@alloc_7ff5b6cfa11d63390c984855bebc62ae = private unnamed_addr constant <{ ptr, [16 x i8] }> <{ ptr @alloc_f5ffd2fd1476bab43ad89fb40c72d0c5, [16 x i8] c"\0A\00\00\00\00\00\00\00z\00\00\00\1F\00\00\00" }>, align 8
@alloc_4fce098e5e503b6bfe31d308e01624d7 = private unnamed_addr constant <{ ptr, [16 x i8] }> <{ ptr @alloc_f5ffd2fd1476bab43ad89fb40c72d0c5, [16 x i8] c"\0A\00\00\00\00\00\00\00z\00\00\00\09\00\00\00" }>, align 8
@alloc_b88a53fc5ff08f7f526347969bfff840 = private unnamed_addr constant <{ ptr, [16 x i8] }> <{ ptr @alloc_f5ffd2fd1476bab43ad89fb40c72d0c5, [16 x i8] c"\0A\00\00\00\00\00\00\00s\00\00\00\14\00\00\00" }>, align 8
@alloc_3f6750468798dc13ba9851616a5cf6f5 = private unnamed_addr constant <{ ptr, [16 x i8] }> <{ ptr @alloc_f5ffd2fd1476bab43ad89fb40c72d0c5, [16 x i8] c"\0A\00\00\00\00\00\00\00t\00\00\00\0D\00\00\00" }>, align 8

; core::ptr::mut_ptr::<impl *mut T>::is_null
; Function Attrs: inlinehint nounwind nonlazybind
define internal zeroext i1 @"_ZN4core3ptr7mut_ptr31_$LT$impl$u20$$BP$mut$u20$T$GT$7is_null17h2d828d9c676b6917E"(ptr %self) unnamed_addr #0 {
start:
  %_3 = ptrtoint ptr %self to i64
  %_0 = icmp eq i64 %_3, 0
  ret i1 %_0
}

; Function Attrs: nounwind nonlazybind
define ptr @createNode(ptr %0, i32 %value) unnamed_addr #1 {
start:
  %node = alloca [8 x i8], align 8
  store ptr %0, ptr %node, align 8
  %_3 = call ptr @malloc(i64 24) #3
  store ptr %_3, ptr %node, align 8
  %_25 = load ptr, ptr %node, align 8
  %_26 = ptrtoint ptr %_25 to i64
  %_29 = and i64 %_26, 7
  %_30 = icmp eq i64 %_29, 0
  br i1 %_30, label %bb6, label %panic

bb6:                                              ; preds = %start
  %_31 = load ptr, ptr %node, align 8
  %_32 = ptrtoint ptr %_31 to i64
  %_35 = icmp eq i64 %_32, 0
  %_36 = and i1 %_35, true
  %_37 = xor i1 %_36, true
  br i1 %_37, label %bb7, label %panic1

panic:                                            ; preds = %start
; call core::panicking::panic_misaligned_pointer_dereference
  call void @_ZN4core9panicking36panic_misaligned_pointer_dereference17hcc3cbded9382b6e5E(i64 8, i64 %_26, ptr align 8 @alloc_0b50959ea5d314dc6ee942953635721f) #4
  unreachable

bb7:                                              ; preds = %bb6
  %1 = load ptr, ptr %node, align 8
  %2 = getelementptr inbounds i8, ptr %1, i64 16
  store i32 %value, ptr %2, align 8
  %_19 = load ptr, ptr %node, align 8
  %_20 = ptrtoint ptr %_19 to i64
  %_23 = and i64 %_20, 7
  %_24 = icmp eq i64 %_23, 0
  br i1 %_24, label %bb5, label %panic2

panic1:                                           ; preds = %bb6
; call core::panicking::panic_null_pointer_dereference
  call void @_ZN4core9panicking30panic_null_pointer_dereference17hf718fcc86a223baaE(ptr align 8 @alloc_0b50959ea5d314dc6ee942953635721f) #4
  unreachable

bb5:                                              ; preds = %bb7
  %_38 = load ptr, ptr %node, align 8
  %_39 = ptrtoint ptr %_38 to i64
  %_42 = icmp eq i64 %_39, 0
  %_43 = and i1 %_42, true
  %_44 = xor i1 %_43, true
  br i1 %_44, label %bb8, label %panic3

panic2:                                           ; preds = %bb7
; call core::panicking::panic_misaligned_pointer_dereference
  call void @_ZN4core9panicking36panic_misaligned_pointer_dereference17hcc3cbded9382b6e5E(i64 8, i64 %_20, ptr align 8 @alloc_b27378ee2bd181288edc40722b5e7ff9) #4
  unreachable

bb8:                                              ; preds = %bb5
  %3 = load ptr, ptr %node, align 8
  %4 = getelementptr inbounds i8, ptr %3, i64 8
  store ptr null, ptr %4, align 8
  %_13 = load ptr, ptr %node, align 8
  %_14 = ptrtoint ptr %_13 to i64
  %_17 = and i64 %_14, 7
  %_18 = icmp eq i64 %_17, 0
  br i1 %_18, label %bb4, label %panic4

panic3:                                           ; preds = %bb5
; call core::panicking::panic_null_pointer_dereference
  call void @_ZN4core9panicking30panic_null_pointer_dereference17hf718fcc86a223baaE(ptr align 8 @alloc_b27378ee2bd181288edc40722b5e7ff9) #4
  unreachable

bb4:                                              ; preds = %bb8
  %_45 = load ptr, ptr %node, align 8
  %_46 = ptrtoint ptr %_45 to i64
  %_49 = icmp eq i64 %_46, 0
  %_50 = and i1 %_49, true
  %_51 = xor i1 %_50, true
  br i1 %_51, label %bb9, label %panic5

panic4:                                           ; preds = %bb8
; call core::panicking::panic_misaligned_pointer_dereference
  call void @_ZN4core9panicking36panic_misaligned_pointer_dereference17hcc3cbded9382b6e5E(i64 8, i64 %_14, ptr align 8 @alloc_5719ab7e604c9bc446c09ddcca6690aa) #4
  unreachable

bb9:                                              ; preds = %bb4
  %5 = load ptr, ptr %node, align 8
  %6 = getelementptr inbounds i8, ptr %5, i64 8
  %_6 = load ptr, ptr %6, align 8
  %_7 = load ptr, ptr %node, align 8
  %_8 = ptrtoint ptr %_7 to i64
  %_11 = and i64 %_8, 7
  %_12 = icmp eq i64 %_11, 0
  br i1 %_12, label %bb3, label %panic6

panic5:                                           ; preds = %bb4
; call core::panicking::panic_null_pointer_dereference
  call void @_ZN4core9panicking30panic_null_pointer_dereference17hf718fcc86a223baaE(ptr align 8 @alloc_5719ab7e604c9bc446c09ddcca6690aa) #4
  unreachable

bb3:                                              ; preds = %bb9
  %_52 = load ptr, ptr %node, align 8
  %_53 = ptrtoint ptr %_52 to i64
  %_56 = icmp eq i64 %_53, 0
  %_57 = and i1 %_56, true
  %_58 = xor i1 %_57, true
  br i1 %_58, label %bb10, label %panic7

panic6:                                           ; preds = %bb9
; call core::panicking::panic_misaligned_pointer_dereference
  call void @_ZN4core9panicking36panic_misaligned_pointer_dereference17hcc3cbded9382b6e5E(i64 8, i64 %_8, ptr align 8 @alloc_a5af790506893fecb536f0eb82cf8c98) #4
  unreachable

bb10:                                             ; preds = %bb3
  %7 = load ptr, ptr %node, align 8
  store ptr %_6, ptr %7, align 8
  %_0 = load ptr, ptr %node, align 8
  ret ptr %_0

panic7:                                           ; preds = %bb3
; call core::panicking::panic_null_pointer_dereference
  call void @_ZN4core9panicking30panic_null_pointer_dereference17hf718fcc86a223baaE(ptr align 8 @alloc_a5af790506893fecb536f0eb82cf8c98) #4
  unreachable
}

; Function Attrs: nounwind nonlazybind
define ptr @insert(ptr %node, i32 %value) unnamed_addr #1 {
start:
  %_0 = alloca [8 x i8], align 8
; call core::ptr::mut_ptr::<impl *mut T>::is_null
  %_4 = call zeroext i1 @"_ZN4core3ptr7mut_ptr31_$LT$impl$u20$$BP$mut$u20$T$GT$7is_null17h2d828d9c676b6917E"(ptr %node) #3
  br i1 %_4, label %bb2, label %bb3

bb3:                                              ; preds = %start
  %_44 = ptrtoint ptr %node to i64
  %_47 = and i64 %_44, 7
  %_48 = icmp eq i64 %_47, 0
  br i1 %_48, label %bb16, label %panic

bb2:                                              ; preds = %start
  %0 = call ptr @createNode(ptr null, i32 %value) #3
  store ptr %0, ptr %_0, align 8
  br label %bb10

bb16:                                             ; preds = %bb3
  %_50 = ptrtoint ptr %node to i64
  %_53 = icmp eq i64 %_50, 0
  %_54 = and i1 %_53, true
  %_55 = xor i1 %_54, true
  br i1 %_55, label %bb17, label %panic1

panic:                                            ; preds = %bb3
; call core::panicking::panic_misaligned_pointer_dereference
  call void @_ZN4core9panicking36panic_misaligned_pointer_dereference17hcc3cbded9382b6e5E(i64 8, i64 %_44, ptr align 8 @alloc_0fa31c1059ed1a3b1eba14d36ff0670f) #4
  unreachable

bb17:                                             ; preds = %bb16
  %1 = getelementptr inbounds i8, ptr %node, i64 16
  %_6 = load i32, ptr %1, align 8
  %_5 = icmp sgt i32 %_6, %value
  br i1 %_5, label %bb4, label %bb5

panic1:                                           ; preds = %bb16
; call core::panicking::panic_null_pointer_dereference
  call void @_ZN4core9panicking30panic_null_pointer_dereference17hf718fcc86a223baaE(ptr align 8 @alloc_0fa31c1059ed1a3b1eba14d36ff0670f) #4
  unreachable

bb5:                                              ; preds = %bb17
  %_32 = ptrtoint ptr %node to i64
  %_35 = and i64 %_32, 7
  %_36 = icmp eq i64 %_35, 0
  br i1 %_36, label %bb14, label %panic2

bb4:                                              ; preds = %bb17
  %_38 = ptrtoint ptr %node to i64
  %_41 = and i64 %_38, 7
  %_42 = icmp eq i64 %_41, 0
  br i1 %_42, label %bb15, label %panic8

bb14:                                             ; preds = %bb5
  %_64 = ptrtoint ptr %node to i64
  %_67 = icmp eq i64 %_64, 0
  %_68 = and i1 %_67, true
  %_69 = xor i1 %_68, true
  br i1 %_69, label %bb19, label %panic3

panic2:                                           ; preds = %bb5
; call core::panicking::panic_misaligned_pointer_dereference
  call void @_ZN4core9panicking36panic_misaligned_pointer_dereference17hcc3cbded9382b6e5E(i64 8, i64 %_32, ptr align 8 @alloc_9bd0abc9ec3b7810a7a9ce243bfd5d1a) #4
  unreachable

bb19:                                             ; preds = %bb14
  %2 = getelementptr inbounds i8, ptr %node, i64 16
  %_10 = load i32, ptr %2, align 8
  %_9 = icmp slt i32 %_10, %value
  br i1 %_9, label %bb7, label %bb9

panic3:                                           ; preds = %bb14
; call core::panicking::panic_null_pointer_dereference
  call void @_ZN4core9panicking30panic_null_pointer_dereference17hf718fcc86a223baaE(ptr align 8 @alloc_9bd0abc9ec3b7810a7a9ce243bfd5d1a) #4
  unreachable

bb9:                                              ; preds = %bb20, %bb22, %bb19
  store ptr %node, ptr %_0, align 8
  br label %bb10

bb7:                                              ; preds = %bb19
  %_20 = ptrtoint ptr %node to i64
  %_23 = and i64 %_20, 7
  %_24 = icmp eq i64 %_23, 0
  br i1 %_24, label %bb12, label %panic4

bb12:                                             ; preds = %bb7
  %_78 = ptrtoint ptr %node to i64
  %_81 = icmp eq i64 %_78, 0
  %_82 = and i1 %_81, true
  %_83 = xor i1 %_82, true
  br i1 %_83, label %bb21, label %panic5

panic4:                                           ; preds = %bb7
; call core::panicking::panic_misaligned_pointer_dereference
  call void @_ZN4core9panicking36panic_misaligned_pointer_dereference17hcc3cbded9382b6e5E(i64 8, i64 %_20, ptr align 8 @alloc_f431675f053d3bb3d77234aabf5568b0) #4
  unreachable

bb21:                                             ; preds = %bb12
  %3 = getelementptr inbounds i8, ptr %node, i64 8
  %_12 = load ptr, ptr %3, align 8
  %_11 = call ptr @insert(ptr %_12, i32 %value) #3
  %_14 = ptrtoint ptr %node to i64
  %_17 = and i64 %_14, 7
  %_18 = icmp eq i64 %_17, 0
  br i1 %_18, label %bb11, label %panic6

panic5:                                           ; preds = %bb12
; call core::panicking::panic_null_pointer_dereference
  call void @_ZN4core9panicking30panic_null_pointer_dereference17hf718fcc86a223baaE(ptr align 8 @alloc_f431675f053d3bb3d77234aabf5568b0) #4
  unreachable

bb11:                                             ; preds = %bb21
  %_85 = ptrtoint ptr %node to i64
  %_88 = icmp eq i64 %_85, 0
  %_89 = and i1 %_88, true
  %_90 = xor i1 %_89, true
  br i1 %_90, label %bb22, label %panic7

panic6:                                           ; preds = %bb21
; call core::panicking::panic_misaligned_pointer_dereference
  call void @_ZN4core9panicking36panic_misaligned_pointer_dereference17hcc3cbded9382b6e5E(i64 8, i64 %_14, ptr align 8 @alloc_63188e69ffb2521d05f02437e1ad7f52) #4
  unreachable

bb22:                                             ; preds = %bb11
  %4 = getelementptr inbounds i8, ptr %node, i64 8
  store ptr %_11, ptr %4, align 8
  br label %bb9

panic7:                                           ; preds = %bb11
; call core::panicking::panic_null_pointer_dereference
  call void @_ZN4core9panicking30panic_null_pointer_dereference17hf718fcc86a223baaE(ptr align 8 @alloc_63188e69ffb2521d05f02437e1ad7f52) #4
  unreachable

bb15:                                             ; preds = %bb4
  %_57 = ptrtoint ptr %node to i64
  %_60 = icmp eq i64 %_57, 0
  %_61 = and i1 %_60, true
  %_62 = xor i1 %_61, true
  br i1 %_62, label %bb18, label %panic9

panic8:                                           ; preds = %bb4
; call core::panicking::panic_misaligned_pointer_dereference
  call void @_ZN4core9panicking36panic_misaligned_pointer_dereference17hcc3cbded9382b6e5E(i64 8, i64 %_38, ptr align 8 @alloc_a819fe7f41abf128ae5f06fb5cdf5738) #4
  unreachable

bb18:                                             ; preds = %bb15
  %_8 = load ptr, ptr %node, align 8
  %_7 = call ptr @insert(ptr %_8, i32 %value) #3
  %_26 = ptrtoint ptr %node to i64
  %_29 = and i64 %_26, 7
  %_30 = icmp eq i64 %_29, 0
  br i1 %_30, label %bb13, label %panic10

panic9:                                           ; preds = %bb15
; call core::panicking::panic_null_pointer_dereference
  call void @_ZN4core9panicking30panic_null_pointer_dereference17hf718fcc86a223baaE(ptr align 8 @alloc_a819fe7f41abf128ae5f06fb5cdf5738) #4
  unreachable

bb13:                                             ; preds = %bb18
  %_71 = ptrtoint ptr %node to i64
  %_74 = icmp eq i64 %_71, 0
  %_75 = and i1 %_74, true
  %_76 = xor i1 %_75, true
  br i1 %_76, label %bb20, label %panic11

panic10:                                          ; preds = %bb18
; call core::panicking::panic_misaligned_pointer_dereference
  call void @_ZN4core9panicking36panic_misaligned_pointer_dereference17hcc3cbded9382b6e5E(i64 8, i64 %_26, ptr align 8 @alloc_c0f90236b5e415c2ebc24f248a4af884) #4
  unreachable

bb20:                                             ; preds = %bb13
  store ptr %_7, ptr %node, align 8
  br label %bb9

panic11:                                          ; preds = %bb13
; call core::panicking::panic_null_pointer_dereference
  call void @_ZN4core9panicking30panic_null_pointer_dereference17hf718fcc86a223baaE(ptr align 8 @alloc_c0f90236b5e415c2ebc24f248a4af884) #4
  unreachable

bb10:                                             ; preds = %bb2, %bb9
  %5 = load ptr, ptr %_0, align 8
  ret ptr %5
}

; Function Attrs: nounwind nonlazybind
define void @inorder(ptr %node) unnamed_addr #1 {
start:
; call core::ptr::mut_ptr::<impl *mut T>::is_null
  %_2 = call zeroext i1 @"_ZN4core3ptr7mut_ptr31_$LT$impl$u20$$BP$mut$u20$T$GT$7is_null17h2d828d9c676b6917E"(ptr %node) #3
  br i1 %_2, label %bb5, label %bb2

bb2:                                              ; preds = %start
  %_26 = ptrtoint ptr %node to i64
  %_29 = and i64 %_26, 7
  %_30 = icmp eq i64 %_29, 0
  br i1 %_30, label %bb8, label %panic

bb5:                                              ; preds = %bb11, %start
  ret void

bb8:                                              ; preds = %bb2
  %_32 = ptrtoint ptr %node to i64
  %_35 = icmp eq i64 %_32, 0
  %_36 = and i1 %_35, true
  %_37 = xor i1 %_36, true
  br i1 %_37, label %bb9, label %panic1

panic:                                            ; preds = %bb2
; call core::panicking::panic_misaligned_pointer_dereference
  call void @_ZN4core9panicking36panic_misaligned_pointer_dereference17hcc3cbded9382b6e5E(i64 8, i64 %_26, ptr align 8 @alloc_9b3c35796abf8d4ba949ad8bf952cdff) #4
  unreachable

bb9:                                              ; preds = %bb8
  %_4 = load ptr, ptr %node, align 8
  call void @inorder(ptr %_4) #3
  %_20 = ptrtoint ptr %node to i64
  %_23 = and i64 %_20, 7
  %_24 = icmp eq i64 %_23, 0
  br i1 %_24, label %bb7, label %panic2

panic1:                                           ; preds = %bb8
; call core::panicking::panic_null_pointer_dereference
  call void @_ZN4core9panicking30panic_null_pointer_dereference17hf718fcc86a223baaE(ptr align 8 @alloc_9b3c35796abf8d4ba949ad8bf952cdff) #4
  unreachable

bb7:                                              ; preds = %bb9
  %_39 = ptrtoint ptr %node to i64
  %_42 = icmp eq i64 %_39, 0
  %_43 = and i1 %_42, true
  %_44 = xor i1 %_43, true
  br i1 %_44, label %bb10, label %panic3

panic2:                                           ; preds = %bb9
; call core::panicking::panic_misaligned_pointer_dereference
  call void @_ZN4core9panicking36panic_misaligned_pointer_dereference17hcc3cbded9382b6e5E(i64 8, i64 %_20, ptr align 8 @alloc_6349fcd195881136df2af64dc0845066) #4
  unreachable

bb10:                                             ; preds = %bb7
  %0 = getelementptr inbounds i8, ptr %node, i64 16
  %_10 = load i32, ptr %0, align 8
  %_5 = call i32 (ptr, ...) @printf(ptr @alloc_b929c71616281bfd1be2bd4038d3ddf1, i32 %_10) #3
  %_14 = ptrtoint ptr %node to i64
  %_17 = and i64 %_14, 7
  %_18 = icmp eq i64 %_17, 0
  br i1 %_18, label %bb6, label %panic4

panic3:                                           ; preds = %bb7
; call core::panicking::panic_null_pointer_dereference
  call void @_ZN4core9panicking30panic_null_pointer_dereference17hf718fcc86a223baaE(ptr align 8 @alloc_6349fcd195881136df2af64dc0845066) #4
  unreachable

bb6:                                              ; preds = %bb10
  %_46 = ptrtoint ptr %node to i64
  %_49 = icmp eq i64 %_46, 0
  %_50 = and i1 %_49, true
  %_51 = xor i1 %_50, true
  br i1 %_51, label %bb11, label %panic5

panic4:                                           ; preds = %bb10
; call core::panicking::panic_misaligned_pointer_dereference
  call void @_ZN4core9panicking36panic_misaligned_pointer_dereference17hcc3cbded9382b6e5E(i64 8, i64 %_14, ptr align 8 @alloc_612b49f2c55164dec69835b368bbf8be) #4
  unreachable

bb11:                                             ; preds = %bb6
  %1 = getelementptr inbounds i8, ptr %node, i64 8
  %_12 = load ptr, ptr %1, align 8
  call void @inorder(ptr %_12) #3
  br label %bb5

panic5:                                           ; preds = %bb6
; call core::panicking::panic_null_pointer_dereference
  call void @_ZN4core9panicking30panic_null_pointer_dereference17hf718fcc86a223baaE(ptr align 8 @alloc_612b49f2c55164dec69835b368bbf8be) #4
  unreachable
}

; Function Attrs: nounwind nonlazybind
define ptr @search(ptr %root_0, i32 %key) unnamed_addr #1 {
start:
  %_0 = alloca [8 x i8], align 8
; call core::ptr::mut_ptr::<impl *mut T>::is_null
  %_3 = call zeroext i1 @"_ZN4core3ptr7mut_ptr31_$LT$impl$u20$$BP$mut$u20$T$GT$7is_null17h2d828d9c676b6917E"(ptr %root_0) #3
  br i1 %_3, label %bb2, label %bb3

bb3:                                              ; preds = %start
  %_29 = ptrtoint ptr %root_0 to i64
  %_32 = and i64 %_29, 7
  %_33 = icmp eq i64 %_32, 0
  br i1 %_33, label %bb12, label %panic

bb2:                                              ; preds = %start
  store ptr null, ptr %_0, align 8
  br label %bb8

bb12:                                             ; preds = %bb3
  %_35 = ptrtoint ptr %root_0 to i64
  %_38 = icmp eq i64 %_35, 0
  %_39 = and i1 %_38, true
  %_40 = xor i1 %_39, true
  br i1 %_40, label %bb13, label %panic1

panic:                                            ; preds = %bb3
; call core::panicking::panic_misaligned_pointer_dereference
  call void @_ZN4core9panicking36panic_misaligned_pointer_dereference17hcc3cbded9382b6e5E(i64 8, i64 %_29, ptr align 8 @alloc_2992717b1fbbb5fccf004109e2b6b4b3) #4
  unreachable

bb13:                                             ; preds = %bb12
  %0 = getelementptr inbounds i8, ptr %root_0, i64 16
  %_5 = load i32, ptr %0, align 8
  %_4 = icmp sgt i32 %_5, %key
  br i1 %_4, label %bb4, label %bb5

panic1:                                           ; preds = %bb12
; call core::panicking::panic_null_pointer_dereference
  call void @_ZN4core9panicking30panic_null_pointer_dereference17hf718fcc86a223baaE(ptr align 8 @alloc_2992717b1fbbb5fccf004109e2b6b4b3) #4
  unreachable

bb5:                                              ; preds = %bb13
  %_17 = ptrtoint ptr %root_0 to i64
  %_20 = and i64 %_17, 7
  %_21 = icmp eq i64 %_20, 0
  br i1 %_21, label %bb10, label %panic2

bb4:                                              ; preds = %bb13
  %_23 = ptrtoint ptr %root_0 to i64
  %_26 = and i64 %_23, 7
  %_27 = icmp eq i64 %_26, 0
  br i1 %_27, label %bb11, label %panic6

bb10:                                             ; preds = %bb5
  %_49 = ptrtoint ptr %root_0 to i64
  %_52 = icmp eq i64 %_49, 0
  %_53 = and i1 %_52, true
  %_54 = xor i1 %_53, true
  br i1 %_54, label %bb15, label %panic3

panic2:                                           ; preds = %bb5
; call core::panicking::panic_misaligned_pointer_dereference
  call void @_ZN4core9panicking36panic_misaligned_pointer_dereference17hcc3cbded9382b6e5E(i64 8, i64 %_17, ptr align 8 @alloc_02219069ab79ce2e9ad50cf96985f640) #4
  unreachable

bb15:                                             ; preds = %bb10
  %1 = getelementptr inbounds i8, ptr %root_0, i64 16
  %_8 = load i32, ptr %1, align 8
  %_7 = icmp slt i32 %_8, %key
  br i1 %_7, label %bb6, label %bb7

panic3:                                           ; preds = %bb10
; call core::panicking::panic_null_pointer_dereference
  call void @_ZN4core9panicking30panic_null_pointer_dereference17hf718fcc86a223baaE(ptr align 8 @alloc_02219069ab79ce2e9ad50cf96985f640) #4
  unreachable

bb7:                                              ; preds = %bb15
  store ptr %root_0, ptr %_0, align 8
  br label %bb8

bb6:                                              ; preds = %bb15
  %_11 = ptrtoint ptr %root_0 to i64
  %_14 = and i64 %_11, 7
  %_15 = icmp eq i64 %_14, 0
  br i1 %_15, label %bb9, label %panic4

bb8:                                              ; preds = %bb2, %bb14, %bb16, %bb7
  %2 = load ptr, ptr %_0, align 8
  ret ptr %2

bb9:                                              ; preds = %bb6
  %_56 = ptrtoint ptr %root_0 to i64
  %_59 = icmp eq i64 %_56, 0
  %_60 = and i1 %_59, true
  %_61 = xor i1 %_60, true
  br i1 %_61, label %bb16, label %panic5

panic4:                                           ; preds = %bb6
; call core::panicking::panic_misaligned_pointer_dereference
  call void @_ZN4core9panicking36panic_misaligned_pointer_dereference17hcc3cbded9382b6e5E(i64 8, i64 %_11, ptr align 8 @alloc_a90fddf2a41d8ed5d366fd6ed72e003a) #4
  unreachable

bb16:                                             ; preds = %bb9
  %3 = getelementptr inbounds i8, ptr %root_0, i64 8
  %_9 = load ptr, ptr %3, align 8
  %4 = call ptr @search(ptr %_9, i32 %key) #3
  store ptr %4, ptr %_0, align 8
  br label %bb8

panic5:                                           ; preds = %bb9
; call core::panicking::panic_null_pointer_dereference
  call void @_ZN4core9panicking30panic_null_pointer_dereference17hf718fcc86a223baaE(ptr align 8 @alloc_a90fddf2a41d8ed5d366fd6ed72e003a) #4
  unreachable

bb11:                                             ; preds = %bb4
  %_42 = ptrtoint ptr %root_0 to i64
  %_45 = icmp eq i64 %_42, 0
  %_46 = and i1 %_45, true
  %_47 = xor i1 %_46, true
  br i1 %_47, label %bb14, label %panic7

panic6:                                           ; preds = %bb4
; call core::panicking::panic_misaligned_pointer_dereference
  call void @_ZN4core9panicking36panic_misaligned_pointer_dereference17hcc3cbded9382b6e5E(i64 8, i64 %_23, ptr align 8 @alloc_449490a54103b9bd72fa9bef7362a1ab) #4
  unreachable

bb14:                                             ; preds = %bb11
  %_6 = load ptr, ptr %root_0, align 8
  %5 = call ptr @search(ptr %_6, i32 %key) #3
  store ptr %5, ptr %_0, align 8
  br label %bb8

panic7:                                           ; preds = %bb11
; call core::panicking::panic_null_pointer_dereference
  call void @_ZN4core9panicking30panic_null_pointer_dereference17hf718fcc86a223baaE(ptr align 8 @alloc_449490a54103b9bd72fa9bef7362a1ab) #4
  unreachable
}

; Function Attrs: nounwind nonlazybind
define i32 @height(ptr %root_0) unnamed_addr #1 {
start:
  %y = alloca [4 x i8], align 4
  %x = alloca [4 x i8], align 4
  %_0 = alloca [4 x i8], align 4
  store i32 0, ptr %x, align 4
  store i32 0, ptr %y, align 4
; call core::ptr::mut_ptr::<impl *mut T>::is_null
  %_4 = call zeroext i1 @"_ZN4core3ptr7mut_ptr31_$LT$impl$u20$$BP$mut$u20$T$GT$7is_null17h2d828d9c676b6917E"(ptr %root_0) #3
  br i1 %_4, label %bb2, label %bb3

bb3:                                              ; preds = %start
  %_21 = ptrtoint ptr %root_0 to i64
  %_24 = and i64 %_21, 7
  %_25 = icmp eq i64 %_24, 0
  br i1 %_25, label %bb10, label %panic

bb2:                                              ; preds = %start
  store i32 0, ptr %_0, align 4
  br label %bb8

bb10:                                             ; preds = %bb3
  %_27 = ptrtoint ptr %root_0 to i64
  %_30 = icmp eq i64 %_27, 0
  %_31 = and i1 %_30, true
  %_32 = xor i1 %_31, true
  br i1 %_32, label %bb11, label %panic1

panic:                                            ; preds = %bb3
; call core::panicking::panic_misaligned_pointer_dereference
  call void @_ZN4core9panicking36panic_misaligned_pointer_dereference17hcc3cbded9382b6e5E(i64 8, i64 %_21, ptr align 8 @alloc_fa4bc888ad07019f0db2bcbda0386040) #4
  unreachable

bb11:                                             ; preds = %bb10
  %_6 = load ptr, ptr %root_0, align 8
  %_5 = call i32 @height(ptr %_6) #3
  store i32 %_5, ptr %x, align 4
  %_15 = ptrtoint ptr %root_0 to i64
  %_18 = and i64 %_15, 7
  %_19 = icmp eq i64 %_18, 0
  br i1 %_19, label %bb9, label %panic2

panic1:                                           ; preds = %bb10
; call core::panicking::panic_null_pointer_dereference
  call void @_ZN4core9panicking30panic_null_pointer_dereference17hf718fcc86a223baaE(ptr align 8 @alloc_fa4bc888ad07019f0db2bcbda0386040) #4
  unreachable

bb9:                                              ; preds = %bb11
  %_34 = ptrtoint ptr %root_0 to i64
  %_37 = icmp eq i64 %_34, 0
  %_38 = and i1 %_37, true
  %_39 = xor i1 %_38, true
  br i1 %_39, label %bb12, label %panic3

panic2:                                           ; preds = %bb11
; call core::panicking::panic_misaligned_pointer_dereference
  call void @_ZN4core9panicking36panic_misaligned_pointer_dereference17hcc3cbded9382b6e5E(i64 8, i64 %_15, ptr align 8 @alloc_0256b51cd303b4e9f5d46bf5a7b28fd7) #4
  unreachable

bb12:                                             ; preds = %bb9
  %0 = getelementptr inbounds i8, ptr %root_0, i64 8
  %_8 = load ptr, ptr %0, align 8
  %_7 = call i32 @height(ptr %_8) #3
  store i32 %_7, ptr %y, align 4
  %_10 = load i32, ptr %x, align 4
  %_11 = load i32, ptr %y, align 4
  %_9 = icmp sgt i32 %_10, %_11
  br i1 %_9, label %bb6, label %bb7

panic3:                                           ; preds = %bb9
; call core::panicking::panic_null_pointer_dereference
  call void @_ZN4core9panicking30panic_null_pointer_dereference17hf718fcc86a223baaE(ptr align 8 @alloc_0256b51cd303b4e9f5d46bf5a7b28fd7) #4
  unreachable

bb7:                                              ; preds = %bb12
  %_13 = load i32, ptr %y, align 4
  %1 = add i32 %_13, 1
  store i32 %1, ptr %_0, align 4
  br label %bb8

bb6:                                              ; preds = %bb12
  %_12 = load i32, ptr %x, align 4
  %2 = add i32 %_12, 1
  store i32 %2, ptr %_0, align 4
  br label %bb8

bb8:                                              ; preds = %bb2, %bb6, %bb7
  %3 = load i32, ptr %_0, align 4
  ret i32 %3
}

; Function Attrs: nounwind nonlazybind
define ptr @Predecessor(ptr %0) unnamed_addr #1 {
start:
  %root_0 = alloca [8 x i8], align 8
  store ptr %0, ptr %root_0, align 8
  br label %bb1

bb1:                                              ; preds = %bb10, %start
  %_3 = load ptr, ptr %root_0, align 8
; call core::ptr::mut_ptr::<impl *mut T>::is_null
  %_2 = call zeroext i1 @"_ZN4core3ptr7mut_ptr31_$LT$impl$u20$$BP$mut$u20$T$GT$7is_null17h2d828d9c676b6917E"(ptr %_3) #3
  br i1 %_2, label %bb6, label %bb3

bb3:                                              ; preds = %bb1
  %_13 = load ptr, ptr %root_0, align 8
  %_14 = ptrtoint ptr %_13 to i64
  %_17 = and i64 %_14, 7
  %_18 = icmp eq i64 %_17, 0
  br i1 %_18, label %bb8, label %panic

bb6:                                              ; preds = %bb9, %bb1
  %_0 = load ptr, ptr %root_0, align 8
  ret ptr %_0

bb8:                                              ; preds = %bb3
  %_19 = load ptr, ptr %root_0, align 8
  %_20 = ptrtoint ptr %_19 to i64
  %_23 = icmp eq i64 %_20, 0
  %_24 = and i1 %_23, true
  %_25 = xor i1 %_24, true
  br i1 %_25, label %bb9, label %panic1

panic:                                            ; preds = %bb3
; call core::panicking::panic_misaligned_pointer_dereference
  call void @_ZN4core9panicking36panic_misaligned_pointer_dereference17hcc3cbded9382b6e5E(i64 8, i64 %_14, ptr align 8 @alloc_dabf7a207d0e0e1d2a75c1a1499a7bdb) #4
  unreachable

bb9:                                              ; preds = %bb8
  %1 = load ptr, ptr %root_0, align 8
  %2 = getelementptr inbounds i8, ptr %1, i64 8
  %_5 = load ptr, ptr %2, align 8
; call core::ptr::mut_ptr::<impl *mut T>::is_null
  %_4 = call zeroext i1 @"_ZN4core3ptr7mut_ptr31_$LT$impl$u20$$BP$mut$u20$T$GT$7is_null17h2d828d9c676b6917E"(ptr %_5) #3
  br i1 %_4, label %bb6, label %bb5

panic1:                                           ; preds = %bb8
; call core::panicking::panic_null_pointer_dereference
  call void @_ZN4core9panicking30panic_null_pointer_dereference17hf718fcc86a223baaE(ptr align 8 @alloc_dabf7a207d0e0e1d2a75c1a1499a7bdb) #4
  unreachable

bb5:                                              ; preds = %bb9
  %_7 = load ptr, ptr %root_0, align 8
  %_8 = ptrtoint ptr %_7 to i64
  %_11 = and i64 %_8, 7
  %_12 = icmp eq i64 %_11, 0
  br i1 %_12, label %bb7, label %panic2

bb7:                                              ; preds = %bb5
  %_26 = load ptr, ptr %root_0, align 8
  %_27 = ptrtoint ptr %_26 to i64
  %_30 = icmp eq i64 %_27, 0
  %_31 = and i1 %_30, true
  %_32 = xor i1 %_31, true
  br i1 %_32, label %bb10, label %panic3

panic2:                                           ; preds = %bb5
; call core::panicking::panic_misaligned_pointer_dereference
  call void @_ZN4core9panicking36panic_misaligned_pointer_dereference17hcc3cbded9382b6e5E(i64 8, i64 %_8, ptr align 8 @alloc_f52a6a0f35f685d3f4f5832cd8cb552e) #4
  unreachable

bb10:                                             ; preds = %bb7
  %3 = load ptr, ptr %root_0, align 8
  %4 = getelementptr inbounds i8, ptr %3, i64 8
  %_6 = load ptr, ptr %4, align 8
  store ptr %_6, ptr %root_0, align 8
  br label %bb1

panic3:                                           ; preds = %bb7
; call core::panicking::panic_null_pointer_dereference
  call void @_ZN4core9panicking30panic_null_pointer_dereference17hf718fcc86a223baaE(ptr align 8 @alloc_f52a6a0f35f685d3f4f5832cd8cb552e) #4
  unreachable
}

; Function Attrs: nounwind nonlazybind
define ptr @successor(ptr %0) unnamed_addr #1 {
start:
  %root_0 = alloca [8 x i8], align 8
  store ptr %0, ptr %root_0, align 8
  br label %bb1

bb1:                                              ; preds = %bb10, %start
  %_3 = load ptr, ptr %root_0, align 8
; call core::ptr::mut_ptr::<impl *mut T>::is_null
  %_2 = call zeroext i1 @"_ZN4core3ptr7mut_ptr31_$LT$impl$u20$$BP$mut$u20$T$GT$7is_null17h2d828d9c676b6917E"(ptr %_3) #3
  br i1 %_2, label %bb6, label %bb3

bb3:                                              ; preds = %bb1
  %_13 = load ptr, ptr %root_0, align 8
  %_14 = ptrtoint ptr %_13 to i64
  %_17 = and i64 %_14, 7
  %_18 = icmp eq i64 %_17, 0
  br i1 %_18, label %bb8, label %panic

bb6:                                              ; preds = %bb9, %bb1
  %_0 = load ptr, ptr %root_0, align 8
  ret ptr %_0

bb8:                                              ; preds = %bb3
  %_19 = load ptr, ptr %root_0, align 8
  %_20 = ptrtoint ptr %_19 to i64
  %_23 = icmp eq i64 %_20, 0
  %_24 = and i1 %_23, true
  %_25 = xor i1 %_24, true
  br i1 %_25, label %bb9, label %panic1

panic:                                            ; preds = %bb3
; call core::panicking::panic_misaligned_pointer_dereference
  call void @_ZN4core9panicking36panic_misaligned_pointer_dereference17hcc3cbded9382b6e5E(i64 8, i64 %_14, ptr align 8 @alloc_9c9dbf41cee9c97ded0f81695a125bfc) #4
  unreachable

bb9:                                              ; preds = %bb8
  %1 = load ptr, ptr %root_0, align 8
  %_5 = load ptr, ptr %1, align 8
; call core::ptr::mut_ptr::<impl *mut T>::is_null
  %_4 = call zeroext i1 @"_ZN4core3ptr7mut_ptr31_$LT$impl$u20$$BP$mut$u20$T$GT$7is_null17h2d828d9c676b6917E"(ptr %_5) #3
  br i1 %_4, label %bb6, label %bb5

panic1:                                           ; preds = %bb8
; call core::panicking::panic_null_pointer_dereference
  call void @_ZN4core9panicking30panic_null_pointer_dereference17hf718fcc86a223baaE(ptr align 8 @alloc_9c9dbf41cee9c97ded0f81695a125bfc) #4
  unreachable

bb5:                                              ; preds = %bb9
  %_7 = load ptr, ptr %root_0, align 8
  %_8 = ptrtoint ptr %_7 to i64
  %_11 = and i64 %_8, 7
  %_12 = icmp eq i64 %_11, 0
  br i1 %_12, label %bb7, label %panic2

bb7:                                              ; preds = %bb5
  %_26 = load ptr, ptr %root_0, align 8
  %_27 = ptrtoint ptr %_26 to i64
  %_30 = icmp eq i64 %_27, 0
  %_31 = and i1 %_30, true
  %_32 = xor i1 %_31, true
  br i1 %_32, label %bb10, label %panic3

panic2:                                           ; preds = %bb5
; call core::panicking::panic_misaligned_pointer_dereference
  call void @_ZN4core9panicking36panic_misaligned_pointer_dereference17hcc3cbded9382b6e5E(i64 8, i64 %_8, ptr align 8 @alloc_c780f4010b0084b32cb7c367f8422337) #4
  unreachable

bb10:                                             ; preds = %bb7
  %2 = load ptr, ptr %root_0, align 8
  %_6 = load ptr, ptr %2, align 8
  store ptr %_6, ptr %root_0, align 8
  br label %bb1

panic3:                                           ; preds = %bb7
; call core::panicking::panic_null_pointer_dereference
  call void @_ZN4core9panicking30panic_null_pointer_dereference17hf718fcc86a223baaE(ptr align 8 @alloc_c780f4010b0084b32cb7c367f8422337) #4
  unreachable
}

; Function Attrs: nounwind nonlazybind
define ptr @Delete(ptr %node, i32 %key) unnamed_addr #1 {
start:
  %right = alloca [4 x i8], align 4
  %left = alloca [4 x i8], align 4
  %temp = alloca [8 x i8], align 8
  %_0 = alloca [8 x i8], align 8
  store ptr null, ptr %temp, align 8
; call core::ptr::mut_ptr::<impl *mut T>::is_null
  %_4 = call zeroext i1 @"_ZN4core3ptr7mut_ptr31_$LT$impl$u20$$BP$mut$u20$T$GT$7is_null17h2d828d9c676b6917E"(ptr %node) #3
  br i1 %_4, label %bb2, label %bb3

bb3:                                              ; preds = %start
  %_191 = ptrtoint ptr %node to i64
  %_194 = and i64 %_191, 7
  %_195 = icmp eq i64 %_194, 0
  br i1 %_195, label %bb53, label %panic

bb2:                                              ; preds = %start
  store ptr null, ptr %_0, align 8
  br label %bb28

bb53:                                             ; preds = %bb3
  %_197 = ptrtoint ptr %node to i64
  %_200 = icmp eq i64 %_197, 0
  %_201 = and i1 %_200, true
  %_202 = xor i1 %_201, true
  br i1 %_202, label %bb54, label %panic1

panic:                                            ; preds = %bb3
; call core::panicking::panic_misaligned_pointer_dereference
  call void @_ZN4core9panicking36panic_misaligned_pointer_dereference17hcc3cbded9382b6e5E(i64 8, i64 %_191, ptr align 8 @alloc_79d022a193b5b18623f24ef5489055ff) #4
  unreachable

bb54:                                             ; preds = %bb53
  %_6 = load ptr, ptr %node, align 8
; call core::ptr::mut_ptr::<impl *mut T>::is_null
  %_5 = call zeroext i1 @"_ZN4core3ptr7mut_ptr31_$LT$impl$u20$$BP$mut$u20$T$GT$7is_null17h2d828d9c676b6917E"(ptr %_6) #3
  br i1 %_5, label %bb5, label %bb12

panic1:                                           ; preds = %bb53
; call core::panicking::panic_null_pointer_dereference
  call void @_ZN4core9panicking30panic_null_pointer_dereference17hf718fcc86a223baaE(ptr align 8 @alloc_79d022a193b5b18623f24ef5489055ff) #4
  unreachable

bb12:                                             ; preds = %bb56, %bb55, %bb54
  %_161 = ptrtoint ptr %node to i64
  %_164 = and i64 %_161, 7
  %_165 = icmp eq i64 %_164, 0
  br i1 %_165, label %bb48, label %panic6

bb5:                                              ; preds = %bb54
  %_185 = ptrtoint ptr %node to i64
  %_188 = and i64 %_185, 7
  %_189 = icmp eq i64 %_188, 0
  br i1 %_189, label %bb52, label %panic2

bb52:                                             ; preds = %bb5
  %_204 = ptrtoint ptr %node to i64
  %_207 = icmp eq i64 %_204, 0
  %_208 = and i1 %_207, true
  %_209 = xor i1 %_208, true
  br i1 %_209, label %bb55, label %panic3

panic2:                                           ; preds = %bb5
; call core::panicking::panic_misaligned_pointer_dereference
  call void @_ZN4core9panicking36panic_misaligned_pointer_dereference17hcc3cbded9382b6e5E(i64 8, i64 %_185, ptr align 8 @alloc_5a6b867fdb161f7a631514e776173a5c) #4
  unreachable

bb55:                                             ; preds = %bb52
  %0 = getelementptr inbounds i8, ptr %node, i64 8
  %_8 = load ptr, ptr %0, align 8
; call core::ptr::mut_ptr::<impl *mut T>::is_null
  %_7 = call zeroext i1 @"_ZN4core3ptr7mut_ptr31_$LT$impl$u20$$BP$mut$u20$T$GT$7is_null17h2d828d9c676b6917E"(ptr %_8) #3
  br i1 %_7, label %bb7, label %bb12

panic3:                                           ; preds = %bb52
; call core::panicking::panic_null_pointer_dereference
  call void @_ZN4core9panicking30panic_null_pointer_dereference17hf718fcc86a223baaE(ptr align 8 @alloc_5a6b867fdb161f7a631514e776173a5c) #4
  unreachable

bb7:                                              ; preds = %bb55
  %_179 = ptrtoint ptr %node to i64
  %_182 = and i64 %_179, 7
  %_183 = icmp eq i64 %_182, 0
  br i1 %_183, label %bb51, label %panic4

bb51:                                             ; preds = %bb7
  %_211 = ptrtoint ptr %node to i64
  %_214 = icmp eq i64 %_211, 0
  %_215 = and i1 %_214, true
  %_216 = xor i1 %_215, true
  br i1 %_216, label %bb56, label %panic5

panic4:                                           ; preds = %bb7
; call core::panicking::panic_misaligned_pointer_dereference
  call void @_ZN4core9panicking36panic_misaligned_pointer_dereference17hcc3cbded9382b6e5E(i64 8, i64 %_179, ptr align 8 @alloc_2e806aa2ef41396da14e7972bdbe1198) #4
  unreachable

bb56:                                             ; preds = %bb51
  %1 = getelementptr inbounds i8, ptr %node, i64 16
  %_10 = load i32, ptr %1, align 8
  %_9 = icmp eq i32 %_10, %key
  br i1 %_9, label %bb8, label %bb12

panic5:                                           ; preds = %bb51
; call core::panicking::panic_null_pointer_dereference
  call void @_ZN4core9panicking30panic_null_pointer_dereference17hf718fcc86a223baaE(ptr align 8 @alloc_2e806aa2ef41396da14e7972bdbe1198) #4
  unreachable

bb8:                                              ; preds = %bb56
  %_221 = icmp eq i64 ptrtoint (ptr @root to i64), 0
  %_222 = and i1 %_221, true
  %_223 = xor i1 %_222, true
  br i1 %_223, label %bb57, label %panic46

bb48:                                             ; preds = %bb12
  %_232 = ptrtoint ptr %node to i64
  %_235 = icmp eq i64 %_232, 0
  %_236 = and i1 %_235, true
  %_237 = xor i1 %_236, true
  br i1 %_237, label %bb59, label %panic7

panic6:                                           ; preds = %bb12
; call core::panicking::panic_misaligned_pointer_dereference
  call void @_ZN4core9panicking36panic_misaligned_pointer_dereference17hcc3cbded9382b6e5E(i64 8, i64 %_161, ptr align 8 @alloc_6401f0a48912deb80b0d435724609e1e) #4
  unreachable

bb59:                                             ; preds = %bb48
  %2 = getelementptr inbounds i8, ptr %node, i64 16
  %_18 = load i32, ptr %2, align 8
  %_17 = icmp sgt i32 %_18, %key
  br i1 %_17, label %bb13, label %bb14

panic7:                                           ; preds = %bb48
; call core::panicking::panic_null_pointer_dereference
  call void @_ZN4core9panicking30panic_null_pointer_dereference17hf718fcc86a223baaE(ptr align 8 @alloc_6401f0a48912deb80b0d435724609e1e) #4
  unreachable

bb14:                                             ; preds = %bb59
  %_149 = ptrtoint ptr %node to i64
  %_152 = and i64 %_149, 7
  %_153 = icmp eq i64 %_152, 0
  br i1 %_153, label %bb46, label %panic8

bb13:                                             ; preds = %bb59
  %_155 = ptrtoint ptr %node to i64
  %_158 = and i64 %_155, 7
  %_159 = icmp eq i64 %_158, 0
  br i1 %_159, label %bb47, label %panic42

bb46:                                             ; preds = %bb14
  %_246 = ptrtoint ptr %node to i64
  %_249 = icmp eq i64 %_246, 0
  %_250 = and i1 %_249, true
  %_251 = xor i1 %_250, true
  br i1 %_251, label %bb61, label %panic9

panic8:                                           ; preds = %bb14
; call core::panicking::panic_misaligned_pointer_dereference
  call void @_ZN4core9panicking36panic_misaligned_pointer_dereference17hcc3cbded9382b6e5E(i64 8, i64 %_149, ptr align 8 @alloc_ba7749a5b3b343e4c02bc04c91a75a0a) #4
  unreachable

bb61:                                             ; preds = %bb46
  %3 = getelementptr inbounds i8, ptr %node, i64 16
  %_22 = load i32, ptr %3, align 8
  %_21 = icmp slt i32 %_22, %key
  br i1 %_21, label %bb16, label %bb17

panic9:                                           ; preds = %bb46
; call core::panicking::panic_null_pointer_dereference
  call void @_ZN4core9panicking30panic_null_pointer_dereference17hf718fcc86a223baaE(ptr align 8 @alloc_ba7749a5b3b343e4c02bc04c91a75a0a) #4
  unreachable

bb17:                                             ; preds = %bb61
  store i32 0, ptr %left, align 4
  store i32 0, ptr %right, align 4
  %_131 = ptrtoint ptr %node to i64
  %_134 = and i64 %_131, 7
  %_135 = icmp eq i64 %_134, 0
  br i1 %_135, label %bb43, label %panic10

bb16:                                             ; preds = %bb61
  %_137 = ptrtoint ptr %node to i64
  %_140 = and i64 %_137, 7
  %_141 = icmp eq i64 %_140, 0
  br i1 %_141, label %bb44, label %panic38

bb43:                                             ; preds = %bb17
  %_267 = ptrtoint ptr %node to i64
  %_270 = icmp eq i64 %_267, 0
  %_271 = and i1 %_270, true
  %_272 = xor i1 %_271, true
  br i1 %_272, label %bb64, label %panic11

panic10:                                          ; preds = %bb17
; call core::panicking::panic_misaligned_pointer_dereference
  call void @_ZN4core9panicking36panic_misaligned_pointer_dereference17hcc3cbded9382b6e5E(i64 8, i64 %_131, ptr align 8 @alloc_4c0a472ce006d7d5574cd940ba856815) #4
  unreachable

bb64:                                             ; preds = %bb43
  %_28 = load ptr, ptr %node, align 8
  %_27 = call i32 @height(ptr %_28) #3
  store i32 %_27, ptr %left, align 4
  %_119 = ptrtoint ptr %node to i64
  %_122 = and i64 %_119, 7
  %_123 = icmp eq i64 %_122, 0
  br i1 %_123, label %bb41, label %panic12

panic11:                                          ; preds = %bb43
; call core::panicking::panic_null_pointer_dereference
  call void @_ZN4core9panicking30panic_null_pointer_dereference17hf718fcc86a223baaE(ptr align 8 @alloc_4c0a472ce006d7d5574cd940ba856815) #4
  unreachable

bb41:                                             ; preds = %bb64
  %_281 = ptrtoint ptr %node to i64
  %_284 = icmp eq i64 %_281, 0
  %_285 = and i1 %_284, true
  %_286 = xor i1 %_285, true
  br i1 %_286, label %bb66, label %panic13

panic12:                                          ; preds = %bb64
; call core::panicking::panic_misaligned_pointer_dereference
  call void @_ZN4core9panicking36panic_misaligned_pointer_dereference17hcc3cbded9382b6e5E(i64 8, i64 %_119, ptr align 8 @alloc_623441d570b663fc7659f6aebe05d264) #4
  unreachable

bb66:                                             ; preds = %bb41
  %4 = getelementptr inbounds i8, ptr %node, i64 8
  %_30 = load ptr, ptr %4, align 8
  %_29 = call i32 @height(ptr %_30) #3
  store i32 %_29, ptr %right, align 4
  %_32 = load i32, ptr %left, align 4
  %_33 = load i32, ptr %right, align 4
  %_31 = icmp sgt i32 %_32, %_33
  br i1 %_31, label %bb21, label %bb24

panic13:                                          ; preds = %bb41
; call core::panicking::panic_null_pointer_dereference
  call void @_ZN4core9panicking30panic_null_pointer_dereference17hf718fcc86a223baaE(ptr align 8 @alloc_623441d570b663fc7659f6aebe05d264) #4
  unreachable

bb24:                                             ; preds = %bb66
  %_77 = ptrtoint ptr %node to i64
  %_80 = and i64 %_77, 7
  %_81 = icmp eq i64 %_80, 0
  br i1 %_81, label %bb34, label %panic14

bb21:                                             ; preds = %bb66
  %_113 = ptrtoint ptr %node to i64
  %_116 = and i64 %_113, 7
  %_117 = icmp eq i64 %_116, 0
  br i1 %_117, label %bb40, label %panic26

bb34:                                             ; preds = %bb24
  %_330 = ptrtoint ptr %node to i64
  %_333 = icmp eq i64 %_330, 0
  %_334 = and i1 %_333, true
  %_335 = xor i1 %_334, true
  br i1 %_335, label %bb73, label %panic15

panic14:                                          ; preds = %bb24
; call core::panicking::panic_misaligned_pointer_dereference
  call void @_ZN4core9panicking36panic_misaligned_pointer_dereference17hcc3cbded9382b6e5E(i64 8, i64 %_77, ptr align 8 @alloc_d2fe1441111550b9b6599f0b242f5a47) #4
  unreachable

bb73:                                             ; preds = %bb34
  %5 = getelementptr inbounds i8, ptr %node, i64 8
  %_41 = load ptr, ptr %5, align 8
  %_40 = call ptr @successor(ptr %_41) #3
  store ptr %_40, ptr %temp, align 8
  %_70 = load ptr, ptr %temp, align 8
  %_71 = ptrtoint ptr %_70 to i64
  %_74 = and i64 %_71, 7
  %_75 = icmp eq i64 %_74, 0
  br i1 %_75, label %bb33, label %panic16

panic15:                                          ; preds = %bb34
; call core::panicking::panic_null_pointer_dereference
  call void @_ZN4core9panicking30panic_null_pointer_dereference17hf718fcc86a223baaE(ptr align 8 @alloc_d2fe1441111550b9b6599f0b242f5a47) #4
  unreachable

bb33:                                             ; preds = %bb73
  %_336 = load ptr, ptr %temp, align 8
  %_337 = ptrtoint ptr %_336 to i64
  %_340 = icmp eq i64 %_337, 0
  %_341 = and i1 %_340, true
  %_342 = xor i1 %_341, true
  br i1 %_342, label %bb74, label %panic17

panic16:                                          ; preds = %bb73
; call core::panicking::panic_misaligned_pointer_dereference
  call void @_ZN4core9panicking36panic_misaligned_pointer_dereference17hcc3cbded9382b6e5E(i64 8, i64 %_71, ptr align 8 @alloc_8631efbdd1b4b33adf0bbdb2c2a0e38f) #4
  unreachable

bb74:                                             ; preds = %bb33
  %6 = load ptr, ptr %temp, align 8
  %7 = getelementptr inbounds i8, ptr %6, i64 16
  %_42 = load i32, ptr %7, align 8
  %_65 = ptrtoint ptr %node to i64
  %_68 = and i64 %_65, 7
  %_69 = icmp eq i64 %_68, 0
  br i1 %_69, label %bb32, label %panic18

panic17:                                          ; preds = %bb33
; call core::panicking::panic_null_pointer_dereference
  call void @_ZN4core9panicking30panic_null_pointer_dereference17hf718fcc86a223baaE(ptr align 8 @alloc_8631efbdd1b4b33adf0bbdb2c2a0e38f) #4
  unreachable

bb32:                                             ; preds = %bb74
  %_344 = ptrtoint ptr %node to i64
  %_347 = icmp eq i64 %_344, 0
  %_348 = and i1 %_347, true
  %_349 = xor i1 %_348, true
  br i1 %_349, label %bb75, label %panic19

panic18:                                          ; preds = %bb74
; call core::panicking::panic_misaligned_pointer_dereference
  call void @_ZN4core9panicking36panic_misaligned_pointer_dereference17hcc3cbded9382b6e5E(i64 8, i64 %_65, ptr align 8 @alloc_2b2567ee47e5af2a32cd25b892bc51cd) #4
  unreachable

bb75:                                             ; preds = %bb32
  %8 = getelementptr inbounds i8, ptr %node, i64 16
  store i32 %_42, ptr %8, align 8
  %_59 = ptrtoint ptr %node to i64
  %_62 = and i64 %_59, 7
  %_63 = icmp eq i64 %_62, 0
  br i1 %_63, label %bb31, label %panic20

panic19:                                          ; preds = %bb32
; call core::panicking::panic_null_pointer_dereference
  call void @_ZN4core9panicking30panic_null_pointer_dereference17hf718fcc86a223baaE(ptr align 8 @alloc_2b2567ee47e5af2a32cd25b892bc51cd) #4
  unreachable

bb31:                                             ; preds = %bb75
  %_351 = ptrtoint ptr %node to i64
  %_354 = icmp eq i64 %_351, 0
  %_355 = and i1 %_354, true
  %_356 = xor i1 %_355, true
  br i1 %_356, label %bb76, label %panic21

panic20:                                          ; preds = %bb75
; call core::panicking::panic_misaligned_pointer_dereference
  call void @_ZN4core9panicking36panic_misaligned_pointer_dereference17hcc3cbded9382b6e5E(i64 8, i64 %_59, ptr align 8 @alloc_1152936f1bd54fc1c1cf7be441131fac) #4
  unreachable

bb76:                                             ; preds = %bb31
  %9 = getelementptr inbounds i8, ptr %node, i64 8
  %_44 = load ptr, ptr %9, align 8
  %_52 = load ptr, ptr %temp, align 8
  %_53 = ptrtoint ptr %_52 to i64
  %_56 = and i64 %_53, 7
  %_57 = icmp eq i64 %_56, 0
  br i1 %_57, label %bb30, label %panic22

panic21:                                          ; preds = %bb31
; call core::panicking::panic_null_pointer_dereference
  call void @_ZN4core9panicking30panic_null_pointer_dereference17hf718fcc86a223baaE(ptr align 8 @alloc_1152936f1bd54fc1c1cf7be441131fac) #4
  unreachable

bb30:                                             ; preds = %bb76
  %_357 = load ptr, ptr %temp, align 8
  %_358 = ptrtoint ptr %_357 to i64
  %_361 = icmp eq i64 %_358, 0
  %_362 = and i1 %_361, true
  %_363 = xor i1 %_362, true
  br i1 %_363, label %bb77, label %panic23

panic22:                                          ; preds = %bb76
; call core::panicking::panic_misaligned_pointer_dereference
  call void @_ZN4core9panicking36panic_misaligned_pointer_dereference17hcc3cbded9382b6e5E(i64 8, i64 %_53, ptr align 8 @alloc_5f61254a9425e11fbb1806df1b4d36cc) #4
  unreachable

bb77:                                             ; preds = %bb30
  %10 = load ptr, ptr %temp, align 8
  %11 = getelementptr inbounds i8, ptr %10, i64 16
  %_45 = load i32, ptr %11, align 8
  %_43 = call ptr @Delete(ptr %_44, i32 %_45) #3
  %_47 = ptrtoint ptr %node to i64
  %_50 = and i64 %_47, 7
  %_51 = icmp eq i64 %_50, 0
  br i1 %_51, label %bb29, label %panic24

panic23:                                          ; preds = %bb30
; call core::panicking::panic_null_pointer_dereference
  call void @_ZN4core9panicking30panic_null_pointer_dereference17hf718fcc86a223baaE(ptr align 8 @alloc_5f61254a9425e11fbb1806df1b4d36cc) #4
  unreachable

bb29:                                             ; preds = %bb77
  %_365 = ptrtoint ptr %node to i64
  %_368 = icmp eq i64 %_365, 0
  %_369 = and i1 %_368, true
  %_370 = xor i1 %_369, true
  br i1 %_370, label %bb78, label %panic25

panic24:                                          ; preds = %bb77
; call core::panicking::panic_misaligned_pointer_dereference
  call void @_ZN4core9panicking36panic_misaligned_pointer_dereference17hcc3cbded9382b6e5E(i64 8, i64 %_47, ptr align 8 @alloc_60c5e30d815d66a2ad0eabef9a44123b) #4
  unreachable

bb78:                                             ; preds = %bb29
  %12 = getelementptr inbounds i8, ptr %node, i64 8
  store ptr %_43, ptr %12, align 8
  br label %bb27

panic25:                                          ; preds = %bb29
; call core::panicking::panic_null_pointer_dereference
  call void @_ZN4core9panicking30panic_null_pointer_dereference17hf718fcc86a223baaE(ptr align 8 @alloc_60c5e30d815d66a2ad0eabef9a44123b) #4
  unreachable

bb27:                                             ; preds = %bb62, %bb65, %bb72, %bb78
  store ptr %node, ptr %_0, align 8
  br label %bb28

bb40:                                             ; preds = %bb21
  %_288 = ptrtoint ptr %node to i64
  %_291 = icmp eq i64 %_288, 0
  %_292 = and i1 %_291, true
  %_293 = xor i1 %_292, true
  br i1 %_293, label %bb67, label %panic27

panic26:                                          ; preds = %bb21
; call core::panicking::panic_misaligned_pointer_dereference
  call void @_ZN4core9panicking36panic_misaligned_pointer_dereference17hcc3cbded9382b6e5E(i64 8, i64 %_113, ptr align 8 @alloc_44707523d78d2fefb7c1cb802f976acb) #4
  unreachable

bb67:                                             ; preds = %bb40
  %_35 = load ptr, ptr %node, align 8
  %_34 = call ptr @Predecessor(ptr %_35) #3
  store ptr %_34, ptr %temp, align 8
  %_106 = load ptr, ptr %temp, align 8
  %_107 = ptrtoint ptr %_106 to i64
  %_110 = and i64 %_107, 7
  %_111 = icmp eq i64 %_110, 0
  br i1 %_111, label %bb39, label %panic28

panic27:                                          ; preds = %bb40
; call core::panicking::panic_null_pointer_dereference
  call void @_ZN4core9panicking30panic_null_pointer_dereference17hf718fcc86a223baaE(ptr align 8 @alloc_44707523d78d2fefb7c1cb802f976acb) #4
  unreachable

bb39:                                             ; preds = %bb67
  %_294 = load ptr, ptr %temp, align 8
  %_295 = ptrtoint ptr %_294 to i64
  %_298 = icmp eq i64 %_295, 0
  %_299 = and i1 %_298, true
  %_300 = xor i1 %_299, true
  br i1 %_300, label %bb68, label %panic29

panic28:                                          ; preds = %bb67
; call core::panicking::panic_misaligned_pointer_dereference
  call void @_ZN4core9panicking36panic_misaligned_pointer_dereference17hcc3cbded9382b6e5E(i64 8, i64 %_107, ptr align 8 @alloc_2d953616b048aae7623800fbf23a505b) #4
  unreachable

bb68:                                             ; preds = %bb39
  %13 = load ptr, ptr %temp, align 8
  %14 = getelementptr inbounds i8, ptr %13, i64 16
  %_36 = load i32, ptr %14, align 8
  %_101 = ptrtoint ptr %node to i64
  %_104 = and i64 %_101, 7
  %_105 = icmp eq i64 %_104, 0
  br i1 %_105, label %bb38, label %panic30

panic29:                                          ; preds = %bb39
; call core::panicking::panic_null_pointer_dereference
  call void @_ZN4core9panicking30panic_null_pointer_dereference17hf718fcc86a223baaE(ptr align 8 @alloc_2d953616b048aae7623800fbf23a505b) #4
  unreachable

bb38:                                             ; preds = %bb68
  %_302 = ptrtoint ptr %node to i64
  %_305 = icmp eq i64 %_302, 0
  %_306 = and i1 %_305, true
  %_307 = xor i1 %_306, true
  br i1 %_307, label %bb69, label %panic31

panic30:                                          ; preds = %bb68
; call core::panicking::panic_misaligned_pointer_dereference
  call void @_ZN4core9panicking36panic_misaligned_pointer_dereference17hcc3cbded9382b6e5E(i64 8, i64 %_101, ptr align 8 @alloc_00bef763b7c8a922818ac65265b89b4b) #4
  unreachable

bb69:                                             ; preds = %bb38
  %15 = getelementptr inbounds i8, ptr %node, i64 16
  store i32 %_36, ptr %15, align 8
  %_95 = ptrtoint ptr %node to i64
  %_98 = and i64 %_95, 7
  %_99 = icmp eq i64 %_98, 0
  br i1 %_99, label %bb37, label %panic32

panic31:                                          ; preds = %bb38
; call core::panicking::panic_null_pointer_dereference
  call void @_ZN4core9panicking30panic_null_pointer_dereference17hf718fcc86a223baaE(ptr align 8 @alloc_00bef763b7c8a922818ac65265b89b4b) #4
  unreachable

bb37:                                             ; preds = %bb69
  %_309 = ptrtoint ptr %node to i64
  %_312 = icmp eq i64 %_309, 0
  %_313 = and i1 %_312, true
  %_314 = xor i1 %_313, true
  br i1 %_314, label %bb70, label %panic33

panic32:                                          ; preds = %bb69
; call core::panicking::panic_misaligned_pointer_dereference
  call void @_ZN4core9panicking36panic_misaligned_pointer_dereference17hcc3cbded9382b6e5E(i64 8, i64 %_95, ptr align 8 @alloc_216093043c767cac8e253a6f1013ae40) #4
  unreachable

bb70:                                             ; preds = %bb37
  %_38 = load ptr, ptr %node, align 8
  %_88 = load ptr, ptr %temp, align 8
  %_89 = ptrtoint ptr %_88 to i64
  %_92 = and i64 %_89, 7
  %_93 = icmp eq i64 %_92, 0
  br i1 %_93, label %bb36, label %panic34

panic33:                                          ; preds = %bb37
; call core::panicking::panic_null_pointer_dereference
  call void @_ZN4core9panicking30panic_null_pointer_dereference17hf718fcc86a223baaE(ptr align 8 @alloc_216093043c767cac8e253a6f1013ae40) #4
  unreachable

bb36:                                             ; preds = %bb70
  %_315 = load ptr, ptr %temp, align 8
  %_316 = ptrtoint ptr %_315 to i64
  %_319 = icmp eq i64 %_316, 0
  %_320 = and i1 %_319, true
  %_321 = xor i1 %_320, true
  br i1 %_321, label %bb71, label %panic35

panic34:                                          ; preds = %bb70
; call core::panicking::panic_misaligned_pointer_dereference
  call void @_ZN4core9panicking36panic_misaligned_pointer_dereference17hcc3cbded9382b6e5E(i64 8, i64 %_89, ptr align 8 @alloc_90506b482cb006df152f8b4597e95a19) #4
  unreachable

bb71:                                             ; preds = %bb36
  %16 = load ptr, ptr %temp, align 8
  %17 = getelementptr inbounds i8, ptr %16, i64 16
  %_39 = load i32, ptr %17, align 8
  %_37 = call ptr @Delete(ptr %_38, i32 %_39) #3
  %_83 = ptrtoint ptr %node to i64
  %_86 = and i64 %_83, 7
  %_87 = icmp eq i64 %_86, 0
  br i1 %_87, label %bb35, label %panic36

panic35:                                          ; preds = %bb36
; call core::panicking::panic_null_pointer_dereference
  call void @_ZN4core9panicking30panic_null_pointer_dereference17hf718fcc86a223baaE(ptr align 8 @alloc_90506b482cb006df152f8b4597e95a19) #4
  unreachable

bb35:                                             ; preds = %bb71
  %_323 = ptrtoint ptr %node to i64
  %_326 = icmp eq i64 %_323, 0
  %_327 = and i1 %_326, true
  %_328 = xor i1 %_327, true
  br i1 %_328, label %bb72, label %panic37

panic36:                                          ; preds = %bb71
; call core::panicking::panic_misaligned_pointer_dereference
  call void @_ZN4core9panicking36panic_misaligned_pointer_dereference17hcc3cbded9382b6e5E(i64 8, i64 %_83, ptr align 8 @alloc_8f4e2aa55ecfe6726981da220c5122ab) #4
  unreachable

bb72:                                             ; preds = %bb35
  store ptr %_37, ptr %node, align 8
  br label %bb27

panic37:                                          ; preds = %bb35
; call core::panicking::panic_null_pointer_dereference
  call void @_ZN4core9panicking30panic_null_pointer_dereference17hf718fcc86a223baaE(ptr align 8 @alloc_8f4e2aa55ecfe6726981da220c5122ab) #4
  unreachable

bb44:                                             ; preds = %bb16
  %_260 = ptrtoint ptr %node to i64
  %_263 = icmp eq i64 %_260, 0
  %_264 = and i1 %_263, true
  %_265 = xor i1 %_264, true
  br i1 %_265, label %bb63, label %panic39

panic38:                                          ; preds = %bb16
; call core::panicking::panic_misaligned_pointer_dereference
  call void @_ZN4core9panicking36panic_misaligned_pointer_dereference17hcc3cbded9382b6e5E(i64 8, i64 %_137, ptr align 8 @alloc_4cd326282da15a1a0c144dd5c8b190c4) #4
  unreachable

bb63:                                             ; preds = %bb44
  %18 = getelementptr inbounds i8, ptr %node, i64 8
  %_24 = load ptr, ptr %18, align 8
  %_23 = call ptr @Delete(ptr %_24, i32 %key) #3
  %_125 = ptrtoint ptr %node to i64
  %_128 = and i64 %_125, 7
  %_129 = icmp eq i64 %_128, 0
  br i1 %_129, label %bb42, label %panic40

panic39:                                          ; preds = %bb44
; call core::panicking::panic_null_pointer_dereference
  call void @_ZN4core9panicking30panic_null_pointer_dereference17hf718fcc86a223baaE(ptr align 8 @alloc_4cd326282da15a1a0c144dd5c8b190c4) #4
  unreachable

bb42:                                             ; preds = %bb63
  %_274 = ptrtoint ptr %node to i64
  %_277 = icmp eq i64 %_274, 0
  %_278 = and i1 %_277, true
  %_279 = xor i1 %_278, true
  br i1 %_279, label %bb65, label %panic41

panic40:                                          ; preds = %bb63
; call core::panicking::panic_misaligned_pointer_dereference
  call void @_ZN4core9panicking36panic_misaligned_pointer_dereference17hcc3cbded9382b6e5E(i64 8, i64 %_125, ptr align 8 @alloc_6315b79dba6f789e11adb693d3b81db7) #4
  unreachable

bb65:                                             ; preds = %bb42
  %19 = getelementptr inbounds i8, ptr %node, i64 8
  store ptr %_23, ptr %19, align 8
  br label %bb27

panic41:                                          ; preds = %bb42
; call core::panicking::panic_null_pointer_dereference
  call void @_ZN4core9panicking30panic_null_pointer_dereference17hf718fcc86a223baaE(ptr align 8 @alloc_6315b79dba6f789e11adb693d3b81db7) #4
  unreachable

bb47:                                             ; preds = %bb13
  %_239 = ptrtoint ptr %node to i64
  %_242 = icmp eq i64 %_239, 0
  %_243 = and i1 %_242, true
  %_244 = xor i1 %_243, true
  br i1 %_244, label %bb60, label %panic43

panic42:                                          ; preds = %bb13
; call core::panicking::panic_misaligned_pointer_dereference
  call void @_ZN4core9panicking36panic_misaligned_pointer_dereference17hcc3cbded9382b6e5E(i64 8, i64 %_155, ptr align 8 @alloc_7ff5b6cfa11d63390c984855bebc62ae) #4
  unreachable

bb60:                                             ; preds = %bb47
  %_20 = load ptr, ptr %node, align 8
  %_19 = call ptr @Delete(ptr %_20, i32 %key) #3
  %_143 = ptrtoint ptr %node to i64
  %_146 = and i64 %_143, 7
  %_147 = icmp eq i64 %_146, 0
  br i1 %_147, label %bb45, label %panic44

panic43:                                          ; preds = %bb47
; call core::panicking::panic_null_pointer_dereference
  call void @_ZN4core9panicking30panic_null_pointer_dereference17hf718fcc86a223baaE(ptr align 8 @alloc_7ff5b6cfa11d63390c984855bebc62ae) #4
  unreachable

bb45:                                             ; preds = %bb60
  %_253 = ptrtoint ptr %node to i64
  %_256 = icmp eq i64 %_253, 0
  %_257 = and i1 %_256, true
  %_258 = xor i1 %_257, true
  br i1 %_258, label %bb62, label %panic45

panic44:                                          ; preds = %bb60
; call core::panicking::panic_misaligned_pointer_dereference
  call void @_ZN4core9panicking36panic_misaligned_pointer_dereference17hcc3cbded9382b6e5E(i64 8, i64 %_143, ptr align 8 @alloc_4fce098e5e503b6bfe31d308e01624d7) #4
  unreachable

bb62:                                             ; preds = %bb45
  store ptr %_19, ptr %node, align 8
  br label %bb27

panic45:                                          ; preds = %bb45
; call core::panicking::panic_null_pointer_dereference
  call void @_ZN4core9panicking30panic_null_pointer_dereference17hf718fcc86a223baaE(ptr align 8 @alloc_4fce098e5e503b6bfe31d308e01624d7) #4
  unreachable

bb28:                                             ; preds = %bb2, %bb10, %bb27
  %20 = load ptr, ptr %_0, align 8
  ret ptr %20

bb57:                                             ; preds = %bb8
  %_12 = load ptr, ptr @root, align 8
  %_11 = icmp eq ptr %node, %_12
  br i1 %_11, label %bb9, label %bb10

panic46:                                          ; preds = %bb8
; call core::panicking::panic_null_pointer_dereference
  call void @_ZN4core9panicking30panic_null_pointer_dereference17hf718fcc86a223baaE(ptr align 8 @alloc_b88a53fc5ff08f7f526347969bfff840) #4
  unreachable

bb10:                                             ; preds = %bb58, %bb57
  call void @free(ptr %node) #3
  store ptr null, ptr %_0, align 8
  br label %bb28

bb9:                                              ; preds = %bb57
  %_228 = icmp eq i64 ptrtoint (ptr @root to i64), 0
  %_229 = and i1 %_228, true
  %_230 = xor i1 %_229, true
  br i1 %_230, label %bb58, label %panic47

bb58:                                             ; preds = %bb9
  store ptr null, ptr @root, align 8
  br label %bb10

panic47:                                          ; preds = %bb9
; call core::panicking::panic_null_pointer_dereference
  call void @_ZN4core9panicking30panic_null_pointer_dereference17hf718fcc86a223baaE(ptr align 8 @alloc_3f6750468798dc13ba9851616a5cf6f5) #4
  unreachable
}

; Function Attrs: nounwind nonlazybind
declare ptr @malloc(i64) unnamed_addr #1

; core::panicking::panic_misaligned_pointer_dereference
; Function Attrs: cold minsize noinline noreturn nounwind nonlazybind optsize
declare void @_ZN4core9panicking36panic_misaligned_pointer_dereference17hcc3cbded9382b6e5E(i64, i64, ptr align 8) unnamed_addr #2

; core::panicking::panic_null_pointer_dereference
; Function Attrs: cold minsize noinline noreturn nounwind nonlazybind optsize
declare void @_ZN4core9panicking30panic_null_pointer_dereference17hf718fcc86a223baaE(ptr align 8) unnamed_addr #2

; Function Attrs: nounwind nonlazybind
declare i32 @printf(ptr, ...) unnamed_addr #1

; Function Attrs: nounwind nonlazybind
declare void @free(ptr) unnamed_addr #1

attributes #0 = { inlinehint nounwind nonlazybind "probe-stack"="inline-asm" "target-cpu"="x86-64" }
attributes #1 = { nounwind nonlazybind "probe-stack"="inline-asm" "target-cpu"="x86-64" }
attributes #2 = { cold minsize noinline noreturn nounwind nonlazybind optsize "probe-stack"="inline-asm" "target-cpu"="x86-64" }
attributes #3 = { nounwind }
attributes #4 = { noreturn nounwind }

!llvm.module.flags = !{!0, !1}
!llvm.ident = !{!2}

!0 = !{i32 8, !"PIC Level", i32 2}
!1 = !{i32 2, !"RtLibUseGOT", i32 1}
!2 = !{!"rustc version 1.88.0-nightly (0b45675cf 2025-03-31)"}
