; ModuleID = '8tsof82inf1skh4oa9502o1od'
source_filename = "8tsof82inf1skh4oa9502o1od"
target datalayout = "e-m:e-p270:32:32-p271:32:32-p272:64:64-i64:64-i128:128-f80:128-n8:16:32:64-S128"
target triple = "x86_64-unknown-linux-gnu"

@head1 = global [8 x i8] zeroinitializer, align 8
@head2 = global [8 x i8] zeroinitializer, align 8
@alloc_f5ffd2fd1476bab43ad89fb40c72d0c5 = private unnamed_addr constant [10 x i8] c"src/lib.rs", align 1
@alloc_699e44a484a746b7c0002fed84654cf5 = private unnamed_addr constant <{ ptr, [16 x i8] }> <{ ptr @alloc_f5ffd2fd1476bab43ad89fb40c72d0c5, [16 x i8] c"\0A\00\00\00\00\00\00\00\22\00\00\00\05\00\00\00" }>, align 8
@alloc_6d4b9a63a3a7d57837cacbb81faee635 = private unnamed_addr constant <{ ptr, [16 x i8] }> <{ ptr @alloc_f5ffd2fd1476bab43ad89fb40c72d0c5, [16 x i8] c"\0A\00\00\00\00\00\00\00#\00\00\00\05\00\00\00" }>, align 8
@alloc_0e2aa1d79adf60295a7da3d6060764de = private unnamed_addr constant <{ ptr, [16 x i8] }> <{ ptr @alloc_f5ffd2fd1476bab43ad89fb40c72d0c5, [16 x i8] c"\0A\00\00\00\00\00\00\00*\00\00\00\05\00\00\00" }>, align 8
@alloc_95b11ff1117863748af6f3239763a7eb = private unnamed_addr constant <{ ptr, [16 x i8] }> <{ ptr @alloc_f5ffd2fd1476bab43ad89fb40c72d0c5, [16 x i8] c"\0A\00\00\00\00\00\00\00+\00\00\00\17\00\00\00" }>, align 8
@alloc_10a6678bc82c4f4192a3478cb7835279 = private unnamed_addr constant <{ ptr, [16 x i8] }> <{ ptr @alloc_f5ffd2fd1476bab43ad89fb40c72d0c5, [16 x i8] c"\0A\00\00\00\00\00\00\00+\00\00\00\05\00\00\00" }>, align 8
@alloc_9cd10b5e36852d7e733992f2bdbb38d4 = private unnamed_addr constant <{ ptr, [16 x i8] }> <{ ptr @alloc_f5ffd2fd1476bab43ad89fb40c72d0c5, [16 x i8] c"\0A\00\00\00\00\00\00\00,\00\00\00\05\00\00\00" }>, align 8
@alloc_fbe2054581c632a134ad158374782b5c = private unnamed_addr constant <{ ptr, [16 x i8] }> <{ ptr @alloc_f5ffd2fd1476bab43ad89fb40c72d0c5, [16 x i8] c"\0A\00\00\00\00\00\00\009\00\00\00\10\00\00\00" }>, align 8
@alloc_4fa5823864f176e2481e8438ab1a5a6a = private unnamed_addr constant [38 x i8] c"Error : Invalid ListNode pointer !!!\0A\00", align 1
@alloc_3a31753a0b113451bf74f615363720ce = private unnamed_addr constant [3 x i8] c"%d\00", align 1
@alloc_88d6892d27ace5c8697541e5a304cf9e = private unnamed_addr constant <{ ptr, [16 x i8] }> <{ ptr @alloc_f5ffd2fd1476bab43ad89fb40c72d0c5, [16 x i8] c"\0A\00\00\00\00\00\00\00B\00\00\00=\00\00\00" }>, align 8
@alloc_a6d3c876957c2bdf5277f353b97f33e1 = private unnamed_addr constant <{ ptr, [16 x i8] }> <{ ptr @alloc_f5ffd2fd1476bab43ad89fb40c72d0c5, [16 x i8] c"\0A\00\00\00\00\00\00\00C\00\00\00\10\00\00\00" }>, align 8
@alloc_edca6fca6f3bd469581a2559907aba10 = private unnamed_addr constant [4 x i8] c"-->\00", align 1
@alloc_1c9b9924c5e1ac3abfe7f6aade1ed474 = private unnamed_addr constant <{ ptr, [16 x i8] }> <{ ptr @alloc_f5ffd2fd1476bab43ad89fb40c72d0c5, [16 x i8] c"\0A\00\00\00\00\00\00\00Q\00\00\00\10\00\00\00" }>, align 8
@alloc_48b505e14fb771830a694fa0a2d37e03 = private unnamed_addr constant <{ ptr, [16 x i8] }> <{ ptr @alloc_f5ffd2fd1476bab43ad89fb40c72d0c5, [16 x i8] c"\0A\00\00\00\00\00\00\00R\00\00\00\09\00\00\00" }>, align 8
@alloc_98062d45e6a0c45e4ec92228285554d6 = private unnamed_addr constant [19 x i8] c"\0A List1 data is %d\00", align 1
@alloc_83c970aa04769eb790e7d0c2e6f3a336 = private unnamed_addr constant <{ ptr, [16 x i8] }> <{ ptr @alloc_f5ffd2fd1476bab43ad89fb40c72d0c5, [16 x i8] c"\0A\00\00\00\00\00\00\00b\00\00\00\0D\00\00\00" }>, align 8
@alloc_a2b7cb01d5893134e8699ea8444f144c = private unnamed_addr constant <{ ptr, [16 x i8] }> <{ ptr @alloc_f5ffd2fd1476bab43ad89fb40c72d0c5, [16 x i8] c"\0A\00\00\00\00\00\00\00e\00\00\00\10\00\00\00" }>, align 8
@alloc_cda5129682646d681ec06b598e4a2b04 = private unnamed_addr constant <{ ptr, [16 x i8] }> <{ ptr @alloc_f5ffd2fd1476bab43ad89fb40c72d0c5, [16 x i8] c"\0A\00\00\00\00\00\00\00e\00\00\00 \00\00\00" }>, align 8
@alloc_15514ee6ef183cd6e998536d6887fc9c = private unnamed_addr constant <{ ptr, [16 x i8] }> <{ ptr @alloc_f5ffd2fd1476bab43ad89fb40c72d0c5, [16 x i8] c"\0A\00\00\00\00\00\00\00l\00\00\00\14\00\00\00" }>, align 8
@alloc_f48cb90fa4b7aaa88f1159f4a4b20d19 = private unnamed_addr constant [19 x i8] c"\0A List2 data is %d\00", align 1
@alloc_60dcf813f2d80f6e8c115e089ba964b6 = private unnamed_addr constant <{ ptr, [16 x i8] }> <{ ptr @alloc_f5ffd2fd1476bab43ad89fb40c72d0c5, [16 x i8] c"\0A\00\00\00\00\00\00\00h\00\00\00\15\00\00\00" }>, align 8
@alloc_8a1ce6bbcdc14a0cb78528c1de84e2c7 = private unnamed_addr constant <{ ptr, [16 x i8] }> <{ ptr @alloc_f5ffd2fd1476bab43ad89fb40c72d0c5, [16 x i8] c"\0A\00\00\00\00\00\00\00n\00\00\00\13\00\00\00" }>, align 8

; core::ptr::mut_ptr::<impl *mut T>::is_null
; Function Attrs: inlinehint nounwind nonlazybind
define internal zeroext i1 @"_ZN4core3ptr7mut_ptr31_$LT$impl$u20$$BP$mut$u20$T$GT$7is_null17h9a5771f80072a18aE"(ptr %self) unnamed_addr #0 {
start:
  %_3 = ptrtoint ptr %self to i64
  %_0 = icmp eq i64 %_3, 0
  ret i1 %_0
}

; Function Attrs: nounwind nonlazybind
define void @initialize() unnamed_addr #1 {
start:
  %_19 = icmp eq i64 ptrtoint (ptr @head1 to i64), 0
  %_20 = and i1 %_19, true
  %_21 = xor i1 %_20, true
  br i1 %_21, label %bb3, label %panic

bb3:                                              ; preds = %start
  store ptr null, ptr @head1, align 8
  %_26 = icmp eq i64 ptrtoint (ptr @head2 to i64), 0
  %_27 = and i1 %_26, true
  %_28 = xor i1 %_27, true
  br i1 %_28, label %bb4, label %panic1

panic:                                            ; preds = %start
; call core::panicking::panic_null_pointer_dereference
  call void @_ZN4core9panicking30panic_null_pointer_dereference17hf718fcc86a223baaE(ptr align 8 @alloc_699e44a484a746b7c0002fed84654cf5) #3
  unreachable

bb4:                                              ; preds = %bb3
  store ptr null, ptr @head2, align 8
  ret void

panic1:                                           ; preds = %bb3
; call core::panicking::panic_null_pointer_dereference
  call void @_ZN4core9panicking30panic_null_pointer_dereference17hf718fcc86a223baaE(ptr align 8 @alloc_6d4b9a63a3a7d57837cacbb81faee635) #3
  unreachable
}

; Function Attrs: nounwind nonlazybind
define void @insert(ptr %head, i32 %data) unnamed_addr #1 {
start:
  %_4 = call ptr @malloc(i64 16) #4
  %_27 = ptrtoint ptr %_4 to i64
  %_30 = and i64 %_27, 7
  %_31 = icmp eq i64 %_30, 0
  br i1 %_31, label %bb6, label %panic

bb6:                                              ; preds = %start
  %_33 = ptrtoint ptr %_4 to i64
  %_36 = icmp eq i64 %_33, 0
  %_37 = and i1 %_36, true
  %_38 = xor i1 %_37, true
  br i1 %_38, label %bb7, label %panic1

panic:                                            ; preds = %start
; call core::panicking::panic_misaligned_pointer_dereference
  call void @_ZN4core9panicking36panic_misaligned_pointer_dereference17hcc3cbded9382b6e5E(i64 8, i64 %_27, ptr align 8 @alloc_0e2aa1d79adf60295a7da3d6060764de) #3
  unreachable

bb7:                                              ; preds = %bb6
  store i32 %data, ptr %_4, align 8
  %_21 = ptrtoint ptr %head to i64
  %_24 = and i64 %_21, 7
  %_25 = icmp eq i64 %_24, 0
  br i1 %_25, label %bb5, label %panic2

panic1:                                           ; preds = %bb6
; call core::panicking::panic_null_pointer_dereference
  call void @_ZN4core9panicking30panic_null_pointer_dereference17hf718fcc86a223baaE(ptr align 8 @alloc_0e2aa1d79adf60295a7da3d6060764de) #3
  unreachable

bb5:                                              ; preds = %bb7
  %_40 = ptrtoint ptr %head to i64
  %_43 = icmp eq i64 %_40, 0
  %_44 = and i1 %_43, true
  %_45 = xor i1 %_44, true
  br i1 %_45, label %bb8, label %panic3

panic2:                                           ; preds = %bb7
; call core::panicking::panic_misaligned_pointer_dereference
  call void @_ZN4core9panicking36panic_misaligned_pointer_dereference17hcc3cbded9382b6e5E(i64 8, i64 %_21, ptr align 8 @alloc_95b11ff1117863748af6f3239763a7eb) #3
  unreachable

bb8:                                              ; preds = %bb5
  %_7 = load ptr, ptr %head, align 8
  %_15 = ptrtoint ptr %_4 to i64
  %_18 = and i64 %_15, 7
  %_19 = icmp eq i64 %_18, 0
  br i1 %_19, label %bb4, label %panic4

panic3:                                           ; preds = %bb5
; call core::panicking::panic_null_pointer_dereference
  call void @_ZN4core9panicking30panic_null_pointer_dereference17hf718fcc86a223baaE(ptr align 8 @alloc_95b11ff1117863748af6f3239763a7eb) #3
  unreachable

bb4:                                              ; preds = %bb8
  %_47 = ptrtoint ptr %_4 to i64
  %_50 = icmp eq i64 %_47, 0
  %_51 = and i1 %_50, true
  %_52 = xor i1 %_51, true
  br i1 %_52, label %bb9, label %panic5

panic4:                                           ; preds = %bb8
; call core::panicking::panic_misaligned_pointer_dereference
  call void @_ZN4core9panicking36panic_misaligned_pointer_dereference17hcc3cbded9382b6e5E(i64 8, i64 %_15, ptr align 8 @alloc_10a6678bc82c4f4192a3478cb7835279) #3
  unreachable

bb9:                                              ; preds = %bb4
  %0 = getelementptr inbounds i8, ptr %_4, i64 8
  store ptr %_7, ptr %0, align 8
  %_9 = ptrtoint ptr %head to i64
  %_12 = and i64 %_9, 7
  %_13 = icmp eq i64 %_12, 0
  br i1 %_13, label %bb3, label %panic6

panic5:                                           ; preds = %bb4
; call core::panicking::panic_null_pointer_dereference
  call void @_ZN4core9panicking30panic_null_pointer_dereference17hf718fcc86a223baaE(ptr align 8 @alloc_10a6678bc82c4f4192a3478cb7835279) #3
  unreachable

bb3:                                              ; preds = %bb9
  %_54 = ptrtoint ptr %head to i64
  %_57 = icmp eq i64 %_54, 0
  %_58 = and i1 %_57, true
  %_59 = xor i1 %_58, true
  br i1 %_59, label %bb10, label %panic7

panic6:                                           ; preds = %bb9
; call core::panicking::panic_misaligned_pointer_dereference
  call void @_ZN4core9panicking36panic_misaligned_pointer_dereference17hcc3cbded9382b6e5E(i64 8, i64 %_9, ptr align 8 @alloc_9cd10b5e36852d7e733992f2bdbb38d4) #3
  unreachable

bb10:                                             ; preds = %bb3
  store ptr %_4, ptr %head, align 8
  ret void

panic7:                                           ; preds = %bb3
; call core::panicking::panic_null_pointer_dereference
  call void @_ZN4core9panicking30panic_null_pointer_dereference17hf718fcc86a223baaE(ptr align 8 @alloc_9cd10b5e36852d7e733992f2bdbb38d4) #3
  unreachable
}

; Function Attrs: nounwind nonlazybind
define i32 @getLength(ptr %0) unnamed_addr #1 {
start:
  %length = alloca [4 x i8], align 4
  %_0 = alloca [4 x i8], align 4
  %head = alloca [8 x i8], align 8
  store ptr %0, ptr %head, align 8
  %_3 = load ptr, ptr %head, align 8
; call core::ptr::mut_ptr::<impl *mut T>::is_null
  %_2 = call zeroext i1 @"_ZN4core3ptr7mut_ptr31_$LT$impl$u20$$BP$mut$u20$T$GT$7is_null17h9a5771f80072a18aE"(ptr %_3) #4
  br i1 %_2, label %bb2, label %bb4

bb4:                                              ; preds = %start
  store i32 0, ptr %length, align 4
  br label %bb5

bb2:                                              ; preds = %start
  %_4 = call i32 (ptr, ...) @printf(ptr @alloc_4fa5823864f176e2481e8438ab1a5a6a) #4
  store i32 0, ptr %_0, align 4
  br label %bb9

bb5:                                              ; preds = %bb11, %bb4
  %_11 = load ptr, ptr %head, align 8
; call core::ptr::mut_ptr::<impl *mut T>::is_null
  %_10 = call zeroext i1 @"_ZN4core3ptr7mut_ptr31_$LT$impl$u20$$BP$mut$u20$T$GT$7is_null17h9a5771f80072a18aE"(ptr %_11) #4
  br i1 %_10, label %bb7, label %bb8

bb8:                                              ; preds = %bb5
  %_13 = load ptr, ptr %head, align 8
  %_14 = ptrtoint ptr %_13 to i64
  %_17 = and i64 %_14, 7
  %_18 = icmp eq i64 %_17, 0
  br i1 %_18, label %bb10, label %panic

bb7:                                              ; preds = %bb5
  %1 = load i32, ptr %length, align 4
  store i32 %1, ptr %_0, align 4
  br label %bb9

bb10:                                             ; preds = %bb8
  %_19 = load ptr, ptr %head, align 8
  %_20 = ptrtoint ptr %_19 to i64
  %_23 = icmp eq i64 %_20, 0
  %_24 = and i1 %_23, true
  %_25 = xor i1 %_24, true
  br i1 %_25, label %bb11, label %panic1

panic:                                            ; preds = %bb8
; call core::panicking::panic_misaligned_pointer_dereference
  call void @_ZN4core9panicking36panic_misaligned_pointer_dereference17hcc3cbded9382b6e5E(i64 8, i64 %_14, ptr align 8 @alloc_fbe2054581c632a134ad158374782b5c) #3
  unreachable

bb11:                                             ; preds = %bb10
  %2 = load ptr, ptr %head, align 8
  %3 = getelementptr inbounds i8, ptr %2, i64 8
  %_12 = load ptr, ptr %3, align 8
  store ptr %_12, ptr %head, align 8
  %4 = load i32, ptr %length, align 4
  %5 = add i32 %4, 1
  store i32 %5, ptr %length, align 4
  br label %bb5

panic1:                                           ; preds = %bb10
; call core::panicking::panic_null_pointer_dereference
  call void @_ZN4core9panicking30panic_null_pointer_dereference17hf718fcc86a223baaE(ptr align 8 @alloc_fbe2054581c632a134ad158374782b5c) #3
  unreachable

bb9:                                              ; preds = %bb2, %bb7
  %6 = load i32, ptr %_0, align 4
  ret i32 %6
}

; Function Attrs: nounwind nonlazybind
define void @printLinkedList(ptr %0) unnamed_addr #1 {
start:
  %head = alloca [8 x i8], align 8
  store ptr %0, ptr %head, align 8
  br label %bb1

bb1:                                              ; preds = %bb7, %bb11, %start
  %_3 = load ptr, ptr %head, align 8
; call core::ptr::mut_ptr::<impl *mut T>::is_null
  %_2 = call zeroext i1 @"_ZN4core3ptr7mut_ptr31_$LT$impl$u20$$BP$mut$u20$T$GT$7is_null17h9a5771f80072a18aE"(ptr %_3) #4
  br i1 %_2, label %bb3, label %bb4

bb4:                                              ; preds = %bb1
  %_24 = load ptr, ptr %head, align 8
  %_25 = ptrtoint ptr %_24 to i64
  %_28 = and i64 %_25, 7
  %_29 = icmp eq i64 %_28, 0
  br i1 %_29, label %bb9, label %panic

bb3:                                              ; preds = %bb1
  ret void

bb9:                                              ; preds = %bb4
  %_30 = load ptr, ptr %head, align 8
  %_31 = ptrtoint ptr %_30 to i64
  %_34 = icmp eq i64 %_31, 0
  %_35 = and i1 %_34, true
  %_36 = xor i1 %_35, true
  br i1 %_36, label %bb10, label %panic1

panic:                                            ; preds = %bb4
; call core::panicking::panic_misaligned_pointer_dereference
  call void @_ZN4core9panicking36panic_misaligned_pointer_dereference17hcc3cbded9382b6e5E(i64 8, i64 %_25, ptr align 8 @alloc_88d6892d27ace5c8697541e5a304cf9e) #3
  unreachable

bb10:                                             ; preds = %bb9
  %1 = load ptr, ptr %head, align 8
  %_9 = load i32, ptr %1, align 8
  %_4 = call i32 (ptr, ...) @printf(ptr @alloc_3a31753a0b113451bf74f615363720ce, i32 %_9) #4
  %_18 = load ptr, ptr %head, align 8
  %_19 = ptrtoint ptr %_18 to i64
  %_22 = and i64 %_19, 7
  %_23 = icmp eq i64 %_22, 0
  br i1 %_23, label %bb8, label %panic2

panic1:                                           ; preds = %bb9
; call core::panicking::panic_null_pointer_dereference
  call void @_ZN4core9panicking30panic_null_pointer_dereference17hf718fcc86a223baaE(ptr align 8 @alloc_88d6892d27ace5c8697541e5a304cf9e) #3
  unreachable

bb8:                                              ; preds = %bb10
  %_37 = load ptr, ptr %head, align 8
  %_38 = ptrtoint ptr %_37 to i64
  %_41 = icmp eq i64 %_38, 0
  %_42 = and i1 %_41, true
  %_43 = xor i1 %_42, true
  br i1 %_43, label %bb11, label %panic3

panic2:                                           ; preds = %bb10
; call core::panicking::panic_misaligned_pointer_dereference
  call void @_ZN4core9panicking36panic_misaligned_pointer_dereference17hcc3cbded9382b6e5E(i64 8, i64 %_19, ptr align 8 @alloc_a6d3c876957c2bdf5277f353b97f33e1) #3
  unreachable

bb11:                                             ; preds = %bb8
  %2 = load ptr, ptr %head, align 8
  %3 = getelementptr inbounds i8, ptr %2, i64 8
  %_10 = load ptr, ptr %3, align 8
  store ptr %_10, ptr %head, align 8
  %_12 = load ptr, ptr %head, align 8
; call core::ptr::mut_ptr::<impl *mut T>::is_null
  %_11 = call zeroext i1 @"_ZN4core3ptr7mut_ptr31_$LT$impl$u20$$BP$mut$u20$T$GT$7is_null17h9a5771f80072a18aE"(ptr %_12) #4
  br i1 %_11, label %bb1, label %bb7

panic3:                                           ; preds = %bb8
; call core::panicking::panic_null_pointer_dereference
  call void @_ZN4core9panicking30panic_null_pointer_dereference17hf718fcc86a223baaE(ptr align 8 @alloc_a6d3c876957c2bdf5277f353b97f33e1) #3
  unreachable

bb7:                                              ; preds = %bb11
  %_13 = call i32 (ptr, ...) @printf(ptr @alloc_edca6fca6f3bd469581a2559907aba10) #4
  br label %bb1
}

; Function Attrs: nounwind nonlazybind
define ptr @reverseLinkedList(ptr %head) unnamed_addr #1 {
start:
  %next = alloca [8 x i8], align 8
  %current = alloca [8 x i8], align 8
  %previous = alloca [8 x i8], align 8
  store ptr null, ptr %previous, align 8
  store ptr null, ptr %current, align 8
  store ptr null, ptr %next, align 8
  store ptr null, ptr %previous, align 8
  store ptr %head, ptr %current, align 8
  br label %bb1

bb1:                                              ; preds = %bb8, %start
  %_6 = load ptr, ptr %current, align 8
; call core::ptr::mut_ptr::<impl *mut T>::is_null
  %_5 = call zeroext i1 @"_ZN4core3ptr7mut_ptr31_$LT$impl$u20$$BP$mut$u20$T$GT$7is_null17h9a5771f80072a18aE"(ptr %_6) #4
  br i1 %_5, label %bb3, label %bb4

bb4:                                              ; preds = %bb1
  %_17 = load ptr, ptr %current, align 8
  %_18 = ptrtoint ptr %_17 to i64
  %_21 = and i64 %_18, 7
  %_22 = icmp eq i64 %_21, 0
  br i1 %_22, label %bb6, label %panic

bb3:                                              ; preds = %bb1
  %_0 = load ptr, ptr %previous, align 8
  ret ptr %_0

bb6:                                              ; preds = %bb4
  %_23 = load ptr, ptr %current, align 8
  %_24 = ptrtoint ptr %_23 to i64
  %_27 = icmp eq i64 %_24, 0
  %_28 = and i1 %_27, true
  %_29 = xor i1 %_28, true
  br i1 %_29, label %bb7, label %panic1

panic:                                            ; preds = %bb4
; call core::panicking::panic_misaligned_pointer_dereference
  call void @_ZN4core9panicking36panic_misaligned_pointer_dereference17hcc3cbded9382b6e5E(i64 8, i64 %_18, ptr align 8 @alloc_1c9b9924c5e1ac3abfe7f6aade1ed474) #3
  unreachable

bb7:                                              ; preds = %bb6
  %0 = load ptr, ptr %current, align 8
  %1 = getelementptr inbounds i8, ptr %0, i64 8
  %_7 = load ptr, ptr %1, align 8
  store ptr %_7, ptr %next, align 8
  %_8 = load ptr, ptr %previous, align 8
  %_11 = load ptr, ptr %current, align 8
  %_12 = ptrtoint ptr %_11 to i64
  %_15 = and i64 %_12, 7
  %_16 = icmp eq i64 %_15, 0
  br i1 %_16, label %bb5, label %panic2

panic1:                                           ; preds = %bb6
; call core::panicking::panic_null_pointer_dereference
  call void @_ZN4core9panicking30panic_null_pointer_dereference17hf718fcc86a223baaE(ptr align 8 @alloc_1c9b9924c5e1ac3abfe7f6aade1ed474) #3
  unreachable

bb5:                                              ; preds = %bb7
  %_30 = load ptr, ptr %current, align 8
  %_31 = ptrtoint ptr %_30 to i64
  %_34 = icmp eq i64 %_31, 0
  %_35 = and i1 %_34, true
  %_36 = xor i1 %_35, true
  br i1 %_36, label %bb8, label %panic3

panic2:                                           ; preds = %bb7
; call core::panicking::panic_misaligned_pointer_dereference
  call void @_ZN4core9panicking36panic_misaligned_pointer_dereference17hcc3cbded9382b6e5E(i64 8, i64 %_12, ptr align 8 @alloc_48b505e14fb771830a694fa0a2d37e03) #3
  unreachable

bb8:                                              ; preds = %bb5
  %2 = load ptr, ptr %current, align 8
  %3 = getelementptr inbounds i8, ptr %2, i64 8
  store ptr %_8, ptr %3, align 8
  %_9 = load ptr, ptr %current, align 8
  store ptr %_9, ptr %previous, align 8
  %_10 = load ptr, ptr %next, align 8
  store ptr %_10, ptr %current, align 8
  br label %bb1

panic3:                                           ; preds = %bb5
; call core::panicking::panic_null_pointer_dereference
  call void @_ZN4core9panicking30panic_null_pointer_dereference17hf718fcc86a223baaE(ptr align 8 @alloc_48b505e14fb771830a694fa0a2d37e03) #3
  unreachable
}

; Function Attrs: nounwind nonlazybind
define ptr @intersectingNodeBruteForce(ptr %0, ptr %head2_0) unnamed_addr #1 {
start:
  %temp = alloca [8 x i8], align 8
  %_0 = alloca [8 x i8], align 8
  %head1_0 = alloca [8 x i8], align 8
  store ptr %0, ptr %head1_0, align 8
  store ptr null, ptr %temp, align 8
  br label %bb1

bb1:                                              ; preds = %bb20, %start
  %_5 = load ptr, ptr %head1_0, align 8
; call core::ptr::mut_ptr::<impl *mut T>::is_null
  %_4 = call zeroext i1 @"_ZN4core3ptr7mut_ptr31_$LT$impl$u20$$BP$mut$u20$T$GT$7is_null17h9a5771f80072a18aE"(ptr %_5) #4
  br i1 %_4, label %bb3, label %bb4

bb4:                                              ; preds = %bb1
  store ptr %head2_0, ptr %temp, align 8
  %_55 = load ptr, ptr %head1_0, align 8
  %_56 = ptrtoint ptr %_55 to i64
  %_59 = and i64 %_56, 7
  %_60 = icmp eq i64 %_59, 0
  br i1 %_60, label %bb18, label %panic

bb3:                                              ; preds = %bb1
  store ptr null, ptr %_0, align 8
  br label %bb12

bb18:                                             ; preds = %bb4
  %_61 = load ptr, ptr %head1_0, align 8
  %_62 = ptrtoint ptr %_61 to i64
  %_65 = icmp eq i64 %_62, 0
  %_66 = and i1 %_65, true
  %_67 = xor i1 %_66, true
  br i1 %_67, label %bb19, label %panic1

panic:                                            ; preds = %bb4
; call core::panicking::panic_misaligned_pointer_dereference
  call void @_ZN4core9panicking36panic_misaligned_pointer_dereference17hcc3cbded9382b6e5E(i64 8, i64 %_56, ptr align 8 @alloc_83c970aa04769eb790e7d0c2e6f3a336) #3
  unreachable

bb19:                                             ; preds = %bb18
  %1 = load ptr, ptr %head1_0, align 8
  %_11 = load i32, ptr %1, align 8
  %_6 = call i32 (ptr, ...) @printf(ptr @alloc_98062d45e6a0c45e4ec92228285554d6, i32 %_11) #4
  br label %bb5

panic1:                                           ; preds = %bb18
; call core::panicking::panic_null_pointer_dereference
  call void @_ZN4core9panicking30panic_null_pointer_dereference17hf718fcc86a223baaE(ptr align 8 @alloc_83c970aa04769eb790e7d0c2e6f3a336) #3
  unreachable

bb5:                                              ; preds = %bb24, %bb19
  %_13 = load ptr, ptr %temp, align 8
; call core::ptr::mut_ptr::<impl *mut T>::is_null
  %_12 = call zeroext i1 @"_ZN4core3ptr7mut_ptr31_$LT$impl$u20$$BP$mut$u20$T$GT$7is_null17h9a5771f80072a18aE"(ptr %_13) #4
  br i1 %_12, label %bb7, label %bb8

bb8:                                              ; preds = %bb5
  %_43 = load ptr, ptr %temp, align 8
  %_44 = ptrtoint ptr %_43 to i64
  %_47 = and i64 %_44, 7
  %_48 = icmp eq i64 %_47, 0
  br i1 %_48, label %bb16, label %panic2

bb7:                                              ; preds = %bb5
  %_49 = load ptr, ptr %head1_0, align 8
  %_50 = ptrtoint ptr %_49 to i64
  %_53 = and i64 %_50, 7
  %_54 = icmp eq i64 %_53, 0
  br i1 %_54, label %bb17, label %panic10

bb16:                                             ; preds = %bb8
  %_75 = load ptr, ptr %temp, align 8
  %_76 = ptrtoint ptr %_75 to i64
  %_79 = icmp eq i64 %_76, 0
  %_80 = and i1 %_79, true
  %_81 = xor i1 %_80, true
  br i1 %_81, label %bb21, label %panic3

panic2:                                           ; preds = %bb8
; call core::panicking::panic_misaligned_pointer_dereference
  call void @_ZN4core9panicking36panic_misaligned_pointer_dereference17hcc3cbded9382b6e5E(i64 8, i64 %_44, ptr align 8 @alloc_a2b7cb01d5893134e8699ea8444f144c) #3
  unreachable

bb21:                                             ; preds = %bb16
  %2 = load ptr, ptr %temp, align 8
  %_15 = load i32, ptr %2, align 8
  %_37 = load ptr, ptr %head1_0, align 8
  %_38 = ptrtoint ptr %_37 to i64
  %_41 = and i64 %_38, 7
  %_42 = icmp eq i64 %_41, 0
  br i1 %_42, label %bb15, label %panic4

panic3:                                           ; preds = %bb16
; call core::panicking::panic_null_pointer_dereference
  call void @_ZN4core9panicking30panic_null_pointer_dereference17hf718fcc86a223baaE(ptr align 8 @alloc_a2b7cb01d5893134e8699ea8444f144c) #3
  unreachable

bb15:                                             ; preds = %bb21
  %_82 = load ptr, ptr %head1_0, align 8
  %_83 = ptrtoint ptr %_82 to i64
  %_86 = icmp eq i64 %_83, 0
  %_87 = and i1 %_86, true
  %_88 = xor i1 %_87, true
  br i1 %_88, label %bb22, label %panic5

panic4:                                           ; preds = %bb21
; call core::panicking::panic_misaligned_pointer_dereference
  call void @_ZN4core9panicking36panic_misaligned_pointer_dereference17hcc3cbded9382b6e5E(i64 8, i64 %_38, ptr align 8 @alloc_cda5129682646d681ec06b598e4a2b04) #3
  unreachable

bb22:                                             ; preds = %bb15
  %3 = load ptr, ptr %head1_0, align 8
  %_16 = load i32, ptr %3, align 8
  %_14 = icmp eq i32 %_15, %_16
  br i1 %_14, label %bb9, label %bb11

panic5:                                           ; preds = %bb15
; call core::panicking::panic_null_pointer_dereference
  call void @_ZN4core9panicking30panic_null_pointer_dereference17hf718fcc86a223baaE(ptr align 8 @alloc_cda5129682646d681ec06b598e4a2b04) #3
  unreachable

bb11:                                             ; preds = %bb22
  %_25 = load ptr, ptr %temp, align 8
  %_26 = ptrtoint ptr %_25 to i64
  %_29 = and i64 %_26, 7
  %_30 = icmp eq i64 %_29, 0
  br i1 %_30, label %bb13, label %panic6

bb9:                                              ; preds = %bb22
  %_31 = load ptr, ptr %temp, align 8
  %_32 = ptrtoint ptr %_31 to i64
  %_35 = and i64 %_32, 7
  %_36 = icmp eq i64 %_35, 0
  br i1 %_36, label %bb14, label %panic8

bb13:                                             ; preds = %bb11
  %_96 = load ptr, ptr %temp, align 8
  %_97 = ptrtoint ptr %_96 to i64
  %_100 = icmp eq i64 %_97, 0
  %_101 = and i1 %_100, true
  %_102 = xor i1 %_101, true
  br i1 %_102, label %bb24, label %panic7

panic6:                                           ; preds = %bb11
; call core::panicking::panic_misaligned_pointer_dereference
  call void @_ZN4core9panicking36panic_misaligned_pointer_dereference17hcc3cbded9382b6e5E(i64 8, i64 %_26, ptr align 8 @alloc_15514ee6ef183cd6e998536d6887fc9c) #3
  unreachable

bb24:                                             ; preds = %bb13
  %4 = load ptr, ptr %temp, align 8
  %5 = getelementptr inbounds i8, ptr %4, i64 8
  %_23 = load ptr, ptr %5, align 8
  store ptr %_23, ptr %temp, align 8
  br label %bb5

panic7:                                           ; preds = %bb13
; call core::panicking::panic_null_pointer_dereference
  call void @_ZN4core9panicking30panic_null_pointer_dereference17hf718fcc86a223baaE(ptr align 8 @alloc_15514ee6ef183cd6e998536d6887fc9c) #3
  unreachable

bb14:                                             ; preds = %bb9
  %_89 = load ptr, ptr %temp, align 8
  %_90 = ptrtoint ptr %_89 to i64
  %_93 = icmp eq i64 %_90, 0
  %_94 = and i1 %_93, true
  %_95 = xor i1 %_94, true
  br i1 %_95, label %bb23, label %panic9

panic8:                                           ; preds = %bb9
; call core::panicking::panic_misaligned_pointer_dereference
  call void @_ZN4core9panicking36panic_misaligned_pointer_dereference17hcc3cbded9382b6e5E(i64 8, i64 %_32, ptr align 8 @alloc_60dcf813f2d80f6e8c115e089ba964b6) #3
  unreachable

bb23:                                             ; preds = %bb14
  %6 = load ptr, ptr %temp, align 8
  %_22 = load i32, ptr %6, align 8
  %_17 = call i32 (ptr, ...) @printf(ptr @alloc_f48cb90fa4b7aaa88f1159f4a4b20d19, i32 %_22) #4
  %7 = load ptr, ptr %head1_0, align 8
  store ptr %7, ptr %_0, align 8
  br label %bb12

panic9:                                           ; preds = %bb14
; call core::panicking::panic_null_pointer_dereference
  call void @_ZN4core9panicking30panic_null_pointer_dereference17hf718fcc86a223baaE(ptr align 8 @alloc_60dcf813f2d80f6e8c115e089ba964b6) #3
  unreachable

bb12:                                             ; preds = %bb3, %bb23
  %8 = load ptr, ptr %_0, align 8
  ret ptr %8

bb17:                                             ; preds = %bb7
  %_68 = load ptr, ptr %head1_0, align 8
  %_69 = ptrtoint ptr %_68 to i64
  %_72 = icmp eq i64 %_69, 0
  %_73 = and i1 %_72, true
  %_74 = xor i1 %_73, true
  br i1 %_74, label %bb20, label %panic11

panic10:                                          ; preds = %bb7
; call core::panicking::panic_misaligned_pointer_dereference
  call void @_ZN4core9panicking36panic_misaligned_pointer_dereference17hcc3cbded9382b6e5E(i64 8, i64 %_50, ptr align 8 @alloc_8a1ce6bbcdc14a0cb78528c1de84e2c7) #3
  unreachable

bb20:                                             ; preds = %bb17
  %9 = load ptr, ptr %head1_0, align 8
  %10 = getelementptr inbounds i8, ptr %9, i64 8
  %_24 = load ptr, ptr %10, align 8
  store ptr %_24, ptr %head1_0, align 8
  br label %bb1

panic11:                                          ; preds = %bb17
; call core::panicking::panic_null_pointer_dereference
  call void @_ZN4core9panicking30panic_null_pointer_dereference17hf718fcc86a223baaE(ptr align 8 @alloc_8a1ce6bbcdc14a0cb78528c1de84e2c7) #3
  unreachable
}

; core::panicking::panic_null_pointer_dereference
; Function Attrs: cold minsize noinline noreturn nounwind nonlazybind optsize
declare void @_ZN4core9panicking30panic_null_pointer_dereference17hf718fcc86a223baaE(ptr align 8) unnamed_addr #2

; Function Attrs: nounwind nonlazybind
declare ptr @malloc(i64) unnamed_addr #1

; core::panicking::panic_misaligned_pointer_dereference
; Function Attrs: cold minsize noinline noreturn nounwind nonlazybind optsize
declare void @_ZN4core9panicking36panic_misaligned_pointer_dereference17hcc3cbded9382b6e5E(i64, i64, ptr align 8) unnamed_addr #2

; Function Attrs: nounwind nonlazybind
declare i32 @printf(ptr, ...) unnamed_addr #1

attributes #0 = { inlinehint nounwind nonlazybind "probe-stack"="inline-asm" "target-cpu"="x86-64" }
attributes #1 = { nounwind nonlazybind "probe-stack"="inline-asm" "target-cpu"="x86-64" }
attributes #2 = { cold minsize noinline noreturn nounwind nonlazybind optsize "probe-stack"="inline-asm" "target-cpu"="x86-64" }
attributes #3 = { noreturn nounwind }
attributes #4 = { nounwind }

!llvm.module.flags = !{!0, !1}
!llvm.ident = !{!2}

!0 = !{i32 8, !"PIC Level", i32 2}
!1 = !{i32 2, !"RtLibUseGOT", i32 1}
!2 = !{!"rustc version 1.88.0-nightly (0b45675cf 2025-03-31)"}
