; ModuleID = 'c7sbzztvj70spwal0otcq22vl'
source_filename = "c7sbzztvj70spwal0otcq22vl"
target datalayout = "e-m:e-p270:32:32-p271:32:32-p272:64:64-i64:64-i128:128-f80:128-n8:16:32:64-S128"
target triple = "x86_64-unknown-linux-gnu"

@alloc_f5ffd2fd1476bab43ad89fb40c72d0c5 = private unnamed_addr constant [10 x i8] c"src/lib.rs", align 1
@alloc_10a6678bc82c4f4192a3478cb7835279 = private unnamed_addr constant <{ ptr, [16 x i8] }> <{ ptr @alloc_f5ffd2fd1476bab43ad89fb40c72d0c5, [16 x i8] c"\0A\00\00\00\00\00\00\00+\00\00\00\05\00\00\00" }>, align 8
@alloc_9cd10b5e36852d7e733992f2bdbb38d4 = private unnamed_addr constant <{ ptr, [16 x i8] }> <{ ptr @alloc_f5ffd2fd1476bab43ad89fb40c72d0c5, [16 x i8] c"\0A\00\00\00\00\00\00\00,\00\00\00\05\00\00\00" }>, align 8
@alloc_00e94dd8e07ae97896c26b46f43cbda2 = private unnamed_addr constant <{ ptr, [16 x i8] }> <{ ptr @alloc_f5ffd2fd1476bab43ad89fb40c72d0c5, [16 x i8] c"\0A\00\00\00\00\00\00\007\00\00\00\05\00\00\00" }>, align 8
@alloc_e1cfc5e65e0e0d8887bc69443fd54186 = private unnamed_addr constant <{ ptr, [16 x i8] }> <{ ptr @alloc_f5ffd2fd1476bab43ad89fb40c72d0c5, [16 x i8] c"\0A\00\00\00\00\00\00\008\00\00\00\05\00\00\00" }>, align 8
@alloc_6939081ac62fb3603135e3880f0726eb = private unnamed_addr constant <{ ptr, [16 x i8] }> <{ ptr @alloc_f5ffd2fd1476bab43ad89fb40c72d0c5, [16 x i8] c"\0A\00\00\00\00\00\00\009\00\00\00\05\00\00\00" }>, align 8
@alloc_c5a4e2d3791755606033b1f98930c619 = private unnamed_addr constant <{ ptr, [16 x i8] }> <{ ptr @alloc_f5ffd2fd1476bab43ad89fb40c72d0c5, [16 x i8] c"\0A\00\00\00\00\00\00\00H\00\00\00\12\00\00\00" }>, align 8
@alloc_c2e75e837da10c2cc87e6750356497bf = private unnamed_addr constant <{ ptr, [16 x i8] }> <{ ptr @alloc_f5ffd2fd1476bab43ad89fb40c72d0c5, [16 x i8] c"\0A\00\00\00\00\00\00\00L\00\00\00\17\00\00\00" }>, align 8
@alloc_ce4a94abb0fe7f5b55db54405fd38bf6 = private unnamed_addr constant <{ ptr, [16 x i8] }> <{ ptr @alloc_f5ffd2fd1476bab43ad89fb40c72d0c5, [16 x i8] c"\0A\00\00\00\00\00\00\00P\00\00\00\17\00\00\00" }>, align 8
@alloc_61e4802fc1c2ab9e5eb4eb0dc95b6a00 = private unnamed_addr constant <{ ptr, [16 x i8] }> <{ ptr @alloc_f5ffd2fd1476bab43ad89fb40c72d0c5, [16 x i8] c"\0A\00\00\00\00\00\00\00J\00\00\00\17\00\00\00" }>, align 8
@alloc_36682ef10136f47a787d8b36c8950e08 = private unnamed_addr constant <{ ptr, [16 x i8] }> <{ ptr @alloc_f5ffd2fd1476bab43ad89fb40c72d0c5, [16 x i8] c"\0A\00\00\00\00\00\00\00b\00\00\00\0C\00\00\00" }>, align 8
@alloc_6c43d43f31bd9604dc1b67c64879db8f = private unnamed_addr constant <{ ptr, [16 x i8] }> <{ ptr @alloc_f5ffd2fd1476bab43ad89fb40c72d0c5, [16 x i8] c"\0A\00\00\00\00\00\00\00d\00\00\00\13\00\00\00" }>, align 8
@alloc_ed5ec6cc1979969df8c2effdc5b3787f = private unnamed_addr constant <{ ptr, [16 x i8] }> <{ ptr @alloc_f5ffd2fd1476bab43ad89fb40c72d0c5, [16 x i8] c"\0A\00\00\00\00\00\00\00p\00\00\00&\00\00\00" }>, align 8
@alloc_b9ed5324bdd85732c361935a4dc2f081 = private unnamed_addr constant <{ ptr, [16 x i8] }> <{ ptr @alloc_f5ffd2fd1476bab43ad89fb40c72d0c5, [16 x i8] c"\0A\00\00\00\00\00\00\00u\00\00\00\22\00\00\00" }>, align 8
@alloc_f396358fc391f6ea624d37498ba56b5e = private unnamed_addr constant <{ ptr, [16 x i8] }> <{ ptr @alloc_f5ffd2fd1476bab43ad89fb40c72d0c5, [16 x i8] c"\0A\00\00\00\00\00\00\00y\00\00\00\12\00\00\00" }>, align 8
@alloc_56758b549a0e2968d86873921e6a7543 = private unnamed_addr constant <{ ptr, [16 x i8] }> <{ ptr @alloc_f5ffd2fd1476bab43ad89fb40c72d0c5, [16 x i8] c"\0A\00\00\00\00\00\00\00{\00\00\00\1A\00\00\00" }>, align 8
@alloc_5185148b11bc8d5d8860d9c8af74a0a3 = private unnamed_addr constant <{ ptr, [16 x i8] }> <{ ptr @alloc_f5ffd2fd1476bab43ad89fb40c72d0c5, [16 x i8] c"\0A\00\00\00\00\00\00\00~\00\00\00\0D\00\00\00" }>, align 8
@alloc_bff15e2da34384152598015c9eba106b = private unnamed_addr constant <{ ptr, [16 x i8] }> <{ ptr @alloc_f5ffd2fd1476bab43ad89fb40c72d0c5, [16 x i8] c"\0A\00\00\00\00\00\00\00z\00\00\00\0D\00\00\00" }>, align 8
@alloc_600339098278502175543d2275ed6a1b = private unnamed_addr constant <{ ptr, [16 x i8] }> <{ ptr @alloc_f5ffd2fd1476bab43ad89fb40c72d0c5, [16 x i8] c"\0A\00\00\00\00\00\00\00s\00\00\00\09\00\00\00" }>, align 8
@alloc_7d8d58b36d2b2d423935116080665165 = private unnamed_addr constant <{ ptr, [16 x i8] }> <{ ptr @alloc_f5ffd2fd1476bab43ad89fb40c72d0c5, [16 x i8] c"\0A\00\00\00\00\00\00\00\81\00\00\00\05\00\00\00" }>, align 8
@alloc_3689581ac3e8ceaaaf9b37c8e542fe4a = private unnamed_addr constant <{ ptr, [16 x i8] }> <{ ptr @alloc_f5ffd2fd1476bab43ad89fb40c72d0c5, [16 x i8] c"\0A\00\00\00\00\00\00\00\82\00\00\00\05\00\00\00" }>, align 8
@alloc_5ff8a6a6a364a8cadb14ac5a6328007d = private unnamed_addr constant <{ ptr, [16 x i8] }> <{ ptr @alloc_f5ffd2fd1476bab43ad89fb40c72d0c5, [16 x i8] c"\0A\00\00\00\00\00\00\00\87\00\00\005\00\00\00" }>, align 8
@alloc_79863638fae63838d8f32f0ef49a297b = private unnamed_addr constant <{ ptr, [16 x i8] }> <{ ptr @alloc_f5ffd2fd1476bab43ad89fb40c72d0c5, [16 x i8] c"\0A\00\00\00\00\00\00\00\8F\00\00\00\0F\00\00\00" }>, align 8
@alloc_6301cb5a950972ffa2f385894b023b1d = private unnamed_addr constant <{ ptr, [16 x i8] }> <{ ptr @alloc_f5ffd2fd1476bab43ad89fb40c72d0c5, [16 x i8] c"\0A\00\00\00\00\00\00\00\8F\00\00\00.\00\00\00" }>, align 8
@alloc_8b59463754b411a8e68405fd1623a977 = private unnamed_addr constant <{ ptr, [16 x i8] }> <{ ptr @alloc_f5ffd2fd1476bab43ad89fb40c72d0c5, [16 x i8] c"\0A\00\00\00\00\00\00\00\97\00\00\00\0F\00\00\00" }>, align 8
@alloc_639f648dd4adcd1fdd0a8122c7008894 = private unnamed_addr constant <{ ptr, [16 x i8] }> <{ ptr @alloc_f5ffd2fd1476bab43ad89fb40c72d0c5, [16 x i8] c"\0A\00\00\00\00\00\00\00\9C\00\00\00\0F\00\00\00" }>, align 8
@alloc_7a6aa5e748561012b828962ef4771746 = private unnamed_addr constant <{ ptr, [16 x i8] }> <{ ptr @alloc_f5ffd2fd1476bab43ad89fb40c72d0c5, [16 x i8] c"\0A\00\00\00\00\00\00\00\A2\00\00\00!\00\00\00" }>, align 8
@alloc_d797bc8b14ce46044cf254a9aee59e13 = private unnamed_addr constant <{ ptr, [16 x i8] }> <{ ptr @alloc_f5ffd2fd1476bab43ad89fb40c72d0c5, [16 x i8] c"\0A\00\00\00\00\00\00\00\A8\00\00\00\14\00\00\00" }>, align 8
@alloc_ba5aabc91ede404fc68adbb15aa6b293 = private unnamed_addr constant <{ ptr, [16 x i8] }> <{ ptr @alloc_f5ffd2fd1476bab43ad89fb40c72d0c5, [16 x i8] c"\0A\00\00\00\00\00\00\00\A9\00\00\00\1E\00\00\00" }>, align 8
@alloc_f94c6ad03cda90ca8d3132bf9b647a97 = private unnamed_addr constant <{ ptr, [16 x i8] }> <{ ptr @alloc_f5ffd2fd1476bab43ad89fb40c72d0c5, [16 x i8] c"\0A\00\00\00\00\00\00\00\A9\00\00\00\0D\00\00\00" }>, align 8
@alloc_d383e4cbbf9aae58b81f790acdfa7d6b = private unnamed_addr constant <{ ptr, [16 x i8] }> <{ ptr @alloc_f5ffd2fd1476bab43ad89fb40c72d0c5, [16 x i8] c"\0A\00\00\00\00\00\00\00\AA\00\00\00\1C\00\00\00" }>, align 8
@alloc_21418124f17c57c31f7006a530591092 = private unnamed_addr constant <{ ptr, [16 x i8] }> <{ ptr @alloc_f5ffd2fd1476bab43ad89fb40c72d0c5, [16 x i8] c"\0A\00\00\00\00\00\00\00\AA\00\00\00\0D\00\00\00" }>, align 8
@alloc_02fc3f8657657a692896d90dd59b87eb = private unnamed_addr constant <{ ptr, [16 x i8] }> <{ ptr @alloc_f5ffd2fd1476bab43ad89fb40c72d0c5, [16 x i8] c"\0A\00\00\00\00\00\00\00\A4\00\00\00\14\00\00\00" }>, align 8
@alloc_99eab7859fac721fbc007ee44ac3eb83 = private unnamed_addr constant <{ ptr, [16 x i8] }> <{ ptr @alloc_f5ffd2fd1476bab43ad89fb40c72d0c5, [16 x i8] c"\0A\00\00\00\00\00\00\00\A5\00\00\00\1E\00\00\00" }>, align 8
@alloc_0893aea5e226fe2dcc19e3d5d56c1e20 = private unnamed_addr constant <{ ptr, [16 x i8] }> <{ ptr @alloc_f5ffd2fd1476bab43ad89fb40c72d0c5, [16 x i8] c"\0A\00\00\00\00\00\00\00\A5\00\00\00\0D\00\00\00" }>, align 8
@alloc_ed0a76febb182cdd1f23e4d49ed7b0f1 = private unnamed_addr constant <{ ptr, [16 x i8] }> <{ ptr @alloc_f5ffd2fd1476bab43ad89fb40c72d0c5, [16 x i8] c"\0A\00\00\00\00\00\00\00\A6\00\00\00\1F\00\00\00" }>, align 8
@alloc_c72296287cc4cb452b3d3b63defe28e5 = private unnamed_addr constant <{ ptr, [16 x i8] }> <{ ptr @alloc_f5ffd2fd1476bab43ad89fb40c72d0c5, [16 x i8] c"\0A\00\00\00\00\00\00\00\A6\00\00\00\0D\00\00\00" }>, align 8
@alloc_16578b450f209e0a8ceec1964cb38c84 = private unnamed_addr constant <{ ptr, [16 x i8] }> <{ ptr @alloc_f5ffd2fd1476bab43ad89fb40c72d0c5, [16 x i8] c"\0A\00\00\00\00\00\00\00\9D\00\00\00\10\00\00\00" }>, align 8
@alloc_268527d69417a0a855fc749a27d86f88 = private unnamed_addr constant <{ ptr, [16 x i8] }> <{ ptr @alloc_f5ffd2fd1476bab43ad89fb40c72d0c5, [16 x i8] c"\0A\00\00\00\00\00\00\00\9E\00\00\00\1A\00\00\00" }>, align 8
@alloc_0a46e4c4b57d7d0348e4d3e2fbb0ba8b = private unnamed_addr constant <{ ptr, [16 x i8] }> <{ ptr @alloc_f5ffd2fd1476bab43ad89fb40c72d0c5, [16 x i8] c"\0A\00\00\00\00\00\00\00\9E\00\00\00\09\00\00\00" }>, align 8
@alloc_d05c79d19ebc3e8baf0b70b1b7baa4c0 = private unnamed_addr constant <{ ptr, [16 x i8] }> <{ ptr @alloc_f5ffd2fd1476bab43ad89fb40c72d0c5, [16 x i8] c"\0A\00\00\00\00\00\00\00\9F\00\00\00\1B\00\00\00" }>, align 8
@alloc_e31e5a586f4f7e29755cd30ae2a86c49 = private unnamed_addr constant <{ ptr, [16 x i8] }> <{ ptr @alloc_f5ffd2fd1476bab43ad89fb40c72d0c5, [16 x i8] c"\0A\00\00\00\00\00\00\00\9F\00\00\00\09\00\00\00" }>, align 8
@alloc_2916458ad85b28b30131ee3c93f8d0cc = private unnamed_addr constant <{ ptr, [16 x i8] }> <{ ptr @alloc_f5ffd2fd1476bab43ad89fb40c72d0c5, [16 x i8] c"\0A\00\00\00\00\00\00\00\A0\00\00\00\1C\00\00\00" }>, align 8
@alloc_b3cab4fe65c4b5a1e0fdc96acce1913e = private unnamed_addr constant <{ ptr, [16 x i8] }> <{ ptr @alloc_f5ffd2fd1476bab43ad89fb40c72d0c5, [16 x i8] c"\0A\00\00\00\00\00\00\00\A0\00\00\00\09\00\00\00" }>, align 8
@alloc_2ff733cc2a2a43d2d0fea2462fabe0b5 = private unnamed_addr constant <{ ptr, [16 x i8] }> <{ ptr @alloc_f5ffd2fd1476bab43ad89fb40c72d0c5, [16 x i8] c"\0A\00\00\00\00\00\00\00\98\00\00\00\10\00\00\00" }>, align 8
@alloc_c1c6fce3d4dc7f79cfba47ca7cb940d9 = private unnamed_addr constant <{ ptr, [16 x i8] }> <{ ptr @alloc_f5ffd2fd1476bab43ad89fb40c72d0c5, [16 x i8] c"\0A\00\00\00\00\00\00\00\99\00\00\00\1A\00\00\00" }>, align 8
@alloc_7fed4a1089f77536642fd43c2a992067 = private unnamed_addr constant <{ ptr, [16 x i8] }> <{ ptr @alloc_f5ffd2fd1476bab43ad89fb40c72d0c5, [16 x i8] c"\0A\00\00\00\00\00\00\00\99\00\00\00\09\00\00\00" }>, align 8
@alloc_d4482e336dc380ab6f4e172973421c4d = private unnamed_addr constant <{ ptr, [16 x i8] }> <{ ptr @alloc_f5ffd2fd1476bab43ad89fb40c72d0c5, [16 x i8] c"\0A\00\00\00\00\00\00\00\9A\00\00\00\1B\00\00\00" }>, align 8
@alloc_9b55ecc9b8b32794fadf225c74bfc5f4 = private unnamed_addr constant <{ ptr, [16 x i8] }> <{ ptr @alloc_f5ffd2fd1476bab43ad89fb40c72d0c5, [16 x i8] c"\0A\00\00\00\00\00\00\00\9A\00\00\00\09\00\00\00" }>, align 8
@alloc_8cafc3a2b1e1a251a7e2ced1cb33509e = private unnamed_addr constant <{ ptr, [16 x i8] }> <{ ptr @alloc_f5ffd2fd1476bab43ad89fb40c72d0c5, [16 x i8] c"\0A\00\00\00\00\00\00\00\9B\00\00\00\1C\00\00\00" }>, align 8
@alloc_5f7af6f0b30d25daf9912bab84da9bdc = private unnamed_addr constant <{ ptr, [16 x i8] }> <{ ptr @alloc_f5ffd2fd1476bab43ad89fb40c72d0c5, [16 x i8] c"\0A\00\00\00\00\00\00\00\9B\00\00\00\09\00\00\00" }>, align 8
@alloc_b6e752db4cb221efde049d5dc47995f8 = private unnamed_addr constant <{ ptr, [16 x i8] }> <{ ptr @alloc_f5ffd2fd1476bab43ad89fb40c72d0c5, [16 x i8] c"\0A\00\00\00\00\00\00\00\90\00\00\00\0C\00\00\00" }>, align 8
@alloc_fa6529c79b87b141c880809d54f01654 = private unnamed_addr constant <{ ptr, [16 x i8] }> <{ ptr @alloc_f5ffd2fd1476bab43ad89fb40c72d0c5, [16 x i8] c"\0A\00\00\00\00\00\00\00\90\00\00\00\1D\00\00\00" }>, align 8
@alloc_823d7e87cceb86c7b83114219263a293 = private unnamed_addr constant <{ ptr, [16 x i8] }> <{ ptr @alloc_f5ffd2fd1476bab43ad89fb40c72d0c5, [16 x i8] c"\0A\00\00\00\00\00\00\00\94\00\00\00\14\00\00\00" }>, align 8
@alloc_5b2af695ee4d260ec5d60c7976a90afb = private unnamed_addr constant <{ ptr, [16 x i8] }> <{ ptr @alloc_f5ffd2fd1476bab43ad89fb40c72d0c5, [16 x i8] c"\0A\00\00\00\00\00\00\00\95\00\00\00\0D\00\00\00" }>, align 8
@alloc_4301efde203129eb309980871bd3a23a = private unnamed_addr constant <{ ptr, [16 x i8] }> <{ ptr @alloc_f5ffd2fd1476bab43ad89fb40c72d0c5, [16 x i8] c"\0A\00\00\00\00\00\00\00\91\00\00\00\14\00\00\00" }>, align 8
@alloc_5765b499f8a46b00558d800c85265f18 = private unnamed_addr constant <{ ptr, [16 x i8] }> <{ ptr @alloc_f5ffd2fd1476bab43ad89fb40c72d0c5, [16 x i8] c"\0A\00\00\00\00\00\00\00\92\00\00\00\0D\00\00\00" }>, align 8
@alloc_a7f670ad66872aece48658a1612d4698 = private unnamed_addr constant <{ ptr, [16 x i8] }> <{ ptr @alloc_f5ffd2fd1476bab43ad89fb40c72d0c5, [16 x i8] c"\0A\00\00\00\00\00\00\00\8D\00\00\00\10\00\00\00" }>, align 8
@alloc_94d488c826d85f994b79c19a03c8882a = private unnamed_addr constant <{ ptr, [16 x i8] }> <{ ptr @alloc_f5ffd2fd1476bab43ad89fb40c72d0c5, [16 x i8] c"\0A\00\00\00\00\00\00\00\8E\00\00\00\09\00\00\00" }>, align 8
@alloc_93101bcb5d0c3d3e52df9a656ce90092 = private unnamed_addr constant <{ ptr, [16 x i8] }> <{ ptr @alloc_f5ffd2fd1476bab43ad89fb40c72d0c5, [16 x i8] c"\0A\00\00\00\00\00\00\00\AE\00\00\00\05\00\00\00" }>, align 8
@alloc_cf7ced188c2d66c8cf5761b5d078312a = private unnamed_addr constant <{ ptr, [16 x i8] }> <{ ptr @alloc_f5ffd2fd1476bab43ad89fb40c72d0c5, [16 x i8] c"\0A\00\00\00\00\00\00\00\AF\00\00\00\05\00\00\00" }>, align 8
@alloc_c01c0099f9c3cd2e013d47cb41d78eb5 = private unnamed_addr constant <{ ptr, [16 x i8] }> <{ ptr @alloc_f5ffd2fd1476bab43ad89fb40c72d0c5, [16 x i8] c"\0A\00\00\00\00\00\00\00\B4\00\00\00\1F\00\00\00" }>, align 8
@alloc_2f0628688128286a611d8edba0f63769 = private unnamed_addr constant [4 x i8] c"%d\09\00", align 1
@alloc_aa3b9f0164c5c2be33807b55e1de07c1 = private unnamed_addr constant <{ ptr, [16 x i8] }> <{ ptr @alloc_f5ffd2fd1476bab43ad89fb40c72d0c5, [16 x i8] c"\0A\00\00\00\00\00\00\00\B5\00\00\00?\00\00\00" }>, align 8
@alloc_c00f1388285e9a69d1e4eaf4c9b75fb8 = private unnamed_addr constant <{ ptr, [16 x i8] }> <{ ptr @alloc_f5ffd2fd1476bab43ad89fb40c72d0c5, [16 x i8] c"\0A\00\00\00\00\00\00\00\B6\00\00\00\1F\00\00\00" }>, align 8

; core::ptr::mut_ptr::<impl *mut T>::is_null
; Function Attrs: inlinehint nounwind nonlazybind
define internal zeroext i1 @"_ZN4core3ptr7mut_ptr31_$LT$impl$u20$$BP$mut$u20$T$GT$7is_null17h2edefe7b2b53b57bE"(ptr %self) unnamed_addr #0 {
start:
  %_3 = ptrtoint ptr %self to i64
  %_0 = icmp eq i64 %_3, 0
  ret i1 %_0
}

; core::ptr::mut_ptr::<impl *mut T>::is_null
; Function Attrs: inlinehint nounwind nonlazybind
define internal zeroext i1 @"_ZN4core3ptr7mut_ptr31_$LT$impl$u20$$BP$mut$u20$T$GT$7is_null17he5b0d328e93c8b69E"(ptr %self) unnamed_addr #0 {
start:
  %_3 = ptrtoint ptr %self to i64
  %_0 = icmp eq i64 %_3, 0
  ret i1 %_0
}

; Function Attrs: nounwind nonlazybind
define ptr @bst_create() unnamed_addr #1 {
start:
  %_0 = alloca [8 x i8], align 8
  %_2 = call ptr @malloc(i64 16) #3
; call core::ptr::mut_ptr::<impl *mut T>::is_null
  %_5 = call zeroext i1 @"_ZN4core3ptr7mut_ptr31_$LT$impl$u20$$BP$mut$u20$T$GT$7is_null17h2edefe7b2b53b57bE"(ptr %_2) #3
  br i1 %_5, label %bb4, label %bb5

bb5:                                              ; preds = %start
  %_13 = ptrtoint ptr %_2 to i64
  %_16 = and i64 %_13, 7
  %_17 = icmp eq i64 %_16, 0
  br i1 %_17, label %bb8, label %panic

bb4:                                              ; preds = %start
  store ptr null, ptr %_0, align 8
  br label %bb6

bb8:                                              ; preds = %bb5
  %_19 = ptrtoint ptr %_2 to i64
  %_22 = icmp eq i64 %_19, 0
  %_23 = and i1 %_22, true
  %_24 = xor i1 %_23, true
  br i1 %_24, label %bb9, label %panic1

panic:                                            ; preds = %bb5
; call core::panicking::panic_misaligned_pointer_dereference
  call void @_ZN4core9panicking36panic_misaligned_pointer_dereference17hcc3cbded9382b6e5E(i64 8, i64 %_13, ptr align 8 @alloc_10a6678bc82c4f4192a3478cb7835279) #4
  unreachable

bb9:                                              ; preds = %bb8
  store ptr null, ptr %_2, align 8
  %_7 = ptrtoint ptr %_2 to i64
  %_10 = and i64 %_7, 7
  %_11 = icmp eq i64 %_10, 0
  br i1 %_11, label %bb7, label %panic2

panic1:                                           ; preds = %bb8
; call core::panicking::panic_null_pointer_dereference
  call void @_ZN4core9panicking30panic_null_pointer_dereference17hf718fcc86a223baaE(ptr align 8 @alloc_10a6678bc82c4f4192a3478cb7835279) #4
  unreachable

bb7:                                              ; preds = %bb9
  %_26 = ptrtoint ptr %_2 to i64
  %_29 = icmp eq i64 %_26, 0
  %_30 = and i1 %_29, true
  %_31 = xor i1 %_30, true
  br i1 %_31, label %bb10, label %panic3

panic2:                                           ; preds = %bb9
; call core::panicking::panic_misaligned_pointer_dereference
  call void @_ZN4core9panicking36panic_misaligned_pointer_dereference17hcc3cbded9382b6e5E(i64 8, i64 %_7, ptr align 8 @alloc_9cd10b5e36852d7e733992f2bdbb38d4) #4
  unreachable

bb10:                                             ; preds = %bb7
  %0 = getelementptr inbounds i8, ptr %_2, i64 8
  store i32 0, ptr %0, align 8
  store ptr %_2, ptr %_0, align 8
  br label %bb6

panic3:                                           ; preds = %bb7
; call core::panicking::panic_null_pointer_dereference
  call void @_ZN4core9panicking30panic_null_pointer_dereference17hf718fcc86a223baaE(ptr align 8 @alloc_9cd10b5e36852d7e733992f2bdbb38d4) #4
  unreachable

bb6:                                              ; preds = %bb4, %bb10
  %1 = load ptr, ptr %_0, align 8
  ret ptr %1
}

; Function Attrs: nounwind nonlazybind
define ptr @bst_create_node(i32 %key) unnamed_addr #1 {
start:
  %_0 = alloca [8 x i8], align 8
  %_3 = call ptr @malloc(i64 24) #3
; call core::ptr::mut_ptr::<impl *mut T>::is_null
  %_6 = call zeroext i1 @"_ZN4core3ptr7mut_ptr31_$LT$impl$u20$$BP$mut$u20$T$GT$7is_null17he5b0d328e93c8b69E"(ptr %_3) #3
  br i1 %_6, label %bb4, label %bb5

bb5:                                              ; preds = %start
  %_20 = ptrtoint ptr %_3 to i64
  %_23 = and i64 %_20, 7
  %_24 = icmp eq i64 %_23, 0
  br i1 %_24, label %bb9, label %panic

bb4:                                              ; preds = %start
  store ptr null, ptr %_0, align 8
  br label %bb6

bb9:                                              ; preds = %bb5
  %_26 = ptrtoint ptr %_3 to i64
  %_29 = icmp eq i64 %_26, 0
  %_30 = and i1 %_29, true
  %_31 = xor i1 %_30, true
  br i1 %_31, label %bb10, label %panic1

panic:                                            ; preds = %bb5
; call core::panicking::panic_misaligned_pointer_dereference
  call void @_ZN4core9panicking36panic_misaligned_pointer_dereference17hcc3cbded9382b6e5E(i64 8, i64 %_20, ptr align 8 @alloc_00e94dd8e07ae97896c26b46f43cbda2) #4
  unreachable

bb10:                                             ; preds = %bb9
  %0 = getelementptr inbounds i8, ptr %_3, i64 8
  store ptr null, ptr %0, align 8
  %_14 = ptrtoint ptr %_3 to i64
  %_17 = and i64 %_14, 7
  %_18 = icmp eq i64 %_17, 0
  br i1 %_18, label %bb8, label %panic2

panic1:                                           ; preds = %bb9
; call core::panicking::panic_null_pointer_dereference
  call void @_ZN4core9panicking30panic_null_pointer_dereference17hf718fcc86a223baaE(ptr align 8 @alloc_00e94dd8e07ae97896c26b46f43cbda2) #4
  unreachable

bb8:                                              ; preds = %bb10
  %_33 = ptrtoint ptr %_3 to i64
  %_36 = icmp eq i64 %_33, 0
  %_37 = and i1 %_36, true
  %_38 = xor i1 %_37, true
  br i1 %_38, label %bb11, label %panic3

panic2:                                           ; preds = %bb10
; call core::panicking::panic_misaligned_pointer_dereference
  call void @_ZN4core9panicking36panic_misaligned_pointer_dereference17hcc3cbded9382b6e5E(i64 8, i64 %_14, ptr align 8 @alloc_e1cfc5e65e0e0d8887bc69443fd54186) #4
  unreachable

bb11:                                             ; preds = %bb8
  %1 = getelementptr inbounds i8, ptr %_3, i64 16
  store ptr null, ptr %1, align 8
  %_8 = ptrtoint ptr %_3 to i64
  %_11 = and i64 %_8, 7
  %_12 = icmp eq i64 %_11, 0
  br i1 %_12, label %bb7, label %panic4

panic3:                                           ; preds = %bb8
; call core::panicking::panic_null_pointer_dereference
  call void @_ZN4core9panicking30panic_null_pointer_dereference17hf718fcc86a223baaE(ptr align 8 @alloc_e1cfc5e65e0e0d8887bc69443fd54186) #4
  unreachable

bb7:                                              ; preds = %bb11
  %_40 = ptrtoint ptr %_3 to i64
  %_43 = icmp eq i64 %_40, 0
  %_44 = and i1 %_43, true
  %_45 = xor i1 %_44, true
  br i1 %_45, label %bb12, label %panic5

panic4:                                           ; preds = %bb11
; call core::panicking::panic_misaligned_pointer_dereference
  call void @_ZN4core9panicking36panic_misaligned_pointer_dereference17hcc3cbded9382b6e5E(i64 8, i64 %_8, ptr align 8 @alloc_6939081ac62fb3603135e3880f0726eb) #4
  unreachable

bb12:                                             ; preds = %bb7
  store i32 %key, ptr %_3, align 8
  store ptr %_3, ptr %_0, align 8
  br label %bb6

panic5:                                           ; preds = %bb7
; call core::panicking::panic_null_pointer_dereference
  call void @_ZN4core9panicking30panic_null_pointer_dereference17hf718fcc86a223baaE(ptr align 8 @alloc_6939081ac62fb3603135e3880f0726eb) #4
  unreachable

bb6:                                              ; preds = %bb4, %bb12
  %2 = load ptr, ptr %_0, align 8
  ret ptr %2
}

; Function Attrs: nounwind nonlazybind
define ptr @bst_search_node(ptr %node, i32 %type_0, i32 %key) unnamed_addr #1 {
start:
  %parent = alloca [8 x i8], align 8
  %current = alloca [8 x i8], align 8
  %_0 = alloca [8 x i8], align 8
  store ptr %node, ptr %current, align 8
  store ptr null, ptr %parent, align 8
  %_7 = load ptr, ptr %current, align 8
; call core::ptr::mut_ptr::<impl *mut T>::is_null
  %_6 = call zeroext i1 @"_ZN4core3ptr7mut_ptr31_$LT$impl$u20$$BP$mut$u20$T$GT$7is_null17he5b0d328e93c8b69E"(ptr %_7) #3
  br i1 %_6, label %bb2, label %bb3

bb3:                                              ; preds = %bb18, %bb20, %start
  %_9 = load ptr, ptr %current, align 8
; call core::ptr::mut_ptr::<impl *mut T>::is_null
  %_8 = call zeroext i1 @"_ZN4core3ptr7mut_ptr31_$LT$impl$u20$$BP$mut$u20$T$GT$7is_null17he5b0d328e93c8b69E"(ptr %_9) #3
  br i1 %_8, label %bb9, label %bb5

bb2:                                              ; preds = %start
  store ptr null, ptr %_0, align 8
  br label %bb12

bb5:                                              ; preds = %bb3
  %_36 = load ptr, ptr %current, align 8
  %_37 = ptrtoint ptr %_36 to i64
  %_40 = and i64 %_37, 7
  %_41 = icmp eq i64 %_40, 0
  br i1 %_41, label %bb16, label %panic

bb9:                                              ; preds = %bb19, %bb3
  %0 = icmp eq i32 %type_0, 0
  br i1 %0, label %bb10, label %bb11

bb16:                                             ; preds = %bb5
  %_42 = load ptr, ptr %current, align 8
  %_43 = ptrtoint ptr %_42 to i64
  %_46 = icmp eq i64 %_43, 0
  %_47 = and i1 %_46, true
  %_48 = xor i1 %_47, true
  br i1 %_48, label %bb17, label %panic1

panic:                                            ; preds = %bb5
; call core::panicking::panic_misaligned_pointer_dereference
  call void @_ZN4core9panicking36panic_misaligned_pointer_dereference17hcc3cbded9382b6e5E(i64 8, i64 %_37, ptr align 8 @alloc_c5a4e2d3791755606033b1f98930c619) #4
  unreachable

bb17:                                             ; preds = %bb16
  %1 = load ptr, ptr %current, align 8
  %_11 = load i32, ptr %1, align 8
  %_10 = icmp slt i32 %key, %_11
  br i1 %_10, label %bb6, label %bb7

panic1:                                           ; preds = %bb16
; call core::panicking::panic_null_pointer_dereference
  call void @_ZN4core9panicking30panic_null_pointer_dereference17hf718fcc86a223baaE(ptr align 8 @alloc_c5a4e2d3791755606033b1f98930c619) #4
  unreachable

bb7:                                              ; preds = %bb17
  %_24 = load ptr, ptr %current, align 8
  %_25 = ptrtoint ptr %_24 to i64
  %_28 = and i64 %_25, 7
  %_29 = icmp eq i64 %_28, 0
  br i1 %_29, label %bb14, label %panic2

bb6:                                              ; preds = %bb17
  %_12 = load ptr, ptr %current, align 8
  store ptr %_12, ptr %parent, align 8
  %_30 = load ptr, ptr %current, align 8
  %_31 = ptrtoint ptr %_30 to i64
  %_34 = and i64 %_31, 7
  %_35 = icmp eq i64 %_34, 0
  br i1 %_35, label %bb15, label %panic6

bb14:                                             ; preds = %bb7
  %_56 = load ptr, ptr %current, align 8
  %_57 = ptrtoint ptr %_56 to i64
  %_60 = icmp eq i64 %_57, 0
  %_61 = and i1 %_60, true
  %_62 = xor i1 %_61, true
  br i1 %_62, label %bb19, label %panic3

panic2:                                           ; preds = %bb7
; call core::panicking::panic_misaligned_pointer_dereference
  call void @_ZN4core9panicking36panic_misaligned_pointer_dereference17hcc3cbded9382b6e5E(i64 8, i64 %_25, ptr align 8 @alloc_c2e75e837da10c2cc87e6750356497bf) #4
  unreachable

bb19:                                             ; preds = %bb14
  %2 = load ptr, ptr %current, align 8
  %_15 = load i32, ptr %2, align 8
  %_14 = icmp eq i32 %key, %_15
  br i1 %_14, label %bb9, label %bb8

panic3:                                           ; preds = %bb14
; call core::panicking::panic_null_pointer_dereference
  call void @_ZN4core9panicking30panic_null_pointer_dereference17hf718fcc86a223baaE(ptr align 8 @alloc_c2e75e837da10c2cc87e6750356497bf) #4
  unreachable

bb8:                                              ; preds = %bb19
  %_16 = load ptr, ptr %current, align 8
  store ptr %_16, ptr %parent, align 8
  %_18 = load ptr, ptr %current, align 8
  %_19 = ptrtoint ptr %_18 to i64
  %_22 = and i64 %_19, 7
  %_23 = icmp eq i64 %_22, 0
  br i1 %_23, label %bb13, label %panic4

bb13:                                             ; preds = %bb8
  %_63 = load ptr, ptr %current, align 8
  %_64 = ptrtoint ptr %_63 to i64
  %_67 = icmp eq i64 %_64, 0
  %_68 = and i1 %_67, true
  %_69 = xor i1 %_68, true
  br i1 %_69, label %bb20, label %panic5

panic4:                                           ; preds = %bb8
; call core::panicking::panic_misaligned_pointer_dereference
  call void @_ZN4core9panicking36panic_misaligned_pointer_dereference17hcc3cbded9382b6e5E(i64 8, i64 %_19, ptr align 8 @alloc_ce4a94abb0fe7f5b55db54405fd38bf6) #4
  unreachable

bb20:                                             ; preds = %bb13
  %3 = load ptr, ptr %current, align 8
  %4 = getelementptr inbounds i8, ptr %3, i64 16
  %_17 = load ptr, ptr %4, align 8
  store ptr %_17, ptr %current, align 8
  br label %bb3

panic5:                                           ; preds = %bb13
; call core::panicking::panic_null_pointer_dereference
  call void @_ZN4core9panicking30panic_null_pointer_dereference17hf718fcc86a223baaE(ptr align 8 @alloc_ce4a94abb0fe7f5b55db54405fd38bf6) #4
  unreachable

bb15:                                             ; preds = %bb6
  %_49 = load ptr, ptr %current, align 8
  %_50 = ptrtoint ptr %_49 to i64
  %_53 = icmp eq i64 %_50, 0
  %_54 = and i1 %_53, true
  %_55 = xor i1 %_54, true
  br i1 %_55, label %bb18, label %panic7

panic6:                                           ; preds = %bb6
; call core::panicking::panic_misaligned_pointer_dereference
  call void @_ZN4core9panicking36panic_misaligned_pointer_dereference17hcc3cbded9382b6e5E(i64 8, i64 %_31, ptr align 8 @alloc_61e4802fc1c2ab9e5eb4eb0dc95b6a00) #4
  unreachable

bb18:                                             ; preds = %bb15
  %5 = load ptr, ptr %current, align 8
  %6 = getelementptr inbounds i8, ptr %5, i64 8
  %_13 = load ptr, ptr %6, align 8
  store ptr %_13, ptr %current, align 8
  br label %bb3

panic7:                                           ; preds = %bb15
; call core::panicking::panic_null_pointer_dereference
  call void @_ZN4core9panicking30panic_null_pointer_dereference17hf718fcc86a223baaE(ptr align 8 @alloc_61e4802fc1c2ab9e5eb4eb0dc95b6a00) #4
  unreachable

bb10:                                             ; preds = %bb9
  %7 = load ptr, ptr %current, align 8
  store ptr %7, ptr %_0, align 8
  br label %bb12

bb11:                                             ; preds = %bb9
  %8 = load ptr, ptr %parent, align 8
  store ptr %8, ptr %_0, align 8
  br label %bb12

bb12:                                             ; preds = %bb2, %bb11, %bb10
  %9 = load ptr, ptr %_0, align 8
  ret ptr %9
}

; Function Attrs: nounwind nonlazybind
define ptr @bst_find_max_node(ptr %node, i32 %type_0) unnamed_addr #1 {
start:
  %parent = alloca [8 x i8], align 8
  %current = alloca [8 x i8], align 8
  %_0 = alloca [8 x i8], align 8
  store ptr %node, ptr %current, align 8
  store ptr null, ptr %parent, align 8
  %_6 = load ptr, ptr %current, align 8
; call core::ptr::mut_ptr::<impl *mut T>::is_null
  %_5 = call zeroext i1 @"_ZN4core3ptr7mut_ptr31_$LT$impl$u20$$BP$mut$u20$T$GT$7is_null17he5b0d328e93c8b69E"(ptr %_6) #3
  br i1 %_5, label %bb2, label %bb3

bb3:                                              ; preds = %bb13, %start
  %_17 = load ptr, ptr %current, align 8
  %_18 = ptrtoint ptr %_17 to i64
  %_21 = and i64 %_18, 7
  %_22 = icmp eq i64 %_21, 0
  br i1 %_22, label %bb11, label %panic

bb2:                                              ; preds = %start
  store ptr null, ptr %_0, align 8
  br label %bb9

bb11:                                             ; preds = %bb3
  %_23 = load ptr, ptr %current, align 8
  %_24 = ptrtoint ptr %_23 to i64
  %_27 = icmp eq i64 %_24, 0
  %_28 = and i1 %_27, true
  %_29 = xor i1 %_28, true
  br i1 %_29, label %bb12, label %panic1

panic:                                            ; preds = %bb3
; call core::panicking::panic_misaligned_pointer_dereference
  call void @_ZN4core9panicking36panic_misaligned_pointer_dereference17hcc3cbded9382b6e5E(i64 8, i64 %_18, ptr align 8 @alloc_36682ef10136f47a787d8b36c8950e08) #4
  unreachable

bb12:                                             ; preds = %bb11
  %0 = load ptr, ptr %current, align 8
  %1 = getelementptr inbounds i8, ptr %0, i64 16
  %_8 = load ptr, ptr %1, align 8
; call core::ptr::mut_ptr::<impl *mut T>::is_null
  %_7 = call zeroext i1 @"_ZN4core3ptr7mut_ptr31_$LT$impl$u20$$BP$mut$u20$T$GT$7is_null17he5b0d328e93c8b69E"(ptr %_8) #3
  br i1 %_7, label %bb5, label %bb6

panic1:                                           ; preds = %bb11
; call core::panicking::panic_null_pointer_dereference
  call void @_ZN4core9panicking30panic_null_pointer_dereference17hf718fcc86a223baaE(ptr align 8 @alloc_36682ef10136f47a787d8b36c8950e08) #4
  unreachable

bb6:                                              ; preds = %bb12
  %_9 = load ptr, ptr %current, align 8
  store ptr %_9, ptr %parent, align 8
  %_11 = load ptr, ptr %current, align 8
  %_12 = ptrtoint ptr %_11 to i64
  %_15 = and i64 %_12, 7
  %_16 = icmp eq i64 %_15, 0
  br i1 %_16, label %bb10, label %panic2

bb5:                                              ; preds = %bb12
  %2 = icmp eq i32 %type_0, 0
  br i1 %2, label %bb7, label %bb8

bb10:                                             ; preds = %bb6
  %_30 = load ptr, ptr %current, align 8
  %_31 = ptrtoint ptr %_30 to i64
  %_34 = icmp eq i64 %_31, 0
  %_35 = and i1 %_34, true
  %_36 = xor i1 %_35, true
  br i1 %_36, label %bb13, label %panic3

panic2:                                           ; preds = %bb6
; call core::panicking::panic_misaligned_pointer_dereference
  call void @_ZN4core9panicking36panic_misaligned_pointer_dereference17hcc3cbded9382b6e5E(i64 8, i64 %_12, ptr align 8 @alloc_6c43d43f31bd9604dc1b67c64879db8f) #4
  unreachable

bb13:                                             ; preds = %bb10
  %3 = load ptr, ptr %current, align 8
  %4 = getelementptr inbounds i8, ptr %3, i64 16
  %_10 = load ptr, ptr %4, align 8
  store ptr %_10, ptr %current, align 8
  br label %bb3

panic3:                                           ; preds = %bb10
; call core::panicking::panic_null_pointer_dereference
  call void @_ZN4core9panicking30panic_null_pointer_dereference17hf718fcc86a223baaE(ptr align 8 @alloc_6c43d43f31bd9604dc1b67c64879db8f) #4
  unreachable

bb7:                                              ; preds = %bb5
  %5 = load ptr, ptr %current, align 8
  store ptr %5, ptr %_0, align 8
  br label %bb9

bb8:                                              ; preds = %bb5
  %6 = load ptr, ptr %parent, align 8
  store ptr %6, ptr %_0, align 8
  br label %bb9

bb9:                                              ; preds = %bb2, %bb8, %bb7
  %7 = load ptr, ptr %_0, align 8
  ret ptr %7
}

; Function Attrs: nounwind nonlazybind
define ptr @bst_insert_node(ptr %bst, i32 %key) unnamed_addr #1 {
start:
  %parent = alloca [8 x i8], align 8
  %_0 = alloca [8 x i8], align 8
  %_72 = ptrtoint ptr %bst to i64
  %_75 = and i64 %_72, 7
  %_76 = icmp eq i64 %_75, 0
  br i1 %_76, label %bb26, label %panic

bb26:                                             ; preds = %start
  %_78 = ptrtoint ptr %bst to i64
  %_81 = icmp eq i64 %_78, 0
  %_82 = and i1 %_81, true
  %_83 = xor i1 %_82, true
  br i1 %_83, label %bb27, label %panic1

panic:                                            ; preds = %start
; call core::panicking::panic_misaligned_pointer_dereference
  call void @_ZN4core9panicking36panic_misaligned_pointer_dereference17hcc3cbded9382b6e5E(i64 8, i64 %_72, ptr align 8 @alloc_ed5ec6cc1979969df8c2effdc5b3787f) #4
  unreachable

bb27:                                             ; preds = %bb26
  %current = load ptr, ptr %bst, align 8
  store ptr null, ptr %parent, align 8
; call core::ptr::mut_ptr::<impl *mut T>::is_null
  %_5 = call zeroext i1 @"_ZN4core3ptr7mut_ptr31_$LT$impl$u20$$BP$mut$u20$T$GT$7is_null17he5b0d328e93c8b69E"(ptr %current) #3
  br i1 %_5, label %bb2, label %bb4

panic1:                                           ; preds = %bb26
; call core::panicking::panic_null_pointer_dereference
  call void @_ZN4core9panicking30panic_null_pointer_dereference17hf718fcc86a223baaE(ptr align 8 @alloc_ed5ec6cc1979969df8c2effdc5b3787f) #4
  unreachable

bb4:                                              ; preds = %bb27
  %_60 = ptrtoint ptr %bst to i64
  %_63 = and i64 %_60, 7
  %_64 = icmp eq i64 %_63, 0
  br i1 %_64, label %bb24, label %panic2

bb2:                                              ; preds = %bb27
  %_6 = call ptr @bst_create_node(i32 %key) #3
  %_66 = ptrtoint ptr %bst to i64
  %_69 = and i64 %_66, 7
  %_70 = icmp eq i64 %_69, 0
  br i1 %_70, label %bb25, label %panic12

bb24:                                             ; preds = %bb4
  %_92 = ptrtoint ptr %bst to i64
  %_95 = icmp eq i64 %_92, 0
  %_96 = and i1 %_95, true
  %_97 = xor i1 %_96, true
  br i1 %_97, label %bb29, label %panic3

panic2:                                           ; preds = %bb4
; call core::panicking::panic_misaligned_pointer_dereference
  call void @_ZN4core9panicking36panic_misaligned_pointer_dereference17hcc3cbded9382b6e5E(i64 8, i64 %_60, ptr align 8 @alloc_b9ed5324bdd85732c361935a4dc2f081) #4
  unreachable

bb29:                                             ; preds = %bb24
  %_8 = load ptr, ptr %bst, align 8
  %_7 = call ptr @bst_search_node(ptr %_8, i32 1, i32 %key) #3
  store ptr %_7, ptr %parent, align 8
  %_10 = load ptr, ptr %parent, align 8
; call core::ptr::mut_ptr::<impl *mut T>::is_null
  %_9 = call zeroext i1 @"_ZN4core3ptr7mut_ptr31_$LT$impl$u20$$BP$mut$u20$T$GT$7is_null17he5b0d328e93c8b69E"(ptr %_10) #3
  br i1 %_9, label %bb7, label %bb8

panic3:                                           ; preds = %bb24
; call core::panicking::panic_null_pointer_dereference
  call void @_ZN4core9panicking30panic_null_pointer_dereference17hf718fcc86a223baaE(ptr align 8 @alloc_b9ed5324bdd85732c361935a4dc2f081) #4
  unreachable

bb8:                                              ; preds = %bb29
  %_53 = load ptr, ptr %parent, align 8
  %_54 = ptrtoint ptr %_53 to i64
  %_57 = and i64 %_54, 7
  %_58 = icmp eq i64 %_57, 0
  br i1 %_58, label %bb23, label %panic4

bb7:                                              ; preds = %bb29
  store ptr null, ptr %_0, align 8
  br label %bb16

bb23:                                             ; preds = %bb8
  %_98 = load ptr, ptr %parent, align 8
  %_99 = ptrtoint ptr %_98 to i64
  %_102 = icmp eq i64 %_99, 0
  %_103 = and i1 %_102, true
  %_104 = xor i1 %_103, true
  br i1 %_104, label %bb30, label %panic5

panic4:                                           ; preds = %bb8
; call core::panicking::panic_misaligned_pointer_dereference
  call void @_ZN4core9panicking36panic_misaligned_pointer_dereference17hcc3cbded9382b6e5E(i64 8, i64 %_54, ptr align 8 @alloc_f396358fc391f6ea624d37498ba56b5e) #4
  unreachable

bb30:                                             ; preds = %bb23
  %0 = load ptr, ptr %parent, align 8
  %_12 = load i32, ptr %0, align 8
  %_11 = icmp slt i32 %key, %_12
  br i1 %_11, label %bb9, label %bb10

panic5:                                           ; preds = %bb23
; call core::panicking::panic_null_pointer_dereference
  call void @_ZN4core9panicking30panic_null_pointer_dereference17hf718fcc86a223baaE(ptr align 8 @alloc_f396358fc391f6ea624d37498ba56b5e) #4
  unreachable

bb10:                                             ; preds = %bb30
  %_47 = load ptr, ptr %parent, align 8
  %_48 = ptrtoint ptr %_47 to i64
  %_51 = and i64 %_48, 7
  %_52 = icmp eq i64 %_51, 0
  br i1 %_52, label %bb22, label %panic6

bb9:                                              ; preds = %bb30
  %_13 = call ptr @bst_create_node(i32 %key) #3
  %_41 = load ptr, ptr %parent, align 8
  %_42 = ptrtoint ptr %_41 to i64
  %_45 = and i64 %_42, 7
  %_46 = icmp eq i64 %_45, 0
  br i1 %_46, label %bb21, label %panic10

bb22:                                             ; preds = %bb10
  %_105 = load ptr, ptr %parent, align 8
  %_106 = ptrtoint ptr %_105 to i64
  %_109 = icmp eq i64 %_106, 0
  %_110 = and i1 %_109, true
  %_111 = xor i1 %_110, true
  br i1 %_111, label %bb31, label %panic7

panic6:                                           ; preds = %bb10
; call core::panicking::panic_misaligned_pointer_dereference
  call void @_ZN4core9panicking36panic_misaligned_pointer_dereference17hcc3cbded9382b6e5E(i64 8, i64 %_48, ptr align 8 @alloc_56758b549a0e2968d86873921e6a7543) #4
  unreachable

bb31:                                             ; preds = %bb22
  %1 = load ptr, ptr %parent, align 8
  %_15 = load i32, ptr %1, align 8
  %_14 = icmp eq i32 %key, %_15
  br i1 %_14, label %bb12, label %bb13

panic7:                                           ; preds = %bb22
; call core::panicking::panic_null_pointer_dereference
  call void @_ZN4core9panicking30panic_null_pointer_dereference17hf718fcc86a223baaE(ptr align 8 @alloc_56758b549a0e2968d86873921e6a7543) #4
  unreachable

bb13:                                             ; preds = %bb31
  %_16 = call ptr @bst_create_node(i32 %key) #3
  %_35 = load ptr, ptr %parent, align 8
  %_36 = ptrtoint ptr %_35 to i64
  %_39 = and i64 %_36, 7
  %_40 = icmp eq i64 %_39, 0
  br i1 %_40, label %bb20, label %panic8

bb12:                                             ; preds = %bb31
  store ptr null, ptr %_0, align 8
  br label %bb16

bb20:                                             ; preds = %bb13
  %_119 = load ptr, ptr %parent, align 8
  %_120 = ptrtoint ptr %_119 to i64
  %_123 = icmp eq i64 %_120, 0
  %_124 = and i1 %_123, true
  %_125 = xor i1 %_124, true
  br i1 %_125, label %bb33, label %panic9

panic8:                                           ; preds = %bb13
; call core::panicking::panic_misaligned_pointer_dereference
  call void @_ZN4core9panicking36panic_misaligned_pointer_dereference17hcc3cbded9382b6e5E(i64 8, i64 %_36, ptr align 8 @alloc_5185148b11bc8d5d8860d9c8af74a0a3) #4
  unreachable

bb33:                                             ; preds = %bb20
  %2 = load ptr, ptr %parent, align 8
  %3 = getelementptr inbounds i8, ptr %2, i64 16
  store ptr %_16, ptr %3, align 8
  br label %bb15

panic9:                                           ; preds = %bb20
; call core::panicking::panic_null_pointer_dereference
  call void @_ZN4core9panicking30panic_null_pointer_dereference17hf718fcc86a223baaE(ptr align 8 @alloc_5185148b11bc8d5d8860d9c8af74a0a3) #4
  unreachable

bb15:                                             ; preds = %bb28, %bb32, %bb33
  %_30 = ptrtoint ptr %bst to i64
  %_33 = and i64 %_30, 7
  %_34 = icmp eq i64 %_33, 0
  br i1 %_34, label %bb19, label %panic14

bb16:                                             ; preds = %bb36, %bb7, %bb12
  %4 = load ptr, ptr %_0, align 8
  ret ptr %4

bb21:                                             ; preds = %bb9
  %_112 = load ptr, ptr %parent, align 8
  %_113 = ptrtoint ptr %_112 to i64
  %_116 = icmp eq i64 %_113, 0
  %_117 = and i1 %_116, true
  %_118 = xor i1 %_117, true
  br i1 %_118, label %bb32, label %panic11

panic10:                                          ; preds = %bb9
; call core::panicking::panic_misaligned_pointer_dereference
  call void @_ZN4core9panicking36panic_misaligned_pointer_dereference17hcc3cbded9382b6e5E(i64 8, i64 %_42, ptr align 8 @alloc_bff15e2da34384152598015c9eba106b) #4
  unreachable

bb32:                                             ; preds = %bb21
  %5 = load ptr, ptr %parent, align 8
  %6 = getelementptr inbounds i8, ptr %5, i64 8
  store ptr %_13, ptr %6, align 8
  br label %bb15

panic11:                                          ; preds = %bb21
; call core::panicking::panic_null_pointer_dereference
  call void @_ZN4core9panicking30panic_null_pointer_dereference17hf718fcc86a223baaE(ptr align 8 @alloc_bff15e2da34384152598015c9eba106b) #4
  unreachable

bb25:                                             ; preds = %bb2
  %_85 = ptrtoint ptr %bst to i64
  %_88 = icmp eq i64 %_85, 0
  %_89 = and i1 %_88, true
  %_90 = xor i1 %_89, true
  br i1 %_90, label %bb28, label %panic13

panic12:                                          ; preds = %bb2
; call core::panicking::panic_misaligned_pointer_dereference
  call void @_ZN4core9panicking36panic_misaligned_pointer_dereference17hcc3cbded9382b6e5E(i64 8, i64 %_66, ptr align 8 @alloc_600339098278502175543d2275ed6a1b) #4
  unreachable

bb28:                                             ; preds = %bb25
  store ptr %_6, ptr %bst, align 8
  br label %bb15

panic13:                                          ; preds = %bb25
; call core::panicking::panic_null_pointer_dereference
  call void @_ZN4core9panicking30panic_null_pointer_dereference17hf718fcc86a223baaE(ptr align 8 @alloc_600339098278502175543d2275ed6a1b) #4
  unreachable

bb19:                                             ; preds = %bb15
  %_24 = ptrtoint ptr %bst to i64
  %_27 = and i64 %_24, 7
  %_28 = icmp eq i64 %_27, 0
  br i1 %_28, label %bb18, label %panic15

panic14:                                          ; preds = %bb15
; call core::panicking::panic_misaligned_pointer_dereference
  call void @_ZN4core9panicking36panic_misaligned_pointer_dereference17hcc3cbded9382b6e5E(i64 8, i64 %_30, ptr align 8 @alloc_7d8d58b36d2b2d423935116080665165) #4
  unreachable

bb18:                                             ; preds = %bb19
  %_134 = ptrtoint ptr %bst to i64
  %_137 = icmp eq i64 %_134, 0
  %_138 = and i1 %_137, true
  %_139 = xor i1 %_138, true
  br i1 %_139, label %bb35, label %panic16

panic15:                                          ; preds = %bb19
; call core::panicking::panic_misaligned_pointer_dereference
  call void @_ZN4core9panicking36panic_misaligned_pointer_dereference17hcc3cbded9382b6e5E(i64 8, i64 %_24, ptr align 8 @alloc_7d8d58b36d2b2d423935116080665165) #4
  unreachable

bb35:                                             ; preds = %bb18
  %_127 = ptrtoint ptr %bst to i64
  %_130 = icmp eq i64 %_127, 0
  %_131 = and i1 %_130, true
  %_132 = xor i1 %_131, true
  br i1 %_132, label %bb34, label %panic17

panic16:                                          ; preds = %bb18
; call core::panicking::panic_null_pointer_dereference
  call void @_ZN4core9panicking30panic_null_pointer_dereference17hf718fcc86a223baaE(ptr align 8 @alloc_7d8d58b36d2b2d423935116080665165) #4
  unreachable

bb34:                                             ; preds = %bb35
  %7 = getelementptr inbounds i8, ptr %bst, i64 8
  %8 = getelementptr inbounds i8, ptr %bst, i64 8
  %9 = load i32, ptr %8, align 8
  %10 = add i32 %9, 1
  store i32 %10, ptr %7, align 8
  %_18 = ptrtoint ptr %bst to i64
  %_21 = and i64 %_18, 7
  %_22 = icmp eq i64 %_21, 0
  br i1 %_22, label %bb17, label %panic18

panic17:                                          ; preds = %bb35
; call core::panicking::panic_null_pointer_dereference
  call void @_ZN4core9panicking30panic_null_pointer_dereference17hf718fcc86a223baaE(ptr align 8 @alloc_7d8d58b36d2b2d423935116080665165) #4
  unreachable

bb17:                                             ; preds = %bb34
  %_141 = ptrtoint ptr %bst to i64
  %_144 = icmp eq i64 %_141, 0
  %_145 = and i1 %_144, true
  %_146 = xor i1 %_145, true
  br i1 %_146, label %bb36, label %panic19

panic18:                                          ; preds = %bb34
; call core::panicking::panic_misaligned_pointer_dereference
  call void @_ZN4core9panicking36panic_misaligned_pointer_dereference17hcc3cbded9382b6e5E(i64 8, i64 %_18, ptr align 8 @alloc_3689581ac3e8ceaaaf9b37c8e542fe4a) #4
  unreachable

bb36:                                             ; preds = %bb17
  store ptr %bst, ptr %_0, align 8
  br label %bb16

panic19:                                          ; preds = %bb17
; call core::panicking::panic_null_pointer_dereference
  call void @_ZN4core9panicking30panic_null_pointer_dereference17hf718fcc86a223baaE(ptr align 8 @alloc_3689581ac3e8ceaaaf9b37c8e542fe4a) #4
  unreachable
}

; Function Attrs: nounwind nonlazybind
define void @bst_delete_node(ptr %bst, i32 %key) unnamed_addr #1 {
start:
  %max = alloca [8 x i8], align 8
  %temp = alloca [8 x i8], align 8
  %current = alloca [8 x i8], align 8
  %_298 = ptrtoint ptr %bst to i64
  %_301 = and i64 %_298, 7
  %_302 = icmp eq i64 %_301, 0
  br i1 %_302, label %bb67, label %panic

bb67:                                             ; preds = %start
  %_304 = ptrtoint ptr %bst to i64
  %_307 = icmp eq i64 %_304, 0
  %_308 = and i1 %_307, true
  %_309 = xor i1 %_308, true
  br i1 %_309, label %bb68, label %panic1

panic:                                            ; preds = %start
; call core::panicking::panic_misaligned_pointer_dereference
  call void @_ZN4core9panicking36panic_misaligned_pointer_dereference17hcc3cbded9382b6e5E(i64 8, i64 %_298, ptr align 8 @alloc_5ff8a6a6a364a8cadb14ac5a6328007d) #4
  unreachable

bb68:                                             ; preds = %bb67
  %_4 = load ptr, ptr %bst, align 8
  %parent = call ptr @bst_search_node(ptr %_4, i32 1, i32 %key) #3
  store ptr null, ptr %current, align 8
  store ptr null, ptr %temp, align 8
  store ptr null, ptr %max, align 8
  %_8 = call ptr @bst_search_node(ptr %parent, i32 0, i32 %key) #3
  store ptr %_8, ptr %current, align 8
; call core::ptr::mut_ptr::<impl *mut T>::is_null
  %_9 = call zeroext i1 @"_ZN4core3ptr7mut_ptr31_$LT$impl$u20$$BP$mut$u20$T$GT$7is_null17he5b0d328e93c8b69E"(ptr %parent) #3
  br i1 %_9, label %bb4, label %bb7

panic1:                                           ; preds = %bb67
; call core::panicking::panic_null_pointer_dereference
  call void @_ZN4core9panicking30panic_null_pointer_dereference17hf718fcc86a223baaE(ptr align 8 @alloc_5ff8a6a6a364a8cadb14ac5a6328007d) #4
  unreachable

bb7:                                              ; preds = %bb4, %bb68
  %_279 = load ptr, ptr %current, align 8
  %_280 = ptrtoint ptr %_279 to i64
  %_283 = and i64 %_280, 7
  %_284 = icmp eq i64 %_283, 0
  br i1 %_284, label %bb64, label %panic2

bb4:                                              ; preds = %bb68
  %_11 = load ptr, ptr %current, align 8
; call core::ptr::mut_ptr::<impl *mut T>::is_null
  %_10 = call zeroext i1 @"_ZN4core3ptr7mut_ptr31_$LT$impl$u20$$BP$mut$u20$T$GT$7is_null17he5b0d328e93c8b69E"(ptr %_11) #3
  br i1 %_10, label %bb6, label %bb7

bb6:                                              ; preds = %bb4
  %_292 = ptrtoint ptr %bst to i64
  %_295 = and i64 %_292, 7
  %_296 = icmp eq i64 %_295, 0
  br i1 %_296, label %bb66, label %panic72

bb64:                                             ; preds = %bb7
  %_324 = load ptr, ptr %current, align 8
  %_325 = ptrtoint ptr %_324 to i64
  %_328 = icmp eq i64 %_325, 0
  %_329 = and i1 %_328, true
  %_330 = xor i1 %_329, true
  br i1 %_330, label %bb71, label %panic3

panic2:                                           ; preds = %bb7
; call core::panicking::panic_misaligned_pointer_dereference
  call void @_ZN4core9panicking36panic_misaligned_pointer_dereference17hcc3cbded9382b6e5E(i64 8, i64 %_280, ptr align 8 @alloc_79863638fae63838d8f32f0ef49a297b) #4
  unreachable

bb71:                                             ; preds = %bb64
  %0 = load ptr, ptr %current, align 8
  %1 = getelementptr inbounds i8, ptr %0, i64 8
  %_14 = load ptr, ptr %1, align 8
; call core::ptr::mut_ptr::<impl *mut T>::is_null
  %_13 = call zeroext i1 @"_ZN4core3ptr7mut_ptr31_$LT$impl$u20$$BP$mut$u20$T$GT$7is_null17he5b0d328e93c8b69E"(ptr %_14) #3
  br i1 %_13, label %bb9, label %bb14

panic3:                                           ; preds = %bb64
; call core::panicking::panic_null_pointer_dereference
  call void @_ZN4core9panicking30panic_null_pointer_dereference17hf718fcc86a223baaE(ptr align 8 @alloc_79863638fae63838d8f32f0ef49a297b) #4
  unreachable

bb14:                                             ; preds = %bb72, %bb71
  %_231 = load ptr, ptr %current, align 8
  %_232 = ptrtoint ptr %_231 to i64
  %_235 = and i64 %_232, 7
  %_236 = icmp eq i64 %_235, 0
  br i1 %_236, label %bb56, label %panic6

bb9:                                              ; preds = %bb71
  %_273 = load ptr, ptr %current, align 8
  %_274 = ptrtoint ptr %_273 to i64
  %_277 = and i64 %_274, 7
  %_278 = icmp eq i64 %_277, 0
  br i1 %_278, label %bb63, label %panic4

bb63:                                             ; preds = %bb9
  %_331 = load ptr, ptr %current, align 8
  %_332 = ptrtoint ptr %_331 to i64
  %_335 = icmp eq i64 %_332, 0
  %_336 = and i1 %_335, true
  %_337 = xor i1 %_336, true
  br i1 %_337, label %bb72, label %panic5

panic4:                                           ; preds = %bb9
; call core::panicking::panic_misaligned_pointer_dereference
  call void @_ZN4core9panicking36panic_misaligned_pointer_dereference17hcc3cbded9382b6e5E(i64 8, i64 %_274, ptr align 8 @alloc_6301cb5a950972ffa2f385894b023b1d) #4
  unreachable

bb72:                                             ; preds = %bb63
  %2 = load ptr, ptr %current, align 8
  %3 = getelementptr inbounds i8, ptr %2, i64 16
  %_16 = load ptr, ptr %3, align 8
; call core::ptr::mut_ptr::<impl *mut T>::is_null
  %_15 = call zeroext i1 @"_ZN4core3ptr7mut_ptr31_$LT$impl$u20$$BP$mut$u20$T$GT$7is_null17he5b0d328e93c8b69E"(ptr %_16) #3
  br i1 %_15, label %bb11, label %bb14

panic5:                                           ; preds = %bb63
; call core::panicking::panic_null_pointer_dereference
  call void @_ZN4core9panicking30panic_null_pointer_dereference17hf718fcc86a223baaE(ptr align 8 @alloc_6301cb5a950972ffa2f385894b023b1d) #4
  unreachable

bb11:                                             ; preds = %bb72
  %_267 = load ptr, ptr %current, align 8
  %_268 = ptrtoint ptr %_267 to i64
  %_271 = and i64 %_268, 7
  %_272 = icmp eq i64 %_271, 0
  br i1 %_272, label %bb62, label %panic60

bb56:                                             ; preds = %bb14
  %_380 = load ptr, ptr %current, align 8
  %_381 = ptrtoint ptr %_380 to i64
  %_384 = icmp eq i64 %_381, 0
  %_385 = and i1 %_384, true
  %_386 = xor i1 %_385, true
  br i1 %_386, label %bb79, label %panic7

panic6:                                           ; preds = %bb14
; call core::panicking::panic_misaligned_pointer_dereference
  call void @_ZN4core9panicking36panic_misaligned_pointer_dereference17hcc3cbded9382b6e5E(i64 8, i64 %_232, ptr align 8 @alloc_8b59463754b411a8e68405fd1623a977) #4
  unreachable

bb79:                                             ; preds = %bb56
  %4 = load ptr, ptr %current, align 8
  %5 = getelementptr inbounds i8, ptr %4, i64 8
  %_23 = load ptr, ptr %5, align 8
; call core::ptr::mut_ptr::<impl *mut T>::is_null
  %_22 = call zeroext i1 @"_ZN4core3ptr7mut_ptr31_$LT$impl$u20$$BP$mut$u20$T$GT$7is_null17he5b0d328e93c8b69E"(ptr %_23) #3
  br i1 %_22, label %bb16, label %bb17

panic7:                                           ; preds = %bb56
; call core::panicking::panic_null_pointer_dereference
  call void @_ZN4core9panicking30panic_null_pointer_dereference17hf718fcc86a223baaE(ptr align 8 @alloc_8b59463754b411a8e68405fd1623a977) #4
  unreachable

bb17:                                             ; preds = %bb79
  %_183 = load ptr, ptr %current, align 8
  %_184 = ptrtoint ptr %_183 to i64
  %_187 = and i64 %_184, 7
  %_188 = icmp eq i64 %_187, 0
  br i1 %_188, label %bb48, label %panic8

bb16:                                             ; preds = %bb79
  %_225 = load ptr, ptr %current, align 8
  %_226 = ptrtoint ptr %_225 to i64
  %_229 = and i64 %_226, 7
  %_230 = icmp eq i64 %_229, 0
  br i1 %_230, label %bb55, label %panic46

bb48:                                             ; preds = %bb17
  %_436 = load ptr, ptr %current, align 8
  %_437 = ptrtoint ptr %_436 to i64
  %_440 = icmp eq i64 %_437, 0
  %_441 = and i1 %_440, true
  %_442 = xor i1 %_441, true
  br i1 %_442, label %bb87, label %panic9

panic8:                                           ; preds = %bb17
; call core::panicking::panic_misaligned_pointer_dereference
  call void @_ZN4core9panicking36panic_misaligned_pointer_dereference17hcc3cbded9382b6e5E(i64 8, i64 %_184, ptr align 8 @alloc_639f648dd4adcd1fdd0a8122c7008894) #4
  unreachable

bb87:                                             ; preds = %bb48
  %6 = load ptr, ptr %current, align 8
  %7 = getelementptr inbounds i8, ptr %6, i64 16
  %_29 = load ptr, ptr %7, align 8
; call core::ptr::mut_ptr::<impl *mut T>::is_null
  %_28 = call zeroext i1 @"_ZN4core3ptr7mut_ptr31_$LT$impl$u20$$BP$mut$u20$T$GT$7is_null17he5b0d328e93c8b69E"(ptr %_29) #3
  br i1 %_28, label %bb19, label %bb20

panic9:                                           ; preds = %bb48
; call core::panicking::panic_null_pointer_dereference
  call void @_ZN4core9panicking30panic_null_pointer_dereference17hf718fcc86a223baaE(ptr align 8 @alloc_639f648dd4adcd1fdd0a8122c7008894) #4
  unreachable

bb20:                                             ; preds = %bb87
  %_135 = load ptr, ptr %current, align 8
  %_136 = ptrtoint ptr %_135 to i64
  %_139 = and i64 %_136, 7
  %_140 = icmp eq i64 %_139, 0
  br i1 %_140, label %bb40, label %panic10

bb19:                                             ; preds = %bb87
  %_177 = load ptr, ptr %current, align 8
  %_178 = ptrtoint ptr %_177 to i64
  %_181 = and i64 %_178, 7
  %_182 = icmp eq i64 %_181, 0
  br i1 %_182, label %bb47, label %panic32

bb40:                                             ; preds = %bb20
  %_492 = load ptr, ptr %current, align 8
  %_493 = ptrtoint ptr %_492 to i64
  %_496 = icmp eq i64 %_493, 0
  %_497 = and i1 %_496, true
  %_498 = xor i1 %_497, true
  br i1 %_498, label %bb95, label %panic11

panic10:                                          ; preds = %bb20
; call core::panicking::panic_misaligned_pointer_dereference
  call void @_ZN4core9panicking36panic_misaligned_pointer_dereference17hcc3cbded9382b6e5E(i64 8, i64 %_136, ptr align 8 @alloc_7a6aa5e748561012b828962ef4771746) #4
  unreachable

bb95:                                             ; preds = %bb40
  %8 = load ptr, ptr %current, align 8
  %9 = getelementptr inbounds i8, ptr %8, i64 8
  %_35 = load ptr, ptr %9, align 8
  %_34 = call ptr @bst_find_max_node(ptr %_35, i32 1) #3
  store ptr %_34, ptr %max, align 8
  %_37 = load ptr, ptr %max, align 8
; call core::ptr::mut_ptr::<impl *mut T>::is_null
  %_36 = call zeroext i1 @"_ZN4core3ptr7mut_ptr31_$LT$impl$u20$$BP$mut$u20$T$GT$7is_null17he5b0d328e93c8b69E"(ptr %_37) #3
  br i1 %_36, label %bb23, label %bb24

panic11:                                          ; preds = %bb40
; call core::panicking::panic_null_pointer_dereference
  call void @_ZN4core9panicking30panic_null_pointer_dereference17hf718fcc86a223baaE(ptr align 8 @alloc_7a6aa5e748561012b828962ef4771746) #4
  unreachable

bb24:                                             ; preds = %bb95
  %_99 = load ptr, ptr %max, align 8
  %_100 = ptrtoint ptr %_99 to i64
  %_103 = and i64 %_100, 7
  %_104 = icmp eq i64 %_103, 0
  br i1 %_104, label %bb34, label %panic12

bb23:                                             ; preds = %bb95
  %_129 = load ptr, ptr %current, align 8
  %_130 = ptrtoint ptr %_129 to i64
  %_133 = and i64 %_130, 7
  %_134 = icmp eq i64 %_133, 0
  br i1 %_134, label %bb39, label %panic22

bb34:                                             ; preds = %bb24
  %_534 = load ptr, ptr %max, align 8
  %_535 = ptrtoint ptr %_534 to i64
  %_538 = icmp eq i64 %_535, 0
  %_539 = and i1 %_538, true
  %_540 = xor i1 %_539, true
  br i1 %_540, label %bb101, label %panic13

panic12:                                          ; preds = %bb24
; call core::panicking::panic_misaligned_pointer_dereference
  call void @_ZN4core9panicking36panic_misaligned_pointer_dereference17hcc3cbded9382b6e5E(i64 8, i64 %_100, ptr align 8 @alloc_d797bc8b14ce46044cf254a9aee59e13) #4
  unreachable

bb101:                                            ; preds = %bb34
  %10 = load ptr, ptr %max, align 8
  %11 = getelementptr inbounds i8, ptr %10, i64 16
  %_41 = load ptr, ptr %11, align 8
  store ptr %_41, ptr %temp, align 8
  %12 = load ptr, ptr %max, align 8
  %13 = getelementptr inbounds i8, ptr %12, i64 16
  %_55 = load ptr, ptr %13, align 8
  %_94 = ptrtoint ptr %_55 to i64
  %_97 = and i64 %_94, 7
  %_98 = icmp eq i64 %_97, 0
  br i1 %_98, label %bb33, label %panic14

panic13:                                          ; preds = %bb34
; call core::panicking::panic_null_pointer_dereference
  call void @_ZN4core9panicking30panic_null_pointer_dereference17hf718fcc86a223baaE(ptr align 8 @alloc_d797bc8b14ce46044cf254a9aee59e13) #4
  unreachable

bb33:                                             ; preds = %bb101
  %_542 = ptrtoint ptr %_55 to i64
  %_545 = icmp eq i64 %_542, 0
  %_546 = and i1 %_545, true
  %_547 = xor i1 %_546, true
  br i1 %_547, label %bb102, label %panic15

panic14:                                          ; preds = %bb101
; call core::panicking::panic_misaligned_pointer_dereference
  call void @_ZN4core9panicking36panic_misaligned_pointer_dereference17hcc3cbded9382b6e5E(i64 8, i64 %_94, ptr align 8 @alloc_ba5aabc91ede404fc68adbb15aa6b293) #4
  unreachable

bb102:                                            ; preds = %bb33
  %_42 = load i32, ptr %_55, align 8
  %_87 = load ptr, ptr %current, align 8
  %_88 = ptrtoint ptr %_87 to i64
  %_91 = and i64 %_88, 7
  %_92 = icmp eq i64 %_91, 0
  br i1 %_92, label %bb32, label %panic16

panic15:                                          ; preds = %bb33
; call core::panicking::panic_null_pointer_dereference
  call void @_ZN4core9panicking30panic_null_pointer_dereference17hf718fcc86a223baaE(ptr align 8 @alloc_ba5aabc91ede404fc68adbb15aa6b293) #4
  unreachable

bb32:                                             ; preds = %bb102
  %_548 = load ptr, ptr %current, align 8
  %_549 = ptrtoint ptr %_548 to i64
  %_552 = icmp eq i64 %_549, 0
  %_553 = and i1 %_552, true
  %_554 = xor i1 %_553, true
  br i1 %_554, label %bb103, label %panic17

panic16:                                          ; preds = %bb102
; call core::panicking::panic_misaligned_pointer_dereference
  call void @_ZN4core9panicking36panic_misaligned_pointer_dereference17hcc3cbded9382b6e5E(i64 8, i64 %_88, ptr align 8 @alloc_f94c6ad03cda90ca8d3132bf9b647a97) #4
  unreachable

bb103:                                            ; preds = %bb32
  %14 = load ptr, ptr %current, align 8
  store i32 %_42, ptr %14, align 8
  %15 = load ptr, ptr %max, align 8
  %16 = getelementptr inbounds i8, ptr %15, i64 16
  %_56 = load ptr, ptr %16, align 8
  %_82 = ptrtoint ptr %_56 to i64
  %_85 = and i64 %_82, 7
  %_86 = icmp eq i64 %_85, 0
  br i1 %_86, label %bb31, label %panic18

panic17:                                          ; preds = %bb32
; call core::panicking::panic_null_pointer_dereference
  call void @_ZN4core9panicking30panic_null_pointer_dereference17hf718fcc86a223baaE(ptr align 8 @alloc_f94c6ad03cda90ca8d3132bf9b647a97) #4
  unreachable

bb31:                                             ; preds = %bb103
  %_556 = ptrtoint ptr %_56 to i64
  %_559 = icmp eq i64 %_556, 0
  %_560 = and i1 %_559, true
  %_561 = xor i1 %_560, true
  br i1 %_561, label %bb104, label %panic19

panic18:                                          ; preds = %bb103
; call core::panicking::panic_misaligned_pointer_dereference
  call void @_ZN4core9panicking36panic_misaligned_pointer_dereference17hcc3cbded9382b6e5E(i64 8, i64 %_82, ptr align 8 @alloc_d383e4cbbf9aae58b81f790acdfa7d6b) #4
  unreachable

bb104:                                            ; preds = %bb31
  %17 = getelementptr inbounds i8, ptr %_56, i64 8
  %_43 = load ptr, ptr %17, align 8
  %_75 = load ptr, ptr %max, align 8
  %_76 = ptrtoint ptr %_75 to i64
  %_79 = and i64 %_76, 7
  %_80 = icmp eq i64 %_79, 0
  br i1 %_80, label %bb30, label %panic20

panic19:                                          ; preds = %bb31
; call core::panicking::panic_null_pointer_dereference
  call void @_ZN4core9panicking30panic_null_pointer_dereference17hf718fcc86a223baaE(ptr align 8 @alloc_d383e4cbbf9aae58b81f790acdfa7d6b) #4
  unreachable

bb30:                                             ; preds = %bb104
  %_562 = load ptr, ptr %max, align 8
  %_563 = ptrtoint ptr %_562 to i64
  %_566 = icmp eq i64 %_563, 0
  %_567 = and i1 %_566, true
  %_568 = xor i1 %_567, true
  br i1 %_568, label %bb105, label %panic21

panic20:                                          ; preds = %bb104
; call core::panicking::panic_misaligned_pointer_dereference
  call void @_ZN4core9panicking36panic_misaligned_pointer_dereference17hcc3cbded9382b6e5E(i64 8, i64 %_76, ptr align 8 @alloc_21418124f17c57c31f7006a530591092) #4
  unreachable

bb105:                                            ; preds = %bb30
  %18 = load ptr, ptr %max, align 8
  %19 = getelementptr inbounds i8, ptr %18, i64 16
  store ptr %_43, ptr %19, align 8
  br label %bb25

panic21:                                          ; preds = %bb30
; call core::panicking::panic_null_pointer_dereference
  call void @_ZN4core9panicking30panic_null_pointer_dereference17hf718fcc86a223baaE(ptr align 8 @alloc_21418124f17c57c31f7006a530591092) #4
  unreachable

bb25:                                             ; preds = %bb70, %bb76, %bb78, %bb86, %bb94, %bb100, %bb105
  %_46 = load ptr, ptr %temp, align 8
  call void @free(ptr %_46) #3
  %_70 = ptrtoint ptr %bst to i64
  %_73 = and i64 %_70, 7
  %_74 = icmp eq i64 %_73, 0
  br i1 %_74, label %bb29, label %panic76

bb39:                                             ; preds = %bb23
  %_499 = load ptr, ptr %current, align 8
  %_500 = ptrtoint ptr %_499 to i64
  %_503 = icmp eq i64 %_500, 0
  %_504 = and i1 %_503, true
  %_505 = xor i1 %_504, true
  br i1 %_505, label %bb96, label %panic23

panic22:                                          ; preds = %bb23
; call core::panicking::panic_misaligned_pointer_dereference
  call void @_ZN4core9panicking36panic_misaligned_pointer_dereference17hcc3cbded9382b6e5E(i64 8, i64 %_130, ptr align 8 @alloc_02fc3f8657657a692896d90dd59b87eb) #4
  unreachable

bb96:                                             ; preds = %bb39
  %20 = load ptr, ptr %current, align 8
  %21 = getelementptr inbounds i8, ptr %20, i64 8
  %_38 = load ptr, ptr %21, align 8
  store ptr %_38, ptr %temp, align 8
  %22 = load ptr, ptr %current, align 8
  %23 = getelementptr inbounds i8, ptr %22, i64 8
  %_53 = load ptr, ptr %23, align 8
  %_124 = ptrtoint ptr %_53 to i64
  %_127 = and i64 %_124, 7
  %_128 = icmp eq i64 %_127, 0
  br i1 %_128, label %bb38, label %panic24

panic23:                                          ; preds = %bb39
; call core::panicking::panic_null_pointer_dereference
  call void @_ZN4core9panicking30panic_null_pointer_dereference17hf718fcc86a223baaE(ptr align 8 @alloc_02fc3f8657657a692896d90dd59b87eb) #4
  unreachable

bb38:                                             ; preds = %bb96
  %_507 = ptrtoint ptr %_53 to i64
  %_510 = icmp eq i64 %_507, 0
  %_511 = and i1 %_510, true
  %_512 = xor i1 %_511, true
  br i1 %_512, label %bb97, label %panic25

panic24:                                          ; preds = %bb96
; call core::panicking::panic_misaligned_pointer_dereference
  call void @_ZN4core9panicking36panic_misaligned_pointer_dereference17hcc3cbded9382b6e5E(i64 8, i64 %_124, ptr align 8 @alloc_99eab7859fac721fbc007ee44ac3eb83) #4
  unreachable

bb97:                                             ; preds = %bb38
  %_39 = load i32, ptr %_53, align 8
  %_117 = load ptr, ptr %current, align 8
  %_118 = ptrtoint ptr %_117 to i64
  %_121 = and i64 %_118, 7
  %_122 = icmp eq i64 %_121, 0
  br i1 %_122, label %bb37, label %panic26

panic25:                                          ; preds = %bb38
; call core::panicking::panic_null_pointer_dereference
  call void @_ZN4core9panicking30panic_null_pointer_dereference17hf718fcc86a223baaE(ptr align 8 @alloc_99eab7859fac721fbc007ee44ac3eb83) #4
  unreachable

bb37:                                             ; preds = %bb97
  %_513 = load ptr, ptr %current, align 8
  %_514 = ptrtoint ptr %_513 to i64
  %_517 = icmp eq i64 %_514, 0
  %_518 = and i1 %_517, true
  %_519 = xor i1 %_518, true
  br i1 %_519, label %bb98, label %panic27

panic26:                                          ; preds = %bb97
; call core::panicking::panic_misaligned_pointer_dereference
  call void @_ZN4core9panicking36panic_misaligned_pointer_dereference17hcc3cbded9382b6e5E(i64 8, i64 %_118, ptr align 8 @alloc_0893aea5e226fe2dcc19e3d5d56c1e20) #4
  unreachable

bb98:                                             ; preds = %bb37
  %24 = load ptr, ptr %current, align 8
  store i32 %_39, ptr %24, align 8
  %25 = load ptr, ptr %current, align 8
  %26 = getelementptr inbounds i8, ptr %25, i64 8
  %_54 = load ptr, ptr %26, align 8
  %_112 = ptrtoint ptr %_54 to i64
  %_115 = and i64 %_112, 7
  %_116 = icmp eq i64 %_115, 0
  br i1 %_116, label %bb36, label %panic28

panic27:                                          ; preds = %bb37
; call core::panicking::panic_null_pointer_dereference
  call void @_ZN4core9panicking30panic_null_pointer_dereference17hf718fcc86a223baaE(ptr align 8 @alloc_0893aea5e226fe2dcc19e3d5d56c1e20) #4
  unreachable

bb36:                                             ; preds = %bb98
  %_521 = ptrtoint ptr %_54 to i64
  %_524 = icmp eq i64 %_521, 0
  %_525 = and i1 %_524, true
  %_526 = xor i1 %_525, true
  br i1 %_526, label %bb99, label %panic29

panic28:                                          ; preds = %bb98
; call core::panicking::panic_misaligned_pointer_dereference
  call void @_ZN4core9panicking36panic_misaligned_pointer_dereference17hcc3cbded9382b6e5E(i64 8, i64 %_112, ptr align 8 @alloc_ed0a76febb182cdd1f23e4d49ed7b0f1) #4
  unreachable

bb99:                                             ; preds = %bb36
  %27 = getelementptr inbounds i8, ptr %_54, i64 8
  %_40 = load ptr, ptr %27, align 8
  %_105 = load ptr, ptr %current, align 8
  %_106 = ptrtoint ptr %_105 to i64
  %_109 = and i64 %_106, 7
  %_110 = icmp eq i64 %_109, 0
  br i1 %_110, label %bb35, label %panic30

panic29:                                          ; preds = %bb36
; call core::panicking::panic_null_pointer_dereference
  call void @_ZN4core9panicking30panic_null_pointer_dereference17hf718fcc86a223baaE(ptr align 8 @alloc_ed0a76febb182cdd1f23e4d49ed7b0f1) #4
  unreachable

bb35:                                             ; preds = %bb99
  %_527 = load ptr, ptr %current, align 8
  %_528 = ptrtoint ptr %_527 to i64
  %_531 = icmp eq i64 %_528, 0
  %_532 = and i1 %_531, true
  %_533 = xor i1 %_532, true
  br i1 %_533, label %bb100, label %panic31

panic30:                                          ; preds = %bb99
; call core::panicking::panic_misaligned_pointer_dereference
  call void @_ZN4core9panicking36panic_misaligned_pointer_dereference17hcc3cbded9382b6e5E(i64 8, i64 %_106, ptr align 8 @alloc_c72296287cc4cb452b3d3b63defe28e5) #4
  unreachable

bb100:                                            ; preds = %bb35
  %28 = load ptr, ptr %current, align 8
  %29 = getelementptr inbounds i8, ptr %28, i64 8
  store ptr %_40, ptr %29, align 8
  br label %bb25

panic31:                                          ; preds = %bb35
; call core::panicking::panic_null_pointer_dereference
  call void @_ZN4core9panicking30panic_null_pointer_dereference17hf718fcc86a223baaE(ptr align 8 @alloc_c72296287cc4cb452b3d3b63defe28e5) #4
  unreachable

bb47:                                             ; preds = %bb19
  %_443 = load ptr, ptr %current, align 8
  %_444 = ptrtoint ptr %_443 to i64
  %_447 = icmp eq i64 %_444, 0
  %_448 = and i1 %_447, true
  %_449 = xor i1 %_448, true
  br i1 %_449, label %bb88, label %panic33

panic32:                                          ; preds = %bb19
; call core::panicking::panic_misaligned_pointer_dereference
  call void @_ZN4core9panicking36panic_misaligned_pointer_dereference17hcc3cbded9382b6e5E(i64 8, i64 %_178, ptr align 8 @alloc_16578b450f209e0a8ceec1964cb38c84) #4
  unreachable

bb88:                                             ; preds = %bb47
  %30 = load ptr, ptr %current, align 8
  %31 = getelementptr inbounds i8, ptr %30, i64 8
  %_30 = load ptr, ptr %31, align 8
  store ptr %_30, ptr %temp, align 8
  %32 = load ptr, ptr %current, align 8
  %33 = getelementptr inbounds i8, ptr %32, i64 8
  %_50 = load ptr, ptr %33, align 8
  %_172 = ptrtoint ptr %_50 to i64
  %_175 = and i64 %_172, 7
  %_176 = icmp eq i64 %_175, 0
  br i1 %_176, label %bb46, label %panic34

panic33:                                          ; preds = %bb47
; call core::panicking::panic_null_pointer_dereference
  call void @_ZN4core9panicking30panic_null_pointer_dereference17hf718fcc86a223baaE(ptr align 8 @alloc_16578b450f209e0a8ceec1964cb38c84) #4
  unreachable

bb46:                                             ; preds = %bb88
  %_451 = ptrtoint ptr %_50 to i64
  %_454 = icmp eq i64 %_451, 0
  %_455 = and i1 %_454, true
  %_456 = xor i1 %_455, true
  br i1 %_456, label %bb89, label %panic35

panic34:                                          ; preds = %bb88
; call core::panicking::panic_misaligned_pointer_dereference
  call void @_ZN4core9panicking36panic_misaligned_pointer_dereference17hcc3cbded9382b6e5E(i64 8, i64 %_172, ptr align 8 @alloc_268527d69417a0a855fc749a27d86f88) #4
  unreachable

bb89:                                             ; preds = %bb46
  %_31 = load i32, ptr %_50, align 8
  %_165 = load ptr, ptr %current, align 8
  %_166 = ptrtoint ptr %_165 to i64
  %_169 = and i64 %_166, 7
  %_170 = icmp eq i64 %_169, 0
  br i1 %_170, label %bb45, label %panic36

panic35:                                          ; preds = %bb46
; call core::panicking::panic_null_pointer_dereference
  call void @_ZN4core9panicking30panic_null_pointer_dereference17hf718fcc86a223baaE(ptr align 8 @alloc_268527d69417a0a855fc749a27d86f88) #4
  unreachable

bb45:                                             ; preds = %bb89
  %_457 = load ptr, ptr %current, align 8
  %_458 = ptrtoint ptr %_457 to i64
  %_461 = icmp eq i64 %_458, 0
  %_462 = and i1 %_461, true
  %_463 = xor i1 %_462, true
  br i1 %_463, label %bb90, label %panic37

panic36:                                          ; preds = %bb89
; call core::panicking::panic_misaligned_pointer_dereference
  call void @_ZN4core9panicking36panic_misaligned_pointer_dereference17hcc3cbded9382b6e5E(i64 8, i64 %_166, ptr align 8 @alloc_0a46e4c4b57d7d0348e4d3e2fbb0ba8b) #4
  unreachable

bb90:                                             ; preds = %bb45
  %34 = load ptr, ptr %current, align 8
  store i32 %_31, ptr %34, align 8
  %35 = load ptr, ptr %current, align 8
  %36 = getelementptr inbounds i8, ptr %35, i64 8
  %_51 = load ptr, ptr %36, align 8
  %_160 = ptrtoint ptr %_51 to i64
  %_163 = and i64 %_160, 7
  %_164 = icmp eq i64 %_163, 0
  br i1 %_164, label %bb44, label %panic38

panic37:                                          ; preds = %bb45
; call core::panicking::panic_null_pointer_dereference
  call void @_ZN4core9panicking30panic_null_pointer_dereference17hf718fcc86a223baaE(ptr align 8 @alloc_0a46e4c4b57d7d0348e4d3e2fbb0ba8b) #4
  unreachable

bb44:                                             ; preds = %bb90
  %_465 = ptrtoint ptr %_51 to i64
  %_468 = icmp eq i64 %_465, 0
  %_469 = and i1 %_468, true
  %_470 = xor i1 %_469, true
  br i1 %_470, label %bb91, label %panic39

panic38:                                          ; preds = %bb90
; call core::panicking::panic_misaligned_pointer_dereference
  call void @_ZN4core9panicking36panic_misaligned_pointer_dereference17hcc3cbded9382b6e5E(i64 8, i64 %_160, ptr align 8 @alloc_d05c79d19ebc3e8baf0b70b1b7baa4c0) #4
  unreachable

bb91:                                             ; preds = %bb44
  %37 = getelementptr inbounds i8, ptr %_51, i64 8
  %_32 = load ptr, ptr %37, align 8
  %_153 = load ptr, ptr %current, align 8
  %_154 = ptrtoint ptr %_153 to i64
  %_157 = and i64 %_154, 7
  %_158 = icmp eq i64 %_157, 0
  br i1 %_158, label %bb43, label %panic40

panic39:                                          ; preds = %bb44
; call core::panicking::panic_null_pointer_dereference
  call void @_ZN4core9panicking30panic_null_pointer_dereference17hf718fcc86a223baaE(ptr align 8 @alloc_d05c79d19ebc3e8baf0b70b1b7baa4c0) #4
  unreachable

bb43:                                             ; preds = %bb91
  %_471 = load ptr, ptr %current, align 8
  %_472 = ptrtoint ptr %_471 to i64
  %_475 = icmp eq i64 %_472, 0
  %_476 = and i1 %_475, true
  %_477 = xor i1 %_476, true
  br i1 %_477, label %bb92, label %panic41

panic40:                                          ; preds = %bb91
; call core::panicking::panic_misaligned_pointer_dereference
  call void @_ZN4core9panicking36panic_misaligned_pointer_dereference17hcc3cbded9382b6e5E(i64 8, i64 %_154, ptr align 8 @alloc_e31e5a586f4f7e29755cd30ae2a86c49) #4
  unreachable

bb92:                                             ; preds = %bb43
  %38 = load ptr, ptr %current, align 8
  %39 = getelementptr inbounds i8, ptr %38, i64 8
  store ptr %_32, ptr %39, align 8
  %40 = load ptr, ptr %current, align 8
  %41 = getelementptr inbounds i8, ptr %40, i64 8
  %_52 = load ptr, ptr %41, align 8
  %_148 = ptrtoint ptr %_52 to i64
  %_151 = and i64 %_148, 7
  %_152 = icmp eq i64 %_151, 0
  br i1 %_152, label %bb42, label %panic42

panic41:                                          ; preds = %bb43
; call core::panicking::panic_null_pointer_dereference
  call void @_ZN4core9panicking30panic_null_pointer_dereference17hf718fcc86a223baaE(ptr align 8 @alloc_e31e5a586f4f7e29755cd30ae2a86c49) #4
  unreachable

bb42:                                             ; preds = %bb92
  %_479 = ptrtoint ptr %_52 to i64
  %_482 = icmp eq i64 %_479, 0
  %_483 = and i1 %_482, true
  %_484 = xor i1 %_483, true
  br i1 %_484, label %bb93, label %panic43

panic42:                                          ; preds = %bb92
; call core::panicking::panic_misaligned_pointer_dereference
  call void @_ZN4core9panicking36panic_misaligned_pointer_dereference17hcc3cbded9382b6e5E(i64 8, i64 %_148, ptr align 8 @alloc_2916458ad85b28b30131ee3c93f8d0cc) #4
  unreachable

bb93:                                             ; preds = %bb42
  %42 = getelementptr inbounds i8, ptr %_52, i64 16
  %_33 = load ptr, ptr %42, align 8
  %_141 = load ptr, ptr %current, align 8
  %_142 = ptrtoint ptr %_141 to i64
  %_145 = and i64 %_142, 7
  %_146 = icmp eq i64 %_145, 0
  br i1 %_146, label %bb41, label %panic44

panic43:                                          ; preds = %bb42
; call core::panicking::panic_null_pointer_dereference
  call void @_ZN4core9panicking30panic_null_pointer_dereference17hf718fcc86a223baaE(ptr align 8 @alloc_2916458ad85b28b30131ee3c93f8d0cc) #4
  unreachable

bb41:                                             ; preds = %bb93
  %_485 = load ptr, ptr %current, align 8
  %_486 = ptrtoint ptr %_485 to i64
  %_489 = icmp eq i64 %_486, 0
  %_490 = and i1 %_489, true
  %_491 = xor i1 %_490, true
  br i1 %_491, label %bb94, label %panic45

panic44:                                          ; preds = %bb93
; call core::panicking::panic_misaligned_pointer_dereference
  call void @_ZN4core9panicking36panic_misaligned_pointer_dereference17hcc3cbded9382b6e5E(i64 8, i64 %_142, ptr align 8 @alloc_b3cab4fe65c4b5a1e0fdc96acce1913e) #4
  unreachable

bb94:                                             ; preds = %bb41
  %43 = load ptr, ptr %current, align 8
  %44 = getelementptr inbounds i8, ptr %43, i64 16
  store ptr %_33, ptr %44, align 8
  br label %bb25

panic45:                                          ; preds = %bb41
; call core::panicking::panic_null_pointer_dereference
  call void @_ZN4core9panicking30panic_null_pointer_dereference17hf718fcc86a223baaE(ptr align 8 @alloc_b3cab4fe65c4b5a1e0fdc96acce1913e) #4
  unreachable

bb55:                                             ; preds = %bb16
  %_387 = load ptr, ptr %current, align 8
  %_388 = ptrtoint ptr %_387 to i64
  %_391 = icmp eq i64 %_388, 0
  %_392 = and i1 %_391, true
  %_393 = xor i1 %_392, true
  br i1 %_393, label %bb80, label %panic47

panic46:                                          ; preds = %bb16
; call core::panicking::panic_misaligned_pointer_dereference
  call void @_ZN4core9panicking36panic_misaligned_pointer_dereference17hcc3cbded9382b6e5E(i64 8, i64 %_226, ptr align 8 @alloc_2ff733cc2a2a43d2d0fea2462fabe0b5) #4
  unreachable

bb80:                                             ; preds = %bb55
  %45 = load ptr, ptr %current, align 8
  %46 = getelementptr inbounds i8, ptr %45, i64 16
  %_24 = load ptr, ptr %46, align 8
  store ptr %_24, ptr %temp, align 8
  %47 = load ptr, ptr %current, align 8
  %48 = getelementptr inbounds i8, ptr %47, i64 16
  %_47 = load ptr, ptr %48, align 8
  %_220 = ptrtoint ptr %_47 to i64
  %_223 = and i64 %_220, 7
  %_224 = icmp eq i64 %_223, 0
  br i1 %_224, label %bb54, label %panic48

panic47:                                          ; preds = %bb55
; call core::panicking::panic_null_pointer_dereference
  call void @_ZN4core9panicking30panic_null_pointer_dereference17hf718fcc86a223baaE(ptr align 8 @alloc_2ff733cc2a2a43d2d0fea2462fabe0b5) #4
  unreachable

bb54:                                             ; preds = %bb80
  %_395 = ptrtoint ptr %_47 to i64
  %_398 = icmp eq i64 %_395, 0
  %_399 = and i1 %_398, true
  %_400 = xor i1 %_399, true
  br i1 %_400, label %bb81, label %panic49

panic48:                                          ; preds = %bb80
; call core::panicking::panic_misaligned_pointer_dereference
  call void @_ZN4core9panicking36panic_misaligned_pointer_dereference17hcc3cbded9382b6e5E(i64 8, i64 %_220, ptr align 8 @alloc_c1c6fce3d4dc7f79cfba47ca7cb940d9) #4
  unreachable

bb81:                                             ; preds = %bb54
  %_25 = load i32, ptr %_47, align 8
  %_213 = load ptr, ptr %current, align 8
  %_214 = ptrtoint ptr %_213 to i64
  %_217 = and i64 %_214, 7
  %_218 = icmp eq i64 %_217, 0
  br i1 %_218, label %bb53, label %panic50

panic49:                                          ; preds = %bb54
; call core::panicking::panic_null_pointer_dereference
  call void @_ZN4core9panicking30panic_null_pointer_dereference17hf718fcc86a223baaE(ptr align 8 @alloc_c1c6fce3d4dc7f79cfba47ca7cb940d9) #4
  unreachable

bb53:                                             ; preds = %bb81
  %_401 = load ptr, ptr %current, align 8
  %_402 = ptrtoint ptr %_401 to i64
  %_405 = icmp eq i64 %_402, 0
  %_406 = and i1 %_405, true
  %_407 = xor i1 %_406, true
  br i1 %_407, label %bb82, label %panic51

panic50:                                          ; preds = %bb81
; call core::panicking::panic_misaligned_pointer_dereference
  call void @_ZN4core9panicking36panic_misaligned_pointer_dereference17hcc3cbded9382b6e5E(i64 8, i64 %_214, ptr align 8 @alloc_7fed4a1089f77536642fd43c2a992067) #4
  unreachable

bb82:                                             ; preds = %bb53
  %49 = load ptr, ptr %current, align 8
  store i32 %_25, ptr %49, align 8
  %50 = load ptr, ptr %current, align 8
  %51 = getelementptr inbounds i8, ptr %50, i64 16
  %_48 = load ptr, ptr %51, align 8
  %_208 = ptrtoint ptr %_48 to i64
  %_211 = and i64 %_208, 7
  %_212 = icmp eq i64 %_211, 0
  br i1 %_212, label %bb52, label %panic52

panic51:                                          ; preds = %bb53
; call core::panicking::panic_null_pointer_dereference
  call void @_ZN4core9panicking30panic_null_pointer_dereference17hf718fcc86a223baaE(ptr align 8 @alloc_7fed4a1089f77536642fd43c2a992067) #4
  unreachable

bb52:                                             ; preds = %bb82
  %_409 = ptrtoint ptr %_48 to i64
  %_412 = icmp eq i64 %_409, 0
  %_413 = and i1 %_412, true
  %_414 = xor i1 %_413, true
  br i1 %_414, label %bb83, label %panic53

panic52:                                          ; preds = %bb82
; call core::panicking::panic_misaligned_pointer_dereference
  call void @_ZN4core9panicking36panic_misaligned_pointer_dereference17hcc3cbded9382b6e5E(i64 8, i64 %_208, ptr align 8 @alloc_d4482e336dc380ab6f4e172973421c4d) #4
  unreachable

bb83:                                             ; preds = %bb52
  %52 = getelementptr inbounds i8, ptr %_48, i64 8
  %_26 = load ptr, ptr %52, align 8
  %_201 = load ptr, ptr %current, align 8
  %_202 = ptrtoint ptr %_201 to i64
  %_205 = and i64 %_202, 7
  %_206 = icmp eq i64 %_205, 0
  br i1 %_206, label %bb51, label %panic54

panic53:                                          ; preds = %bb52
; call core::panicking::panic_null_pointer_dereference
  call void @_ZN4core9panicking30panic_null_pointer_dereference17hf718fcc86a223baaE(ptr align 8 @alloc_d4482e336dc380ab6f4e172973421c4d) #4
  unreachable

bb51:                                             ; preds = %bb83
  %_415 = load ptr, ptr %current, align 8
  %_416 = ptrtoint ptr %_415 to i64
  %_419 = icmp eq i64 %_416, 0
  %_420 = and i1 %_419, true
  %_421 = xor i1 %_420, true
  br i1 %_421, label %bb84, label %panic55

panic54:                                          ; preds = %bb83
; call core::panicking::panic_misaligned_pointer_dereference
  call void @_ZN4core9panicking36panic_misaligned_pointer_dereference17hcc3cbded9382b6e5E(i64 8, i64 %_202, ptr align 8 @alloc_9b55ecc9b8b32794fadf225c74bfc5f4) #4
  unreachable

bb84:                                             ; preds = %bb51
  %53 = load ptr, ptr %current, align 8
  %54 = getelementptr inbounds i8, ptr %53, i64 8
  store ptr %_26, ptr %54, align 8
  %55 = load ptr, ptr %current, align 8
  %56 = getelementptr inbounds i8, ptr %55, i64 16
  %_49 = load ptr, ptr %56, align 8
  %_196 = ptrtoint ptr %_49 to i64
  %_199 = and i64 %_196, 7
  %_200 = icmp eq i64 %_199, 0
  br i1 %_200, label %bb50, label %panic56

panic55:                                          ; preds = %bb51
; call core::panicking::panic_null_pointer_dereference
  call void @_ZN4core9panicking30panic_null_pointer_dereference17hf718fcc86a223baaE(ptr align 8 @alloc_9b55ecc9b8b32794fadf225c74bfc5f4) #4
  unreachable

bb50:                                             ; preds = %bb84
  %_423 = ptrtoint ptr %_49 to i64
  %_426 = icmp eq i64 %_423, 0
  %_427 = and i1 %_426, true
  %_428 = xor i1 %_427, true
  br i1 %_428, label %bb85, label %panic57

panic56:                                          ; preds = %bb84
; call core::panicking::panic_misaligned_pointer_dereference
  call void @_ZN4core9panicking36panic_misaligned_pointer_dereference17hcc3cbded9382b6e5E(i64 8, i64 %_196, ptr align 8 @alloc_8cafc3a2b1e1a251a7e2ced1cb33509e) #4
  unreachable

bb85:                                             ; preds = %bb50
  %57 = getelementptr inbounds i8, ptr %_49, i64 16
  %_27 = load ptr, ptr %57, align 8
  %_189 = load ptr, ptr %current, align 8
  %_190 = ptrtoint ptr %_189 to i64
  %_193 = and i64 %_190, 7
  %_194 = icmp eq i64 %_193, 0
  br i1 %_194, label %bb49, label %panic58

panic57:                                          ; preds = %bb50
; call core::panicking::panic_null_pointer_dereference
  call void @_ZN4core9panicking30panic_null_pointer_dereference17hf718fcc86a223baaE(ptr align 8 @alloc_8cafc3a2b1e1a251a7e2ced1cb33509e) #4
  unreachable

bb49:                                             ; preds = %bb85
  %_429 = load ptr, ptr %current, align 8
  %_430 = ptrtoint ptr %_429 to i64
  %_433 = icmp eq i64 %_430, 0
  %_434 = and i1 %_433, true
  %_435 = xor i1 %_434, true
  br i1 %_435, label %bb86, label %panic59

panic58:                                          ; preds = %bb85
; call core::panicking::panic_misaligned_pointer_dereference
  call void @_ZN4core9panicking36panic_misaligned_pointer_dereference17hcc3cbded9382b6e5E(i64 8, i64 %_190, ptr align 8 @alloc_5f7af6f0b30d25daf9912bab84da9bdc) #4
  unreachable

bb86:                                             ; preds = %bb49
  %58 = load ptr, ptr %current, align 8
  %59 = getelementptr inbounds i8, ptr %58, i64 16
  store ptr %_27, ptr %59, align 8
  br label %bb25

panic59:                                          ; preds = %bb49
; call core::panicking::panic_null_pointer_dereference
  call void @_ZN4core9panicking30panic_null_pointer_dereference17hf718fcc86a223baaE(ptr align 8 @alloc_5f7af6f0b30d25daf9912bab84da9bdc) #4
  unreachable

bb62:                                             ; preds = %bb11
  %_338 = load ptr, ptr %current, align 8
  %_339 = ptrtoint ptr %_338 to i64
  %_342 = icmp eq i64 %_339, 0
  %_343 = and i1 %_342, true
  %_344 = xor i1 %_343, true
  br i1 %_344, label %bb73, label %panic61

panic60:                                          ; preds = %bb11
; call core::panicking::panic_misaligned_pointer_dereference
  call void @_ZN4core9panicking36panic_misaligned_pointer_dereference17hcc3cbded9382b6e5E(i64 8, i64 %_268, ptr align 8 @alloc_b6e752db4cb221efde049d5dc47995f8) #4
  unreachable

bb73:                                             ; preds = %bb62
  %60 = load ptr, ptr %current, align 8
  %_18 = load i32, ptr %60, align 8
  %_262 = ptrtoint ptr %parent to i64
  %_265 = and i64 %_262, 7
  %_266 = icmp eq i64 %_265, 0
  br i1 %_266, label %bb61, label %panic62

panic61:                                          ; preds = %bb62
; call core::panicking::panic_null_pointer_dereference
  call void @_ZN4core9panicking30panic_null_pointer_dereference17hf718fcc86a223baaE(ptr align 8 @alloc_b6e752db4cb221efde049d5dc47995f8) #4
  unreachable

bb61:                                             ; preds = %bb73
  %_346 = ptrtoint ptr %parent to i64
  %_349 = icmp eq i64 %_346, 0
  %_350 = and i1 %_349, true
  %_351 = xor i1 %_350, true
  br i1 %_351, label %bb74, label %panic63

panic62:                                          ; preds = %bb73
; call core::panicking::panic_misaligned_pointer_dereference
  call void @_ZN4core9panicking36panic_misaligned_pointer_dereference17hcc3cbded9382b6e5E(i64 8, i64 %_262, ptr align 8 @alloc_fa6529c79b87b141c880809d54f01654) #4
  unreachable

bb74:                                             ; preds = %bb61
  %_19 = load i32, ptr %parent, align 8
  %_17 = icmp slt i32 %_18, %_19
  br i1 %_17, label %bb12, label %bb13

panic63:                                          ; preds = %bb61
; call core::panicking::panic_null_pointer_dereference
  call void @_ZN4core9panicking30panic_null_pointer_dereference17hf718fcc86a223baaE(ptr align 8 @alloc_fa6529c79b87b141c880809d54f01654) #4
  unreachable

bb13:                                             ; preds = %bb74
  %_244 = ptrtoint ptr %parent to i64
  %_247 = and i64 %_244, 7
  %_248 = icmp eq i64 %_247, 0
  br i1 %_248, label %bb58, label %panic64

bb12:                                             ; preds = %bb74
  %_256 = ptrtoint ptr %parent to i64
  %_259 = and i64 %_256, 7
  %_260 = icmp eq i64 %_259, 0
  br i1 %_260, label %bb60, label %panic68

bb58:                                             ; preds = %bb13
  %_367 = ptrtoint ptr %parent to i64
  %_370 = icmp eq i64 %_367, 0
  %_371 = and i1 %_370, true
  %_372 = xor i1 %_371, true
  br i1 %_372, label %bb77, label %panic65

panic64:                                          ; preds = %bb13
; call core::panicking::panic_misaligned_pointer_dereference
  call void @_ZN4core9panicking36panic_misaligned_pointer_dereference17hcc3cbded9382b6e5E(i64 8, i64 %_244, ptr align 8 @alloc_823d7e87cceb86c7b83114219263a293) #4
  unreachable

bb77:                                             ; preds = %bb58
  %61 = getelementptr inbounds i8, ptr %parent, i64 16
  %_21 = load ptr, ptr %61, align 8
  store ptr %_21, ptr %temp, align 8
  %_238 = ptrtoint ptr %parent to i64
  %_241 = and i64 %_238, 7
  %_242 = icmp eq i64 %_241, 0
  br i1 %_242, label %bb57, label %panic66

panic65:                                          ; preds = %bb58
; call core::panicking::panic_null_pointer_dereference
  call void @_ZN4core9panicking30panic_null_pointer_dereference17hf718fcc86a223baaE(ptr align 8 @alloc_823d7e87cceb86c7b83114219263a293) #4
  unreachable

bb57:                                             ; preds = %bb77
  %_374 = ptrtoint ptr %parent to i64
  %_377 = icmp eq i64 %_374, 0
  %_378 = and i1 %_377, true
  %_379 = xor i1 %_378, true
  br i1 %_379, label %bb78, label %panic67

panic66:                                          ; preds = %bb77
; call core::panicking::panic_misaligned_pointer_dereference
  call void @_ZN4core9panicking36panic_misaligned_pointer_dereference17hcc3cbded9382b6e5E(i64 8, i64 %_238, ptr align 8 @alloc_5b2af695ee4d260ec5d60c7976a90afb) #4
  unreachable

bb78:                                             ; preds = %bb57
  %62 = getelementptr inbounds i8, ptr %parent, i64 16
  store ptr null, ptr %62, align 8
  br label %bb25

panic67:                                          ; preds = %bb57
; call core::panicking::panic_null_pointer_dereference
  call void @_ZN4core9panicking30panic_null_pointer_dereference17hf718fcc86a223baaE(ptr align 8 @alloc_5b2af695ee4d260ec5d60c7976a90afb) #4
  unreachable

bb60:                                             ; preds = %bb12
  %_353 = ptrtoint ptr %parent to i64
  %_356 = icmp eq i64 %_353, 0
  %_357 = and i1 %_356, true
  %_358 = xor i1 %_357, true
  br i1 %_358, label %bb75, label %panic69

panic68:                                          ; preds = %bb12
; call core::panicking::panic_misaligned_pointer_dereference
  call void @_ZN4core9panicking36panic_misaligned_pointer_dereference17hcc3cbded9382b6e5E(i64 8, i64 %_256, ptr align 8 @alloc_4301efde203129eb309980871bd3a23a) #4
  unreachable

bb75:                                             ; preds = %bb60
  %63 = getelementptr inbounds i8, ptr %parent, i64 8
  %_20 = load ptr, ptr %63, align 8
  store ptr %_20, ptr %temp, align 8
  %_250 = ptrtoint ptr %parent to i64
  %_253 = and i64 %_250, 7
  %_254 = icmp eq i64 %_253, 0
  br i1 %_254, label %bb59, label %panic70

panic69:                                          ; preds = %bb60
; call core::panicking::panic_null_pointer_dereference
  call void @_ZN4core9panicking30panic_null_pointer_dereference17hf718fcc86a223baaE(ptr align 8 @alloc_4301efde203129eb309980871bd3a23a) #4
  unreachable

bb59:                                             ; preds = %bb75
  %_360 = ptrtoint ptr %parent to i64
  %_363 = icmp eq i64 %_360, 0
  %_364 = and i1 %_363, true
  %_365 = xor i1 %_364, true
  br i1 %_365, label %bb76, label %panic71

panic70:                                          ; preds = %bb75
; call core::panicking::panic_misaligned_pointer_dereference
  call void @_ZN4core9panicking36panic_misaligned_pointer_dereference17hcc3cbded9382b6e5E(i64 8, i64 %_250, ptr align 8 @alloc_5765b499f8a46b00558d800c85265f18) #4
  unreachable

bb76:                                             ; preds = %bb59
  %64 = getelementptr inbounds i8, ptr %parent, i64 8
  store ptr null, ptr %64, align 8
  br label %bb25

panic71:                                          ; preds = %bb59
; call core::panicking::panic_null_pointer_dereference
  call void @_ZN4core9panicking30panic_null_pointer_dereference17hf718fcc86a223baaE(ptr align 8 @alloc_5765b499f8a46b00558d800c85265f18) #4
  unreachable

bb66:                                             ; preds = %bb6
  %_311 = ptrtoint ptr %bst to i64
  %_314 = icmp eq i64 %_311, 0
  %_315 = and i1 %_314, true
  %_316 = xor i1 %_315, true
  br i1 %_316, label %bb69, label %panic73

panic72:                                          ; preds = %bb6
; call core::panicking::panic_misaligned_pointer_dereference
  call void @_ZN4core9panicking36panic_misaligned_pointer_dereference17hcc3cbded9382b6e5E(i64 8, i64 %_292, ptr align 8 @alloc_a7f670ad66872aece48658a1612d4698) #4
  unreachable

bb69:                                             ; preds = %bb66
  %_12 = load ptr, ptr %bst, align 8
  store ptr %_12, ptr %temp, align 8
  %_286 = ptrtoint ptr %bst to i64
  %_289 = and i64 %_286, 7
  %_290 = icmp eq i64 %_289, 0
  br i1 %_290, label %bb65, label %panic74

panic73:                                          ; preds = %bb66
; call core::panicking::panic_null_pointer_dereference
  call void @_ZN4core9panicking30panic_null_pointer_dereference17hf718fcc86a223baaE(ptr align 8 @alloc_a7f670ad66872aece48658a1612d4698) #4
  unreachable

bb65:                                             ; preds = %bb69
  %_318 = ptrtoint ptr %bst to i64
  %_321 = icmp eq i64 %_318, 0
  %_322 = and i1 %_321, true
  %_323 = xor i1 %_322, true
  br i1 %_323, label %bb70, label %panic75

panic74:                                          ; preds = %bb69
; call core::panicking::panic_misaligned_pointer_dereference
  call void @_ZN4core9panicking36panic_misaligned_pointer_dereference17hcc3cbded9382b6e5E(i64 8, i64 %_286, ptr align 8 @alloc_94d488c826d85f994b79c19a03c8882a) #4
  unreachable

bb70:                                             ; preds = %bb65
  store ptr null, ptr %bst, align 8
  br label %bb25

panic75:                                          ; preds = %bb65
; call core::panicking::panic_null_pointer_dereference
  call void @_ZN4core9panicking30panic_null_pointer_dereference17hf718fcc86a223baaE(ptr align 8 @alloc_94d488c826d85f994b79c19a03c8882a) #4
  unreachable

bb29:                                             ; preds = %bb25
  %_64 = ptrtoint ptr %bst to i64
  %_67 = and i64 %_64, 7
  %_68 = icmp eq i64 %_67, 0
  br i1 %_68, label %bb28, label %panic77

panic76:                                          ; preds = %bb25
; call core::panicking::panic_misaligned_pointer_dereference
  call void @_ZN4core9panicking36panic_misaligned_pointer_dereference17hcc3cbded9382b6e5E(i64 8, i64 %_70, ptr align 8 @alloc_93101bcb5d0c3d3e52df9a656ce90092) #4
  unreachable

bb28:                                             ; preds = %bb29
  %_577 = ptrtoint ptr %bst to i64
  %_580 = icmp eq i64 %_577, 0
  %_581 = and i1 %_580, true
  %_582 = xor i1 %_581, true
  br i1 %_582, label %bb107, label %panic78

panic77:                                          ; preds = %bb29
; call core::panicking::panic_misaligned_pointer_dereference
  call void @_ZN4core9panicking36panic_misaligned_pointer_dereference17hcc3cbded9382b6e5E(i64 8, i64 %_64, ptr align 8 @alloc_93101bcb5d0c3d3e52df9a656ce90092) #4
  unreachable

bb107:                                            ; preds = %bb28
  %_570 = ptrtoint ptr %bst to i64
  %_573 = icmp eq i64 %_570, 0
  %_574 = and i1 %_573, true
  %_575 = xor i1 %_574, true
  br i1 %_575, label %bb106, label %panic79

panic78:                                          ; preds = %bb28
; call core::panicking::panic_null_pointer_dereference
  call void @_ZN4core9panicking30panic_null_pointer_dereference17hf718fcc86a223baaE(ptr align 8 @alloc_93101bcb5d0c3d3e52df9a656ce90092) #4
  unreachable

bb106:                                            ; preds = %bb107
  %65 = getelementptr inbounds i8, ptr %bst, i64 8
  %66 = getelementptr inbounds i8, ptr %bst, i64 8
  %67 = load i32, ptr %66, align 8
  %68 = sub i32 %67, 1
  store i32 %68, ptr %65, align 8
  %_58 = ptrtoint ptr %bst to i64
  %_61 = and i64 %_58, 7
  %_62 = icmp eq i64 %_61, 0
  br i1 %_62, label %bb27, label %panic80

panic79:                                          ; preds = %bb107
; call core::panicking::panic_null_pointer_dereference
  call void @_ZN4core9panicking30panic_null_pointer_dereference17hf718fcc86a223baaE(ptr align 8 @alloc_93101bcb5d0c3d3e52df9a656ce90092) #4
  unreachable

bb27:                                             ; preds = %bb106
  %_584 = ptrtoint ptr %bst to i64
  %_587 = icmp eq i64 %_584, 0
  %_588 = and i1 %_587, true
  %_589 = xor i1 %_588, true
  br i1 %_589, label %bb108, label %panic81

panic80:                                          ; preds = %bb106
; call core::panicking::panic_misaligned_pointer_dereference
  call void @_ZN4core9panicking36panic_misaligned_pointer_dereference17hcc3cbded9382b6e5E(i64 8, i64 %_58, ptr align 8 @alloc_cf7ced188c2d66c8cf5761b5d078312a) #4
  unreachable

bb108:                                            ; preds = %bb27
  ret void

panic81:                                          ; preds = %bb27
; call core::panicking::panic_null_pointer_dereference
  call void @_ZN4core9panicking30panic_null_pointer_dereference17hf718fcc86a223baaE(ptr align 8 @alloc_cf7ced188c2d66c8cf5761b5d078312a) #4
  unreachable
}

; Function Attrs: nounwind nonlazybind
define void @bst_inorder_traversal(ptr %node) unnamed_addr #1 {
start:
; call core::ptr::mut_ptr::<impl *mut T>::is_null
  %_2 = call zeroext i1 @"_ZN4core3ptr7mut_ptr31_$LT$impl$u20$$BP$mut$u20$T$GT$7is_null17he5b0d328e93c8b69E"(ptr %node) #3
  br i1 %_2, label %bb5, label %bb2

bb2:                                              ; preds = %start
  %_26 = ptrtoint ptr %node to i64
  %_29 = and i64 %_26, 7
  %_30 = icmp eq i64 %_29, 0
  br i1 %_30, label %bb8, label %panic

bb5:                                              ; preds = %bb11, %start
  ret void

bb8:                                              ; preds = %bb2
  %_32 = ptrtoint ptr %node to i64
  %_35 = icmp eq i64 %_32, 0
  %_36 = and i1 %_35, true
  %_37 = xor i1 %_36, true
  br i1 %_37, label %bb9, label %panic1

panic:                                            ; preds = %bb2
; call core::panicking::panic_misaligned_pointer_dereference
  call void @_ZN4core9panicking36panic_misaligned_pointer_dereference17hcc3cbded9382b6e5E(i64 8, i64 %_26, ptr align 8 @alloc_c01c0099f9c3cd2e013d47cb41d78eb5) #4
  unreachable

bb9:                                              ; preds = %bb8
  %0 = getelementptr inbounds i8, ptr %node, i64 8
  %_4 = load ptr, ptr %0, align 8
  call void @bst_inorder_traversal(ptr %_4) #3
  %_20 = ptrtoint ptr %node to i64
  %_23 = and i64 %_20, 7
  %_24 = icmp eq i64 %_23, 0
  br i1 %_24, label %bb7, label %panic2

panic1:                                           ; preds = %bb8
; call core::panicking::panic_null_pointer_dereference
  call void @_ZN4core9panicking30panic_null_pointer_dereference17hf718fcc86a223baaE(ptr align 8 @alloc_c01c0099f9c3cd2e013d47cb41d78eb5) #4
  unreachable

bb7:                                              ; preds = %bb9
  %_39 = ptrtoint ptr %node to i64
  %_42 = icmp eq i64 %_39, 0
  %_43 = and i1 %_42, true
  %_44 = xor i1 %_43, true
  br i1 %_44, label %bb10, label %panic3

panic2:                                           ; preds = %bb9
; call core::panicking::panic_misaligned_pointer_dereference
  call void @_ZN4core9panicking36panic_misaligned_pointer_dereference17hcc3cbded9382b6e5E(i64 8, i64 %_20, ptr align 8 @alloc_aa3b9f0164c5c2be33807b55e1de07c1) #4
  unreachable

bb10:                                             ; preds = %bb7
  %_10 = load i32, ptr %node, align 8
  %_5 = call i32 (ptr, ...) @printf(ptr @alloc_2f0628688128286a611d8edba0f63769, i32 %_10) #3
  %_14 = ptrtoint ptr %node to i64
  %_17 = and i64 %_14, 7
  %_18 = icmp eq i64 %_17, 0
  br i1 %_18, label %bb6, label %panic4

panic3:                                           ; preds = %bb7
; call core::panicking::panic_null_pointer_dereference
  call void @_ZN4core9panicking30panic_null_pointer_dereference17hf718fcc86a223baaE(ptr align 8 @alloc_aa3b9f0164c5c2be33807b55e1de07c1) #4
  unreachable

bb6:                                              ; preds = %bb10
  %_46 = ptrtoint ptr %node to i64
  %_49 = icmp eq i64 %_46, 0
  %_50 = and i1 %_49, true
  %_51 = xor i1 %_50, true
  br i1 %_51, label %bb11, label %panic5

panic4:                                           ; preds = %bb10
; call core::panicking::panic_misaligned_pointer_dereference
  call void @_ZN4core9panicking36panic_misaligned_pointer_dereference17hcc3cbded9382b6e5E(i64 8, i64 %_14, ptr align 8 @alloc_c00f1388285e9a69d1e4eaf4c9b75fb8) #4
  unreachable

bb11:                                             ; preds = %bb6
  %1 = getelementptr inbounds i8, ptr %node, i64 16
  %_12 = load ptr, ptr %1, align 8
  call void @bst_inorder_traversal(ptr %_12) #3
  br label %bb5

panic5:                                           ; preds = %bb6
; call core::panicking::panic_null_pointer_dereference
  call void @_ZN4core9panicking30panic_null_pointer_dereference17hf718fcc86a223baaE(ptr align 8 @alloc_c00f1388285e9a69d1e4eaf4c9b75fb8) #4
  unreachable
}

; Function Attrs: nounwind nonlazybind
declare ptr @malloc(i64) unnamed_addr #1

; core::panicking::panic_misaligned_pointer_dereference
; Function Attrs: cold minsize noinline noreturn nounwind nonlazybind optsize
declare void @_ZN4core9panicking36panic_misaligned_pointer_dereference17hcc3cbded9382b6e5E(i64, i64, ptr align 8) unnamed_addr #2

; core::panicking::panic_null_pointer_dereference
; Function Attrs: cold minsize noinline noreturn nounwind nonlazybind optsize
declare void @_ZN4core9panicking30panic_null_pointer_dereference17hf718fcc86a223baaE(ptr align 8) unnamed_addr #2

; Function Attrs: nounwind nonlazybind
declare void @free(ptr) unnamed_addr #1

; Function Attrs: nounwind nonlazybind
declare i32 @printf(ptr, ...) unnamed_addr #1

attributes #0 = { inlinehint nounwind nonlazybind "probe-stack"="inline-asm" "target-cpu"="x86-64" }
attributes #1 = { nounwind nonlazybind "probe-stack"="inline-asm" "target-cpu"="x86-64" }
attributes #2 = { cold minsize noinline noreturn nounwind nonlazybind optsize "probe-stack"="inline-asm" "target-cpu"="x86-64" }
attributes #3 = { nounwind }
attributes #4 = { noreturn nounwind }

!llvm.module.flags = !{!0, !1}
!llvm.ident = !{!2}

!0 = !{i32 8, !"PIC Level", i32 2}
!1 = !{i32 2, !"RtLibUseGOT", i32 1}
!2 = !{!"rustc version 1.88.0-nightly (0b45675cf 2025-03-31)"}
