; ModuleID = '38y2n6i4ah010nvla8qmiq9j9'
source_filename = "38y2n6i4ah010nvla8qmiq9j9"
target datalayout = "e-m:e-p270:32:32-p271:32:32-p272:64:64-i64:64-i128:128-f80:128-n8:16:32:64-S128"
target triple = "x86_64-unknown-linux-gnu"

@head = global [8 x i8] zeroinitializer, align 8
@tail = global [8 x i8] zeroinitializer, align 8
@alloc_f5ffd2fd1476bab43ad89fb40c72d0c5 = private unnamed_addr constant [10 x i8] c"src/lib.rs", align 1
@alloc_07f2a10419476346bdf5125fe00f2160 = private unnamed_addr constant <{ ptr, [16 x i8] }> <{ ptr @alloc_f5ffd2fd1476bab43ad89fb40c72d0c5, [16 x i8] c"\0A\00\00\00\00\00\00\00^\00\00\00\05\00\00\00" }>, align 8
@alloc_19a9d35a3f0dc6f4ec1f1516a86c2b37 = private unnamed_addr constant <{ ptr, [16 x i8] }> <{ ptr @alloc_f5ffd2fd1476bab43ad89fb40c72d0c5, [16 x i8] c"\0A\00\00\00\00\00\00\00_\00\00\00\05\00\00\00" }>, align 8
@alloc_add30d594056fbb91ae648e67a9f2e0b = private unnamed_addr constant <{ ptr, [16 x i8] }> <{ ptr @alloc_f5ffd2fd1476bab43ad89fb40c72d0c5, [16 x i8] c"\0A\00\00\00\00\00\00\00`\00\00\00\05\00\00\00" }>, align 8
@alloc_f700eaa222fef45380d481aa856f4e1d = private unnamed_addr constant <{ ptr, [16 x i8] }> <{ ptr @alloc_f5ffd2fd1476bab43ad89fb40c72d0c5, [16 x i8] c"\0A\00\00\00\00\00\00\00f\00\00\00\08\00\00\00" }>, align 8
@alloc_8ec59d216d65a3b54821efc7aabdb3bf = private unnamed_addr constant <{ ptr, [16 x i8] }> <{ ptr @alloc_f5ffd2fd1476bab43ad89fb40c72d0c5, [16 x i8] c"\0A\00\00\00\00\00\00\00k\00\00\00\05\00\00\00" }>, align 8
@alloc_f96ffe5e0e78ab6ae4127bc4a43d3d72 = private unnamed_addr constant <{ ptr, [16 x i8] }> <{ ptr @alloc_f5ffd2fd1476bab43ad89fb40c72d0c5, [16 x i8] c"\0A\00\00\00\00\00\00\00l\00\00\00\1B\00\00\00" }>, align 8
@alloc_fdd5048d75195a5f8c3f35c7fc1eeaa0 = private unnamed_addr constant <{ ptr, [16 x i8] }> <{ ptr @alloc_f5ffd2fd1476bab43ad89fb40c72d0c5, [16 x i8] c"\0A\00\00\00\00\00\00\00l\00\00\00\05\00\00\00" }>, align 8
@alloc_a4254ae4d91647b86dcdec4349d19c0f = private unnamed_addr constant <{ ptr, [16 x i8] }> <{ ptr @alloc_f5ffd2fd1476bab43ad89fb40c72d0c5, [16 x i8] c"\0A\00\00\00\00\00\00\00m\00\00\00\05\00\00\00" }>, align 8
@alloc_ee4fe3b1d9f7a13931cc35ca11abe9b0 = private unnamed_addr constant <{ ptr, [16 x i8] }> <{ ptr @alloc_f5ffd2fd1476bab43ad89fb40c72d0c5, [16 x i8] c"\0A\00\00\00\00\00\00\00g\00\00\00\09\00\00\00" }>, align 8
@alloc_1aa9c3ab3ec38e0d3207d2e5ac4937bd = private unnamed_addr constant <{ ptr, [16 x i8] }> <{ ptr @alloc_f5ffd2fd1476bab43ad89fb40c72d0c5, [16 x i8] c"\0A\00\00\00\00\00\00\00h\00\00\00\09\00\00\00" }>, align 8
@alloc_79d022a193b5b18623f24ef5489055ff = private unnamed_addr constant <{ ptr, [16 x i8] }> <{ ptr @alloc_f5ffd2fd1476bab43ad89fb40c72d0c5, [16 x i8] c"\0A\00\00\00\00\00\00\00r\00\00\00\08\00\00\00" }>, align 8
@alloc_719024d89908e791b5d5695942b58554 = private unnamed_addr constant <{ ptr, [16 x i8] }> <{ ptr @alloc_f5ffd2fd1476bab43ad89fb40c72d0c5, [16 x i8] c"\0A\00\00\00\00\00\00\00w\00\00\00\17\00\00\00" }>, align 8
@alloc_33163a8e673ee25e32a7ea0cadee3b6e = private unnamed_addr constant <{ ptr, [16 x i8] }> <{ ptr @alloc_f5ffd2fd1476bab43ad89fb40c72d0c5, [16 x i8] c"\0A\00\00\00\00\00\00\00w\00\00\00\05\00\00\00" }>, align 8
@alloc_82ebe0b2887610993564a06c073564b8 = private unnamed_addr constant <{ ptr, [16 x i8] }> <{ ptr @alloc_f5ffd2fd1476bab43ad89fb40c72d0c5, [16 x i8] c"\0A\00\00\00\00\00\00\00x\00\00\00\05\00\00\00" }>, align 8
@alloc_69d1daf5dfd60dd92e8de43345645869 = private unnamed_addr constant <{ ptr, [16 x i8] }> <{ ptr @alloc_f5ffd2fd1476bab43ad89fb40c72d0c5, [16 x i8] c"\0A\00\00\00\00\00\00\00y\00\00\00\05\00\00\00" }>, align 8
@alloc_600339098278502175543d2275ed6a1b = private unnamed_addr constant <{ ptr, [16 x i8] }> <{ ptr @alloc_f5ffd2fd1476bab43ad89fb40c72d0c5, [16 x i8] c"\0A\00\00\00\00\00\00\00s\00\00\00\09\00\00\00" }>, align 8
@alloc_82cbe4ffa897c76617bd917e833439a8 = private unnamed_addr constant <{ ptr, [16 x i8] }> <{ ptr @alloc_f5ffd2fd1476bab43ad89fb40c72d0c5, [16 x i8] c"\0A\00\00\00\00\00\00\00t\00\00\00\09\00\00\00" }>, align 8
@alloc_96aebd5f2efdf93a2341fac72332e670 = private unnamed_addr constant <{ ptr, [16 x i8] }> <{ ptr @alloc_f5ffd2fd1476bab43ad89fb40c72d0c5, [16 x i8] c"\0A\00\00\00\00\00\00\00\81\00\00\00\08\00\00\00" }>, align 8
@alloc_0938005c8b2b2fbd7edeb2f6e4f7a832 = private unnamed_addr constant <{ ptr, [16 x i8] }> <{ ptr @alloc_f5ffd2fd1476bab43ad89fb40c72d0c5, [16 x i8] c"\0A\00\00\00\00\00\00\00\88\00\00\00\0C\00\00\00" }>, align 8
@alloc_382dfd336cf75f56af77b22c6f4bcded = private unnamed_addr constant <{ ptr, [16 x i8] }> <{ ptr @alloc_f5ffd2fd1476bab43ad89fb40c72d0c5, [16 x i8] c"\0A\00\00\00\00\00\00\00\8A\00\00\00/\00\00\00" }>, align 8
@alloc_3e31f1d4c66bb56d7eb1eadfa4fb6094 = private unnamed_addr constant <{ ptr, [16 x i8] }> <{ ptr @alloc_f5ffd2fd1476bab43ad89fb40c72d0c5, [16 x i8] c"\0A\00\00\00\00\00\00\00\8B\00\00\00\10\00\00\00" }>, align 8
@alloc_7f73a329a8efa1ef5e21f62a8c79192a = private unnamed_addr constant <{ ptr, [16 x i8] }> <{ ptr @alloc_f5ffd2fd1476bab43ad89fb40c72d0c5, [16 x i8] c"\0A\00\00\00\00\00\00\00\8F\00\00\00\17\00\00\00" }>, align 8
@alloc_fef22c008e94e74eb08b32376ab6ec59 = private unnamed_addr constant <{ ptr, [16 x i8] }> <{ ptr @alloc_f5ffd2fd1476bab43ad89fb40c72d0c5, [16 x i8] c"\0A\00\00\00\00\00\00\00\8F\00\00\00\05\00\00\00" }>, align 8
@alloc_cfb0380af96fcc257f59b04d0cb4fc70 = private unnamed_addr constant <{ ptr, [16 x i8] }> <{ ptr @alloc_f5ffd2fd1476bab43ad89fb40c72d0c5, [16 x i8] c"\0A\00\00\00\00\00\00\00\90\00\00\00\05\00\00\00" }>, align 8
@alloc_aef7728940fc64c3092d9c76fb7af439 = private unnamed_addr constant <{ ptr, [16 x i8] }> <{ ptr @alloc_f5ffd2fd1476bab43ad89fb40c72d0c5, [16 x i8] c"\0A\00\00\00\00\00\00\00\91\00\00\00\09\00\00\00" }>, align 8
@alloc_9cce0dc1affe2430c480bbe2ea11d9ec = private unnamed_addr constant <{ ptr, [16 x i8] }> <{ ptr @alloc_f5ffd2fd1476bab43ad89fb40c72d0c5, [16 x i8] c"\0A\00\00\00\00\00\00\00\92\00\00\00\09\00\00\00" }>, align 8
@alloc_e741c05c09a14bcad1b0cfc690cea7ff = private unnamed_addr constant <{ ptr, [16 x i8] }> <{ ptr @alloc_f5ffd2fd1476bab43ad89fb40c72d0c5, [16 x i8] c"\0A\00\00\00\00\00\00\00\94\00\00\00\05\00\00\00" }>, align 8
@alloc_3aefe61f9c9227222ff0845684ee9c96 = private unnamed_addr constant <{ ptr, [16 x i8] }> <{ ptr @alloc_f5ffd2fd1476bab43ad89fb40c72d0c5, [16 x i8] c"\0A\00\00\00\00\00\00\00\82\00\00\00\09\00\00\00" }>, align 8
@alloc_24b91c732873032889156a0bc504f73e = private unnamed_addr constant <{ ptr, [16 x i8] }> <{ ptr @alloc_f5ffd2fd1476bab43ad89fb40c72d0c5, [16 x i8] c"\0A\00\00\00\00\00\00\00\83\00\00\00\09\00\00\00" }>, align 8
@alloc_c8ad36a10291c91213a24a22e0a383d1 = private unnamed_addr constant [45 x i8] c"\0AYour updated linked list in FORWARD ORDER:\0A\00", align 1
@alloc_bb956b0142cd54ecb73ae21d20f9437a = private unnamed_addr constant <{ ptr, [16 x i8] }> <{ ptr @alloc_f5ffd2fd1476bab43ad89fb40c72d0c5, [16 x i8] c"\0A\00\00\00\00\00\00\00\9D\00\00\00\0E\00\00\00" }>, align 8
@alloc_5e88a564efe89fa976e17472fd1277a4 = private unnamed_addr constant <{ ptr, [16 x i8] }> <{ ptr @alloc_f5ffd2fd1476bab43ad89fb40c72d0c5, [16 x i8] c"\0A\00\00\00\00\00\00\00\9E\00\00\00\0D\00\00\00" }>, align 8
@alloc_a95754416b58e4102b825b2b61af43ce = private unnamed_addr constant <{ ptr, [16 x i8] }> <{ ptr @alloc_f5ffd2fd1476bab43ad89fb40c72d0c5, [16 x i8] c"\0A\00\00\00\00\00\00\00\9E\00\00\00\1F\00\00\00" }>, align 8
@alloc_b929c71616281bfd1be2bd4038d3ddf1 = private unnamed_addr constant [4 x i8] c"%d \00", align 1
@alloc_1628a3301e3b0ab78ce7348938fa67ee = private unnamed_addr constant <{ ptr, [16 x i8] }> <{ ptr @alloc_f5ffd2fd1476bab43ad89fb40c72d0c5, [16 x i8] c"\0A\00\00\00\00\00\00\00\9F\00\00\00>\00\00\00" }>, align 8
@alloc_88b8b3c7f74958be1c7686e74cdc991d = private unnamed_addr constant <{ ptr, [16 x i8] }> <{ ptr @alloc_f5ffd2fd1476bab43ad89fb40c72d0c5, [16 x i8] c"\0A\00\00\00\00\00\00\00\A0\00\00\00\16\00\00\00" }>, align 8
@alloc_98b59753286065c98d0cee7a90933332 = private unnamed_addr constant <{ ptr, [16 x i8] }> <{ ptr @alloc_f5ffd2fd1476bab43ad89fb40c72d0c5, [16 x i8] c"\0A\00\00\00\00\00\00\00\A3\00\00\00\12\00\00\00" }>, align 8
@alloc_f3588b28b94f0809fcc8d717033d3e48 = private unnamed_addr constant [2 x i8] c"\0A\00", align 1
@alloc_5aac9180518332af6feff9a608d54801 = private unnamed_addr constant [42 x i8] c"\0AYour full linked list in REVERSE ORDER:\0A\00", align 1
@alloc_5f816a49caa4a0ebce7138414ed26ab7 = private unnamed_addr constant <{ ptr, [16 x i8] }> <{ ptr @alloc_f5ffd2fd1476bab43ad89fb40c72d0c5, [16 x i8] c"\0A\00\00\00\00\00\00\00\AE\00\00\00\0E\00\00\00" }>, align 8
@alloc_ef9cfd370b10e632b496f9f933984c25 = private unnamed_addr constant <{ ptr, [16 x i8] }> <{ ptr @alloc_f5ffd2fd1476bab43ad89fb40c72d0c5, [16 x i8] c"\0A\00\00\00\00\00\00\00\AF\00\00\00\0D\00\00\00" }>, align 8
@alloc_2f7b327cc15b2d60b4779bbbd738d7b3 = private unnamed_addr constant <{ ptr, [16 x i8] }> <{ ptr @alloc_f5ffd2fd1476bab43ad89fb40c72d0c5, [16 x i8] c"\0A\00\00\00\00\00\00\00\AF\00\00\00\1F\00\00\00" }>, align 8
@alloc_fc66042420a0c03adf876ddec9b36369 = private unnamed_addr constant <{ ptr, [16 x i8] }> <{ ptr @alloc_f5ffd2fd1476bab43ad89fb40c72d0c5, [16 x i8] c"\0A\00\00\00\00\00\00\00\B0\00\00\00>\00\00\00" }>, align 8
@alloc_c9650a4d32889701bdc375f1a9086aba = private unnamed_addr constant <{ ptr, [16 x i8] }> <{ ptr @alloc_f5ffd2fd1476bab43ad89fb40c72d0c5, [16 x i8] c"\0A\00\00\00\00\00\00\00\B1\00\00\00\0C\00\00\00" }>, align 8
@alloc_657d5b8aa30d124b1a4cb0e7497c5d27 = private unnamed_addr constant <{ ptr, [16 x i8] }> <{ ptr @alloc_f5ffd2fd1476bab43ad89fb40c72d0c5, [16 x i8] c"\0A\00\00\00\00\00\00\00\B4\00\00\00\12\00\00\00" }>, align 8

; core::ptr::mut_ptr::<impl *mut T>::is_null
; Function Attrs: inlinehint nounwind nonlazybind
define internal zeroext i1 @"_ZN4core3ptr7mut_ptr31_$LT$impl$u20$$BP$mut$u20$T$GT$7is_null17hdc2337c21a69ece5E"(ptr %self) unnamed_addr #0 {
start:
  %_3 = ptrtoint ptr %self to i64
  %_0 = icmp eq i64 %_3, 0
  ret i1 %_0
}

; Function Attrs: nounwind nonlazybind
define ptr @getNewNode(i32 %val) unnamed_addr #1 {
start:
  %temp_node = alloca [8 x i8], align 8
  store ptr null, ptr %temp_node, align 8
  %_3 = call ptr @malloc(i64 24) #3
  store ptr %_3, ptr %temp_node, align 8
  %_18 = load ptr, ptr %temp_node, align 8
  %_19 = ptrtoint ptr %_18 to i64
  %_22 = and i64 %_19, 7
  %_23 = icmp eq i64 %_22, 0
  br i1 %_23, label %bb5, label %panic

bb5:                                              ; preds = %start
  %_24 = load ptr, ptr %temp_node, align 8
  %_25 = ptrtoint ptr %_24 to i64
  %_28 = icmp eq i64 %_25, 0
  %_29 = and i1 %_28, true
  %_30 = xor i1 %_29, true
  br i1 %_30, label %bb6, label %panic1

panic:                                            ; preds = %start
; call core::panicking::panic_misaligned_pointer_dereference
  call void @_ZN4core9panicking36panic_misaligned_pointer_dereference17hcc3cbded9382b6e5E(i64 8, i64 %_19, ptr align 8 @alloc_07f2a10419476346bdf5125fe00f2160) #4
  unreachable

bb6:                                              ; preds = %bb5
  %0 = load ptr, ptr %temp_node, align 8
  store i32 %val, ptr %0, align 8
  %_12 = load ptr, ptr %temp_node, align 8
  %_13 = ptrtoint ptr %_12 to i64
  %_16 = and i64 %_13, 7
  %_17 = icmp eq i64 %_16, 0
  br i1 %_17, label %bb4, label %panic2

panic1:                                           ; preds = %bb5
; call core::panicking::panic_null_pointer_dereference
  call void @_ZN4core9panicking30panic_null_pointer_dereference17hf718fcc86a223baaE(ptr align 8 @alloc_07f2a10419476346bdf5125fe00f2160) #4
  unreachable

bb4:                                              ; preds = %bb6
  %_31 = load ptr, ptr %temp_node, align 8
  %_32 = ptrtoint ptr %_31 to i64
  %_35 = icmp eq i64 %_32, 0
  %_36 = and i1 %_35, true
  %_37 = xor i1 %_36, true
  br i1 %_37, label %bb7, label %panic3

panic2:                                           ; preds = %bb6
; call core::panicking::panic_misaligned_pointer_dereference
  call void @_ZN4core9panicking36panic_misaligned_pointer_dereference17hcc3cbded9382b6e5E(i64 8, i64 %_13, ptr align 8 @alloc_19a9d35a3f0dc6f4ec1f1516a86c2b37) #4
  unreachable

bb7:                                              ; preds = %bb4
  %1 = load ptr, ptr %temp_node, align 8
  %2 = getelementptr inbounds i8, ptr %1, i64 8
  store ptr null, ptr %2, align 8
  %_6 = load ptr, ptr %temp_node, align 8
  %_7 = ptrtoint ptr %_6 to i64
  %_10 = and i64 %_7, 7
  %_11 = icmp eq i64 %_10, 0
  br i1 %_11, label %bb3, label %panic4

panic3:                                           ; preds = %bb4
; call core::panicking::panic_null_pointer_dereference
  call void @_ZN4core9panicking30panic_null_pointer_dereference17hf718fcc86a223baaE(ptr align 8 @alloc_19a9d35a3f0dc6f4ec1f1516a86c2b37) #4
  unreachable

bb3:                                              ; preds = %bb7
  %_38 = load ptr, ptr %temp_node, align 8
  %_39 = ptrtoint ptr %_38 to i64
  %_42 = icmp eq i64 %_39, 0
  %_43 = and i1 %_42, true
  %_44 = xor i1 %_43, true
  br i1 %_44, label %bb8, label %panic5

panic4:                                           ; preds = %bb7
; call core::panicking::panic_misaligned_pointer_dereference
  call void @_ZN4core9panicking36panic_misaligned_pointer_dereference17hcc3cbded9382b6e5E(i64 8, i64 %_7, ptr align 8 @alloc_add30d594056fbb91ae648e67a9f2e0b) #4
  unreachable

bb8:                                              ; preds = %bb3
  %3 = load ptr, ptr %temp_node, align 8
  %4 = getelementptr inbounds i8, ptr %3, i64 16
  store ptr null, ptr %4, align 8
  %_0 = load ptr, ptr %temp_node, align 8
  ret ptr %_0

panic5:                                           ; preds = %bb3
; call core::panicking::panic_null_pointer_dereference
  call void @_ZN4core9panicking30panic_null_pointer_dereference17hf718fcc86a223baaE(ptr align 8 @alloc_add30d594056fbb91ae648e67a9f2e0b) #4
  unreachable
}

; Function Attrs: nounwind nonlazybind
define void @insert_at_tail(i32 %value) unnamed_addr #1 {
start:
  %newNode = call ptr @getNewNode(i32 %value) #3
  %_59 = icmp eq i64 ptrtoint (ptr @head to i64), 0
  %_60 = and i1 %_59, true
  %_61 = xor i1 %_60, true
  br i1 %_61, label %bb13, label %panic

bb13:                                             ; preds = %start
  %_4 = load ptr, ptr @head, align 8
; call core::ptr::mut_ptr::<impl *mut T>::is_null
  %_3 = call zeroext i1 @"_ZN4core3ptr7mut_ptr31_$LT$impl$u20$$BP$mut$u20$T$GT$7is_null17hdc2337c21a69ece5E"(ptr %_4) #3
  br i1 %_3, label %bb3, label %bb4

panic:                                            ; preds = %start
; call core::panicking::panic_null_pointer_dereference
  call void @_ZN4core9panicking30panic_null_pointer_dereference17hf718fcc86a223baaE(ptr align 8 @alloc_f700eaa222fef45380d481aa856f4e1d) #4
  unreachable

bb4:                                              ; preds = %bb13
  %_12 = load ptr, ptr @tail, align 8
  %_32 = ptrtoint ptr %_12 to i64
  %_35 = and i64 %_32, 7
  %_36 = icmp eq i64 %_35, 0
  br i1 %_36, label %bb9, label %panic1

bb3:                                              ; preds = %bb13
  %_66 = icmp eq i64 ptrtoint (ptr @head to i64), 0
  %_67 = and i1 %_66, true
  %_68 = xor i1 %_67, true
  br i1 %_68, label %bb14, label %panic7

bb9:                                              ; preds = %bb4
  %_77 = ptrtoint ptr %_12 to i64
  %_80 = icmp eq i64 %_77, 0
  %_81 = and i1 %_80, true
  %_82 = xor i1 %_81, true
  br i1 %_82, label %bb16, label %panic2

panic1:                                           ; preds = %bb4
; call core::panicking::panic_misaligned_pointer_dereference
  call void @_ZN4core9panicking36panic_misaligned_pointer_dereference17hcc3cbded9382b6e5E(i64 8, i64 %_32, ptr align 8 @alloc_8ec59d216d65a3b54821efc7aabdb3bf) #4
  unreachable

bb16:                                             ; preds = %bb9
  %0 = getelementptr inbounds i8, ptr %_12, i64 8
  store ptr %newNode, ptr %0, align 8
  %_87 = icmp eq i64 ptrtoint (ptr @tail to i64), 0
  %_88 = and i1 %_87, true
  %_89 = xor i1 %_88, true
  br i1 %_89, label %bb17, label %panic3

panic2:                                           ; preds = %bb9
; call core::panicking::panic_null_pointer_dereference
  call void @_ZN4core9panicking30panic_null_pointer_dereference17hf718fcc86a223baaE(ptr align 8 @alloc_8ec59d216d65a3b54821efc7aabdb3bf) #4
  unreachable

bb17:                                             ; preds = %bb16
  %_9 = load ptr, ptr @tail, align 8
  %_20 = ptrtoint ptr %newNode to i64
  %_23 = and i64 %_20, 7
  %_24 = icmp eq i64 %_23, 0
  br i1 %_24, label %bb7, label %panic4

panic3:                                           ; preds = %bb16
; call core::panicking::panic_null_pointer_dereference
  call void @_ZN4core9panicking30panic_null_pointer_dereference17hf718fcc86a223baaE(ptr align 8 @alloc_f96ffe5e0e78ab6ae4127bc4a43d3d72) #4
  unreachable

bb7:                                              ; preds = %bb17
  %_91 = ptrtoint ptr %newNode to i64
  %_94 = icmp eq i64 %_91, 0
  %_95 = and i1 %_94, true
  %_96 = xor i1 %_95, true
  br i1 %_96, label %bb18, label %panic5

panic4:                                           ; preds = %bb17
; call core::panicking::panic_misaligned_pointer_dereference
  call void @_ZN4core9panicking36panic_misaligned_pointer_dereference17hcc3cbded9382b6e5E(i64 8, i64 %_20, ptr align 8 @alloc_fdd5048d75195a5f8c3f35c7fc1eeaa0) #4
  unreachable

bb18:                                             ; preds = %bb7
  %1 = getelementptr inbounds i8, ptr %newNode, i64 16
  store ptr %_9, ptr %1, align 8
  %_101 = icmp eq i64 ptrtoint (ptr @tail to i64), 0
  %_102 = and i1 %_101, true
  %_103 = xor i1 %_102, true
  br i1 %_103, label %bb19, label %panic6

panic5:                                           ; preds = %bb7
; call core::panicking::panic_null_pointer_dereference
  call void @_ZN4core9panicking30panic_null_pointer_dereference17hf718fcc86a223baaE(ptr align 8 @alloc_fdd5048d75195a5f8c3f35c7fc1eeaa0) #4
  unreachable

bb19:                                             ; preds = %bb18
  store ptr %newNode, ptr @tail, align 8
  br label %bb5

panic6:                                           ; preds = %bb18
; call core::panicking::panic_null_pointer_dereference
  call void @_ZN4core9panicking30panic_null_pointer_dereference17hf718fcc86a223baaE(ptr align 8 @alloc_a4254ae4d91647b86dcdec4349d19c0f) #4
  unreachable

bb5:                                              ; preds = %bb15, %bb19
  ret void

bb14:                                             ; preds = %bb3
  store ptr %newNode, ptr @head, align 8
  %_73 = icmp eq i64 ptrtoint (ptr @tail to i64), 0
  %_74 = and i1 %_73, true
  %_75 = xor i1 %_74, true
  br i1 %_75, label %bb15, label %panic8

panic7:                                           ; preds = %bb3
; call core::panicking::panic_null_pointer_dereference
  call void @_ZN4core9panicking30panic_null_pointer_dereference17hf718fcc86a223baaE(ptr align 8 @alloc_ee4fe3b1d9f7a13931cc35ca11abe9b0) #4
  unreachable

bb15:                                             ; preds = %bb14
  store ptr %newNode, ptr @tail, align 8
  br label %bb5

panic8:                                           ; preds = %bb14
; call core::panicking::panic_null_pointer_dereference
  call void @_ZN4core9panicking30panic_null_pointer_dereference17hf718fcc86a223baaE(ptr align 8 @alloc_1aa9c3ab3ec38e0d3207d2e5ac4937bd) #4
  unreachable
}

; Function Attrs: nounwind nonlazybind
define void @insert_at_first(i32 %value) unnamed_addr #1 {
start:
  %newNode = call ptr @getNewNode(i32 %value) #3
  %_59 = icmp eq i64 ptrtoint (ptr @head to i64), 0
  %_60 = and i1 %_59, true
  %_61 = xor i1 %_60, true
  br i1 %_61, label %bb13, label %panic

bb13:                                             ; preds = %start
  %_4 = load ptr, ptr @head, align 8
; call core::ptr::mut_ptr::<impl *mut T>::is_null
  %_3 = call zeroext i1 @"_ZN4core3ptr7mut_ptr31_$LT$impl$u20$$BP$mut$u20$T$GT$7is_null17hdc2337c21a69ece5E"(ptr %_4) #3
  br i1 %_3, label %bb3, label %bb4

panic:                                            ; preds = %start
; call core::panicking::panic_null_pointer_dereference
  call void @_ZN4core9panicking30panic_null_pointer_dereference17hf718fcc86a223baaE(ptr align 8 @alloc_79d022a193b5b18623f24ef5489055ff) #4
  unreachable

bb4:                                              ; preds = %bb13
  %_80 = icmp eq i64 ptrtoint (ptr @head to i64), 0
  %_81 = and i1 %_80, true
  %_82 = xor i1 %_81, true
  br i1 %_82, label %bb16, label %panic1

bb3:                                              ; preds = %bb13
  %_66 = icmp eq i64 ptrtoint (ptr @head to i64), 0
  %_67 = and i1 %_66, true
  %_68 = xor i1 %_67, true
  br i1 %_68, label %bb14, label %panic7

bb16:                                             ; preds = %bb4
  %_8 = load ptr, ptr @head, align 8
  %_26 = ptrtoint ptr %newNode to i64
  %_29 = and i64 %_26, 7
  %_30 = icmp eq i64 %_29, 0
  br i1 %_30, label %bb8, label %panic2

panic1:                                           ; preds = %bb4
; call core::panicking::panic_null_pointer_dereference
  call void @_ZN4core9panicking30panic_null_pointer_dereference17hf718fcc86a223baaE(ptr align 8 @alloc_719024d89908e791b5d5695942b58554) #4
  unreachable

bb8:                                              ; preds = %bb16
  %_84 = ptrtoint ptr %newNode to i64
  %_87 = icmp eq i64 %_84, 0
  %_88 = and i1 %_87, true
  %_89 = xor i1 %_88, true
  br i1 %_89, label %bb17, label %panic3

panic2:                                           ; preds = %bb16
; call core::panicking::panic_misaligned_pointer_dereference
  call void @_ZN4core9panicking36panic_misaligned_pointer_dereference17hcc3cbded9382b6e5E(i64 8, i64 %_26, ptr align 8 @alloc_33163a8e673ee25e32a7ea0cadee3b6e) #4
  unreachable

bb17:                                             ; preds = %bb8
  %0 = getelementptr inbounds i8, ptr %newNode, i64 8
  store ptr %_8, ptr %0, align 8
  %_12 = load ptr, ptr @head, align 8
  %_20 = ptrtoint ptr %_12 to i64
  %_23 = and i64 %_20, 7
  %_24 = icmp eq i64 %_23, 0
  br i1 %_24, label %bb7, label %panic4

panic3:                                           ; preds = %bb8
; call core::panicking::panic_null_pointer_dereference
  call void @_ZN4core9panicking30panic_null_pointer_dereference17hf718fcc86a223baaE(ptr align 8 @alloc_33163a8e673ee25e32a7ea0cadee3b6e) #4
  unreachable

bb7:                                              ; preds = %bb17
  %_91 = ptrtoint ptr %_12 to i64
  %_94 = icmp eq i64 %_91, 0
  %_95 = and i1 %_94, true
  %_96 = xor i1 %_95, true
  br i1 %_96, label %bb18, label %panic5

panic4:                                           ; preds = %bb17
; call core::panicking::panic_misaligned_pointer_dereference
  call void @_ZN4core9panicking36panic_misaligned_pointer_dereference17hcc3cbded9382b6e5E(i64 8, i64 %_20, ptr align 8 @alloc_82ebe0b2887610993564a06c073564b8) #4
  unreachable

bb18:                                             ; preds = %bb7
  %1 = getelementptr inbounds i8, ptr %_12, i64 16
  store ptr %newNode, ptr %1, align 8
  %_101 = icmp eq i64 ptrtoint (ptr @head to i64), 0
  %_102 = and i1 %_101, true
  %_103 = xor i1 %_102, true
  br i1 %_103, label %bb19, label %panic6

panic5:                                           ; preds = %bb7
; call core::panicking::panic_null_pointer_dereference
  call void @_ZN4core9panicking30panic_null_pointer_dereference17hf718fcc86a223baaE(ptr align 8 @alloc_82ebe0b2887610993564a06c073564b8) #4
  unreachable

bb19:                                             ; preds = %bb18
  store ptr %newNode, ptr @head, align 8
  br label %bb5

panic6:                                           ; preds = %bb18
; call core::panicking::panic_null_pointer_dereference
  call void @_ZN4core9panicking30panic_null_pointer_dereference17hf718fcc86a223baaE(ptr align 8 @alloc_69d1daf5dfd60dd92e8de43345645869) #4
  unreachable

bb5:                                              ; preds = %bb15, %bb19
  ret void

bb14:                                             ; preds = %bb3
  store ptr %newNode, ptr @head, align 8
  %_73 = icmp eq i64 ptrtoint (ptr @tail to i64), 0
  %_74 = and i1 %_73, true
  %_75 = xor i1 %_74, true
  br i1 %_75, label %bb15, label %panic8

panic7:                                           ; preds = %bb3
; call core::panicking::panic_null_pointer_dereference
  call void @_ZN4core9panicking30panic_null_pointer_dereference17hf718fcc86a223baaE(ptr align 8 @alloc_600339098278502175543d2275ed6a1b) #4
  unreachable

bb15:                                             ; preds = %bb14
  store ptr %newNode, ptr @tail, align 8
  br label %bb5

panic8:                                           ; preds = %bb14
; call core::panicking::panic_null_pointer_dereference
  call void @_ZN4core9panicking30panic_null_pointer_dereference17hf718fcc86a223baaE(ptr align 8 @alloc_82cbe4ffa897c76617bd917e833439a8) #4
  unreachable
}

; Function Attrs: nounwind nonlazybind
define void @insert_at_middle(i32 %value, i32 %position) unnamed_addr #1 {
start:
  %i = alloca [4 x i8], align 4
  %temp = alloca [8 x i8], align 8
  %newNode = call ptr @getNewNode(i32 %value) #3
  %_103 = icmp eq i64 ptrtoint (ptr @head to i64), 0
  %_104 = and i1 %_103, true
  %_105 = xor i1 %_104, true
  br i1 %_105, label %bb28, label %panic

bb28:                                             ; preds = %start
  %_5 = load ptr, ptr @head, align 8
; call core::ptr::mut_ptr::<impl *mut T>::is_null
  %_4 = call zeroext i1 @"_ZN4core3ptr7mut_ptr31_$LT$impl$u20$$BP$mut$u20$T$GT$7is_null17hdc2337c21a69ece5E"(ptr %_5) #3
  br i1 %_4, label %bb3, label %bb4

panic:                                            ; preds = %start
; call core::panicking::panic_null_pointer_dereference
  call void @_ZN4core9panicking30panic_null_pointer_dereference17hf718fcc86a223baaE(ptr align 8 @alloc_96aebd5f2efdf93a2341fac72332e670) #4
  unreachable

bb4:                                              ; preds = %bb28
  %_10 = call ptr @malloc(i64 24) #3
  store ptr %_10, ptr %temp, align 8
  %_124 = icmp eq i64 ptrtoint (ptr @head to i64), 0
  %_125 = and i1 %_124, true
  %_126 = xor i1 %_125, true
  br i1 %_126, label %bb31, label %panic1

bb3:                                              ; preds = %bb28
  %_110 = icmp eq i64 ptrtoint (ptr @head to i64), 0
  %_111 = and i1 %_110, true
  %_112 = xor i1 %_111, true
  br i1 %_112, label %bb29, label %panic18

bb31:                                             ; preds = %bb4
  %_13 = load ptr, ptr @head, align 8
  store ptr %_13, ptr %temp, align 8
  store i32 1, ptr %i, align 4
  br label %bb7

panic1:                                           ; preds = %bb4
; call core::panicking::panic_null_pointer_dereference
  call void @_ZN4core9panicking30panic_null_pointer_dereference17hf718fcc86a223baaE(ptr align 8 @alloc_0938005c8b2b2fbd7edeb2f6e4f7a832) #4
  unreachable

bb7:                                              ; preds = %bb33, %bb31
  %_17 = load i32, ptr %i, align 4
  %_18 = sub i32 %position, 1
  %_16 = icmp slt i32 %_17, %_18
  br i1 %_16, label %bb8, label %bb11

bb11:                                             ; preds = %bb32, %bb7
  %_57 = load ptr, ptr %temp, align 8
  %_58 = ptrtoint ptr %_57 to i64
  %_61 = and i64 %_58, 7
  %_62 = icmp eq i64 %_61, 0
  br i1 %_62, label %bb21, label %panic6

bb8:                                              ; preds = %bb7
  %_69 = load ptr, ptr %temp, align 8
  %_70 = ptrtoint ptr %_69 to i64
  %_73 = and i64 %_70, 7
  %_74 = icmp eq i64 %_73, 0
  br i1 %_74, label %bb23, label %panic2

bb23:                                             ; preds = %bb8
  %_127 = load ptr, ptr %temp, align 8
  %_128 = ptrtoint ptr %_127 to i64
  %_131 = icmp eq i64 %_128, 0
  %_132 = and i1 %_131, true
  %_133 = xor i1 %_132, true
  br i1 %_133, label %bb32, label %panic3

panic2:                                           ; preds = %bb8
; call core::panicking::panic_misaligned_pointer_dereference
  call void @_ZN4core9panicking36panic_misaligned_pointer_dereference17hcc3cbded9382b6e5E(i64 8, i64 %_70, ptr align 8 @alloc_382dfd336cf75f56af77b22c6f4bcded) #4
  unreachable

bb32:                                             ; preds = %bb23
  %0 = load ptr, ptr %temp, align 8
  %1 = getelementptr inbounds i8, ptr %0, i64 8
  %_20 = load ptr, ptr %1, align 8
; call core::ptr::mut_ptr::<impl *mut T>::is_null
  %_19 = call zeroext i1 @"_ZN4core3ptr7mut_ptr31_$LT$impl$u20$$BP$mut$u20$T$GT$7is_null17hdc2337c21a69ece5E"(ptr %_20) #3
  br i1 %_19, label %bb11, label %bb10

panic3:                                           ; preds = %bb23
; call core::panicking::panic_null_pointer_dereference
  call void @_ZN4core9panicking30panic_null_pointer_dereference17hf718fcc86a223baaE(ptr align 8 @alloc_382dfd336cf75f56af77b22c6f4bcded) #4
  unreachable

bb10:                                             ; preds = %bb32
  %_63 = load ptr, ptr %temp, align 8
  %_64 = ptrtoint ptr %_63 to i64
  %_67 = and i64 %_64, 7
  %_68 = icmp eq i64 %_67, 0
  br i1 %_68, label %bb22, label %panic4

bb22:                                             ; preds = %bb10
  %_134 = load ptr, ptr %temp, align 8
  %_135 = ptrtoint ptr %_134 to i64
  %_138 = icmp eq i64 %_135, 0
  %_139 = and i1 %_138, true
  %_140 = xor i1 %_139, true
  br i1 %_140, label %bb33, label %panic5

panic4:                                           ; preds = %bb10
; call core::panicking::panic_misaligned_pointer_dereference
  call void @_ZN4core9panicking36panic_misaligned_pointer_dereference17hcc3cbded9382b6e5E(i64 8, i64 %_64, ptr align 8 @alloc_3e31f1d4c66bb56d7eb1eadfa4fb6094) #4
  unreachable

bb33:                                             ; preds = %bb22
  %2 = load ptr, ptr %temp, align 8
  %3 = getelementptr inbounds i8, ptr %2, i64 8
  %_21 = load ptr, ptr %3, align 8
  store ptr %_21, ptr %temp, align 8
  %4 = load i32, ptr %i, align 4
  %5 = add i32 %4, 1
  store i32 %5, ptr %i, align 4
  br label %bb7

panic5:                                           ; preds = %bb22
; call core::panicking::panic_null_pointer_dereference
  call void @_ZN4core9panicking30panic_null_pointer_dereference17hf718fcc86a223baaE(ptr align 8 @alloc_3e31f1d4c66bb56d7eb1eadfa4fb6094) #4
  unreachable

bb21:                                             ; preds = %bb11
  %_141 = load ptr, ptr %temp, align 8
  %_142 = ptrtoint ptr %_141 to i64
  %_145 = icmp eq i64 %_142, 0
  %_146 = and i1 %_145, true
  %_147 = xor i1 %_146, true
  br i1 %_147, label %bb34, label %panic7

panic6:                                           ; preds = %bb11
; call core::panicking::panic_misaligned_pointer_dereference
  call void @_ZN4core9panicking36panic_misaligned_pointer_dereference17hcc3cbded9382b6e5E(i64 8, i64 %_58, ptr align 8 @alloc_7f73a329a8efa1ef5e21f62a8c79192a) #4
  unreachable

bb34:                                             ; preds = %bb21
  %6 = load ptr, ptr %temp, align 8
  %7 = getelementptr inbounds i8, ptr %6, i64 8
  %_22 = load ptr, ptr %7, align 8
  %_52 = ptrtoint ptr %newNode to i64
  %_55 = and i64 %_52, 7
  %_56 = icmp eq i64 %_55, 0
  br i1 %_56, label %bb20, label %panic8

panic7:                                           ; preds = %bb21
; call core::panicking::panic_null_pointer_dereference
  call void @_ZN4core9panicking30panic_null_pointer_dereference17hf718fcc86a223baaE(ptr align 8 @alloc_7f73a329a8efa1ef5e21f62a8c79192a) #4
  unreachable

bb20:                                             ; preds = %bb34
  %_149 = ptrtoint ptr %newNode to i64
  %_152 = icmp eq i64 %_149, 0
  %_153 = and i1 %_152, true
  %_154 = xor i1 %_153, true
  br i1 %_154, label %bb35, label %panic9

panic8:                                           ; preds = %bb34
; call core::panicking::panic_misaligned_pointer_dereference
  call void @_ZN4core9panicking36panic_misaligned_pointer_dereference17hcc3cbded9382b6e5E(i64 8, i64 %_52, ptr align 8 @alloc_fef22c008e94e74eb08b32376ab6ec59) #4
  unreachable

bb35:                                             ; preds = %bb20
  %8 = getelementptr inbounds i8, ptr %newNode, i64 8
  store ptr %_22, ptr %8, align 8
  %_23 = load ptr, ptr %temp, align 8
  %_46 = ptrtoint ptr %newNode to i64
  %_49 = and i64 %_46, 7
  %_50 = icmp eq i64 %_49, 0
  br i1 %_50, label %bb19, label %panic10

panic9:                                           ; preds = %bb20
; call core::panicking::panic_null_pointer_dereference
  call void @_ZN4core9panicking30panic_null_pointer_dereference17hf718fcc86a223baaE(ptr align 8 @alloc_fef22c008e94e74eb08b32376ab6ec59) #4
  unreachable

bb19:                                             ; preds = %bb35
  %_156 = ptrtoint ptr %newNode to i64
  %_159 = icmp eq i64 %_156, 0
  %_160 = and i1 %_159, true
  %_161 = xor i1 %_160, true
  br i1 %_161, label %bb36, label %panic11

panic10:                                          ; preds = %bb35
; call core::panicking::panic_misaligned_pointer_dereference
  call void @_ZN4core9panicking36panic_misaligned_pointer_dereference17hcc3cbded9382b6e5E(i64 8, i64 %_46, ptr align 8 @alloc_cfb0380af96fcc257f59b04d0cb4fc70) #4
  unreachable

bb36:                                             ; preds = %bb19
  %9 = getelementptr inbounds i8, ptr %newNode, i64 16
  store ptr %_23, ptr %9, align 8
  %_39 = load ptr, ptr %temp, align 8
  %_40 = ptrtoint ptr %_39 to i64
  %_43 = and i64 %_40, 7
  %_44 = icmp eq i64 %_43, 0
  br i1 %_44, label %bb18, label %panic12

panic11:                                          ; preds = %bb19
; call core::panicking::panic_null_pointer_dereference
  call void @_ZN4core9panicking30panic_null_pointer_dereference17hf718fcc86a223baaE(ptr align 8 @alloc_cfb0380af96fcc257f59b04d0cb4fc70) #4
  unreachable

bb18:                                             ; preds = %bb36
  %_162 = load ptr, ptr %temp, align 8
  %_163 = ptrtoint ptr %_162 to i64
  %_166 = icmp eq i64 %_163, 0
  %_167 = and i1 %_166, true
  %_168 = xor i1 %_167, true
  br i1 %_168, label %bb37, label %panic13

panic12:                                          ; preds = %bb36
; call core::panicking::panic_misaligned_pointer_dereference
  call void @_ZN4core9panicking36panic_misaligned_pointer_dereference17hcc3cbded9382b6e5E(i64 8, i64 %_40, ptr align 8 @alloc_aef7728940fc64c3092d9c76fb7af439) #4
  unreachable

bb37:                                             ; preds = %bb18
  %10 = load ptr, ptr %temp, align 8
  %11 = getelementptr inbounds i8, ptr %10, i64 8
  %_25 = load ptr, ptr %11, align 8
; call core::ptr::mut_ptr::<impl *mut T>::is_null
  %_24 = call zeroext i1 @"_ZN4core3ptr7mut_ptr31_$LT$impl$u20$$BP$mut$u20$T$GT$7is_null17hdc2337c21a69ece5E"(ptr %_25) #3
  br i1 %_24, label %bb14, label %bb13

panic13:                                          ; preds = %bb18
; call core::panicking::panic_null_pointer_dereference
  call void @_ZN4core9panicking30panic_null_pointer_dereference17hf718fcc86a223baaE(ptr align 8 @alloc_aef7728940fc64c3092d9c76fb7af439) #4
  unreachable

bb13:                                             ; preds = %bb37
  %12 = load ptr, ptr %temp, align 8
  %13 = getelementptr inbounds i8, ptr %12, i64 8
  %_26 = load ptr, ptr %13, align 8
  %_34 = ptrtoint ptr %_26 to i64
  %_37 = and i64 %_34, 7
  %_38 = icmp eq i64 %_37, 0
  br i1 %_38, label %bb17, label %panic14

bb14:                                             ; preds = %bb38, %bb37
  %_27 = load ptr, ptr %temp, align 8
  %_28 = ptrtoint ptr %_27 to i64
  %_31 = and i64 %_28, 7
  %_32 = icmp eq i64 %_31, 0
  br i1 %_32, label %bb16, label %panic16

bb17:                                             ; preds = %bb13
  %_170 = ptrtoint ptr %_26 to i64
  %_173 = icmp eq i64 %_170, 0
  %_174 = and i1 %_173, true
  %_175 = xor i1 %_174, true
  br i1 %_175, label %bb38, label %panic15

panic14:                                          ; preds = %bb13
; call core::panicking::panic_misaligned_pointer_dereference
  call void @_ZN4core9panicking36panic_misaligned_pointer_dereference17hcc3cbded9382b6e5E(i64 8, i64 %_34, ptr align 8 @alloc_9cce0dc1affe2430c480bbe2ea11d9ec) #4
  unreachable

bb38:                                             ; preds = %bb17
  %14 = getelementptr inbounds i8, ptr %_26, i64 16
  store ptr %newNode, ptr %14, align 8
  br label %bb14

panic15:                                          ; preds = %bb17
; call core::panicking::panic_null_pointer_dereference
  call void @_ZN4core9panicking30panic_null_pointer_dereference17hf718fcc86a223baaE(ptr align 8 @alloc_9cce0dc1affe2430c480bbe2ea11d9ec) #4
  unreachable

bb16:                                             ; preds = %bb14
  %_176 = load ptr, ptr %temp, align 8
  %_177 = ptrtoint ptr %_176 to i64
  %_180 = icmp eq i64 %_177, 0
  %_181 = and i1 %_180, true
  %_182 = xor i1 %_181, true
  br i1 %_182, label %bb39, label %panic17

panic16:                                          ; preds = %bb14
; call core::panicking::panic_misaligned_pointer_dereference
  call void @_ZN4core9panicking36panic_misaligned_pointer_dereference17hcc3cbded9382b6e5E(i64 8, i64 %_28, ptr align 8 @alloc_e741c05c09a14bcad1b0cfc690cea7ff) #4
  unreachable

bb39:                                             ; preds = %bb16
  %15 = load ptr, ptr %temp, align 8
  %16 = getelementptr inbounds i8, ptr %15, i64 8
  store ptr %newNode, ptr %16, align 8
  br label %bb15

panic17:                                          ; preds = %bb16
; call core::panicking::panic_null_pointer_dereference
  call void @_ZN4core9panicking30panic_null_pointer_dereference17hf718fcc86a223baaE(ptr align 8 @alloc_e741c05c09a14bcad1b0cfc690cea7ff) #4
  unreachable

bb15:                                             ; preds = %bb30, %bb39
  ret void

bb29:                                             ; preds = %bb3
  store ptr %newNode, ptr @head, align 8
  %_117 = icmp eq i64 ptrtoint (ptr @tail to i64), 0
  %_118 = and i1 %_117, true
  %_119 = xor i1 %_118, true
  br i1 %_119, label %bb30, label %panic19

panic18:                                          ; preds = %bb3
; call core::panicking::panic_null_pointer_dereference
  call void @_ZN4core9panicking30panic_null_pointer_dereference17hf718fcc86a223baaE(ptr align 8 @alloc_3aefe61f9c9227222ff0845684ee9c96) #4
  unreachable

bb30:                                             ; preds = %bb29
  store ptr %newNode, ptr @tail, align 8
  br label %bb15

panic19:                                          ; preds = %bb29
; call core::panicking::panic_null_pointer_dereference
  call void @_ZN4core9panicking30panic_null_pointer_dereference17hf718fcc86a223baaE(ptr align 8 @alloc_24b91c732873032889156a0bc504f73e) #4
  unreachable
}

; Function Attrs: nounwind nonlazybind
define void @printLinkedListForward() unnamed_addr #1 {
start:
  %myList = alloca [8 x i8], align 8
  %_1 = call i32 (ptr, ...) @printf(ptr @alloc_c8ad36a10291c91213a24a22e0a383d1) #3
  store ptr null, ptr %myList, align 8
  %_71 = icmp eq i64 ptrtoint (ptr @head to i64), 0
  %_72 = and i1 %_71, true
  %_73 = xor i1 %_72, true
  br i1 %_73, label %bb17, label %panic

bb17:                                             ; preds = %start
  %_7 = load ptr, ptr @head, align 8
  store ptr %_7, ptr %myList, align 8
  br label %bb2

panic:                                            ; preds = %start
; call core::panicking::panic_null_pointer_dereference
  call void @_ZN4core9panicking30panic_null_pointer_dereference17hf718fcc86a223baaE(ptr align 8 @alloc_bb956b0142cd54ecb73ae21d20f9437a) #4
  unreachable

bb2:                                              ; preds = %bb22, %bb17
  %_78 = icmp eq i64 ptrtoint (ptr @head to i64), 0
  %_79 = and i1 %_78, true
  %_80 = xor i1 %_79, true
  br i1 %_80, label %bb18, label %panic1

bb18:                                             ; preds = %bb2
  %_10 = load ptr, ptr @head, align 8
; call core::ptr::mut_ptr::<impl *mut T>::is_null
  %_9 = call zeroext i1 @"_ZN4core3ptr7mut_ptr31_$LT$impl$u20$$BP$mut$u20$T$GT$7is_null17hdc2337c21a69ece5E"(ptr %_10) #3
  br i1 %_9, label %bb9, label %bb4

panic1:                                           ; preds = %bb2
; call core::panicking::panic_null_pointer_dereference
  call void @_ZN4core9panicking30panic_null_pointer_dereference17hf718fcc86a223baaE(ptr align 8 @alloc_5e88a564efe89fa976e17472fd1277a4) #4
  unreachable

bb4:                                              ; preds = %bb18
  %_85 = icmp eq i64 ptrtoint (ptr @tail to i64), 0
  %_86 = and i1 %_85, true
  %_87 = xor i1 %_86, true
  br i1 %_87, label %bb19, label %panic2

bb9:                                              ; preds = %bb21, %bb19, %bb18
  %_26 = call i32 @puts(ptr @alloc_f3588b28b94f0809fcc8d717033d3e48) #3
  ret void

bb19:                                             ; preds = %bb4
  %_13 = load ptr, ptr @tail, align 8
; call core::ptr::mut_ptr::<impl *mut T>::is_null
  %_12 = call zeroext i1 @"_ZN4core3ptr7mut_ptr31_$LT$impl$u20$$BP$mut$u20$T$GT$7is_null17hdc2337c21a69ece5E"(ptr %_13) #3
  br i1 %_12, label %bb9, label %bb6

panic2:                                           ; preds = %bb4
; call core::panicking::panic_null_pointer_dereference
  call void @_ZN4core9panicking30panic_null_pointer_dereference17hf718fcc86a223baaE(ptr align 8 @alloc_a95754416b58e4102b825b2b61af43ce) #4
  unreachable

bb6:                                              ; preds = %bb19
  %_43 = load ptr, ptr %myList, align 8
  %_44 = ptrtoint ptr %_43 to i64
  %_47 = and i64 %_44, 7
  %_48 = icmp eq i64 %_47, 0
  br i1 %_48, label %bb13, label %panic3

bb13:                                             ; preds = %bb6
  %_88 = load ptr, ptr %myList, align 8
  %_89 = ptrtoint ptr %_88 to i64
  %_92 = icmp eq i64 %_89, 0
  %_93 = and i1 %_92, true
  %_94 = xor i1 %_93, true
  br i1 %_94, label %bb20, label %panic4

panic3:                                           ; preds = %bb6
; call core::panicking::panic_misaligned_pointer_dereference
  call void @_ZN4core9panicking36panic_misaligned_pointer_dereference17hcc3cbded9382b6e5E(i64 8, i64 %_44, ptr align 8 @alloc_1628a3301e3b0ab78ce7348938fa67ee) #4
  unreachable

bb20:                                             ; preds = %bb13
  %0 = load ptr, ptr %myList, align 8
  %_20 = load i32, ptr %0, align 8
  %_15 = call i32 (ptr, ...) @printf(ptr @alloc_b929c71616281bfd1be2bd4038d3ddf1, i32 %_20) #3
  %_22 = load ptr, ptr %myList, align 8
  %_99 = icmp eq i64 ptrtoint (ptr @tail to i64), 0
  %_100 = and i1 %_99, true
  %_101 = xor i1 %_100, true
  br i1 %_101, label %bb21, label %panic5

panic4:                                           ; preds = %bb13
; call core::panicking::panic_null_pointer_dereference
  call void @_ZN4core9panicking30panic_null_pointer_dereference17hf718fcc86a223baaE(ptr align 8 @alloc_1628a3301e3b0ab78ce7348938fa67ee) #4
  unreachable

bb21:                                             ; preds = %bb20
  %_23 = load ptr, ptr @tail, align 8
  %_21 = icmp eq ptr %_22, %_23
  br i1 %_21, label %bb9, label %bb8

panic5:                                           ; preds = %bb20
; call core::panicking::panic_null_pointer_dereference
  call void @_ZN4core9panicking30panic_null_pointer_dereference17hf718fcc86a223baaE(ptr align 8 @alloc_88b8b3c7f74958be1c7686e74cdc991d) #4
  unreachable

bb8:                                              ; preds = %bb21
  %_31 = load ptr, ptr %myList, align 8
  %_32 = ptrtoint ptr %_31 to i64
  %_35 = and i64 %_32, 7
  %_36 = icmp eq i64 %_35, 0
  br i1 %_36, label %bb11, label %panic6

bb11:                                             ; preds = %bb8
  %_102 = load ptr, ptr %myList, align 8
  %_103 = ptrtoint ptr %_102 to i64
  %_106 = icmp eq i64 %_103, 0
  %_107 = and i1 %_106, true
  %_108 = xor i1 %_107, true
  br i1 %_108, label %bb22, label %panic7

panic6:                                           ; preds = %bb8
; call core::panicking::panic_misaligned_pointer_dereference
  call void @_ZN4core9panicking36panic_misaligned_pointer_dereference17hcc3cbded9382b6e5E(i64 8, i64 %_32, ptr align 8 @alloc_98b59753286065c98d0cee7a90933332) #4
  unreachable

bb22:                                             ; preds = %bb11
  %1 = load ptr, ptr %myList, align 8
  %2 = getelementptr inbounds i8, ptr %1, i64 8
  %_25 = load ptr, ptr %2, align 8
  store ptr %_25, ptr %myList, align 8
  br label %bb2

panic7:                                           ; preds = %bb11
; call core::panicking::panic_null_pointer_dereference
  call void @_ZN4core9panicking30panic_null_pointer_dereference17hf718fcc86a223baaE(ptr align 8 @alloc_98b59753286065c98d0cee7a90933332) #4
  unreachable
}

; Function Attrs: nounwind nonlazybind
define void @printLinkedListBackward() unnamed_addr #1 {
start:
  %myList = alloca [8 x i8], align 8
  %_1 = call i32 (ptr, ...) @printf(ptr @alloc_5aac9180518332af6feff9a608d54801) #3
  store ptr null, ptr %myList, align 8
  %_69 = icmp eq i64 ptrtoint (ptr @tail to i64), 0
  %_70 = and i1 %_69, true
  %_71 = xor i1 %_70, true
  br i1 %_71, label %bb18, label %panic

bb18:                                             ; preds = %start
  %_7 = load ptr, ptr @tail, align 8
  store ptr %_7, ptr %myList, align 8
  br label %bb2

panic:                                            ; preds = %start
; call core::panicking::panic_null_pointer_dereference
  call void @_ZN4core9panicking30panic_null_pointer_dereference17hf718fcc86a223baaE(ptr align 8 @alloc_5f816a49caa4a0ebce7138414ed26ab7) #4
  unreachable

bb2:                                              ; preds = %bb23, %bb18
  %_76 = icmp eq i64 ptrtoint (ptr @head to i64), 0
  %_77 = and i1 %_76, true
  %_78 = xor i1 %_77, true
  br i1 %_78, label %bb19, label %panic1

bb19:                                             ; preds = %bb2
  %_10 = load ptr, ptr @head, align 8
; call core::ptr::mut_ptr::<impl *mut T>::is_null
  %_9 = call zeroext i1 @"_ZN4core3ptr7mut_ptr31_$LT$impl$u20$$BP$mut$u20$T$GT$7is_null17hdc2337c21a69ece5E"(ptr %_10) #3
  br i1 %_9, label %bb10, label %bb4

panic1:                                           ; preds = %bb2
; call core::panicking::panic_null_pointer_dereference
  call void @_ZN4core9panicking30panic_null_pointer_dereference17hf718fcc86a223baaE(ptr align 8 @alloc_ef9cfd370b10e632b496f9f933984c25) #4
  unreachable

bb4:                                              ; preds = %bb19
  %_83 = icmp eq i64 ptrtoint (ptr @tail to i64), 0
  %_84 = and i1 %_83, true
  %_85 = xor i1 %_84, true
  br i1 %_85, label %bb20, label %panic2

bb10:                                             ; preds = %bb22, %bb20, %bb19
  %_24 = call i32 @puts(ptr @alloc_f3588b28b94f0809fcc8d717033d3e48) #3
  ret void

bb20:                                             ; preds = %bb4
  %_13 = load ptr, ptr @tail, align 8
; call core::ptr::mut_ptr::<impl *mut T>::is_null
  %_12 = call zeroext i1 @"_ZN4core3ptr7mut_ptr31_$LT$impl$u20$$BP$mut$u20$T$GT$7is_null17hdc2337c21a69ece5E"(ptr %_13) #3
  br i1 %_12, label %bb10, label %bb6

panic2:                                           ; preds = %bb4
; call core::panicking::panic_null_pointer_dereference
  call void @_ZN4core9panicking30panic_null_pointer_dereference17hf718fcc86a223baaE(ptr align 8 @alloc_2f7b327cc15b2d60b4779bbbd738d7b3) #4
  unreachable

bb6:                                              ; preds = %bb20
  %_41 = load ptr, ptr %myList, align 8
  %_42 = ptrtoint ptr %_41 to i64
  %_45 = and i64 %_42, 7
  %_46 = icmp eq i64 %_45, 0
  br i1 %_46, label %bb14, label %panic3

bb14:                                             ; preds = %bb6
  %_86 = load ptr, ptr %myList, align 8
  %_87 = ptrtoint ptr %_86 to i64
  %_90 = icmp eq i64 %_87, 0
  %_91 = and i1 %_90, true
  %_92 = xor i1 %_91, true
  br i1 %_92, label %bb21, label %panic4

panic3:                                           ; preds = %bb6
; call core::panicking::panic_misaligned_pointer_dereference
  call void @_ZN4core9panicking36panic_misaligned_pointer_dereference17hcc3cbded9382b6e5E(i64 8, i64 %_42, ptr align 8 @alloc_fc66042420a0c03adf876ddec9b36369) #4
  unreachable

bb21:                                             ; preds = %bb14
  %0 = load ptr, ptr %myList, align 8
  %_20 = load i32, ptr %0, align 8
  %_15 = call i32 (ptr, ...) @printf(ptr @alloc_b929c71616281bfd1be2bd4038d3ddf1, i32 %_20) #3
  %_35 = load ptr, ptr %myList, align 8
  %_36 = ptrtoint ptr %_35 to i64
  %_39 = and i64 %_36, 7
  %_40 = icmp eq i64 %_39, 0
  br i1 %_40, label %bb13, label %panic5

panic4:                                           ; preds = %bb14
; call core::panicking::panic_null_pointer_dereference
  call void @_ZN4core9panicking30panic_null_pointer_dereference17hf718fcc86a223baaE(ptr align 8 @alloc_fc66042420a0c03adf876ddec9b36369) #4
  unreachable

bb13:                                             ; preds = %bb21
  %_93 = load ptr, ptr %myList, align 8
  %_94 = ptrtoint ptr %_93 to i64
  %_97 = icmp eq i64 %_94, 0
  %_98 = and i1 %_97, true
  %_99 = xor i1 %_98, true
  br i1 %_99, label %bb22, label %panic6

panic5:                                           ; preds = %bb21
; call core::panicking::panic_misaligned_pointer_dereference
  call void @_ZN4core9panicking36panic_misaligned_pointer_dereference17hcc3cbded9382b6e5E(i64 8, i64 %_36, ptr align 8 @alloc_c9650a4d32889701bdc375f1a9086aba) #4
  unreachable

bb22:                                             ; preds = %bb13
  %1 = load ptr, ptr %myList, align 8
  %2 = getelementptr inbounds i8, ptr %1, i64 16
  %_22 = load ptr, ptr %2, align 8
; call core::ptr::mut_ptr::<impl *mut T>::is_null
  %_21 = call zeroext i1 @"_ZN4core3ptr7mut_ptr31_$LT$impl$u20$$BP$mut$u20$T$GT$7is_null17hdc2337c21a69ece5E"(ptr %_22) #3
  br i1 %_21, label %bb10, label %bb9

panic6:                                           ; preds = %bb13
; call core::panicking::panic_null_pointer_dereference
  call void @_ZN4core9panicking30panic_null_pointer_dereference17hf718fcc86a223baaE(ptr align 8 @alloc_c9650a4d32889701bdc375f1a9086aba) #4
  unreachable

bb9:                                              ; preds = %bb22
  %_29 = load ptr, ptr %myList, align 8
  %_30 = ptrtoint ptr %_29 to i64
  %_33 = and i64 %_30, 7
  %_34 = icmp eq i64 %_33, 0
  br i1 %_34, label %bb12, label %panic7

bb12:                                             ; preds = %bb9
  %_100 = load ptr, ptr %myList, align 8
  %_101 = ptrtoint ptr %_100 to i64
  %_104 = icmp eq i64 %_101, 0
  %_105 = and i1 %_104, true
  %_106 = xor i1 %_105, true
  br i1 %_106, label %bb23, label %panic8

panic7:                                           ; preds = %bb9
; call core::panicking::panic_misaligned_pointer_dereference
  call void @_ZN4core9panicking36panic_misaligned_pointer_dereference17hcc3cbded9382b6e5E(i64 8, i64 %_30, ptr align 8 @alloc_657d5b8aa30d124b1a4cb0e7497c5d27) #4
  unreachable

bb23:                                             ; preds = %bb12
  %3 = load ptr, ptr %myList, align 8
  %4 = getelementptr inbounds i8, ptr %3, i64 16
  %_23 = load ptr, ptr %4, align 8
  store ptr %_23, ptr %myList, align 8
  br label %bb2

panic8:                                           ; preds = %bb12
; call core::panicking::panic_null_pointer_dereference
  call void @_ZN4core9panicking30panic_null_pointer_dereference17hf718fcc86a223baaE(ptr align 8 @alloc_657d5b8aa30d124b1a4cb0e7497c5d27) #4
  unreachable
}

; Function Attrs: nounwind nonlazybind
declare ptr @malloc(i64) unnamed_addr #1

; core::panicking::panic_misaligned_pointer_dereference
; Function Attrs: cold minsize noinline noreturn nounwind nonlazybind optsize
declare void @_ZN4core9panicking36panic_misaligned_pointer_dereference17hcc3cbded9382b6e5E(i64, i64, ptr align 8) unnamed_addr #2

; core::panicking::panic_null_pointer_dereference
; Function Attrs: cold minsize noinline noreturn nounwind nonlazybind optsize
declare void @_ZN4core9panicking30panic_null_pointer_dereference17hf718fcc86a223baaE(ptr align 8) unnamed_addr #2

; Function Attrs: nounwind nonlazybind
declare i32 @printf(ptr, ...) unnamed_addr #1

; Function Attrs: nounwind nonlazybind
declare i32 @puts(ptr) unnamed_addr #1

attributes #0 = { inlinehint nounwind nonlazybind "probe-stack"="inline-asm" "target-cpu"="x86-64" }
attributes #1 = { nounwind nonlazybind "probe-stack"="inline-asm" "target-cpu"="x86-64" }
attributes #2 = { cold minsize noinline noreturn nounwind nonlazybind optsize "probe-stack"="inline-asm" "target-cpu"="x86-64" }
attributes #3 = { nounwind }
attributes #4 = { noreturn nounwind }

!llvm.module.flags = !{!0, !1}
!llvm.ident = !{!2}

!0 = !{i32 8, !"PIC Level", i32 2}
!1 = !{i32 2, !"RtLibUseGOT", i32 1}
!2 = !{!"rustc version 1.88.0-nightly (0b45675cf 2025-03-31)"}
