; ModuleID = '3x9gv9kpx9qgxbgfi65mnj2nx'
source_filename = "3x9gv9kpx9qgxbgfi65mnj2nx"
target datalayout = "e-m:e-p270:32:32-p271:32:32-p272:64:64-i64:64-i128:128-f80:128-n8:16:32:64-S128"
target triple = "x86_64-unknown-linux-gnu"

@alloc_0ed0763d8bf93ac79247e07858374e35 = private unnamed_addr constant [210 x i8] c"unsafe precondition(s) violated: ptr::offset requires the address calculation to not overflow\0A\0AThis indicates a bug in the program. This Undefined Behavior check is optional, and cannot be relied on for safety.", align 1
@alloc_f5ffd2fd1476bab43ad89fb40c72d0c5 = private unnamed_addr constant [10 x i8] c"src/lib.rs", align 1
@alloc_6225c859e57c19b6988d6392d694501c = private unnamed_addr constant <{ ptr, [16 x i8] }> <{ ptr @alloc_f5ffd2fd1476bab43ad89fb40c72d0c5, [16 x i8] c"\0A\00\00\00\00\00\00\00(\00\00\00\0D\00\00\00" }>, align 8
@alloc_cd438b3af5b0e483afa190703e8a27aa = private unnamed_addr constant <{ ptr, [16 x i8] }> <{ ptr @alloc_f5ffd2fd1476bab43ad89fb40c72d0c5, [16 x i8] c"\0A\00\00\00\00\00\00\000\00\00\00\1F\00\00\00" }>, align 8
@alloc_0539cf19d9c6d66d8a77c96c489f55c8 = private unnamed_addr constant <{ ptr, [16 x i8] }> <{ ptr @alloc_f5ffd2fd1476bab43ad89fb40c72d0c5, [16 x i8] c"\0A\00\00\00\00\00\00\000\00\00\00\1E\00\00\00" }>, align 8
@alloc_792b2cd8738164848fe2e1a1b14f4456 = private unnamed_addr constant <{ ptr, [16 x i8] }> <{ ptr @alloc_f5ffd2fd1476bab43ad89fb40c72d0c5, [16 x i8] c"\0A\00\00\00\00\00\00\001\00\00\00\1B\00\00\00" }>, align 8
@alloc_2222d630ee5050ae3333ab96e03e8f44 = private unnamed_addr constant <{ ptr, [16 x i8] }> <{ ptr @alloc_f5ffd2fd1476bab43ad89fb40c72d0c5, [16 x i8] c"\0A\00\00\00\00\00\00\001\00\00\00\09\00\00\00" }>, align 8
@alloc_22723da7d6d296efe267d3e007068022 = private unnamed_addr constant <{ ptr, [16 x i8] }> <{ ptr @alloc_f5ffd2fd1476bab43ad89fb40c72d0c5, [16 x i8] c"\0A\00\00\00\00\00\00\002\00\00\00\10\00\00\00" }>, align 8
@alloc_1da0d0ac19b18ac0f3bdbf43056312ea = private unnamed_addr constant <{ ptr, [16 x i8] }> <{ ptr @alloc_f5ffd2fd1476bab43ad89fb40c72d0c5, [16 x i8] c"\0A\00\00\00\00\00\00\002\00\00\00\0F\00\00\00" }>, align 8
@alloc_7be742c9b520bc74e9352f2316f65b6d = private unnamed_addr constant <{ ptr, [16 x i8] }> <{ ptr @alloc_f5ffd2fd1476bab43ad89fb40c72d0c5, [16 x i8] c"\0A\00\00\00\00\00\00\003\00\00\00\1B\00\00\00" }>, align 8
@alloc_218d9d0452f6bf4ce299c6265c8e4b17 = private unnamed_addr constant <{ ptr, [16 x i8] }> <{ ptr @alloc_f5ffd2fd1476bab43ad89fb40c72d0c5, [16 x i8] c"\0A\00\00\00\00\00\00\003\00\00\00\09\00\00\00" }>, align 8
@alloc_78ca424a1220d41ea0138521e44927b7 = private unnamed_addr constant <{ ptr, [16 x i8] }> <{ ptr @alloc_f5ffd2fd1476bab43ad89fb40c72d0c5, [16 x i8] c"\0A\00\00\00\00\00\00\00;\00\00\00\10\00\00\00" }>, align 8
@alloc_a1e18b7b6a67c64fc33ee1b89479dd43 = private unnamed_addr constant <{ ptr, [16 x i8] }> <{ ptr @alloc_f5ffd2fd1476bab43ad89fb40c72d0c5, [16 x i8] c"\0A\00\00\00\00\00\00\00<\00\00\00\0F\00\00\00" }>, align 8
@alloc_0bbd10dca8b30a537db690bd287f84de = private unnamed_addr constant <{ ptr, [16 x i8] }> <{ ptr @alloc_f5ffd2fd1476bab43ad89fb40c72d0c5, [16 x i8] c"\0A\00\00\00\00\00\00\00<\00\00\00\0C\00\00\00" }>, align 8
@alloc_f468e5a7d7099df292890af5af18c1f3 = private unnamed_addr constant <{ ptr, [16 x i8] }> <{ ptr @alloc_f5ffd2fd1476bab43ad89fb40c72d0c5, [16 x i8] c"\0A\00\00\00\00\00\00\00=\00\00\00\12\00\00\00" }>, align 8
@alloc_c5a6aab7f7b41ad8d832fc61ac38d1b8 = private unnamed_addr constant <{ ptr, [16 x i8] }> <{ ptr @alloc_f5ffd2fd1476bab43ad89fb40c72d0c5, [16 x i8] c"\0A\00\00\00\00\00\00\00=\00\00\00\0F\00\00\00" }>, align 8
@alloc_f77e4ca413fd413b8d0dbfaac50e1b0d = private unnamed_addr constant <{ ptr, [16 x i8] }> <{ ptr @alloc_f5ffd2fd1476bab43ad89fb40c72d0c5, [16 x i8] c"\0A\00\00\00\00\00\00\00A\00\00\00\0F\00\00\00" }>, align 8
@alloc_1d228fcff3e4d7370127d1bd2fc0d23c = private unnamed_addr constant <{ ptr, [16 x i8] }> <{ ptr @alloc_f5ffd2fd1476bab43ad89fb40c72d0c5, [16 x i8] c"\0A\00\00\00\00\00\00\00B\00\00\00\0F\00\00\00" }>, align 8
@alloc_52ec6808e7478eb5c21ceaaf176e7ea8 = private unnamed_addr constant <{ ptr, [16 x i8] }> <{ ptr @alloc_f5ffd2fd1476bab43ad89fb40c72d0c5, [16 x i8] c"\0A\00\00\00\00\00\00\00B\00\00\00\0C\00\00\00" }>, align 8
@alloc_e233e8e565fc3d1ff2224857227b5adc = private unnamed_addr constant <{ ptr, [16 x i8] }> <{ ptr @alloc_f5ffd2fd1476bab43ad89fb40c72d0c5, [16 x i8] c"\0A\00\00\00\00\00\00\00C\00\00\00\12\00\00\00" }>, align 8
@alloc_a3ec9be7e117f4309e0a429974ad2022 = private unnamed_addr constant <{ ptr, [16 x i8] }> <{ ptr @alloc_f5ffd2fd1476bab43ad89fb40c72d0c5, [16 x i8] c"\0A\00\00\00\00\00\00\00C\00\00\00\0F\00\00\00" }>, align 8
@alloc_b6e19de1f5151b51b8788bfc8ca6e5c9 = private unnamed_addr constant <{ ptr, [16 x i8] }> <{ ptr @alloc_f5ffd2fd1476bab43ad89fb40c72d0c5, [16 x i8] c"\0A\00\00\00\00\00\00\00P\00\00\00\05\00\00\00" }>, align 8
@alloc_21bab6856a00df07d869582a6654a89d = private unnamed_addr constant <{ ptr, [16 x i8] }> <{ ptr @alloc_f5ffd2fd1476bab43ad89fb40c72d0c5, [16 x i8] c"\0A\00\00\00\00\00\00\00Q\00\00\00\05\00\00\00" }>, align 8
@alloc_0fbc5922dcb931fb4063549d6abdd313 = private unnamed_addr constant <{ ptr, [16 x i8] }> <{ ptr @alloc_f5ffd2fd1476bab43ad89fb40c72d0c5, [16 x i8] c"\0A\00\00\00\00\00\00\00U\00\00\00\1B\00\00\00" }>, align 8
@alloc_bb689b693e85b438ed3fcda2b087a10d = private unnamed_addr constant <{ ptr, [16 x i8] }> <{ ptr @alloc_f5ffd2fd1476bab43ad89fb40c72d0c5, [16 x i8] c"\0A\00\00\00\00\00\00\00R\00\00\00\05\00\00\00" }>, align 8
@alloc_3391c9890c6f583060cb51d45026549b = private unnamed_addr constant <{ ptr, [16 x i8] }> <{ ptr @alloc_f5ffd2fd1476bab43ad89fb40c72d0c5, [16 x i8] c"\0A\00\00\00\00\00\00\00[\00\00\00'\00\00\00" }>, align 8
@alloc_8aba2e1a350eab404562435ee4ddc96a = private unnamed_addr constant <{ ptr, [16 x i8] }> <{ ptr @alloc_f5ffd2fd1476bab43ad89fb40c72d0c5, [16 x i8] c"\0A\00\00\00\00\00\00\00]\00\00\00\12\00\00\00" }>, align 8
@alloc_9b9528a54cda03cb3feec025059bde1d = private unnamed_addr constant <{ ptr, [16 x i8] }> <{ ptr @alloc_f5ffd2fd1476bab43ad89fb40c72d0c5, [16 x i8] c"\0A\00\00\00\00\00\00\00^\00\00\00\14\00\00\00" }>, align 8
@alloc_07f2a10419476346bdf5125fe00f2160 = private unnamed_addr constant <{ ptr, [16 x i8] }> <{ ptr @alloc_f5ffd2fd1476bab43ad89fb40c72d0c5, [16 x i8] c"\0A\00\00\00\00\00\00\00^\00\00\00\05\00\00\00" }>, align 8
@alloc_a06b3758f98af0e6a9c996c3ef9dc7d8 = private unnamed_addr constant <{ ptr, [16 x i8] }> <{ ptr @alloc_f5ffd2fd1476bab43ad89fb40c72d0c5, [16 x i8] c"\0A\00\00\00\00\00\00\00_\00\00\00\1B\00\00\00" }>, align 8
@alloc_e6d9feeb3090cf025dddbb08a4db89fe = private unnamed_addr constant <{ ptr, [16 x i8] }> <{ ptr @alloc_f5ffd2fd1476bab43ad89fb40c72d0c5, [16 x i8] c"\0A\00\00\00\00\00\00\00_\00\00\00\09\00\00\00" }>, align 8
@alloc_7f495fe1ac15636e9e724ca98f22e437 = private unnamed_addr constant <{ ptr, [16 x i8] }> <{ ptr @alloc_f5ffd2fd1476bab43ad89fb40c72d0c5, [16 x i8] c"\0A\00\00\00\00\00\00\00b\00\00\00\12\00\00\00" }>, align 8
@alloc_488112053842d520e15d2c00a116f366 = private unnamed_addr constant <{ ptr, [16 x i8] }> <{ ptr @alloc_f5ffd2fd1476bab43ad89fb40c72d0c5, [16 x i8] c"\0A\00\00\00\00\00\00\00f\00\00\00\0F\00\00\00" }>, align 8
@alloc_4daa90aa747b682a443b3a1406be0ee6 = private unnamed_addr constant <{ ptr, [16 x i8] }> <{ ptr @alloc_f5ffd2fd1476bab43ad89fb40c72d0c5, [16 x i8] c"\0A\00\00\00\00\00\00\00f\00\00\00\0C\00\00\00" }>, align 8
@alloc_9831bed29e09a7428ad22e994ae86821 = private unnamed_addr constant <{ ptr, [16 x i8] }> <{ ptr @alloc_f5ffd2fd1476bab43ad89fb40c72d0c5, [16 x i8] c"\0A\00\00\00\00\00\00\00g\00\00\00\13\00\00\00" }>, align 8
@alloc_3f0d57d7530178370fbcb70690196195 = private unnamed_addr constant <{ ptr, [16 x i8] }> <{ ptr @alloc_f5ffd2fd1476bab43ad89fb40c72d0c5, [16 x i8] c"\0A\00\00\00\00\00\00\00g\00\00\00\10\00\00\00" }>, align 8
@alloc_08a1751d7665d3f36341e6a883ca773f = private unnamed_addr constant <{ ptr, [16 x i8] }> <{ ptr @alloc_f5ffd2fd1476bab43ad89fb40c72d0c5, [16 x i8] c"\0A\00\00\00\00\00\00\00s\00\00\00\22\00\00\00" }>, align 8
@alloc_1db6a2766d7e359deeb8a928b3e4113a = private unnamed_addr constant <{ ptr, [16 x i8] }> <{ ptr @alloc_f5ffd2fd1476bab43ad89fb40c72d0c5, [16 x i8] c"\0A\00\00\00\00\00\00\00s\00\00\00!\00\00\00" }>, align 8
@alloc_19fcaf815a6a6ee4b973cfb983e5063d = private unnamed_addr constant <{ ptr, [16 x i8] }> <{ ptr @alloc_f5ffd2fd1476bab43ad89fb40c72d0c5, [16 x i8] c"\0A\00\00\00\00\00\00\00t\00\00\00\05\00\00\00" }>, align 8
@alloc_6716e4dd3cafa925fc741bef94ed4827 = private unnamed_addr constant <{ ptr, [16 x i8] }> <{ ptr @alloc_f5ffd2fd1476bab43ad89fb40c72d0c5, [16 x i8] c"\0A\00\00\00\00\00\00\00u\00\00\00\1B\00\00\00" }>, align 8
@alloc_4bf04db4eba7c6243120463bfcde9f86 = private unnamed_addr constant <{ ptr, [16 x i8] }> <{ ptr @alloc_f5ffd2fd1476bab43ad89fb40c72d0c5, [16 x i8] c"\0A\00\00\00\00\00\00\00u\00\00\00\09\00\00\00" }>, align 8
@alloc_be205869ac82c550ab79d0771368b7d5 = private unnamed_addr constant <{ ptr, [16 x i8] }> <{ ptr @alloc_f5ffd2fd1476bab43ad89fb40c72d0c5, [16 x i8] c"\0A\00\00\00\00\00\00\00v\00\00\00\10\00\00\00" }>, align 8
@alloc_3987039cf247d4cfd6b76c5e7c054762 = private unnamed_addr constant <{ ptr, [16 x i8] }> <{ ptr @alloc_f5ffd2fd1476bab43ad89fb40c72d0c5, [16 x i8] c"\0A\00\00\00\00\00\00\00v\00\00\00&\00\00\00" }>, align 8
@alloc_5659de74f09cc2e5ae79f112a4531842 = private unnamed_addr constant <{ ptr, [16 x i8] }> <{ ptr @alloc_f5ffd2fd1476bab43ad89fb40c72d0c5, [16 x i8] c"\0A\00\00\00\00\00\00\00v\00\00\00\0F\00\00\00" }>, align 8
@alloc_1bde55f592e87209333373f3bc0d3f6d = private unnamed_addr constant <{ ptr, [16 x i8] }> <{ ptr @alloc_f5ffd2fd1476bab43ad89fb40c72d0c5, [16 x i8] c"\0A\00\00\00\00\00\00\00\86\00\00\00\10\00\00\00" }>, align 8
@alloc_165825dc883498cafbcc08dd7d60bb6b = private unnamed_addr constant <{ ptr, [16 x i8] }> <{ ptr @alloc_f5ffd2fd1476bab43ad89fb40c72d0c5, [16 x i8] c"\0A\00\00\00\00\00\00\00\87\00\00\00\14\00\00\00" }>, align 8
@alloc_dd188b5eadf28d1de95a49a5d7b6f2b5 = private unnamed_addr constant <{ ptr, [16 x i8] }> <{ ptr @alloc_f5ffd2fd1476bab43ad89fb40c72d0c5, [16 x i8] c"\0A\00\00\00\00\00\00\00\A1\00\00\00\22\00\00\00" }>, align 8
@alloc_5e88a564efe89fa976e17472fd1277a4 = private unnamed_addr constant <{ ptr, [16 x i8] }> <{ ptr @alloc_f5ffd2fd1476bab43ad89fb40c72d0c5, [16 x i8] c"\0A\00\00\00\00\00\00\00\9E\00\00\00\0D\00\00\00" }>, align 8
@alloc_f3588b28b94f0809fcc8d717033d3e48 = private unnamed_addr constant [2 x i8] c"\0A\00", align 1
@alloc_b929c71616281bfd1be2bd4038d3ddf1 = private unnamed_addr constant [4 x i8] c"%d \00", align 1
@alloc_271037ffdbe6af0aa60f85cb6227b12f = private unnamed_addr constant <{ ptr, [16 x i8] }> <{ ptr @alloc_f5ffd2fd1476bab43ad89fb40c72d0c5, [16 x i8] c"\0A\00\00\00\00\00\00\00\B3\00\00\00\11\00\00\00" }>, align 8
@alloc_7a8677e6f88c8cb5d11784c43b45709b = private unnamed_addr constant <{ ptr, [16 x i8] }> <{ ptr @alloc_f5ffd2fd1476bab43ad89fb40c72d0c5, [16 x i8] c"\0A\00\00\00\00\00\00\00\C6\00\00\00\1A\00\00\00" }>, align 8
@alloc_8c10ced135ffc3554774c32cb4497baf = private unnamed_addr constant <{ ptr, [16 x i8] }> <{ ptr @alloc_f5ffd2fd1476bab43ad89fb40c72d0c5, [16 x i8] c"\0A\00\00\00\00\00\00\00\C3\00\00\00\05\00\00\00" }>, align 8
@alloc_6c08595244a958eed82e30ef1b14ef63 = private unnamed_addr constant <{ ptr, [16 x i8] }> <{ ptr @alloc_f5ffd2fd1476bab43ad89fb40c72d0c5, [16 x i8] c"\0A\00\00\00\00\00\00\00\C7\00\00\00\05\00\00\00" }>, align 8
@alloc_4945c00756679d3ae5e78d0863193809 = private unnamed_addr constant <{ ptr, [16 x i8] }> <{ ptr @alloc_f5ffd2fd1476bab43ad89fb40c72d0c5, [16 x i8] c"\0A\00\00\00\00\00\00\00\D2\00\00\00\1A\00\00\00" }>, align 8
@alloc_8e99f3de8f967564ecbf12f1d0cee32d = private unnamed_addr constant <{ ptr, [16 x i8] }> <{ ptr @alloc_f5ffd2fd1476bab43ad89fb40c72d0c5, [16 x i8] c"\0A\00\00\00\00\00\00\00\CF\00\00\00\05\00\00\00" }>, align 8
@alloc_99ff1f2c57bfd2d42a74e9136607bf6c = private unnamed_addr constant <{ ptr, [16 x i8] }> <{ ptr @alloc_f5ffd2fd1476bab43ad89fb40c72d0c5, [16 x i8] c"\0A\00\00\00\00\00\00\00\D3\00\00\00\05\00\00\00" }>, align 8
@alloc_24c9910e30582f0318a6bc1af0fa1563 = private unnamed_addr constant <{ ptr, [16 x i8] }> <{ ptr @alloc_f5ffd2fd1476bab43ad89fb40c72d0c5, [16 x i8] c"\0A\00\00\00\00\00\00\00\DE\00\00\00\1A\00\00\00" }>, align 8
@alloc_b3c30bf77b034b39ce6bbf14755a8fcf = private unnamed_addr constant <{ ptr, [16 x i8] }> <{ ptr @alloc_f5ffd2fd1476bab43ad89fb40c72d0c5, [16 x i8] c"\0A\00\00\00\00\00\00\00\DB\00\00\00\05\00\00\00" }>, align 8
@alloc_3cc46a0341595c117ecd903ddec22fc4 = private unnamed_addr constant <{ ptr, [16 x i8] }> <{ ptr @alloc_f5ffd2fd1476bab43ad89fb40c72d0c5, [16 x i8] c"\0A\00\00\00\00\00\00\00\DF\00\00\00\05\00\00\00" }>, align 8
@alloc_81271df0a0bdd2d525752147daf8fc75 = private unnamed_addr constant <{ ptr, [16 x i8] }> <{ ptr @alloc_f5ffd2fd1476bab43ad89fb40c72d0c5, [16 x i8] c"\0A\00\00\00\00\00\00\00\EA\00\00\00\1A\00\00\00" }>, align 8
@alloc_9d934ebed2d56c3f64eb365068ae4e43 = private unnamed_addr constant <{ ptr, [16 x i8] }> <{ ptr @alloc_f5ffd2fd1476bab43ad89fb40c72d0c5, [16 x i8] c"\0A\00\00\00\00\00\00\00\E7\00\00\00\05\00\00\00" }>, align 8
@alloc_e1d54068238f4889a1a0804d5d0109e9 = private unnamed_addr constant <{ ptr, [16 x i8] }> <{ ptr @alloc_f5ffd2fd1476bab43ad89fb40c72d0c5, [16 x i8] c"\0A\00\00\00\00\00\00\00\EB\00\00\00\05\00\00\00" }>, align 8
@alloc_e848b41c742498d754630ff1ca539ccd = private unnamed_addr constant <{ ptr, [16 x i8] }> <{ ptr @alloc_f5ffd2fd1476bab43ad89fb40c72d0c5, [16 x i8] c"\0A\00\00\00\00\00\00\00\F9\00\00\00\12\00\00\00" }>, align 8
@alloc_320fc64d3b1fabe47cf881b14cfec3e8 = private unnamed_addr constant <{ ptr, [16 x i8] }> <{ ptr @alloc_f5ffd2fd1476bab43ad89fb40c72d0c5, [16 x i8] c"\0A\00\00\00\00\00\00\00\FA\00\00\00\14\00\00\00" }>, align 8
@alloc_4cc5768ac5dba5d769c164bd8be41343 = private unnamed_addr constant <{ ptr, [16 x i8] }> <{ ptr @alloc_f5ffd2fd1476bab43ad89fb40c72d0c5, [16 x i8] c"\0A\00\00\00\00\00\00\00\FB\00\00\00\18\00\00\00" }>, align 8
@alloc_211f796e9eb081085a89e33423c5c492 = private unnamed_addr constant <{ ptr, [16 x i8] }> <{ ptr @alloc_f5ffd2fd1476bab43ad89fb40c72d0c5, [16 x i8] c"\0A\00\00\00\00\00\00\00\0C\01\00\00\16\00\00\00" }>, align 8
@alloc_0255bdacfc758ed5f7f5c39e96c93d62 = private unnamed_addr constant [3 x i8] c"^\0A\00", align 1
@alloc_962e455fd6b2d718ae557530a1113f83 = private unnamed_addr constant <{ ptr, [16 x i8] }> <{ ptr @alloc_f5ffd2fd1476bab43ad89fb40c72d0c5, [16 x i8] c"\0A\00\00\00\00\00\00\00\10\01\00\00\10\00\00\00" }>, align 8
@alloc_e62145b73211de3520bb4848e3df1db2 = private unnamed_addr constant <{ ptr, [16 x i8] }> <{ ptr @alloc_f5ffd2fd1476bab43ad89fb40c72d0c5, [16 x i8] c"\0A\00\00\00\00\00\00\00\1A\01\00\00\17\00\00\00" }>, align 8
@alloc_dfd98ba6b0ede2cedf679424528a1507 = private unnamed_addr constant <{ ptr, [16 x i8] }> <{ ptr @alloc_f5ffd2fd1476bab43ad89fb40c72d0c5, [16 x i8] c"\0A\00\00\00\00\00\00\00\1D\01\00\00\10\00\00\00" }>, align 8
@alloc_394d2eef08039d4bf78192ec03246064 = private unnamed_addr constant <{ ptr, [16 x i8] }> <{ ptr @alloc_f5ffd2fd1476bab43ad89fb40c72d0c5, [16 x i8] c"\0A\00\00\00\00\00\00\00(\01\00\00\11\00\00\00" }>, align 8
@alloc_c1aef3a53b87adb9f63326ee0826c0b1 = private unnamed_addr constant <{ ptr, [16 x i8] }> <{ ptr @alloc_f5ffd2fd1476bab43ad89fb40c72d0c5, [16 x i8] c"\0A\00\00\00\00\00\00\00+\01\00\00\10\00\00\00" }>, align 8
@alloc_9aa3d4cb771be2d39038c33513ef6310 = private unnamed_addr constant <{ ptr, [16 x i8] }> <{ ptr @alloc_f5ffd2fd1476bab43ad89fb40c72d0c5, [16 x i8] c"\0A\00\00\00\00\00\00\00+\01\00\005\00\00\00" }>, align 8
@alloc_26f64ef294d8dfb24d7e5be7f8904c24 = private unnamed_addr constant <{ ptr, [16 x i8] }> <{ ptr @alloc_f5ffd2fd1476bab43ad89fb40c72d0c5, [16 x i8] c"\0A\00\00\00\00\00\00\002\01\00\00\0D\00\00\00" }>, align 8
@alloc_c12721253378ec2ffe6ac1c29dc75ca8 = private unnamed_addr constant <{ ptr, [16 x i8] }> <{ ptr @alloc_f5ffd2fd1476bab43ad89fb40c72d0c5, [16 x i8] c"\0A\00\00\00\00\00\00\00-\01\00\00\11\00\00\00" }>, align 8
@alloc_21adbce5683f19049361dd0325592761 = private unnamed_addr constant <{ ptr, [16 x i8] }> <{ ptr @alloc_f5ffd2fd1476bab43ad89fb40c72d0c5, [16 x i8] c"\0A\00\00\00\00\00\00\00.\01\00\00\17\00\00\00" }>, align 8
@alloc_3b0bc357375a9531043dc41623b88e71 = private unnamed_addr constant <{ ptr, [16 x i8] }> <{ ptr @alloc_f5ffd2fd1476bab43ad89fb40c72d0c5, [16 x i8] c"\0A\00\00\00\00\00\00\00C\01\00\00\05\00\00\00" }>, align 8
@alloc_d749a91268280a171e585767389bbb7a = private unnamed_addr constant <{ ptr, [16 x i8] }> <{ ptr @alloc_f5ffd2fd1476bab43ad89fb40c72d0c5, [16 x i8] c"\0A\00\00\00\00\00\00\00D\01\00\00\05\00\00\00" }>, align 8
@alloc_decb060d197e9b6484cd4cc31c81c5a4 = private unnamed_addr constant <{ ptr, [16 x i8] }> <{ ptr @alloc_f5ffd2fd1476bab43ad89fb40c72d0c5, [16 x i8] c"\0A\00\00\00\00\00\00\00E\01\00\00\05\00\00\00" }>, align 8
@alloc_9d0f48a7a3d26413f45b3b6a4cebbcc3 = private unnamed_addr constant <{ ptr, [16 x i8] }> <{ ptr @alloc_f5ffd2fd1476bab43ad89fb40c72d0c5, [16 x i8] c"\0A\00\00\00\00\00\00\00F\01\00\00\05\00\00\00" }>, align 8
@alloc_c9f177d3ad5d35d7166ac8b991c9051a = private unnamed_addr constant <{ ptr, [16 x i8] }> <{ ptr @alloc_f5ffd2fd1476bab43ad89fb40c72d0c5, [16 x i8] c"\0A\00\00\00\00\00\00\00G\01\00\00\15\00\00\00" }>, align 8
@alloc_596aee64830774437b7a34c3c82918c3 = private unnamed_addr constant <{ ptr, [16 x i8] }> <{ ptr @alloc_f5ffd2fd1476bab43ad89fb40c72d0c5, [16 x i8] c"\0A\00\00\00\00\00\00\00M\01\00\00\17\00\00\00" }>, align 8
@alloc_d002c5be7e11c4e18f05a3f3024257b7 = private unnamed_addr constant <{ ptr, [16 x i8] }> <{ ptr @alloc_f5ffd2fd1476bab43ad89fb40c72d0c5, [16 x i8] c"\0A\00\00\00\00\00\00\00Q\01\00\00\17\00\00\00" }>, align 8
@alloc_9d5ac98a5617185912a16163dc1d0cb9 = private unnamed_addr constant <{ ptr, [16 x i8] }> <{ ptr @alloc_f5ffd2fd1476bab43ad89fb40c72d0c5, [16 x i8] c"\0A\00\00\00\00\00\00\00R\01\00\00\10\00\00\00" }>, align 8
@alloc_11239acc0aaf74c1ea2fc527f03746e0 = private unnamed_addr constant <{ ptr, [16 x i8] }> <{ ptr @alloc_f5ffd2fd1476bab43ad89fb40c72d0c5, [16 x i8] c"\0A\00\00\00\00\00\00\00S\01\00\00/\00\00\00" }>, align 8
@alloc_41f2463e84ceebea15c708e0968acd5b = private unnamed_addr constant <{ ptr, [16 x i8] }> <{ ptr @alloc_f5ffd2fd1476bab43ad89fb40c72d0c5, [16 x i8] c"\0A\00\00\00\00\00\00\00S\01\00\00A\00\00\00" }>, align 8
@alloc_642c696da1c5746ad1c65df1af1ff43f = private unnamed_addr constant <{ ptr, [16 x i8] }> <{ ptr @alloc_f5ffd2fd1476bab43ad89fb40c72d0c5, [16 x i8] c"\0A\00\00\00\00\00\00\00W\01\00\005\00\00\00" }>, align 8
@alloc_845a08929855bd800f144bd02a8e99ed = private unnamed_addr constant <{ ptr, [16 x i8] }> <{ ptr @alloc_f5ffd2fd1476bab43ad89fb40c72d0c5, [16 x i8] c"\0A\00\00\00\00\00\00\00X\01\00\00!\00\00\00" }>, align 8
@alloc_1a03635bec02b33b0028dc22f86ce1fa = private unnamed_addr constant <{ ptr, [16 x i8] }> <{ ptr @alloc_f5ffd2fd1476bab43ad89fb40c72d0c5, [16 x i8] c"\0A\00\00\00\00\00\00\00X\01\00\00\15\00\00\00" }>, align 8
@alloc_d14860202e76186a23431e729bd65b32 = private unnamed_addr constant <{ ptr, [16 x i8] }> <{ ptr @alloc_f5ffd2fd1476bab43ad89fb40c72d0c5, [16 x i8] c"\0A\00\00\00\00\00\00\00Y\01\00\00!\00\00\00" }>, align 8
@alloc_ac280b430b4f090ba154940e4ebe9fb8 = private unnamed_addr constant <{ ptr, [16 x i8] }> <{ ptr @alloc_f5ffd2fd1476bab43ad89fb40c72d0c5, [16 x i8] c"\0A\00\00\00\00\00\00\00Y\01\00\00\15\00\00\00" }>, align 8
@alloc_37e358a3db589cc3e251f11fd4573539 = private unnamed_addr constant <{ ptr, [16 x i8] }> <{ ptr @alloc_f5ffd2fd1476bab43ad89fb40c72d0c5, [16 x i8] c"\0A\00\00\00\00\00\00\00Z\01\00\00\15\00\00\00" }>, align 8
@alloc_8b2fd1b498d75f334280df165288cbf5 = private unnamed_addr constant <{ ptr, [16 x i8] }> <{ ptr @alloc_f5ffd2fd1476bab43ad89fb40c72d0c5, [16 x i8] c"\0A\00\00\00\00\00\00\00[\01\00\00:\00\00\00" }>, align 8
@alloc_b316e50b61750e38288fd40b9fee757b = private unnamed_addr constant <{ ptr, [16 x i8] }> <{ ptr @alloc_f5ffd2fd1476bab43ad89fb40c72d0c5, [16 x i8] c"\0A\00\00\00\00\00\00\00[\01\00\00\15\00\00\00" }>, align 8
@alloc_89b2a93ae0de04f5d2ea47ab93d75242 = private unnamed_addr constant <{ ptr, [16 x i8] }> <{ ptr @alloc_f5ffd2fd1476bab43ad89fb40c72d0c5, [16 x i8] c"\0A\00\00\00\00\00\00\00_\01\00\00\17\00\00\00" }>, align 8
@alloc_8f965036c56e2b272a74f3d0f23a6ab6 = private unnamed_addr constant <{ ptr, [16 x i8] }> <{ ptr @alloc_f5ffd2fd1476bab43ad89fb40c72d0c5, [16 x i8] c"\0A\00\00\00\00\00\00\00`\01\00\00\10\00\00\00" }>, align 8
@alloc_aaf0f4fe87485ed701428e167a537cab = private unnamed_addr constant <{ ptr, [16 x i8] }> <{ ptr @alloc_f5ffd2fd1476bab43ad89fb40c72d0c5, [16 x i8] c"\0A\00\00\00\00\00\00\00a\01\00\001\00\00\00" }>, align 8
@alloc_1e107e0ab8ed78ce812c49cd12509e0f = private unnamed_addr constant <{ ptr, [16 x i8] }> <{ ptr @alloc_f5ffd2fd1476bab43ad89fb40c72d0c5, [16 x i8] c"\0A\00\00\00\00\00\00\00a\01\00\00C\00\00\00" }>, align 8
@alloc_b2a2cb37976bf05b3416315dd34d5b20 = private unnamed_addr constant <{ ptr, [16 x i8] }> <{ ptr @alloc_f5ffd2fd1476bab43ad89fb40c72d0c5, [16 x i8] c"\0A\00\00\00\00\00\00\00e\01\00\005\00\00\00" }>, align 8
@alloc_75efbc1572328ff9a848159f3849e941 = private unnamed_addr constant <{ ptr, [16 x i8] }> <{ ptr @alloc_f5ffd2fd1476bab43ad89fb40c72d0c5, [16 x i8] c"\0A\00\00\00\00\00\00\00f\01\00\00!\00\00\00" }>, align 8
@alloc_5810fe09f2cfadeffec869d61e7e5b15 = private unnamed_addr constant <{ ptr, [16 x i8] }> <{ ptr @alloc_f5ffd2fd1476bab43ad89fb40c72d0c5, [16 x i8] c"\0A\00\00\00\00\00\00\00f\01\00\00\15\00\00\00" }>, align 8
@alloc_6d5ed2358c35bbc977aad20b13f9b655 = private unnamed_addr constant <{ ptr, [16 x i8] }> <{ ptr @alloc_f5ffd2fd1476bab43ad89fb40c72d0c5, [16 x i8] c"\0A\00\00\00\00\00\00\00g\01\00\00!\00\00\00" }>, align 8
@alloc_867df6ee53509fe1cba8b9b3a0e4736a = private unnamed_addr constant <{ ptr, [16 x i8] }> <{ ptr @alloc_f5ffd2fd1476bab43ad89fb40c72d0c5, [16 x i8] c"\0A\00\00\00\00\00\00\00g\01\00\00\15\00\00\00" }>, align 8
@alloc_ed272520f11702304b0463de23aeb54c = private unnamed_addr constant <{ ptr, [16 x i8] }> <{ ptr @alloc_f5ffd2fd1476bab43ad89fb40c72d0c5, [16 x i8] c"\0A\00\00\00\00\00\00\00h\01\00\00\15\00\00\00" }>, align 8
@alloc_364cbce3420d6772d2f2a707a801c3cf = private unnamed_addr constant <{ ptr, [16 x i8] }> <{ ptr @alloc_f5ffd2fd1476bab43ad89fb40c72d0c5, [16 x i8] c"\0A\00\00\00\00\00\00\00i\01\00\00:\00\00\00" }>, align 8
@alloc_ffacb930fb85ea7a698d26af7a964d03 = private unnamed_addr constant <{ ptr, [16 x i8] }> <{ ptr @alloc_f5ffd2fd1476bab43ad89fb40c72d0c5, [16 x i8] c"\0A\00\00\00\00\00\00\00i\01\00\00\15\00\00\00" }>, align 8
@alloc_09449a32ebe9bbd16379c6c1f34c8196 = private unnamed_addr constant <{ ptr, [16 x i8] }> <{ ptr @alloc_f5ffd2fd1476bab43ad89fb40c72d0c5, [16 x i8] c"\0A\00\00\00\00\00\00\00m\01\00\00\17\00\00\00" }>, align 8
@alloc_3d74fcb837c499a90f69f523a304913c = private unnamed_addr constant <{ ptr, [16 x i8] }> <{ ptr @alloc_f5ffd2fd1476bab43ad89fb40c72d0c5, [16 x i8] c"\0A\00\00\00\00\00\00\00n\01\00\00\10\00\00\00" }>, align 8
@alloc_20ca90177697a878757d13dca1dc30c9 = private unnamed_addr constant <{ ptr, [16 x i8] }> <{ ptr @alloc_f5ffd2fd1476bab43ad89fb40c72d0c5, [16 x i8] c"\0A\00\00\00\00\00\00\00o\01\00\001\00\00\00" }>, align 8
@alloc_9f1e6de26ebcdabbdc4b8391e5b557d7 = private unnamed_addr constant <{ ptr, [16 x i8] }> <{ ptr @alloc_f5ffd2fd1476bab43ad89fb40c72d0c5, [16 x i8] c"\0A\00\00\00\00\00\00\00o\01\00\00C\00\00\00" }>, align 8
@alloc_83d17f504df456f1b0e06e3259fc853d = private unnamed_addr constant <{ ptr, [16 x i8] }> <{ ptr @alloc_f5ffd2fd1476bab43ad89fb40c72d0c5, [16 x i8] c"\0A\00\00\00\00\00\00\00s\01\00\005\00\00\00" }>, align 8
@alloc_6fb7fc9fc59ff79e189a04d859053a29 = private unnamed_addr constant <{ ptr, [16 x i8] }> <{ ptr @alloc_f5ffd2fd1476bab43ad89fb40c72d0c5, [16 x i8] c"\0A\00\00\00\00\00\00\00t\01\00\00!\00\00\00" }>, align 8
@alloc_e46e56053db3c0085e8c936a2993bf9b = private unnamed_addr constant <{ ptr, [16 x i8] }> <{ ptr @alloc_f5ffd2fd1476bab43ad89fb40c72d0c5, [16 x i8] c"\0A\00\00\00\00\00\00\00t\01\00\00\15\00\00\00" }>, align 8
@alloc_87a67ce7c52db6df5f3907fa0f7fa460 = private unnamed_addr constant <{ ptr, [16 x i8] }> <{ ptr @alloc_f5ffd2fd1476bab43ad89fb40c72d0c5, [16 x i8] c"\0A\00\00\00\00\00\00\00u\01\00\00!\00\00\00" }>, align 8
@alloc_0e223fb29d7845b28ee85f0f9195744e = private unnamed_addr constant <{ ptr, [16 x i8] }> <{ ptr @alloc_f5ffd2fd1476bab43ad89fb40c72d0c5, [16 x i8] c"\0A\00\00\00\00\00\00\00u\01\00\00\15\00\00\00" }>, align 8
@alloc_c1b3127b4dd133472bddb7b9e745e797 = private unnamed_addr constant <{ ptr, [16 x i8] }> <{ ptr @alloc_f5ffd2fd1476bab43ad89fb40c72d0c5, [16 x i8] c"\0A\00\00\00\00\00\00\00v\01\00\00\15\00\00\00" }>, align 8
@alloc_bebcf5374db31f447883f65479389985 = private unnamed_addr constant <{ ptr, [16 x i8] }> <{ ptr @alloc_f5ffd2fd1476bab43ad89fb40c72d0c5, [16 x i8] c"\0A\00\00\00\00\00\00\00w\01\00\00:\00\00\00" }>, align 8
@alloc_15d72a8261abc88e8293b09d2d3f1ff6 = private unnamed_addr constant <{ ptr, [16 x i8] }> <{ ptr @alloc_f5ffd2fd1476bab43ad89fb40c72d0c5, [16 x i8] c"\0A\00\00\00\00\00\00\00w\01\00\00\15\00\00\00" }>, align 8
@alloc_8dc98c00d0beb0287bd7a0284fee92a1 = private unnamed_addr constant <{ ptr, [16 x i8] }> <{ ptr @alloc_f5ffd2fd1476bab43ad89fb40c72d0c5, [16 x i8] c"\0A\00\00\00\00\00\00\00{\01\00\00\17\00\00\00" }>, align 8
@alloc_5ebda0b97fe6585219f57feae082d12d = private unnamed_addr constant <{ ptr, [16 x i8] }> <{ ptr @alloc_f5ffd2fd1476bab43ad89fb40c72d0c5, [16 x i8] c"\0A\00\00\00\00\00\00\00|\01\00\00\10\00\00\00" }>, align 8
@alloc_e86edeca1ec1b4f25b2284c3caef4be1 = private unnamed_addr constant <{ ptr, [16 x i8] }> <{ ptr @alloc_f5ffd2fd1476bab43ad89fb40c72d0c5, [16 x i8] c"\0A\00\00\00\00\00\00\00}\01\00\002\00\00\00" }>, align 8
@alloc_3f2eccf7dd3f513bac40006f6172ec2b = private unnamed_addr constant <{ ptr, [16 x i8] }> <{ ptr @alloc_f5ffd2fd1476bab43ad89fb40c72d0c5, [16 x i8] c"\0A\00\00\00\00\00\00\00}\01\00\00D\00\00\00" }>, align 8
@alloc_d5c60d1266f00260008259b3d0584fd8 = private unnamed_addr constant <{ ptr, [16 x i8] }> <{ ptr @alloc_f5ffd2fd1476bab43ad89fb40c72d0c5, [16 x i8] c"\0A\00\00\00\00\00\00\00\81\01\00\005\00\00\00" }>, align 8
@alloc_1078f430f1f73642e33d1d65a8318034 = private unnamed_addr constant <{ ptr, [16 x i8] }> <{ ptr @alloc_f5ffd2fd1476bab43ad89fb40c72d0c5, [16 x i8] c"\0A\00\00\00\00\00\00\00\82\01\00\00!\00\00\00" }>, align 8
@alloc_dbffcd52405a2955b4e39ce1c8c02e96 = private unnamed_addr constant <{ ptr, [16 x i8] }> <{ ptr @alloc_f5ffd2fd1476bab43ad89fb40c72d0c5, [16 x i8] c"\0A\00\00\00\00\00\00\00\82\01\00\00\15\00\00\00" }>, align 8
@alloc_cd2e6cffb6049f2dbf0272bee9a585ab = private unnamed_addr constant <{ ptr, [16 x i8] }> <{ ptr @alloc_f5ffd2fd1476bab43ad89fb40c72d0c5, [16 x i8] c"\0A\00\00\00\00\00\00\00\83\01\00\00!\00\00\00" }>, align 8
@alloc_8383493a9e1b8a3751d68bdbe5f4a728 = private unnamed_addr constant <{ ptr, [16 x i8] }> <{ ptr @alloc_f5ffd2fd1476bab43ad89fb40c72d0c5, [16 x i8] c"\0A\00\00\00\00\00\00\00\83\01\00\00\15\00\00\00" }>, align 8
@alloc_29237e0ea4b39aad776c7b5272686420 = private unnamed_addr constant <{ ptr, [16 x i8] }> <{ ptr @alloc_f5ffd2fd1476bab43ad89fb40c72d0c5, [16 x i8] c"\0A\00\00\00\00\00\00\00\84\01\00\00\15\00\00\00" }>, align 8
@alloc_f5a734c7265bdce95a29c55f4cb4d9cf = private unnamed_addr constant <{ ptr, [16 x i8] }> <{ ptr @alloc_f5ffd2fd1476bab43ad89fb40c72d0c5, [16 x i8] c"\0A\00\00\00\00\00\00\00\85\01\00\00:\00\00\00" }>, align 8
@alloc_3ced53db2258eab7e31788e26f864fe9 = private unnamed_addr constant <{ ptr, [16 x i8] }> <{ ptr @alloc_f5ffd2fd1476bab43ad89fb40c72d0c5, [16 x i8] c"\0A\00\00\00\00\00\00\00\85\01\00\00\15\00\00\00" }>, align 8

; core::intrinsics::cold_path
; Function Attrs: cold nounwind nonlazybind
define internal void @_ZN4core10intrinsics9cold_path17he6f9549a3f2ed43aE() unnamed_addr #0 {
start:
  ret void
}

; core::ptr::mut_ptr::<impl *mut T>::offset::precondition_check
; Function Attrs: inlinehint nounwind nonlazybind
define internal void @"_ZN4core3ptr7mut_ptr31_$LT$impl$u20$$BP$mut$u20$T$GT$6offset18precondition_check17ha85c822d30f8ef1cE"(ptr %this, i64 %count, i64 %size) unnamed_addr #1 {
start:
  %0 = call { i64, i1 } @llvm.smul.with.overflow.i64(i64 %count, i64 %size)
  %_10.0 = extractvalue { i64, i1 } %0, 0
  %_10.1 = extractvalue { i64, i1 } %0, 1
  br i1 %_10.1, label %bb3, label %bb5

bb5:                                              ; preds = %start
  %self = ptrtoint ptr %this to i64
  %1 = call { i64, i1 } @llvm.uadd.with.overflow.i64(i64 %self, i64 %_10.0)
  %_19.0 = extractvalue { i64, i1 } %1, 0
  %_19.1 = extractvalue { i64, i1 } %1, 1
  %_17 = icmp slt i64 %_10.0, 0
  %overflow = xor i1 %_19.1, %_17
  %_4 = xor i1 %overflow, true
  br i1 %_4, label %bb1, label %bb2

bb3:                                              ; preds = %start
  br label %bb2

bb2:                                              ; preds = %bb3, %bb5
; call core::panicking::panic_nounwind
  call void @_ZN4core9panicking14panic_nounwind17h211d9ce8d63f12e7E(ptr align 1 @alloc_0ed0763d8bf93ac79247e07858374e35, i64 210) #8
  unreachable

bb1:                                              ; preds = %bb5
  ret void
}

; core::ptr::mut_ptr::<impl *mut T>::is_null
; Function Attrs: inlinehint nounwind nonlazybind
define internal zeroext i1 @"_ZN4core3ptr7mut_ptr31_$LT$impl$u20$$BP$mut$u20$T$GT$7is_null17h6d1853ba41dec0e8E"(ptr %self) unnamed_addr #1 {
start:
  %_3 = ptrtoint ptr %self to i64
  %_0 = icmp eq i64 %_3, 0
  ret i1 %_0
}

; Function Attrs: nounwind nonlazybind
define i32 @heap_empty(ptr %heap) unnamed_addr #2 {
start:
  %_5 = ptrtoint ptr %heap to i64
  %_8 = and i64 %_5, 7
  %_9 = icmp eq i64 %_8, 0
  br i1 %_9, label %bb1, label %panic

bb1:                                              ; preds = %start
  %_11 = ptrtoint ptr %heap to i64
  %_14 = icmp eq i64 %_11, 0
  %_15 = and i1 %_14, true
  %_16 = xor i1 %_15, true
  br i1 %_16, label %bb2, label %panic1

panic:                                            ; preds = %start
; call core::panicking::panic_misaligned_pointer_dereference
  call void @_ZN4core9panicking36panic_misaligned_pointer_dereference17hcc3cbded9382b6e5E(i64 8, i64 %_5, ptr align 8 @alloc_6225c859e57c19b6988d6392d694501c) #8
  unreachable

bb2:                                              ; preds = %bb1
  %_3 = load i32, ptr %heap, align 8
  %_2 = icmp eq i32 %_3, 0
  %_0 = zext i1 %_2 to i32
  ret i32 %_0

panic1:                                           ; preds = %bb1
; call core::panicking::panic_null_pointer_dereference
  call void @_ZN4core9panicking30panic_null_pointer_dereference17hf718fcc86a223baaE(ptr align 8 @alloc_6225c859e57c19b6988d6392d694501c) #8
  unreachable
}

; Function Attrs: nounwind nonlazybind
define void @heap_swap(ptr %heap, i32 %pos1, i32 %pos2) unnamed_addr #2 {
start:
  %_51 = ptrtoint ptr %heap to i64
  %_54 = and i64 %_51, 7
  %_55 = icmp eq i64 %_54, 0
  br i1 %_55, label %bb10, label %panic

bb10:                                             ; preds = %start
  %_57 = ptrtoint ptr %heap to i64
  %_60 = icmp eq i64 %_57, 0
  %_61 = and i1 %_60, true
  %_62 = xor i1 %_61, true
  br i1 %_62, label %bb11, label %panic1

panic:                                            ; preds = %start
; call core::panicking::panic_misaligned_pointer_dereference
  call void @_ZN4core9panicking36panic_misaligned_pointer_dereference17hcc3cbded9382b6e5E(i64 8, i64 %_51, ptr align 8 @alloc_cd438b3af5b0e483afa190703e8a27aa) #8
  unreachable

bb11:                                             ; preds = %bb10
  %0 = getelementptr inbounds i8, ptr %heap, i64 8
  %_6 = load ptr, ptr %0, align 8
  %_7 = sext i32 %pos1 to i64
; call core::ptr::mut_ptr::<impl *mut T>::offset::precondition_check
  call void @"_ZN4core3ptr7mut_ptr31_$LT$impl$u20$$BP$mut$u20$T$GT$6offset18precondition_check17ha85c822d30f8ef1cE"(ptr %_6, i64 %_7, i64 8) #9
  %_0.i16 = getelementptr inbounds ptr, ptr %_6, i64 %_7
  %_45 = ptrtoint ptr %_0.i16 to i64
  %_48 = and i64 %_45, 7
  %_49 = icmp eq i64 %_48, 0
  br i1 %_49, label %bb9, label %panic2

panic1:                                           ; preds = %bb10
; call core::panicking::panic_null_pointer_dereference
  call void @_ZN4core9panicking30panic_null_pointer_dereference17hf718fcc86a223baaE(ptr align 8 @alloc_cd438b3af5b0e483afa190703e8a27aa) #8
  unreachable

bb9:                                              ; preds = %bb11
  %_64 = ptrtoint ptr %_0.i16 to i64
  %_67 = icmp eq i64 %_64, 0
  %_68 = and i1 %_67, true
  %_69 = xor i1 %_68, true
  br i1 %_69, label %bb12, label %panic3

panic2:                                           ; preds = %bb11
; call core::panicking::panic_misaligned_pointer_dereference
  call void @_ZN4core9panicking36panic_misaligned_pointer_dereference17hcc3cbded9382b6e5E(i64 8, i64 %_45, ptr align 8 @alloc_0539cf19d9c6d66d8a77c96c489f55c8) #8
  unreachable

bb12:                                             ; preds = %bb9
  %tmp = load ptr, ptr %_0.i16, align 8
  %_39 = ptrtoint ptr %heap to i64
  %_42 = and i64 %_39, 7
  %_43 = icmp eq i64 %_42, 0
  br i1 %_43, label %bb8, label %panic4

panic3:                                           ; preds = %bb9
; call core::panicking::panic_null_pointer_dereference
  call void @_ZN4core9panicking30panic_null_pointer_dereference17hf718fcc86a223baaE(ptr align 8 @alloc_0539cf19d9c6d66d8a77c96c489f55c8) #8
  unreachable

bb8:                                              ; preds = %bb12
  %_71 = ptrtoint ptr %heap to i64
  %_74 = icmp eq i64 %_71, 0
  %_75 = and i1 %_74, true
  %_76 = xor i1 %_75, true
  br i1 %_76, label %bb13, label %panic5

panic4:                                           ; preds = %bb12
; call core::panicking::panic_misaligned_pointer_dereference
  call void @_ZN4core9panicking36panic_misaligned_pointer_dereference17hcc3cbded9382b6e5E(i64 8, i64 %_39, ptr align 8 @alloc_792b2cd8738164848fe2e1a1b14f4456) #8
  unreachable

bb13:                                             ; preds = %bb8
  %1 = getelementptr inbounds i8, ptr %heap, i64 8
  %_10 = load ptr, ptr %1, align 8
  %_11 = sext i32 %pos1 to i64
; call core::ptr::mut_ptr::<impl *mut T>::offset::precondition_check
  call void @"_ZN4core3ptr7mut_ptr31_$LT$impl$u20$$BP$mut$u20$T$GT$6offset18precondition_check17ha85c822d30f8ef1cE"(ptr %_10, i64 %_11, i64 8) #9
  %_0.i15 = getelementptr inbounds ptr, ptr %_10, i64 %_11
  %_104 = ptrtoint ptr %_0.i15 to i64
  %_105 = icmp eq i64 %_104, 0
  %_106 = and i1 %_105, true
  %_107 = xor i1 %_106, true
  br i1 %_107, label %bb18, label %panic6

panic5:                                           ; preds = %bb8
; call core::panicking::panic_null_pointer_dereference
  call void @_ZN4core9panicking30panic_null_pointer_dereference17hf718fcc86a223baaE(ptr align 8 @alloc_792b2cd8738164848fe2e1a1b14f4456) #8
  unreachable

bb18:                                             ; preds = %bb13
  %_33 = ptrtoint ptr %heap to i64
  %_36 = and i64 %_33, 7
  %_37 = icmp eq i64 %_36, 0
  br i1 %_37, label %bb7, label %panic7

panic6:                                           ; preds = %bb13
; call core::panicking::panic_null_pointer_dereference
  call void @_ZN4core9panicking30panic_null_pointer_dereference17hf718fcc86a223baaE(ptr align 8 @alloc_2222d630ee5050ae3333ab96e03e8f44) #8
  unreachable

bb7:                                              ; preds = %bb18
  %_78 = ptrtoint ptr %heap to i64
  %_81 = icmp eq i64 %_78, 0
  %_82 = and i1 %_81, true
  %_83 = xor i1 %_82, true
  br i1 %_83, label %bb14, label %panic8

panic7:                                           ; preds = %bb18
; call core::panicking::panic_misaligned_pointer_dereference
  call void @_ZN4core9panicking36panic_misaligned_pointer_dereference17hcc3cbded9382b6e5E(i64 8, i64 %_33, ptr align 8 @alloc_22723da7d6d296efe267d3e007068022) #8
  unreachable

bb14:                                             ; preds = %bb7
  %2 = getelementptr inbounds i8, ptr %heap, i64 8
  %_14 = load ptr, ptr %2, align 8
  %_15 = sext i32 %pos2 to i64
; call core::ptr::mut_ptr::<impl *mut T>::offset::precondition_check
  call void @"_ZN4core3ptr7mut_ptr31_$LT$impl$u20$$BP$mut$u20$T$GT$6offset18precondition_check17ha85c822d30f8ef1cE"(ptr %_14, i64 %_15, i64 8) #9
  %_0.i14 = getelementptr inbounds ptr, ptr %_14, i64 %_15
  %_27 = ptrtoint ptr %_0.i14 to i64
  %_30 = and i64 %_27, 7
  %_31 = icmp eq i64 %_30, 0
  br i1 %_31, label %bb6, label %panic9

panic8:                                           ; preds = %bb7
; call core::panicking::panic_null_pointer_dereference
  call void @_ZN4core9panicking30panic_null_pointer_dereference17hf718fcc86a223baaE(ptr align 8 @alloc_22723da7d6d296efe267d3e007068022) #8
  unreachable

bb6:                                              ; preds = %bb14
  %_85 = ptrtoint ptr %_0.i14 to i64
  %_88 = icmp eq i64 %_85, 0
  %_89 = and i1 %_88, true
  %_90 = xor i1 %_89, true
  br i1 %_90, label %bb15, label %panic10

panic9:                                           ; preds = %bb14
; call core::panicking::panic_misaligned_pointer_dereference
  call void @_ZN4core9panicking36panic_misaligned_pointer_dereference17hcc3cbded9382b6e5E(i64 8, i64 %_27, ptr align 8 @alloc_1da0d0ac19b18ac0f3bdbf43056312ea) #8
  unreachable

bb15:                                             ; preds = %bb6
  %_12 = load ptr, ptr %_0.i14, align 8
  store ptr %_12, ptr %_0.i15, align 8
  %_21 = ptrtoint ptr %heap to i64
  %_24 = and i64 %_21, 7
  %_25 = icmp eq i64 %_24, 0
  br i1 %_25, label %bb5, label %panic11

panic10:                                          ; preds = %bb6
; call core::panicking::panic_null_pointer_dereference
  call void @_ZN4core9panicking30panic_null_pointer_dereference17hf718fcc86a223baaE(ptr align 8 @alloc_1da0d0ac19b18ac0f3bdbf43056312ea) #8
  unreachable

bb5:                                              ; preds = %bb15
  %_92 = ptrtoint ptr %heap to i64
  %_95 = icmp eq i64 %_92, 0
  %_96 = and i1 %_95, true
  %_97 = xor i1 %_96, true
  br i1 %_97, label %bb16, label %panic12

panic11:                                          ; preds = %bb15
; call core::panicking::panic_misaligned_pointer_dereference
  call void @_ZN4core9panicking36panic_misaligned_pointer_dereference17hcc3cbded9382b6e5E(i64 8, i64 %_21, ptr align 8 @alloc_7be742c9b520bc74e9352f2316f65b6d) #8
  unreachable

bb16:                                             ; preds = %bb5
  %3 = getelementptr inbounds i8, ptr %heap, i64 8
  %_18 = load ptr, ptr %3, align 8
  %_19 = sext i32 %pos2 to i64
; call core::ptr::mut_ptr::<impl *mut T>::offset::precondition_check
  call void @"_ZN4core3ptr7mut_ptr31_$LT$impl$u20$$BP$mut$u20$T$GT$6offset18precondition_check17ha85c822d30f8ef1cE"(ptr %_18, i64 %_19, i64 8) #9
  %_0.i = getelementptr inbounds ptr, ptr %_18, i64 %_19
  %_99 = ptrtoint ptr %_0.i to i64
  %_100 = icmp eq i64 %_99, 0
  %_101 = and i1 %_100, true
  %_102 = xor i1 %_101, true
  br i1 %_102, label %bb17, label %panic13

panic12:                                          ; preds = %bb5
; call core::panicking::panic_null_pointer_dereference
  call void @_ZN4core9panicking30panic_null_pointer_dereference17hf718fcc86a223baaE(ptr align 8 @alloc_7be742c9b520bc74e9352f2316f65b6d) #8
  unreachable

bb17:                                             ; preds = %bb16
  store ptr %tmp, ptr %_0.i, align 8
  ret void

panic13:                                          ; preds = %bb16
; call core::panicking::panic_null_pointer_dereference
  call void @_ZN4core9panicking30panic_null_pointer_dereference17hf718fcc86a223baaE(ptr align 8 @alloc_218d9d0452f6bf4ce299c6265c8e4b17) #8
  unreachable
}

; Function Attrs: nounwind nonlazybind
define void @heap_hold(ptr %heap, i32 %pos) unnamed_addr #2 {
start:
  %minpos = alloca [4 x i8], align 4
  %_4 = mul i32 2, %pos
  %left = add i32 %_4, 1
  %_6 = mul i32 2, %pos
  %right = add i32 %_6, 2
  store i32 %pos, ptr %minpos, align 4
  %_97 = ptrtoint ptr %heap to i64
  %_100 = and i64 %_97, 7
  %_101 = icmp eq i64 %_100, 0
  br i1 %_101, label %bb23, label %panic

bb23:                                             ; preds = %start
  %_103 = ptrtoint ptr %heap to i64
  %_106 = icmp eq i64 %_103, 0
  %_107 = and i1 %_106, true
  %_108 = xor i1 %_107, true
  br i1 %_108, label %bb24, label %panic1

panic:                                            ; preds = %start
; call core::panicking::panic_misaligned_pointer_dereference
  call void @_ZN4core9panicking36panic_misaligned_pointer_dereference17hcc3cbded9382b6e5E(i64 8, i64 %_97, ptr align 8 @alloc_78ca424a1220d41ea0138521e44927b7) #8
  unreachable

bb24:                                             ; preds = %bb23
  %_9 = load i32, ptr %heap, align 8
  %_8 = icmp slt i32 %right, %_9
  br i1 %_8, label %bb1, label %bb5

panic1:                                           ; preds = %bb23
; call core::panicking::panic_null_pointer_dereference
  call void @_ZN4core9panicking30panic_null_pointer_dereference17hf718fcc86a223baaE(ptr align 8 @alloc_78ca424a1220d41ea0138521e44927b7) #8
  unreachable

bb5:                                              ; preds = %bb4, %bb28, %bb24
  %_67 = ptrtoint ptr %heap to i64
  %_70 = and i64 %_67, 7
  %_71 = icmp eq i64 %_70, 0
  br i1 %_71, label %bb18, label %panic10

bb1:                                              ; preds = %bb24
  %_91 = ptrtoint ptr %heap to i64
  %_94 = and i64 %_91, 7
  %_95 = icmp eq i64 %_94, 0
  br i1 %_95, label %bb22, label %panic2

bb22:                                             ; preds = %bb1
  %_110 = ptrtoint ptr %heap to i64
  %_113 = icmp eq i64 %_110, 0
  %_114 = and i1 %_113, true
  %_115 = xor i1 %_114, true
  br i1 %_115, label %bb25, label %panic3

panic2:                                           ; preds = %bb1
; call core::panicking::panic_misaligned_pointer_dereference
  call void @_ZN4core9panicking36panic_misaligned_pointer_dereference17hcc3cbded9382b6e5E(i64 8, i64 %_91, ptr align 8 @alloc_a1e18b7b6a67c64fc33ee1b89479dd43) #8
  unreachable

bb25:                                             ; preds = %bb22
  %0 = getelementptr inbounds i8, ptr %heap, i64 8
  %_13 = load ptr, ptr %0, align 8
  %_14 = sext i32 %right to i64
; call core::ptr::mut_ptr::<impl *mut T>::offset::precondition_check
  call void @"_ZN4core3ptr7mut_ptr31_$LT$impl$u20$$BP$mut$u20$T$GT$6offset18precondition_check17ha85c822d30f8ef1cE"(ptr %_13, i64 %_14, i64 8) #9
  %_0.i22 = getelementptr inbounds ptr, ptr %_13, i64 %_14
  %_38 = load ptr, ptr %_0.i22, align 8
  %_85 = ptrtoint ptr %_38 to i64
  %_88 = and i64 %_85, 7
  %_89 = icmp eq i64 %_88, 0
  br i1 %_89, label %bb21, label %panic4

panic3:                                           ; preds = %bb22
; call core::panicking::panic_null_pointer_dereference
  call void @_ZN4core9panicking30panic_null_pointer_dereference17hf718fcc86a223baaE(ptr align 8 @alloc_a1e18b7b6a67c64fc33ee1b89479dd43) #8
  unreachable

bb21:                                             ; preds = %bb25
  %_117 = ptrtoint ptr %_38 to i64
  %_120 = icmp eq i64 %_117, 0
  %_121 = and i1 %_120, true
  %_122 = xor i1 %_121, true
  br i1 %_122, label %bb26, label %panic5

panic4:                                           ; preds = %bb25
; call core::panicking::panic_misaligned_pointer_dereference
  call void @_ZN4core9panicking36panic_misaligned_pointer_dereference17hcc3cbded9382b6e5E(i64 8, i64 %_85, ptr align 8 @alloc_0bbd10dca8b30a537db690bd287f84de) #8
  unreachable

bb26:                                             ; preds = %bb21
  %1 = getelementptr inbounds i8, ptr %_38, i64 44
  %_11 = load i32, ptr %1, align 4
  %_79 = ptrtoint ptr %heap to i64
  %_82 = and i64 %_79, 7
  %_83 = icmp eq i64 %_82, 0
  br i1 %_83, label %bb20, label %panic6

panic5:                                           ; preds = %bb21
; call core::panicking::panic_null_pointer_dereference
  call void @_ZN4core9panicking30panic_null_pointer_dereference17hf718fcc86a223baaE(ptr align 8 @alloc_0bbd10dca8b30a537db690bd287f84de) #8
  unreachable

bb20:                                             ; preds = %bb26
  %_124 = ptrtoint ptr %heap to i64
  %_127 = icmp eq i64 %_124, 0
  %_128 = and i1 %_127, true
  %_129 = xor i1 %_128, true
  br i1 %_129, label %bb27, label %panic7

panic6:                                           ; preds = %bb26
; call core::panicking::panic_misaligned_pointer_dereference
  call void @_ZN4core9panicking36panic_misaligned_pointer_dereference17hcc3cbded9382b6e5E(i64 8, i64 %_79, ptr align 8 @alloc_f468e5a7d7099df292890af5af18c1f3) #8
  unreachable

bb27:                                             ; preds = %bb20
  %2 = getelementptr inbounds i8, ptr %heap, i64 8
  %_17 = load ptr, ptr %2, align 8
  %_19 = load i32, ptr %minpos, align 4
  %_18 = sext i32 %_19 to i64
; call core::ptr::mut_ptr::<impl *mut T>::offset::precondition_check
  call void @"_ZN4core3ptr7mut_ptr31_$LT$impl$u20$$BP$mut$u20$T$GT$6offset18precondition_check17ha85c822d30f8ef1cE"(ptr %_17, i64 %_18, i64 8) #9
  %_0.i21 = getelementptr inbounds ptr, ptr %_17, i64 %_18
  %_39 = load ptr, ptr %_0.i21, align 8
  %_73 = ptrtoint ptr %_39 to i64
  %_76 = and i64 %_73, 7
  %_77 = icmp eq i64 %_76, 0
  br i1 %_77, label %bb19, label %panic8

panic7:                                           ; preds = %bb20
; call core::panicking::panic_null_pointer_dereference
  call void @_ZN4core9panicking30panic_null_pointer_dereference17hf718fcc86a223baaE(ptr align 8 @alloc_f468e5a7d7099df292890af5af18c1f3) #8
  unreachable

bb19:                                             ; preds = %bb27
  %_131 = ptrtoint ptr %_39 to i64
  %_134 = icmp eq i64 %_131, 0
  %_135 = and i1 %_134, true
  %_136 = xor i1 %_135, true
  br i1 %_136, label %bb28, label %panic9

panic8:                                           ; preds = %bb27
; call core::panicking::panic_misaligned_pointer_dereference
  call void @_ZN4core9panicking36panic_misaligned_pointer_dereference17hcc3cbded9382b6e5E(i64 8, i64 %_73, ptr align 8 @alloc_c5a6aab7f7b41ad8d832fc61ac38d1b8) #8
  unreachable

bb28:                                             ; preds = %bb19
  %3 = getelementptr inbounds i8, ptr %_39, i64 44
  %_15 = load i32, ptr %3, align 4
  %_10 = icmp slt i32 %_11, %_15
  br i1 %_10, label %bb4, label %bb5

panic9:                                           ; preds = %bb19
; call core::panicking::panic_null_pointer_dereference
  call void @_ZN4core9panicking30panic_null_pointer_dereference17hf718fcc86a223baaE(ptr align 8 @alloc_c5a6aab7f7b41ad8d832fc61ac38d1b8) #8
  unreachable

bb4:                                              ; preds = %bb28
  store i32 %right, ptr %minpos, align 4
  br label %bb5

bb18:                                             ; preds = %bb5
  %_138 = ptrtoint ptr %heap to i64
  %_141 = icmp eq i64 %_138, 0
  %_142 = and i1 %_141, true
  %_143 = xor i1 %_142, true
  br i1 %_143, label %bb29, label %panic11

panic10:                                          ; preds = %bb5
; call core::panicking::panic_misaligned_pointer_dereference
  call void @_ZN4core9panicking36panic_misaligned_pointer_dereference17hcc3cbded9382b6e5E(i64 8, i64 %_67, ptr align 8 @alloc_f77e4ca413fd413b8d0dbfaac50e1b0d) #8
  unreachable

bb29:                                             ; preds = %bb18
  %_21 = load i32, ptr %heap, align 8
  %_20 = icmp slt i32 %left, %_21
  br i1 %_20, label %bb6, label %bb10

panic11:                                          ; preds = %bb18
; call core::panicking::panic_null_pointer_dereference
  call void @_ZN4core9panicking30panic_null_pointer_dereference17hf718fcc86a223baaE(ptr align 8 @alloc_f77e4ca413fd413b8d0dbfaac50e1b0d) #8
  unreachable

bb10:                                             ; preds = %bb9, %bb33, %bb29
  %_33 = load i32, ptr %minpos, align 4
  %_32 = icmp ne i32 %_33, %pos
  br i1 %_32, label %bb11, label %bb13

bb6:                                              ; preds = %bb29
  %_61 = ptrtoint ptr %heap to i64
  %_64 = and i64 %_61, 7
  %_65 = icmp eq i64 %_64, 0
  br i1 %_65, label %bb17, label %panic12

bb17:                                             ; preds = %bb6
  %_145 = ptrtoint ptr %heap to i64
  %_148 = icmp eq i64 %_145, 0
  %_149 = and i1 %_148, true
  %_150 = xor i1 %_149, true
  br i1 %_150, label %bb30, label %panic13

panic12:                                          ; preds = %bb6
; call core::panicking::panic_misaligned_pointer_dereference
  call void @_ZN4core9panicking36panic_misaligned_pointer_dereference17hcc3cbded9382b6e5E(i64 8, i64 %_61, ptr align 8 @alloc_1d228fcff3e4d7370127d1bd2fc0d23c) #8
  unreachable

bb30:                                             ; preds = %bb17
  %4 = getelementptr inbounds i8, ptr %heap, i64 8
  %_25 = load ptr, ptr %4, align 8
  %_26 = sext i32 %left to i64
; call core::ptr::mut_ptr::<impl *mut T>::offset::precondition_check
  call void @"_ZN4core3ptr7mut_ptr31_$LT$impl$u20$$BP$mut$u20$T$GT$6offset18precondition_check17ha85c822d30f8ef1cE"(ptr %_25, i64 %_26, i64 8) #9
  %_0.i20 = getelementptr inbounds ptr, ptr %_25, i64 %_26
  %_40 = load ptr, ptr %_0.i20, align 8
  %_55 = ptrtoint ptr %_40 to i64
  %_58 = and i64 %_55, 7
  %_59 = icmp eq i64 %_58, 0
  br i1 %_59, label %bb16, label %panic14

panic13:                                          ; preds = %bb17
; call core::panicking::panic_null_pointer_dereference
  call void @_ZN4core9panicking30panic_null_pointer_dereference17hf718fcc86a223baaE(ptr align 8 @alloc_1d228fcff3e4d7370127d1bd2fc0d23c) #8
  unreachable

bb16:                                             ; preds = %bb30
  %_152 = ptrtoint ptr %_40 to i64
  %_155 = icmp eq i64 %_152, 0
  %_156 = and i1 %_155, true
  %_157 = xor i1 %_156, true
  br i1 %_157, label %bb31, label %panic15

panic14:                                          ; preds = %bb30
; call core::panicking::panic_misaligned_pointer_dereference
  call void @_ZN4core9panicking36panic_misaligned_pointer_dereference17hcc3cbded9382b6e5E(i64 8, i64 %_55, ptr align 8 @alloc_52ec6808e7478eb5c21ceaaf176e7ea8) #8
  unreachable

bb31:                                             ; preds = %bb16
  %5 = getelementptr inbounds i8, ptr %_40, i64 44
  %_23 = load i32, ptr %5, align 4
  %_49 = ptrtoint ptr %heap to i64
  %_52 = and i64 %_49, 7
  %_53 = icmp eq i64 %_52, 0
  br i1 %_53, label %bb15, label %panic16

panic15:                                          ; preds = %bb16
; call core::panicking::panic_null_pointer_dereference
  call void @_ZN4core9panicking30panic_null_pointer_dereference17hf718fcc86a223baaE(ptr align 8 @alloc_52ec6808e7478eb5c21ceaaf176e7ea8) #8
  unreachable

bb15:                                             ; preds = %bb31
  %_159 = ptrtoint ptr %heap to i64
  %_162 = icmp eq i64 %_159, 0
  %_163 = and i1 %_162, true
  %_164 = xor i1 %_163, true
  br i1 %_164, label %bb32, label %panic17

panic16:                                          ; preds = %bb31
; call core::panicking::panic_misaligned_pointer_dereference
  call void @_ZN4core9panicking36panic_misaligned_pointer_dereference17hcc3cbded9382b6e5E(i64 8, i64 %_49, ptr align 8 @alloc_e233e8e565fc3d1ff2224857227b5adc) #8
  unreachable

bb32:                                             ; preds = %bb15
  %6 = getelementptr inbounds i8, ptr %heap, i64 8
  %_29 = load ptr, ptr %6, align 8
  %_31 = load i32, ptr %minpos, align 4
  %_30 = sext i32 %_31 to i64
; call core::ptr::mut_ptr::<impl *mut T>::offset::precondition_check
  call void @"_ZN4core3ptr7mut_ptr31_$LT$impl$u20$$BP$mut$u20$T$GT$6offset18precondition_check17ha85c822d30f8ef1cE"(ptr %_29, i64 %_30, i64 8) #9
  %_0.i = getelementptr inbounds ptr, ptr %_29, i64 %_30
  %_41 = load ptr, ptr %_0.i, align 8
  %_43 = ptrtoint ptr %_41 to i64
  %_46 = and i64 %_43, 7
  %_47 = icmp eq i64 %_46, 0
  br i1 %_47, label %bb14, label %panic18

panic17:                                          ; preds = %bb15
; call core::panicking::panic_null_pointer_dereference
  call void @_ZN4core9panicking30panic_null_pointer_dereference17hf718fcc86a223baaE(ptr align 8 @alloc_e233e8e565fc3d1ff2224857227b5adc) #8
  unreachable

bb14:                                             ; preds = %bb32
  %_166 = ptrtoint ptr %_41 to i64
  %_169 = icmp eq i64 %_166, 0
  %_170 = and i1 %_169, true
  %_171 = xor i1 %_170, true
  br i1 %_171, label %bb33, label %panic19

panic18:                                          ; preds = %bb32
; call core::panicking::panic_misaligned_pointer_dereference
  call void @_ZN4core9panicking36panic_misaligned_pointer_dereference17hcc3cbded9382b6e5E(i64 8, i64 %_43, ptr align 8 @alloc_a3ec9be7e117f4309e0a429974ad2022) #8
  unreachable

bb33:                                             ; preds = %bb14
  %7 = getelementptr inbounds i8, ptr %_41, i64 44
  %_27 = load i32, ptr %7, align 4
  %_22 = icmp slt i32 %_23, %_27
  br i1 %_22, label %bb9, label %bb10

panic19:                                          ; preds = %bb14
; call core::panicking::panic_null_pointer_dereference
  call void @_ZN4core9panicking30panic_null_pointer_dereference17hf718fcc86a223baaE(ptr align 8 @alloc_a3ec9be7e117f4309e0a429974ad2022) #8
  unreachable

bb9:                                              ; preds = %bb33
  store i32 %left, ptr %minpos, align 4
  br label %bb10

bb13:                                             ; preds = %bb11, %bb10
  ret void

bb11:                                             ; preds = %bb10
  %_35 = load i32, ptr %minpos, align 4
  call void @heap_swap(ptr %heap, i32 %_35, i32 %pos) #9
  %_37 = load i32, ptr %minpos, align 4
  call void @heap_hold(ptr %heap, i32 %_37) #9
  br label %bb13
}

; Function Attrs: nounwind nonlazybind
define ptr @init_heap() unnamed_addr #2 {
start:
  %_1 = call ptr @malloc(i64 16) #9
  %_29 = ptrtoint ptr %_1 to i64
  %_32 = and i64 %_29, 7
  %_33 = icmp eq i64 %_32, 0
  br i1 %_33, label %bb9, label %panic

bb9:                                              ; preds = %start
  %_35 = ptrtoint ptr %_1 to i64
  %_38 = icmp eq i64 %_35, 0
  %_39 = and i1 %_38, true
  %_40 = xor i1 %_39, true
  br i1 %_40, label %bb10, label %panic1

panic:                                            ; preds = %start
; call core::panicking::panic_misaligned_pointer_dereference
  call void @_ZN4core9panicking36panic_misaligned_pointer_dereference17hcc3cbded9382b6e5E(i64 8, i64 %_29, ptr align 8 @alloc_b6e19de1f5151b51b8788bfc8ca6e5c9) #8
  unreachable

bb10:                                             ; preds = %bb9
  store i32 0, ptr %_1, align 8
  %_23 = ptrtoint ptr %_1 to i64
  %_26 = and i64 %_23, 7
  %_27 = icmp eq i64 %_26, 0
  br i1 %_27, label %bb8, label %panic2

panic1:                                           ; preds = %bb9
; call core::panicking::panic_null_pointer_dereference
  call void @_ZN4core9panicking30panic_null_pointer_dereference17hf718fcc86a223baaE(ptr align 8 @alloc_b6e19de1f5151b51b8788bfc8ca6e5c9) #8
  unreachable

bb8:                                              ; preds = %bb10
  %_42 = ptrtoint ptr %_1 to i64
  %_45 = icmp eq i64 %_42, 0
  %_46 = and i1 %_45, true
  %_47 = xor i1 %_46, true
  br i1 %_47, label %bb11, label %panic3

panic2:                                           ; preds = %bb10
; call core::panicking::panic_misaligned_pointer_dereference
  call void @_ZN4core9panicking36panic_misaligned_pointer_dereference17hcc3cbded9382b6e5E(i64 8, i64 %_23, ptr align 8 @alloc_21bab6856a00df07d869582a6654a89d) #8
  unreachable

bb11:                                             ; preds = %bb8
  %0 = getelementptr inbounds i8, ptr %_1, i64 4
  store i32 100, ptr %0, align 4
  %_17 = ptrtoint ptr %_1 to i64
  %_20 = and i64 %_17, 7
  %_21 = icmp eq i64 %_20, 0
  br i1 %_21, label %bb7, label %panic4

panic3:                                           ; preds = %bb8
; call core::panicking::panic_null_pointer_dereference
  call void @_ZN4core9panicking30panic_null_pointer_dereference17hf718fcc86a223baaE(ptr align 8 @alloc_21bab6856a00df07d869582a6654a89d) #8
  unreachable

bb7:                                              ; preds = %bb11
  %_49 = ptrtoint ptr %_1 to i64
  %_52 = icmp eq i64 %_49, 0
  %_53 = and i1 %_52, true
  %_54 = xor i1 %_53, true
  br i1 %_54, label %bb12, label %panic5

panic4:                                           ; preds = %bb11
; call core::panicking::panic_misaligned_pointer_dereference
  call void @_ZN4core9panicking36panic_misaligned_pointer_dereference17hcc3cbded9382b6e5E(i64 8, i64 %_17, ptr align 8 @alloc_0fbc5922dcb931fb4063549d6abdd313) #8
  unreachable

bb12:                                             ; preds = %bb7
  %1 = getelementptr inbounds i8, ptr %_1, i64 4
  %_9 = load i32, ptr %1, align 4
  %_8 = sext i32 %_9 to i64
  %_0.i = mul i64 8, %_8
  %_4 = call ptr @malloc(i64 %_0.i) #9
  %_11 = ptrtoint ptr %_1 to i64
  %_14 = and i64 %_11, 7
  %_15 = icmp eq i64 %_14, 0
  br i1 %_15, label %bb6, label %panic6

panic5:                                           ; preds = %bb7
; call core::panicking::panic_null_pointer_dereference
  call void @_ZN4core9panicking30panic_null_pointer_dereference17hf718fcc86a223baaE(ptr align 8 @alloc_0fbc5922dcb931fb4063549d6abdd313) #8
  unreachable

bb6:                                              ; preds = %bb12
  %_56 = ptrtoint ptr %_1 to i64
  %_59 = icmp eq i64 %_56, 0
  %_60 = and i1 %_59, true
  %_61 = xor i1 %_60, true
  br i1 %_61, label %bb13, label %panic7

panic6:                                           ; preds = %bb12
; call core::panicking::panic_misaligned_pointer_dereference
  call void @_ZN4core9panicking36panic_misaligned_pointer_dereference17hcc3cbded9382b6e5E(i64 8, i64 %_11, ptr align 8 @alloc_bb689b693e85b438ed3fcda2b087a10d) #8
  unreachable

bb13:                                             ; preds = %bb6
  %2 = getelementptr inbounds i8, ptr %_1, i64 8
  store ptr %_4, ptr %2, align 8
  ret ptr %_1

panic7:                                           ; preds = %bb6
; call core::panicking::panic_null_pointer_dereference
  call void @_ZN4core9panicking30panic_null_pointer_dereference17hf718fcc86a223baaE(ptr align 8 @alloc_bb689b693e85b438ed3fcda2b087a10d) #8
  unreachable
}

; Function Attrs: nounwind nonlazybind
define void @insert_heap(ptr %heap, ptr %new) unnamed_addr #2 {
start:
  %parent = alloca [4 x i8], align 4
  %_82 = ptrtoint ptr %heap to i64
  %_85 = and i64 %_82, 7
  %_86 = icmp eq i64 %_85, 0
  br i1 %_86, label %bb18, label %panic

bb18:                                             ; preds = %start
  %_88 = ptrtoint ptr %heap to i64
  %_91 = icmp eq i64 %_88, 0
  %_92 = and i1 %_91, true
  %_93 = xor i1 %_92, true
  br i1 %_93, label %bb19, label %panic1

panic:                                            ; preds = %start
; call core::panicking::panic_misaligned_pointer_dereference
  call void @_ZN4core9panicking36panic_misaligned_pointer_dereference17hcc3cbded9382b6e5E(i64 8, i64 %_82, ptr align 8 @alloc_3391c9890c6f583060cb51d45026549b) #8
  unreachable

bb19:                                             ; preds = %bb18
  %currentpos = load i32, ptr %heap, align 8
  store i32 0, ptr %parent, align 4
  %_76 = ptrtoint ptr %heap to i64
  %_79 = and i64 %_76, 7
  %_80 = icmp eq i64 %_79, 0
  br i1 %_80, label %bb17, label %panic2

panic1:                                           ; preds = %bb18
; call core::panicking::panic_null_pointer_dereference
  call void @_ZN4core9panicking30panic_null_pointer_dereference17hf718fcc86a223baaE(ptr align 8 @alloc_3391c9890c6f583060cb51d45026549b) #8
  unreachable

bb17:                                             ; preds = %bb19
  %_95 = ptrtoint ptr %heap to i64
  %_98 = icmp eq i64 %_95, 0
  %_99 = and i1 %_98, true
  %_100 = xor i1 %_99, true
  br i1 %_100, label %bb20, label %panic3

panic2:                                           ; preds = %bb19
; call core::panicking::panic_misaligned_pointer_dereference
  call void @_ZN4core9panicking36panic_misaligned_pointer_dereference17hcc3cbded9382b6e5E(i64 8, i64 %_76, ptr align 8 @alloc_8aba2e1a350eab404562435ee4ddc96a) #8
  unreachable

bb20:                                             ; preds = %bb17
  %fresh2 = load i32, ptr %heap, align 8
  %_70 = ptrtoint ptr %heap to i64
  %_73 = and i64 %_70, 7
  %_74 = icmp eq i64 %_73, 0
  br i1 %_74, label %bb16, label %panic4

panic3:                                           ; preds = %bb17
; call core::panicking::panic_null_pointer_dereference
  call void @_ZN4core9panicking30panic_null_pointer_dereference17hf718fcc86a223baaE(ptr align 8 @alloc_8aba2e1a350eab404562435ee4ddc96a) #8
  unreachable

bb16:                                             ; preds = %bb20
  %_102 = ptrtoint ptr %heap to i64
  %_105 = icmp eq i64 %_102, 0
  %_106 = and i1 %_105, true
  %_107 = xor i1 %_106, true
  br i1 %_107, label %bb21, label %panic5

panic4:                                           ; preds = %bb20
; call core::panicking::panic_misaligned_pointer_dereference
  call void @_ZN4core9panicking36panic_misaligned_pointer_dereference17hcc3cbded9382b6e5E(i64 8, i64 %_70, ptr align 8 @alloc_9b9528a54cda03cb3feec025059bde1d) #8
  unreachable

bb21:                                             ; preds = %bb16
  %_6 = load i32, ptr %heap, align 8
  %_64 = ptrtoint ptr %heap to i64
  %_67 = and i64 %_64, 7
  %_68 = icmp eq i64 %_67, 0
  br i1 %_68, label %bb15, label %panic6

panic5:                                           ; preds = %bb16
; call core::panicking::panic_null_pointer_dereference
  call void @_ZN4core9panicking30panic_null_pointer_dereference17hf718fcc86a223baaE(ptr align 8 @alloc_9b9528a54cda03cb3feec025059bde1d) #8
  unreachable

bb15:                                             ; preds = %bb21
  %_109 = ptrtoint ptr %heap to i64
  %_112 = icmp eq i64 %_109, 0
  %_113 = and i1 %_112, true
  %_114 = xor i1 %_113, true
  br i1 %_114, label %bb22, label %panic7

panic6:                                           ; preds = %bb21
; call core::panicking::panic_misaligned_pointer_dereference
  call void @_ZN4core9panicking36panic_misaligned_pointer_dereference17hcc3cbded9382b6e5E(i64 8, i64 %_64, ptr align 8 @alloc_07f2a10419476346bdf5125fe00f2160) #8
  unreachable

bb22:                                             ; preds = %bb15
  %0 = add i32 %_6, 1
  store i32 %0, ptr %heap, align 8
  %_58 = ptrtoint ptr %heap to i64
  %_61 = and i64 %_58, 7
  %_62 = icmp eq i64 %_61, 0
  br i1 %_62, label %bb14, label %panic8

panic7:                                           ; preds = %bb15
; call core::panicking::panic_null_pointer_dereference
  call void @_ZN4core9panicking30panic_null_pointer_dereference17hf718fcc86a223baaE(ptr align 8 @alloc_07f2a10419476346bdf5125fe00f2160) #8
  unreachable

bb14:                                             ; preds = %bb22
  %_116 = ptrtoint ptr %heap to i64
  %_119 = icmp eq i64 %_116, 0
  %_120 = and i1 %_119, true
  %_121 = xor i1 %_120, true
  br i1 %_121, label %bb23, label %panic9

panic8:                                           ; preds = %bb22
; call core::panicking::panic_misaligned_pointer_dereference
  call void @_ZN4core9panicking36panic_misaligned_pointer_dereference17hcc3cbded9382b6e5E(i64 8, i64 %_58, ptr align 8 @alloc_a06b3758f98af0e6a9c996c3ef9dc7d8) #8
  unreachable

bb23:                                             ; preds = %bb14
  %1 = getelementptr inbounds i8, ptr %heap, i64 8
  %_9 = load ptr, ptr %1, align 8
  %_10 = sext i32 %fresh2 to i64
; call core::ptr::mut_ptr::<impl *mut T>::offset::precondition_check
  call void @"_ZN4core3ptr7mut_ptr31_$LT$impl$u20$$BP$mut$u20$T$GT$6offset18precondition_check17ha85c822d30f8ef1cE"(ptr %_9, i64 %_10, i64 8) #9
  %_0.i21 = getelementptr inbounds ptr, ptr %_9, i64 %_10
  %_151 = ptrtoint ptr %_0.i21 to i64
  %_152 = icmp eq i64 %_151, 0
  %_153 = and i1 %_152, true
  %_154 = xor i1 %_153, true
  br i1 %_154, label %bb28, label %panic10

panic9:                                           ; preds = %bb14
; call core::panicking::panic_null_pointer_dereference
  call void @_ZN4core9panicking30panic_null_pointer_dereference17hf718fcc86a223baaE(ptr align 8 @alloc_a06b3758f98af0e6a9c996c3ef9dc7d8) #8
  unreachable

bb28:                                             ; preds = %bb23
  store ptr %new, ptr %_0.i21, align 8
  br label %bb2

panic10:                                          ; preds = %bb23
; call core::panicking::panic_null_pointer_dereference
  call void @_ZN4core9panicking30panic_null_pointer_dereference17hf718fcc86a223baaE(ptr align 8 @alloc_e6d9feeb3090cf025dddbb08a4db89fe) #8
  unreachable

bb2:                                              ; preds = %bb8, %bb28
  %_11 = sub i32 %currentpos, 1
  %_15 = icmp eq i32 %_11, -2147483648
  %_16 = and i1 false, %_15
  br i1 %_16, label %panic11, label %bb4

bb4:                                              ; preds = %bb2
  %2 = sdiv i32 %_11, 2
  store i32 %2, ptr %parent, align 4
  %_18 = load i32, ptr %parent, align 4
  %_17 = icmp sge i32 %_18, 0
  br i1 %_17, label %bb5, label %bb9

panic11:                                          ; preds = %bb2
; call core::panicking::panic_const::panic_const_div_overflow
  call void @_ZN4core9panicking11panic_const24panic_const_div_overflow17h1ac73c9e33e18298E(ptr align 8 @alloc_7f495fe1ac15636e9e724ca98f22e437) #8
  unreachable

bb9:                                              ; preds = %bb27, %bb4
  ret void

bb5:                                              ; preds = %bb4
  %_52 = ptrtoint ptr %heap to i64
  %_55 = and i64 %_52, 7
  %_56 = icmp eq i64 %_55, 0
  br i1 %_56, label %bb13, label %panic12

bb13:                                             ; preds = %bb5
  %_123 = ptrtoint ptr %heap to i64
  %_126 = icmp eq i64 %_123, 0
  %_127 = and i1 %_126, true
  %_128 = xor i1 %_127, true
  br i1 %_128, label %bb24, label %panic13

panic12:                                          ; preds = %bb5
; call core::panicking::panic_misaligned_pointer_dereference
  call void @_ZN4core9panicking36panic_misaligned_pointer_dereference17hcc3cbded9382b6e5E(i64 8, i64 %_52, ptr align 8 @alloc_488112053842d520e15d2c00a116f366) #8
  unreachable

bb24:                                             ; preds = %bb13
  %3 = getelementptr inbounds i8, ptr %heap, i64 8
  %_22 = load ptr, ptr %3, align 8
  %_23 = sext i32 %currentpos to i64
; call core::ptr::mut_ptr::<impl *mut T>::offset::precondition_check
  call void @"_ZN4core3ptr7mut_ptr31_$LT$impl$u20$$BP$mut$u20$T$GT$6offset18precondition_check17ha85c822d30f8ef1cE"(ptr %_22, i64 %_23, i64 8) #9
  %_0.i20 = getelementptr inbounds ptr, ptr %_22, i64 %_23
  %_31 = load ptr, ptr %_0.i20, align 8
  %_46 = ptrtoint ptr %_31 to i64
  %_49 = and i64 %_46, 7
  %_50 = icmp eq i64 %_49, 0
  br i1 %_50, label %bb12, label %panic14

panic13:                                          ; preds = %bb13
; call core::panicking::panic_null_pointer_dereference
  call void @_ZN4core9panicking30panic_null_pointer_dereference17hf718fcc86a223baaE(ptr align 8 @alloc_488112053842d520e15d2c00a116f366) #8
  unreachable

bb12:                                             ; preds = %bb24
  %_130 = ptrtoint ptr %_31 to i64
  %_133 = icmp eq i64 %_130, 0
  %_134 = and i1 %_133, true
  %_135 = xor i1 %_134, true
  br i1 %_135, label %bb25, label %panic15

panic14:                                          ; preds = %bb24
; call core::panicking::panic_misaligned_pointer_dereference
  call void @_ZN4core9panicking36panic_misaligned_pointer_dereference17hcc3cbded9382b6e5E(i64 8, i64 %_46, ptr align 8 @alloc_4daa90aa747b682a443b3a1406be0ee6) #8
  unreachable

bb25:                                             ; preds = %bb12
  %4 = getelementptr inbounds i8, ptr %_31, i64 44
  %_20 = load i32, ptr %4, align 4
  %_40 = ptrtoint ptr %heap to i64
  %_43 = and i64 %_40, 7
  %_44 = icmp eq i64 %_43, 0
  br i1 %_44, label %bb11, label %panic16

panic15:                                          ; preds = %bb12
; call core::panicking::panic_null_pointer_dereference
  call void @_ZN4core9panicking30panic_null_pointer_dereference17hf718fcc86a223baaE(ptr align 8 @alloc_4daa90aa747b682a443b3a1406be0ee6) #8
  unreachable

bb11:                                             ; preds = %bb25
  %_137 = ptrtoint ptr %heap to i64
  %_140 = icmp eq i64 %_137, 0
  %_141 = and i1 %_140, true
  %_142 = xor i1 %_141, true
  br i1 %_142, label %bb26, label %panic17

panic16:                                          ; preds = %bb25
; call core::panicking::panic_misaligned_pointer_dereference
  call void @_ZN4core9panicking36panic_misaligned_pointer_dereference17hcc3cbded9382b6e5E(i64 8, i64 %_40, ptr align 8 @alloc_9831bed29e09a7428ad22e994ae86821) #8
  unreachable

bb26:                                             ; preds = %bb11
  %5 = getelementptr inbounds i8, ptr %heap, i64 8
  %_26 = load ptr, ptr %5, align 8
  %_28 = load i32, ptr %parent, align 4
  %_27 = sext i32 %_28 to i64
; call core::ptr::mut_ptr::<impl *mut T>::offset::precondition_check
  call void @"_ZN4core3ptr7mut_ptr31_$LT$impl$u20$$BP$mut$u20$T$GT$6offset18precondition_check17ha85c822d30f8ef1cE"(ptr %_26, i64 %_27, i64 8) #9
  %_0.i = getelementptr inbounds ptr, ptr %_26, i64 %_27
  %_32 = load ptr, ptr %_0.i, align 8
  %_34 = ptrtoint ptr %_32 to i64
  %_37 = and i64 %_34, 7
  %_38 = icmp eq i64 %_37, 0
  br i1 %_38, label %bb10, label %panic18

panic17:                                          ; preds = %bb11
; call core::panicking::panic_null_pointer_dereference
  call void @_ZN4core9panicking30panic_null_pointer_dereference17hf718fcc86a223baaE(ptr align 8 @alloc_9831bed29e09a7428ad22e994ae86821) #8
  unreachable

bb10:                                             ; preds = %bb26
  %_144 = ptrtoint ptr %_32 to i64
  %_147 = icmp eq i64 %_144, 0
  %_148 = and i1 %_147, true
  %_149 = xor i1 %_148, true
  br i1 %_149, label %bb27, label %panic19

panic18:                                          ; preds = %bb26
; call core::panicking::panic_misaligned_pointer_dereference
  call void @_ZN4core9panicking36panic_misaligned_pointer_dereference17hcc3cbded9382b6e5E(i64 8, i64 %_34, ptr align 8 @alloc_3f0d57d7530178370fbcb70690196195) #8
  unreachable

bb27:                                             ; preds = %bb10
  %6 = getelementptr inbounds i8, ptr %_32, i64 44
  %_24 = load i32, ptr %6, align 4
  %_19 = icmp sge i32 %_20, %_24
  br i1 %_19, label %bb9, label %bb8

panic19:                                          ; preds = %bb10
; call core::panicking::panic_null_pointer_dereference
  call void @_ZN4core9panicking30panic_null_pointer_dereference17hf718fcc86a223baaE(ptr align 8 @alloc_3f0d57d7530178370fbcb70690196195) #8
  unreachable

bb8:                                              ; preds = %bb27
  %_30 = load i32, ptr %parent, align 4
  call void @heap_swap(ptr %heap, i32 %currentpos, i32 %_30) #9
  br label %bb2
}

; Function Attrs: nounwind nonlazybind
define ptr @delete_min(ptr %heap) unnamed_addr #2 {
start:
  %_0 = alloca [8 x i8], align 8
  %_2 = call i32 @heap_empty(ptr %heap) #9
  %0 = icmp eq i32 %_2, 0
  br i1 %0, label %bb3, label %bb2

bb3:                                              ; preds = %start
  %_60 = ptrtoint ptr %heap to i64
  %_63 = and i64 %_60, 7
  %_64 = icmp eq i64 %_63, 0
  br i1 %_64, label %bb16, label %panic

bb2:                                              ; preds = %start
  store ptr null, ptr %_0, align 8
  br label %bb8

bb16:                                             ; preds = %bb3
  %_66 = ptrtoint ptr %heap to i64
  %_69 = icmp eq i64 %_66, 0
  %_70 = and i1 %_69, true
  %_71 = xor i1 %_70, true
  br i1 %_71, label %bb17, label %panic1

panic:                                            ; preds = %bb3
; call core::panicking::panic_misaligned_pointer_dereference
  call void @_ZN4core9panicking36panic_misaligned_pointer_dereference17hcc3cbded9382b6e5E(i64 8, i64 %_60, ptr align 8 @alloc_08a1751d7665d3f36341e6a883ca773f) #8
  unreachable

bb17:                                             ; preds = %bb16
  %1 = getelementptr inbounds i8, ptr %heap, i64 8
  %_5 = load ptr, ptr %1, align 8
; call core::ptr::mut_ptr::<impl *mut T>::offset::precondition_check
  call void @"_ZN4core3ptr7mut_ptr31_$LT$impl$u20$$BP$mut$u20$T$GT$6offset18precondition_check17ha85c822d30f8ef1cE"(ptr %_5, i64 0, i64 8) #9
  %_54 = ptrtoint ptr %_5 to i64
  %_57 = and i64 %_54, 7
  %_58 = icmp eq i64 %_57, 0
  br i1 %_58, label %bb15, label %panic2

panic1:                                           ; preds = %bb16
; call core::panicking::panic_null_pointer_dereference
  call void @_ZN4core9panicking30panic_null_pointer_dereference17hf718fcc86a223baaE(ptr align 8 @alloc_08a1751d7665d3f36341e6a883ca773f) #8
  unreachable

bb15:                                             ; preds = %bb17
  %_73 = ptrtoint ptr %_5 to i64
  %_76 = icmp eq i64 %_73, 0
  %_77 = and i1 %_76, true
  %_78 = xor i1 %_77, true
  br i1 %_78, label %bb18, label %panic3

panic2:                                           ; preds = %bb17
; call core::panicking::panic_misaligned_pointer_dereference
  call void @_ZN4core9panicking36panic_misaligned_pointer_dereference17hcc3cbded9382b6e5E(i64 8, i64 %_54, ptr align 8 @alloc_1db6a2766d7e359deeb8a928b3e4113a) #8
  unreachable

bb18:                                             ; preds = %bb15
  %retval = load ptr, ptr %_5, align 8
  %_48 = ptrtoint ptr %heap to i64
  %_51 = and i64 %_48, 7
  %_52 = icmp eq i64 %_51, 0
  br i1 %_52, label %bb14, label %panic4

panic3:                                           ; preds = %bb15
; call core::panicking::panic_null_pointer_dereference
  call void @_ZN4core9panicking30panic_null_pointer_dereference17hf718fcc86a223baaE(ptr align 8 @alloc_1db6a2766d7e359deeb8a928b3e4113a) #8
  unreachable

bb14:                                             ; preds = %bb18
  %_42 = ptrtoint ptr %heap to i64
  %_45 = and i64 %_42, 7
  %_46 = icmp eq i64 %_45, 0
  br i1 %_46, label %bb13, label %panic5

panic4:                                           ; preds = %bb18
; call core::panicking::panic_misaligned_pointer_dereference
  call void @_ZN4core9panicking36panic_misaligned_pointer_dereference17hcc3cbded9382b6e5E(i64 8, i64 %_48, ptr align 8 @alloc_19fcaf815a6a6ee4b973cfb983e5063d) #8
  unreachable

bb13:                                             ; preds = %bb14
  %_87 = ptrtoint ptr %heap to i64
  %_90 = icmp eq i64 %_87, 0
  %_91 = and i1 %_90, true
  %_92 = xor i1 %_91, true
  br i1 %_92, label %bb20, label %panic6

panic5:                                           ; preds = %bb14
; call core::panicking::panic_misaligned_pointer_dereference
  call void @_ZN4core9panicking36panic_misaligned_pointer_dereference17hcc3cbded9382b6e5E(i64 8, i64 %_42, ptr align 8 @alloc_19fcaf815a6a6ee4b973cfb983e5063d) #8
  unreachable

bb20:                                             ; preds = %bb13
  %_80 = ptrtoint ptr %heap to i64
  %_83 = icmp eq i64 %_80, 0
  %_84 = and i1 %_83, true
  %_85 = xor i1 %_84, true
  br i1 %_85, label %bb19, label %panic7

panic6:                                           ; preds = %bb13
; call core::panicking::panic_null_pointer_dereference
  call void @_ZN4core9panicking30panic_null_pointer_dereference17hf718fcc86a223baaE(ptr align 8 @alloc_19fcaf815a6a6ee4b973cfb983e5063d) #8
  unreachable

bb19:                                             ; preds = %bb20
  %2 = load i32, ptr %heap, align 8
  %3 = sub i32 %2, 1
  store i32 %3, ptr %heap, align 8
  %_36 = ptrtoint ptr %heap to i64
  %_39 = and i64 %_36, 7
  %_40 = icmp eq i64 %_39, 0
  br i1 %_40, label %bb12, label %panic8

panic7:                                           ; preds = %bb20
; call core::panicking::panic_null_pointer_dereference
  call void @_ZN4core9panicking30panic_null_pointer_dereference17hf718fcc86a223baaE(ptr align 8 @alloc_19fcaf815a6a6ee4b973cfb983e5063d) #8
  unreachable

bb12:                                             ; preds = %bb19
  %_94 = ptrtoint ptr %heap to i64
  %_97 = icmp eq i64 %_94, 0
  %_98 = and i1 %_97, true
  %_99 = xor i1 %_98, true
  br i1 %_99, label %bb21, label %panic9

panic8:                                           ; preds = %bb19
; call core::panicking::panic_misaligned_pointer_dereference
  call void @_ZN4core9panicking36panic_misaligned_pointer_dereference17hcc3cbded9382b6e5E(i64 8, i64 %_36, ptr align 8 @alloc_6716e4dd3cafa925fc741bef94ed4827) #8
  unreachable

bb21:                                             ; preds = %bb12
  %4 = getelementptr inbounds i8, ptr %heap, i64 8
  %_9 = load ptr, ptr %4, align 8
; call core::ptr::mut_ptr::<impl *mut T>::offset::precondition_check
  call void @"_ZN4core3ptr7mut_ptr31_$LT$impl$u20$$BP$mut$u20$T$GT$6offset18precondition_check17ha85c822d30f8ef1cE"(ptr %_9, i64 0, i64 8) #9
  %_122 = ptrtoint ptr %_9 to i64
  %_123 = icmp eq i64 %_122, 0
  %_124 = and i1 %_123, true
  %_125 = xor i1 %_124, true
  br i1 %_125, label %bb25, label %panic10

panic9:                                           ; preds = %bb12
; call core::panicking::panic_null_pointer_dereference
  call void @_ZN4core9panicking30panic_null_pointer_dereference17hf718fcc86a223baaE(ptr align 8 @alloc_6716e4dd3cafa925fc741bef94ed4827) #8
  unreachable

bb25:                                             ; preds = %bb21
  %_30 = ptrtoint ptr %heap to i64
  %_33 = and i64 %_30, 7
  %_34 = icmp eq i64 %_33, 0
  br i1 %_34, label %bb11, label %panic11

panic10:                                          ; preds = %bb21
; call core::panicking::panic_null_pointer_dereference
  call void @_ZN4core9panicking30panic_null_pointer_dereference17hf718fcc86a223baaE(ptr align 8 @alloc_4bf04db4eba7c6243120463bfcde9f86) #8
  unreachable

bb11:                                             ; preds = %bb25
  %_101 = ptrtoint ptr %heap to i64
  %_104 = icmp eq i64 %_101, 0
  %_105 = and i1 %_104, true
  %_106 = xor i1 %_105, true
  br i1 %_106, label %bb22, label %panic12

panic11:                                          ; preds = %bb25
; call core::panicking::panic_misaligned_pointer_dereference
  call void @_ZN4core9panicking36panic_misaligned_pointer_dereference17hcc3cbded9382b6e5E(i64 8, i64 %_30, ptr align 8 @alloc_be205869ac82c550ab79d0771368b7d5) #8
  unreachable

bb22:                                             ; preds = %bb11
  %5 = getelementptr inbounds i8, ptr %heap, i64 8
  %_13 = load ptr, ptr %5, align 8
  %_24 = ptrtoint ptr %heap to i64
  %_27 = and i64 %_24, 7
  %_28 = icmp eq i64 %_27, 0
  br i1 %_28, label %bb10, label %panic13

panic12:                                          ; preds = %bb11
; call core::panicking::panic_null_pointer_dereference
  call void @_ZN4core9panicking30panic_null_pointer_dereference17hf718fcc86a223baaE(ptr align 8 @alloc_be205869ac82c550ab79d0771368b7d5) #8
  unreachable

bb10:                                             ; preds = %bb22
  %_108 = ptrtoint ptr %heap to i64
  %_111 = icmp eq i64 %_108, 0
  %_112 = and i1 %_111, true
  %_113 = xor i1 %_112, true
  br i1 %_113, label %bb23, label %panic14

panic13:                                          ; preds = %bb22
; call core::panicking::panic_misaligned_pointer_dereference
  call void @_ZN4core9panicking36panic_misaligned_pointer_dereference17hcc3cbded9382b6e5E(i64 8, i64 %_24, ptr align 8 @alloc_3987039cf247d4cfd6b76c5e7c054762) #8
  unreachable

bb23:                                             ; preds = %bb10
  %_15 = load i32, ptr %heap, align 8
  %_14 = sext i32 %_15 to i64
; call core::ptr::mut_ptr::<impl *mut T>::offset::precondition_check
  call void @"_ZN4core3ptr7mut_ptr31_$LT$impl$u20$$BP$mut$u20$T$GT$6offset18precondition_check17ha85c822d30f8ef1cE"(ptr %_13, i64 %_14, i64 8) #9
  %_0.i = getelementptr inbounds ptr, ptr %_13, i64 %_14
  %_18 = ptrtoint ptr %_0.i to i64
  %_21 = and i64 %_18, 7
  %_22 = icmp eq i64 %_21, 0
  br i1 %_22, label %bb9, label %panic15

panic14:                                          ; preds = %bb10
; call core::panicking::panic_null_pointer_dereference
  call void @_ZN4core9panicking30panic_null_pointer_dereference17hf718fcc86a223baaE(ptr align 8 @alloc_3987039cf247d4cfd6b76c5e7c054762) #8
  unreachable

bb9:                                              ; preds = %bb23
  %_115 = ptrtoint ptr %_0.i to i64
  %_118 = icmp eq i64 %_115, 0
  %_119 = and i1 %_118, true
  %_120 = xor i1 %_119, true
  br i1 %_120, label %bb24, label %panic16

panic15:                                          ; preds = %bb23
; call core::panicking::panic_misaligned_pointer_dereference
  call void @_ZN4core9panicking36panic_misaligned_pointer_dereference17hcc3cbded9382b6e5E(i64 8, i64 %_18, ptr align 8 @alloc_5659de74f09cc2e5ae79f112a4531842) #8
  unreachable

bb24:                                             ; preds = %bb9
  %_11 = load ptr, ptr %_0.i, align 8
  store ptr %_11, ptr %_9, align 8
  call void @heap_hold(ptr %heap, i32 0) #9
  store ptr %retval, ptr %_0, align 8
  br label %bb8

panic16:                                          ; preds = %bb9
; call core::panicking::panic_null_pointer_dereference
  call void @_ZN4core9panicking30panic_null_pointer_dereference17hf718fcc86a223baaE(ptr align 8 @alloc_5659de74f09cc2e5ae79f112a4531842) #8
  unreachable

bb8:                                              ; preds = %bb2, %bb24
  %6 = load ptr, ptr %_0, align 8
  ret ptr %6
}

; Function Attrs: nounwind nonlazybind
define i32 @cube_equal(ptr %m1, ptr %m2) unnamed_addr #2 {
start:
  %ok = alloca [4 x i8], align 4
  %j = alloca [4 x i8], align 4
  %i = alloca [4 x i8], align 4
  store i32 0, ptr %i, align 4
  store i32 0, ptr %j, align 4
  store i32 1, ptr %ok, align 4
  store i32 0, ptr %i, align 4
  br label %bb1

bb1:                                              ; preds = %bb13, %start
  %_7 = load i32, ptr %i, align 4
  %_6 = icmp slt i32 %_7, 3
  br i1 %_6, label %bb2, label %bb14

bb14:                                             ; preds = %bb2, %bb1
  %_0 = load i32, ptr %ok, align 4
  ret i32 %_0

bb2:                                              ; preds = %bb1
  %_8 = load i32, ptr %ok, align 4
  %0 = icmp eq i32 %_8, 0
  br i1 %0, label %bb14, label %bb3

bb3:                                              ; preds = %bb2
  store i32 0, ptr %j, align 4
  br label %bb4

bb4:                                              ; preds = %bb12, %bb3
  %_10 = load i32, ptr %j, align 4
  %_9 = icmp slt i32 %_10, 3
  br i1 %_9, label %bb5, label %bb13

bb13:                                             ; preds = %bb5, %bb4
  %1 = load i32, ptr %i, align 4
  %2 = add i32 %1, 1
  store i32 %2, ptr %i, align 4
  br label %bb1

bb5:                                              ; preds = %bb4
  %_11 = load i32, ptr %ok, align 4
  %3 = icmp eq i32 %_11, 0
  br i1 %3, label %bb13, label %bb6

bb6:                                              ; preds = %bb5
  %_16 = load i32, ptr %i, align 4
  %_15 = sext i32 %_16 to i64
; call core::ptr::mut_ptr::<impl *mut T>::offset::precondition_check
  call void @"_ZN4core3ptr7mut_ptr31_$LT$impl$u20$$BP$mut$u20$T$GT$6offset18precondition_check17ha85c822d30f8ef1cE"(ptr %m1, i64 %_15, i64 12) #9
  %_0.i6 = getelementptr inbounds [3 x i32], ptr %m1, i64 %_15
  %_18 = load i32, ptr %j, align 4
  %_17 = sext i32 %_18 to i64
  %_19 = icmp ult i64 %_17, 3
  br i1 %_19, label %bb8, label %panic

bb8:                                              ; preds = %bb6
  %_34 = ptrtoint ptr %_0.i6 to i64
  %_37 = and i64 %_34, 3
  %_38 = icmp eq i64 %_37, 0
  br i1 %_38, label %bb16, label %panic1

panic:                                            ; preds = %bb6
; call core::panicking::panic_bounds_check
  call void @_ZN4core9panicking18panic_bounds_check17h27d1e4f0cb1112dfE(i64 %_17, i64 3, ptr align 8 @alloc_1bde55f592e87209333373f3bc0d3f6d) #8
  unreachable

bb16:                                             ; preds = %bb8
  %_40 = ptrtoint ptr %_0.i6 to i64
  %_43 = icmp eq i64 %_40, 0
  %_44 = and i1 %_43, true
  %_45 = xor i1 %_44, true
  br i1 %_45, label %bb17, label %panic2

panic1:                                           ; preds = %bb8
; call core::panicking::panic_misaligned_pointer_dereference
  call void @_ZN4core9panicking36panic_misaligned_pointer_dereference17hcc3cbded9382b6e5E(i64 4, i64 %_34, ptr align 8 @alloc_1bde55f592e87209333373f3bc0d3f6d) #8
  unreachable

bb17:                                             ; preds = %bb16
  %4 = getelementptr inbounds nuw i32, ptr %_0.i6, i64 %_17
  %_13 = load i32, ptr %4, align 4
  %_23 = load i32, ptr %i, align 4
  %_22 = sext i32 %_23 to i64
; call core::ptr::mut_ptr::<impl *mut T>::offset::precondition_check
  call void @"_ZN4core3ptr7mut_ptr31_$LT$impl$u20$$BP$mut$u20$T$GT$6offset18precondition_check17ha85c822d30f8ef1cE"(ptr %m2, i64 %_22, i64 12) #9
  %_0.i = getelementptr inbounds [3 x i32], ptr %m2, i64 %_22
  %_25 = load i32, ptr %j, align 4
  %_24 = sext i32 %_25 to i64
  %_26 = icmp ult i64 %_24, 3
  br i1 %_26, label %bb10, label %panic3

panic2:                                           ; preds = %bb16
; call core::panicking::panic_null_pointer_dereference
  call void @_ZN4core9panicking30panic_null_pointer_dereference17hf718fcc86a223baaE(ptr align 8 @alloc_1bde55f592e87209333373f3bc0d3f6d) #8
  unreachable

bb10:                                             ; preds = %bb17
  %_28 = ptrtoint ptr %_0.i to i64
  %_31 = and i64 %_28, 3
  %_32 = icmp eq i64 %_31, 0
  br i1 %_32, label %bb15, label %panic4

panic3:                                           ; preds = %bb17
; call core::panicking::panic_bounds_check
  call void @_ZN4core9panicking18panic_bounds_check17h27d1e4f0cb1112dfE(i64 %_24, i64 3, ptr align 8 @alloc_165825dc883498cafbcc08dd7d60bb6b) #8
  unreachable

bb15:                                             ; preds = %bb10
  %_47 = ptrtoint ptr %_0.i to i64
  %_50 = icmp eq i64 %_47, 0
  %_51 = and i1 %_50, true
  %_52 = xor i1 %_51, true
  br i1 %_52, label %bb18, label %panic5

panic4:                                           ; preds = %bb10
; call core::panicking::panic_misaligned_pointer_dereference
  call void @_ZN4core9panicking36panic_misaligned_pointer_dereference17hcc3cbded9382b6e5E(i64 4, i64 %_28, ptr align 8 @alloc_165825dc883498cafbcc08dd7d60bb6b) #8
  unreachable

bb18:                                             ; preds = %bb15
  %5 = getelementptr inbounds nuw i32, ptr %_0.i, i64 %_24
  %_20 = load i32, ptr %5, align 4
  %_12 = icmp ne i32 %_13, %_20
  br i1 %_12, label %bb11, label %bb12

panic5:                                           ; preds = %bb15
; call core::panicking::panic_null_pointer_dereference
  call void @_ZN4core9panicking30panic_null_pointer_dereference17hf718fcc86a223baaE(ptr align 8 @alloc_165825dc883498cafbcc08dd7d60bb6b) #8
  unreachable

bb12:                                             ; preds = %bb11, %bb18
  %6 = load i32, ptr %j, align 4
  %7 = add i32 %6, 1
  store i32 %7, ptr %j, align 4
  br label %bb4

bb11:                                             ; preds = %bb18
  store i32 0, ptr %ok, align 4
  br label %bb12
}

; Function Attrs: nounwind nonlazybind
define void @cube_copy(ptr %source, ptr %dest) unnamed_addr #2 {
start:
  %j = alloca [4 x i8], align 4
  %i = alloca [4 x i8], align 4
  store i32 0, ptr %i, align 4
  store i32 0, ptr %j, align 4
  store i32 0, ptr %i, align 4
  br label %bb1

bb1:                                              ; preds = %bb9, %start
  %_6 = load i32, ptr %i, align 4
  %_5 = icmp slt i32 %_6, 3
  br i1 %_5, label %bb2, label %bb10

bb10:                                             ; preds = %bb1
  ret void

bb2:                                              ; preds = %bb1
  store i32 0, ptr %j, align 4
  br label %bb3

bb3:                                              ; preds = %bb14, %bb2
  %_8 = load i32, ptr %j, align 4
  %_7 = icmp slt i32 %_8, 3
  br i1 %_7, label %bb4, label %bb9

bb9:                                              ; preds = %bb3
  %0 = load i32, ptr %i, align 4
  %1 = add i32 %0, 1
  store i32 %1, ptr %i, align 4
  br label %bb1

bb4:                                              ; preds = %bb3
  %_12 = load i32, ptr %i, align 4
  %_11 = sext i32 %_12 to i64
; call core::ptr::mut_ptr::<impl *mut T>::offset::precondition_check
  call void @"_ZN4core3ptr7mut_ptr31_$LT$impl$u20$$BP$mut$u20$T$GT$6offset18precondition_check17ha85c822d30f8ef1cE"(ptr %source, i64 %_11, i64 12) #9
  %_0.i6 = getelementptr inbounds [3 x i32], ptr %source, i64 %_11
  %_14 = load i32, ptr %j, align 4
  %_13 = sext i32 %_14 to i64
  %_15 = icmp ult i64 %_13, 3
  br i1 %_15, label %bb6, label %panic

bb6:                                              ; preds = %bb4
  %_29 = ptrtoint ptr %_0.i6 to i64
  %_32 = and i64 %_29, 3
  %_33 = icmp eq i64 %_32, 0
  br i1 %_33, label %bb12, label %panic1

panic:                                            ; preds = %bb4
; call core::panicking::panic_bounds_check
  call void @_ZN4core9panicking18panic_bounds_check17h27d1e4f0cb1112dfE(i64 %_13, i64 3, ptr align 8 @alloc_dd188b5eadf28d1de95a49a5d7b6f2b5) #8
  unreachable

bb12:                                             ; preds = %bb6
  %_35 = ptrtoint ptr %_0.i6 to i64
  %_38 = icmp eq i64 %_35, 0
  %_39 = and i1 %_38, true
  %_40 = xor i1 %_39, true
  br i1 %_40, label %bb13, label %panic2

panic1:                                           ; preds = %bb6
; call core::panicking::panic_misaligned_pointer_dereference
  call void @_ZN4core9panicking36panic_misaligned_pointer_dereference17hcc3cbded9382b6e5E(i64 4, i64 %_29, ptr align 8 @alloc_dd188b5eadf28d1de95a49a5d7b6f2b5) #8
  unreachable

bb13:                                             ; preds = %bb12
  %2 = getelementptr inbounds nuw i32, ptr %_0.i6, i64 %_13
  %_9 = load i32, ptr %2, align 4
  %_18 = load i32, ptr %i, align 4
  %_17 = sext i32 %_18 to i64
; call core::ptr::mut_ptr::<impl *mut T>::offset::precondition_check
  call void @"_ZN4core3ptr7mut_ptr31_$LT$impl$u20$$BP$mut$u20$T$GT$6offset18precondition_check17ha85c822d30f8ef1cE"(ptr %dest, i64 %_17, i64 12) #9
  %_0.i = getelementptr inbounds [3 x i32], ptr %dest, i64 %_17
  %_20 = load i32, ptr %j, align 4
  %_19 = sext i32 %_20 to i64
  %_21 = icmp ult i64 %_19, 3
  br i1 %_21, label %bb8, label %panic3

panic2:                                           ; preds = %bb12
; call core::panicking::panic_null_pointer_dereference
  call void @_ZN4core9panicking30panic_null_pointer_dereference17hf718fcc86a223baaE(ptr align 8 @alloc_dd188b5eadf28d1de95a49a5d7b6f2b5) #8
  unreachable

bb8:                                              ; preds = %bb13
  %_23 = ptrtoint ptr %_0.i to i64
  %_26 = and i64 %_23, 3
  %_27 = icmp eq i64 %_26, 0
  br i1 %_27, label %bb11, label %panic4

panic3:                                           ; preds = %bb13
; call core::panicking::panic_bounds_check
  call void @_ZN4core9panicking18panic_bounds_check17h27d1e4f0cb1112dfE(i64 %_19, i64 3, ptr align 8 @alloc_5e88a564efe89fa976e17472fd1277a4) #8
  unreachable

bb11:                                             ; preds = %bb8
  %_42 = ptrtoint ptr %_0.i to i64
  %_45 = icmp eq i64 %_42, 0
  %_46 = and i1 %_45, true
  %_47 = xor i1 %_46, true
  br i1 %_47, label %bb14, label %panic5

panic4:                                           ; preds = %bb8
; call core::panicking::panic_misaligned_pointer_dereference
  call void @_ZN4core9panicking36panic_misaligned_pointer_dereference17hcc3cbded9382b6e5E(i64 4, i64 %_23, ptr align 8 @alloc_5e88a564efe89fa976e17472fd1277a4) #8
  unreachable

bb14:                                             ; preds = %bb11
  %3 = getelementptr inbounds nuw i32, ptr %_0.i, i64 %_19
  store i32 %_9, ptr %3, align 4
  %4 = load i32, ptr %j, align 4
  %5 = add i32 %4, 1
  store i32 %5, ptr %j, align 4
  br label %bb3

panic5:                                           ; preds = %bb11
; call core::panicking::panic_null_pointer_dereference
  call void @_ZN4core9panicking30panic_null_pointer_dereference17hf718fcc86a223baaE(ptr align 8 @alloc_5e88a564efe89fa976e17472fd1277a4) #8
  unreachable
}

; Function Attrs: nounwind nonlazybind
define void @cube_display(ptr %m) unnamed_addr #2 {
start:
  %j = alloca [4 x i8], align 4
  %i = alloca [4 x i8], align 4
  store i32 0, ptr %i, align 4
  store i32 0, ptr %j, align 4
  store i32 0, ptr %i, align 4
  br label %bb1

bb1:                                              ; preds = %bb8, %start
  %_5 = load i32, ptr %i, align 4
  %_4 = icmp slt i32 %_5, 3
  br i1 %_4, label %bb2, label %bb10

bb10:                                             ; preds = %bb1
  ret void

bb2:                                              ; preds = %bb1
  store i32 0, ptr %j, align 4
  br label %bb3

bb3:                                              ; preds = %bb12, %bb2
  %_7 = load i32, ptr %j, align 4
  %_6 = icmp slt i32 %_7, 3
  br i1 %_6, label %bb4, label %bb8

bb8:                                              ; preds = %bb3
  %_20 = call i32 (ptr, ...) @printf(ptr @alloc_f3588b28b94f0809fcc8d717033d3e48) #9
  %0 = load i32, ptr %i, align 4
  %1 = add i32 %0, 1
  store i32 %1, ptr %i, align 4
  br label %bb1

bb4:                                              ; preds = %bb3
  %_16 = load i32, ptr %i, align 4
  %_15 = sext i32 %_16 to i64
; call core::ptr::mut_ptr::<impl *mut T>::offset::precondition_check
  call void @"_ZN4core3ptr7mut_ptr31_$LT$impl$u20$$BP$mut$u20$T$GT$6offset18precondition_check17ha85c822d30f8ef1cE"(ptr %m, i64 %_15, i64 12) #9
  %_0.i = getelementptr inbounds [3 x i32], ptr %m, i64 %_15
  %_18 = load i32, ptr %j, align 4
  %_17 = sext i32 %_18 to i64
  %_19 = icmp ult i64 %_17, 3
  br i1 %_19, label %bb6, label %panic

bb6:                                              ; preds = %bb4
  %_26 = ptrtoint ptr %_0.i to i64
  %_29 = and i64 %_26, 3
  %_30 = icmp eq i64 %_29, 0
  br i1 %_30, label %bb11, label %panic1

panic:                                            ; preds = %bb4
; call core::panicking::panic_bounds_check
  call void @_ZN4core9panicking18panic_bounds_check17h27d1e4f0cb1112dfE(i64 %_17, i64 3, ptr align 8 @alloc_271037ffdbe6af0aa60f85cb6227b12f) #8
  unreachable

bb11:                                             ; preds = %bb6
  %_32 = ptrtoint ptr %_0.i to i64
  %_35 = icmp eq i64 %_32, 0
  %_36 = and i1 %_35, true
  %_37 = xor i1 %_36, true
  br i1 %_37, label %bb12, label %panic2

panic1:                                           ; preds = %bb6
; call core::panicking::panic_misaligned_pointer_dereference
  call void @_ZN4core9panicking36panic_misaligned_pointer_dereference17hcc3cbded9382b6e5E(i64 4, i64 %_26, ptr align 8 @alloc_271037ffdbe6af0aa60f85cb6227b12f) #8
  unreachable

bb12:                                             ; preds = %bb11
  %2 = getelementptr inbounds nuw i32, ptr %_0.i, i64 %_17
  %_13 = load i32, ptr %2, align 4
  %_8 = call i32 (ptr, ...) @printf(ptr @alloc_b929c71616281bfd1be2bd4038d3ddf1, i32 %_13) #9
  %3 = load i32, ptr %j, align 4
  %4 = add i32 %3, 1
  store i32 %4, ptr %j, align 4
  br label %bb3

panic2:                                           ; preds = %bb11
; call core::panicking::panic_null_pointer_dereference
  call void @_ZN4core9panicking30panic_null_pointer_dereference17hf718fcc86a223baaE(ptr align 8 @alloc_271037ffdbe6af0aa60f85cb6227b12f) #8
  unreachable
}

; Function Attrs: nounwind nonlazybind
define void @move_up(ptr %m, i32 %x, i32 %y) unnamed_addr #2 {
start:
  %_7 = sub i32 %x, 1
  %_6 = sext i32 %_7 to i64
; call core::ptr::mut_ptr::<impl *mut T>::offset::precondition_check
  call void @"_ZN4core3ptr7mut_ptr31_$LT$impl$u20$$BP$mut$u20$T$GT$6offset18precondition_check17ha85c822d30f8ef1cE"(ptr %m, i64 %_6, i64 12) #9
  %_0.i10 = getelementptr inbounds [3 x i32], ptr %m, i64 %_6
  %_8 = sext i32 %y to i64
  %_9 = icmp ult i64 %_8, 3
  br i1 %_9, label %bb2, label %panic

bb2:                                              ; preds = %start
  %_32 = ptrtoint ptr %_0.i10 to i64
  %_35 = and i64 %_32, 3
  %_36 = icmp eq i64 %_35, 0
  br i1 %_36, label %bb9, label %panic1

panic:                                            ; preds = %start
; call core::panicking::panic_bounds_check
  call void @_ZN4core9panicking18panic_bounds_check17h27d1e4f0cb1112dfE(i64 %_8, i64 3, ptr align 8 @alloc_7a8677e6f88c8cb5d11784c43b45709b) #8
  unreachable

bb9:                                              ; preds = %bb2
  %_38 = ptrtoint ptr %_0.i10 to i64
  %_41 = icmp eq i64 %_38, 0
  %_42 = and i1 %_41, true
  %_43 = xor i1 %_42, true
  br i1 %_43, label %bb10, label %panic2

panic1:                                           ; preds = %bb2
; call core::panicking::panic_misaligned_pointer_dereference
  call void @_ZN4core9panicking36panic_misaligned_pointer_dereference17hcc3cbded9382b6e5E(i64 4, i64 %_32, ptr align 8 @alloc_7a8677e6f88c8cb5d11784c43b45709b) #8
  unreachable

bb10:                                             ; preds = %bb9
  %0 = getelementptr inbounds nuw i32, ptr %_0.i10, i64 %_8
  %_4 = load i32, ptr %0, align 4
  %_11 = sext i32 %x to i64
; call core::ptr::mut_ptr::<impl *mut T>::offset::precondition_check
  call void @"_ZN4core3ptr7mut_ptr31_$LT$impl$u20$$BP$mut$u20$T$GT$6offset18precondition_check17ha85c822d30f8ef1cE"(ptr %m, i64 %_11, i64 12) #9
  %_0.i9 = getelementptr inbounds [3 x i32], ptr %m, i64 %_11
  %_12 = sext i32 %y to i64
  %_13 = icmp ult i64 %_12, 3
  br i1 %_13, label %bb4, label %panic3

panic2:                                           ; preds = %bb9
; call core::panicking::panic_null_pointer_dereference
  call void @_ZN4core9panicking30panic_null_pointer_dereference17hf718fcc86a223baaE(ptr align 8 @alloc_7a8677e6f88c8cb5d11784c43b45709b) #8
  unreachable

bb4:                                              ; preds = %bb10
  %_26 = ptrtoint ptr %_0.i9 to i64
  %_29 = and i64 %_26, 3
  %_30 = icmp eq i64 %_29, 0
  br i1 %_30, label %bb8, label %panic4

panic3:                                           ; preds = %bb10
; call core::panicking::panic_bounds_check
  call void @_ZN4core9panicking18panic_bounds_check17h27d1e4f0cb1112dfE(i64 %_12, i64 3, ptr align 8 @alloc_8c10ced135ffc3554774c32cb4497baf) #8
  unreachable

bb8:                                              ; preds = %bb4
  %_45 = ptrtoint ptr %_0.i9 to i64
  %_48 = icmp eq i64 %_45, 0
  %_49 = and i1 %_48, true
  %_50 = xor i1 %_49, true
  br i1 %_50, label %bb11, label %panic5

panic4:                                           ; preds = %bb4
; call core::panicking::panic_misaligned_pointer_dereference
  call void @_ZN4core9panicking36panic_misaligned_pointer_dereference17hcc3cbded9382b6e5E(i64 4, i64 %_26, ptr align 8 @alloc_8c10ced135ffc3554774c32cb4497baf) #8
  unreachable

bb11:                                             ; preds = %bb8
  %1 = getelementptr inbounds nuw i32, ptr %_0.i9, i64 %_12
  store i32 %_4, ptr %1, align 4
  %_16 = sub i32 %x, 1
  %_15 = sext i32 %_16 to i64
; call core::ptr::mut_ptr::<impl *mut T>::offset::precondition_check
  call void @"_ZN4core3ptr7mut_ptr31_$LT$impl$u20$$BP$mut$u20$T$GT$6offset18precondition_check17ha85c822d30f8ef1cE"(ptr %m, i64 %_15, i64 12) #9
  %_0.i = getelementptr inbounds [3 x i32], ptr %m, i64 %_15
  %_17 = sext i32 %y to i64
  %_18 = icmp ult i64 %_17, 3
  br i1 %_18, label %bb6, label %panic6

panic5:                                           ; preds = %bb8
; call core::panicking::panic_null_pointer_dereference
  call void @_ZN4core9panicking30panic_null_pointer_dereference17hf718fcc86a223baaE(ptr align 8 @alloc_8c10ced135ffc3554774c32cb4497baf) #8
  unreachable

bb6:                                              ; preds = %bb11
  %_20 = ptrtoint ptr %_0.i to i64
  %_23 = and i64 %_20, 3
  %_24 = icmp eq i64 %_23, 0
  br i1 %_24, label %bb7, label %panic7

panic6:                                           ; preds = %bb11
; call core::panicking::panic_bounds_check
  call void @_ZN4core9panicking18panic_bounds_check17h27d1e4f0cb1112dfE(i64 %_17, i64 3, ptr align 8 @alloc_6c08595244a958eed82e30ef1b14ef63) #8
  unreachable

bb7:                                              ; preds = %bb6
  %_52 = ptrtoint ptr %_0.i to i64
  %_55 = icmp eq i64 %_52, 0
  %_56 = and i1 %_55, true
  %_57 = xor i1 %_56, true
  br i1 %_57, label %bb12, label %panic8

panic7:                                           ; preds = %bb6
; call core::panicking::panic_misaligned_pointer_dereference
  call void @_ZN4core9panicking36panic_misaligned_pointer_dereference17hcc3cbded9382b6e5E(i64 4, i64 %_20, ptr align 8 @alloc_6c08595244a958eed82e30ef1b14ef63) #8
  unreachable

bb12:                                             ; preds = %bb7
  %2 = getelementptr inbounds nuw i32, ptr %_0.i, i64 %_17
  store i32 -1, ptr %2, align 4
  ret void

panic8:                                           ; preds = %bb7
; call core::panicking::panic_null_pointer_dereference
  call void @_ZN4core9panicking30panic_null_pointer_dereference17hf718fcc86a223baaE(ptr align 8 @alloc_6c08595244a958eed82e30ef1b14ef63) #8
  unreachable
}

; Function Attrs: nounwind nonlazybind
define void @move_down(ptr %m, i32 %x, i32 %y) unnamed_addr #2 {
start:
  %_7 = add i32 %x, 1
  %_6 = sext i32 %_7 to i64
; call core::ptr::mut_ptr::<impl *mut T>::offset::precondition_check
  call void @"_ZN4core3ptr7mut_ptr31_$LT$impl$u20$$BP$mut$u20$T$GT$6offset18precondition_check17ha85c822d30f8ef1cE"(ptr %m, i64 %_6, i64 12) #9
  %_0.i10 = getelementptr inbounds [3 x i32], ptr %m, i64 %_6
  %_8 = sext i32 %y to i64
  %_9 = icmp ult i64 %_8, 3
  br i1 %_9, label %bb2, label %panic

bb2:                                              ; preds = %start
  %_32 = ptrtoint ptr %_0.i10 to i64
  %_35 = and i64 %_32, 3
  %_36 = icmp eq i64 %_35, 0
  br i1 %_36, label %bb9, label %panic1

panic:                                            ; preds = %start
; call core::panicking::panic_bounds_check
  call void @_ZN4core9panicking18panic_bounds_check17h27d1e4f0cb1112dfE(i64 %_8, i64 3, ptr align 8 @alloc_4945c00756679d3ae5e78d0863193809) #8
  unreachable

bb9:                                              ; preds = %bb2
  %_38 = ptrtoint ptr %_0.i10 to i64
  %_41 = icmp eq i64 %_38, 0
  %_42 = and i1 %_41, true
  %_43 = xor i1 %_42, true
  br i1 %_43, label %bb10, label %panic2

panic1:                                           ; preds = %bb2
; call core::panicking::panic_misaligned_pointer_dereference
  call void @_ZN4core9panicking36panic_misaligned_pointer_dereference17hcc3cbded9382b6e5E(i64 4, i64 %_32, ptr align 8 @alloc_4945c00756679d3ae5e78d0863193809) #8
  unreachable

bb10:                                             ; preds = %bb9
  %0 = getelementptr inbounds nuw i32, ptr %_0.i10, i64 %_8
  %_4 = load i32, ptr %0, align 4
  %_11 = sext i32 %x to i64
; call core::ptr::mut_ptr::<impl *mut T>::offset::precondition_check
  call void @"_ZN4core3ptr7mut_ptr31_$LT$impl$u20$$BP$mut$u20$T$GT$6offset18precondition_check17ha85c822d30f8ef1cE"(ptr %m, i64 %_11, i64 12) #9
  %_0.i9 = getelementptr inbounds [3 x i32], ptr %m, i64 %_11
  %_12 = sext i32 %y to i64
  %_13 = icmp ult i64 %_12, 3
  br i1 %_13, label %bb4, label %panic3

panic2:                                           ; preds = %bb9
; call core::panicking::panic_null_pointer_dereference
  call void @_ZN4core9panicking30panic_null_pointer_dereference17hf718fcc86a223baaE(ptr align 8 @alloc_4945c00756679d3ae5e78d0863193809) #8
  unreachable

bb4:                                              ; preds = %bb10
  %_26 = ptrtoint ptr %_0.i9 to i64
  %_29 = and i64 %_26, 3
  %_30 = icmp eq i64 %_29, 0
  br i1 %_30, label %bb8, label %panic4

panic3:                                           ; preds = %bb10
; call core::panicking::panic_bounds_check
  call void @_ZN4core9panicking18panic_bounds_check17h27d1e4f0cb1112dfE(i64 %_12, i64 3, ptr align 8 @alloc_8e99f3de8f967564ecbf12f1d0cee32d) #8
  unreachable

bb8:                                              ; preds = %bb4
  %_45 = ptrtoint ptr %_0.i9 to i64
  %_48 = icmp eq i64 %_45, 0
  %_49 = and i1 %_48, true
  %_50 = xor i1 %_49, true
  br i1 %_50, label %bb11, label %panic5

panic4:                                           ; preds = %bb4
; call core::panicking::panic_misaligned_pointer_dereference
  call void @_ZN4core9panicking36panic_misaligned_pointer_dereference17hcc3cbded9382b6e5E(i64 4, i64 %_26, ptr align 8 @alloc_8e99f3de8f967564ecbf12f1d0cee32d) #8
  unreachable

bb11:                                             ; preds = %bb8
  %1 = getelementptr inbounds nuw i32, ptr %_0.i9, i64 %_12
  store i32 %_4, ptr %1, align 4
  %_16 = add i32 %x, 1
  %_15 = sext i32 %_16 to i64
; call core::ptr::mut_ptr::<impl *mut T>::offset::precondition_check
  call void @"_ZN4core3ptr7mut_ptr31_$LT$impl$u20$$BP$mut$u20$T$GT$6offset18precondition_check17ha85c822d30f8ef1cE"(ptr %m, i64 %_15, i64 12) #9
  %_0.i = getelementptr inbounds [3 x i32], ptr %m, i64 %_15
  %_17 = sext i32 %y to i64
  %_18 = icmp ult i64 %_17, 3
  br i1 %_18, label %bb6, label %panic6

panic5:                                           ; preds = %bb8
; call core::panicking::panic_null_pointer_dereference
  call void @_ZN4core9panicking30panic_null_pointer_dereference17hf718fcc86a223baaE(ptr align 8 @alloc_8e99f3de8f967564ecbf12f1d0cee32d) #8
  unreachable

bb6:                                              ; preds = %bb11
  %_20 = ptrtoint ptr %_0.i to i64
  %_23 = and i64 %_20, 3
  %_24 = icmp eq i64 %_23, 0
  br i1 %_24, label %bb7, label %panic7

panic6:                                           ; preds = %bb11
; call core::panicking::panic_bounds_check
  call void @_ZN4core9panicking18panic_bounds_check17h27d1e4f0cb1112dfE(i64 %_17, i64 3, ptr align 8 @alloc_99ff1f2c57bfd2d42a74e9136607bf6c) #8
  unreachable

bb7:                                              ; preds = %bb6
  %_52 = ptrtoint ptr %_0.i to i64
  %_55 = icmp eq i64 %_52, 0
  %_56 = and i1 %_55, true
  %_57 = xor i1 %_56, true
  br i1 %_57, label %bb12, label %panic8

panic7:                                           ; preds = %bb6
; call core::panicking::panic_misaligned_pointer_dereference
  call void @_ZN4core9panicking36panic_misaligned_pointer_dereference17hcc3cbded9382b6e5E(i64 4, i64 %_20, ptr align 8 @alloc_99ff1f2c57bfd2d42a74e9136607bf6c) #8
  unreachable

bb12:                                             ; preds = %bb7
  %2 = getelementptr inbounds nuw i32, ptr %_0.i, i64 %_17
  store i32 -1, ptr %2, align 4
  ret void

panic8:                                           ; preds = %bb7
; call core::panicking::panic_null_pointer_dereference
  call void @_ZN4core9panicking30panic_null_pointer_dereference17hf718fcc86a223baaE(ptr align 8 @alloc_99ff1f2c57bfd2d42a74e9136607bf6c) #8
  unreachable
}

; Function Attrs: nounwind nonlazybind
define void @move_left(ptr %m, i32 %x, i32 %y) unnamed_addr #2 {
start:
  %_6 = sext i32 %x to i64
; call core::ptr::mut_ptr::<impl *mut T>::offset::precondition_check
  call void @"_ZN4core3ptr7mut_ptr31_$LT$impl$u20$$BP$mut$u20$T$GT$6offset18precondition_check17ha85c822d30f8ef1cE"(ptr %m, i64 %_6, i64 12) #9
  %_0.i10 = getelementptr inbounds [3 x i32], ptr %m, i64 %_6
  %_8 = sub i32 %y, 1
  %_7 = sext i32 %_8 to i64
  %_9 = icmp ult i64 %_7, 3
  br i1 %_9, label %bb2, label %panic

bb2:                                              ; preds = %start
  %_32 = ptrtoint ptr %_0.i10 to i64
  %_35 = and i64 %_32, 3
  %_36 = icmp eq i64 %_35, 0
  br i1 %_36, label %bb9, label %panic1

panic:                                            ; preds = %start
; call core::panicking::panic_bounds_check
  call void @_ZN4core9panicking18panic_bounds_check17h27d1e4f0cb1112dfE(i64 %_7, i64 3, ptr align 8 @alloc_24c9910e30582f0318a6bc1af0fa1563) #8
  unreachable

bb9:                                              ; preds = %bb2
  %_38 = ptrtoint ptr %_0.i10 to i64
  %_41 = icmp eq i64 %_38, 0
  %_42 = and i1 %_41, true
  %_43 = xor i1 %_42, true
  br i1 %_43, label %bb10, label %panic2

panic1:                                           ; preds = %bb2
; call core::panicking::panic_misaligned_pointer_dereference
  call void @_ZN4core9panicking36panic_misaligned_pointer_dereference17hcc3cbded9382b6e5E(i64 4, i64 %_32, ptr align 8 @alloc_24c9910e30582f0318a6bc1af0fa1563) #8
  unreachable

bb10:                                             ; preds = %bb9
  %0 = getelementptr inbounds nuw i32, ptr %_0.i10, i64 %_7
  %_4 = load i32, ptr %0, align 4
  %_11 = sext i32 %x to i64
; call core::ptr::mut_ptr::<impl *mut T>::offset::precondition_check
  call void @"_ZN4core3ptr7mut_ptr31_$LT$impl$u20$$BP$mut$u20$T$GT$6offset18precondition_check17ha85c822d30f8ef1cE"(ptr %m, i64 %_11, i64 12) #9
  %_0.i9 = getelementptr inbounds [3 x i32], ptr %m, i64 %_11
  %_12 = sext i32 %y to i64
  %_13 = icmp ult i64 %_12, 3
  br i1 %_13, label %bb4, label %panic3

panic2:                                           ; preds = %bb9
; call core::panicking::panic_null_pointer_dereference
  call void @_ZN4core9panicking30panic_null_pointer_dereference17hf718fcc86a223baaE(ptr align 8 @alloc_24c9910e30582f0318a6bc1af0fa1563) #8
  unreachable

bb4:                                              ; preds = %bb10
  %_26 = ptrtoint ptr %_0.i9 to i64
  %_29 = and i64 %_26, 3
  %_30 = icmp eq i64 %_29, 0
  br i1 %_30, label %bb8, label %panic4

panic3:                                           ; preds = %bb10
; call core::panicking::panic_bounds_check
  call void @_ZN4core9panicking18panic_bounds_check17h27d1e4f0cb1112dfE(i64 %_12, i64 3, ptr align 8 @alloc_b3c30bf77b034b39ce6bbf14755a8fcf) #8
  unreachable

bb8:                                              ; preds = %bb4
  %_45 = ptrtoint ptr %_0.i9 to i64
  %_48 = icmp eq i64 %_45, 0
  %_49 = and i1 %_48, true
  %_50 = xor i1 %_49, true
  br i1 %_50, label %bb11, label %panic5

panic4:                                           ; preds = %bb4
; call core::panicking::panic_misaligned_pointer_dereference
  call void @_ZN4core9panicking36panic_misaligned_pointer_dereference17hcc3cbded9382b6e5E(i64 4, i64 %_26, ptr align 8 @alloc_b3c30bf77b034b39ce6bbf14755a8fcf) #8
  unreachable

bb11:                                             ; preds = %bb8
  %1 = getelementptr inbounds nuw i32, ptr %_0.i9, i64 %_12
  store i32 %_4, ptr %1, align 4
  %_15 = sext i32 %x to i64
; call core::ptr::mut_ptr::<impl *mut T>::offset::precondition_check
  call void @"_ZN4core3ptr7mut_ptr31_$LT$impl$u20$$BP$mut$u20$T$GT$6offset18precondition_check17ha85c822d30f8ef1cE"(ptr %m, i64 %_15, i64 12) #9
  %_0.i = getelementptr inbounds [3 x i32], ptr %m, i64 %_15
  %_17 = sub i32 %y, 1
  %_16 = sext i32 %_17 to i64
  %_18 = icmp ult i64 %_16, 3
  br i1 %_18, label %bb6, label %panic6

panic5:                                           ; preds = %bb8
; call core::panicking::panic_null_pointer_dereference
  call void @_ZN4core9panicking30panic_null_pointer_dereference17hf718fcc86a223baaE(ptr align 8 @alloc_b3c30bf77b034b39ce6bbf14755a8fcf) #8
  unreachable

bb6:                                              ; preds = %bb11
  %_20 = ptrtoint ptr %_0.i to i64
  %_23 = and i64 %_20, 3
  %_24 = icmp eq i64 %_23, 0
  br i1 %_24, label %bb7, label %panic7

panic6:                                           ; preds = %bb11
; call core::panicking::panic_bounds_check
  call void @_ZN4core9panicking18panic_bounds_check17h27d1e4f0cb1112dfE(i64 %_16, i64 3, ptr align 8 @alloc_3cc46a0341595c117ecd903ddec22fc4) #8
  unreachable

bb7:                                              ; preds = %bb6
  %_52 = ptrtoint ptr %_0.i to i64
  %_55 = icmp eq i64 %_52, 0
  %_56 = and i1 %_55, true
  %_57 = xor i1 %_56, true
  br i1 %_57, label %bb12, label %panic8

panic7:                                           ; preds = %bb6
; call core::panicking::panic_misaligned_pointer_dereference
  call void @_ZN4core9panicking36panic_misaligned_pointer_dereference17hcc3cbded9382b6e5E(i64 4, i64 %_20, ptr align 8 @alloc_3cc46a0341595c117ecd903ddec22fc4) #8
  unreachable

bb12:                                             ; preds = %bb7
  %2 = getelementptr inbounds nuw i32, ptr %_0.i, i64 %_16
  store i32 -1, ptr %2, align 4
  ret void

panic8:                                           ; preds = %bb7
; call core::panicking::panic_null_pointer_dereference
  call void @_ZN4core9panicking30panic_null_pointer_dereference17hf718fcc86a223baaE(ptr align 8 @alloc_3cc46a0341595c117ecd903ddec22fc4) #8
  unreachable
}

; Function Attrs: nounwind nonlazybind
define void @move_right(ptr %m, i32 %x, i32 %y) unnamed_addr #2 {
start:
  %_6 = sext i32 %x to i64
; call core::ptr::mut_ptr::<impl *mut T>::offset::precondition_check
  call void @"_ZN4core3ptr7mut_ptr31_$LT$impl$u20$$BP$mut$u20$T$GT$6offset18precondition_check17ha85c822d30f8ef1cE"(ptr %m, i64 %_6, i64 12) #9
  %_0.i10 = getelementptr inbounds [3 x i32], ptr %m, i64 %_6
  %_8 = add i32 %y, 1
  %_7 = sext i32 %_8 to i64
  %_9 = icmp ult i64 %_7, 3
  br i1 %_9, label %bb2, label %panic

bb2:                                              ; preds = %start
  %_32 = ptrtoint ptr %_0.i10 to i64
  %_35 = and i64 %_32, 3
  %_36 = icmp eq i64 %_35, 0
  br i1 %_36, label %bb9, label %panic1

panic:                                            ; preds = %start
; call core::panicking::panic_bounds_check
  call void @_ZN4core9panicking18panic_bounds_check17h27d1e4f0cb1112dfE(i64 %_7, i64 3, ptr align 8 @alloc_81271df0a0bdd2d525752147daf8fc75) #8
  unreachable

bb9:                                              ; preds = %bb2
  %_38 = ptrtoint ptr %_0.i10 to i64
  %_41 = icmp eq i64 %_38, 0
  %_42 = and i1 %_41, true
  %_43 = xor i1 %_42, true
  br i1 %_43, label %bb10, label %panic2

panic1:                                           ; preds = %bb2
; call core::panicking::panic_misaligned_pointer_dereference
  call void @_ZN4core9panicking36panic_misaligned_pointer_dereference17hcc3cbded9382b6e5E(i64 4, i64 %_32, ptr align 8 @alloc_81271df0a0bdd2d525752147daf8fc75) #8
  unreachable

bb10:                                             ; preds = %bb9
  %0 = getelementptr inbounds nuw i32, ptr %_0.i10, i64 %_7
  %_4 = load i32, ptr %0, align 4
  %_11 = sext i32 %x to i64
; call core::ptr::mut_ptr::<impl *mut T>::offset::precondition_check
  call void @"_ZN4core3ptr7mut_ptr31_$LT$impl$u20$$BP$mut$u20$T$GT$6offset18precondition_check17ha85c822d30f8ef1cE"(ptr %m, i64 %_11, i64 12) #9
  %_0.i9 = getelementptr inbounds [3 x i32], ptr %m, i64 %_11
  %_12 = sext i32 %y to i64
  %_13 = icmp ult i64 %_12, 3
  br i1 %_13, label %bb4, label %panic3

panic2:                                           ; preds = %bb9
; call core::panicking::panic_null_pointer_dereference
  call void @_ZN4core9panicking30panic_null_pointer_dereference17hf718fcc86a223baaE(ptr align 8 @alloc_81271df0a0bdd2d525752147daf8fc75) #8
  unreachable

bb4:                                              ; preds = %bb10
  %_26 = ptrtoint ptr %_0.i9 to i64
  %_29 = and i64 %_26, 3
  %_30 = icmp eq i64 %_29, 0
  br i1 %_30, label %bb8, label %panic4

panic3:                                           ; preds = %bb10
; call core::panicking::panic_bounds_check
  call void @_ZN4core9panicking18panic_bounds_check17h27d1e4f0cb1112dfE(i64 %_12, i64 3, ptr align 8 @alloc_9d934ebed2d56c3f64eb365068ae4e43) #8
  unreachable

bb8:                                              ; preds = %bb4
  %_45 = ptrtoint ptr %_0.i9 to i64
  %_48 = icmp eq i64 %_45, 0
  %_49 = and i1 %_48, true
  %_50 = xor i1 %_49, true
  br i1 %_50, label %bb11, label %panic5

panic4:                                           ; preds = %bb4
; call core::panicking::panic_misaligned_pointer_dereference
  call void @_ZN4core9panicking36panic_misaligned_pointer_dereference17hcc3cbded9382b6e5E(i64 4, i64 %_26, ptr align 8 @alloc_9d934ebed2d56c3f64eb365068ae4e43) #8
  unreachable

bb11:                                             ; preds = %bb8
  %1 = getelementptr inbounds nuw i32, ptr %_0.i9, i64 %_12
  store i32 %_4, ptr %1, align 4
  %_15 = sext i32 %x to i64
; call core::ptr::mut_ptr::<impl *mut T>::offset::precondition_check
  call void @"_ZN4core3ptr7mut_ptr31_$LT$impl$u20$$BP$mut$u20$T$GT$6offset18precondition_check17ha85c822d30f8ef1cE"(ptr %m, i64 %_15, i64 12) #9
  %_0.i = getelementptr inbounds [3 x i32], ptr %m, i64 %_15
  %_17 = add i32 %y, 1
  %_16 = sext i32 %_17 to i64
  %_18 = icmp ult i64 %_16, 3
  br i1 %_18, label %bb6, label %panic6

panic5:                                           ; preds = %bb8
; call core::panicking::panic_null_pointer_dereference
  call void @_ZN4core9panicking30panic_null_pointer_dereference17hf718fcc86a223baaE(ptr align 8 @alloc_9d934ebed2d56c3f64eb365068ae4e43) #8
  unreachable

bb6:                                              ; preds = %bb11
  %_20 = ptrtoint ptr %_0.i to i64
  %_23 = and i64 %_20, 3
  %_24 = icmp eq i64 %_23, 0
  br i1 %_24, label %bb7, label %panic7

panic6:                                           ; preds = %bb11
; call core::panicking::panic_bounds_check
  call void @_ZN4core9panicking18panic_bounds_check17h27d1e4f0cb1112dfE(i64 %_16, i64 3, ptr align 8 @alloc_e1d54068238f4889a1a0804d5d0109e9) #8
  unreachable

bb7:                                              ; preds = %bb6
  %_52 = ptrtoint ptr %_0.i to i64
  %_55 = icmp eq i64 %_52, 0
  %_56 = and i1 %_55, true
  %_57 = xor i1 %_56, true
  br i1 %_57, label %bb12, label %panic8

panic7:                                           ; preds = %bb6
; call core::panicking::panic_misaligned_pointer_dereference
  call void @_ZN4core9panicking36panic_misaligned_pointer_dereference17hcc3cbded9382b6e5E(i64 4, i64 %_20, ptr align 8 @alloc_e1d54068238f4889a1a0804d5d0109e9) #8
  unreachable

bb12:                                             ; preds = %bb7
  %2 = getelementptr inbounds nuw i32, ptr %_0.i, i64 %_16
  store i32 -1, ptr %2, align 4
  ret void

panic8:                                           ; preds = %bb7
; call core::panicking::panic_null_pointer_dereference
  call void @_ZN4core9panicking30panic_null_pointer_dereference17hf718fcc86a223baaE(ptr align 8 @alloc_e1d54068238f4889a1a0804d5d0109e9) #8
  unreachable
}

; Function Attrs: nounwind nonlazybind
define i32 @calc_weight(ptr %target, ptr %m) unnamed_addr #2 {
start:
  %j = alloca [4 x i8], align 4
  %i = alloca [4 x i8], align 4
  %weight = alloca [4 x i8], align 4
  store i32 0, ptr %weight, align 4
  store i32 0, ptr %i, align 4
  store i32 0, ptr %j, align 4
  store i32 0, ptr %i, align 4
  br label %bb1

bb1:                                              ; preds = %bb14, %start
  %_7 = load i32, ptr %i, align 4
  %_6 = icmp slt i32 %_7, 3
  br i1 %_6, label %bb2, label %bb15

bb15:                                             ; preds = %bb1
  %_0 = load i32, ptr %weight, align 4
  ret i32 %_0

bb2:                                              ; preds = %bb1
  store i32 0, ptr %j, align 4
  br label %bb3

bb3:                                              ; preds = %bb13, %bb2
  %_9 = load i32, ptr %j, align 4
  %_8 = icmp slt i32 %_9, 3
  br i1 %_8, label %bb4, label %bb14

bb14:                                             ; preds = %bb3
  %0 = load i32, ptr %i, align 4
  %1 = add i32 %0, 1
  store i32 %1, ptr %i, align 4
  br label %bb1

bb4:                                              ; preds = %bb3
  %_14 = load i32, ptr %i, align 4
  %_13 = sext i32 %_14 to i64
; call core::ptr::mut_ptr::<impl *mut T>::offset::precondition_check
  call void @"_ZN4core3ptr7mut_ptr31_$LT$impl$u20$$BP$mut$u20$T$GT$6offset18precondition_check17ha85c822d30f8ef1cE"(ptr %m, i64 %_13, i64 12) #9
  %_0.i10 = getelementptr inbounds [3 x i32], ptr %m, i64 %_13
  %_16 = load i32, ptr %j, align 4
  %_15 = sext i32 %_16 to i64
  %_17 = icmp ult i64 %_15, 3
  br i1 %_17, label %bb6, label %panic

bb6:                                              ; preds = %bb4
  %_47 = ptrtoint ptr %_0.i10 to i64
  %_50 = and i64 %_47, 3
  %_51 = icmp eq i64 %_50, 0
  br i1 %_51, label %bb18, label %panic1

panic:                                            ; preds = %bb4
; call core::panicking::panic_bounds_check
  call void @_ZN4core9panicking18panic_bounds_check17h27d1e4f0cb1112dfE(i64 %_15, i64 3, ptr align 8 @alloc_e848b41c742498d754630ff1ca539ccd) #8
  unreachable

bb18:                                             ; preds = %bb6
  %_53 = ptrtoint ptr %_0.i10 to i64
  %_56 = icmp eq i64 %_53, 0
  %_57 = and i1 %_56, true
  %_58 = xor i1 %_57, true
  br i1 %_58, label %bb19, label %panic2

panic1:                                           ; preds = %bb6
; call core::panicking::panic_misaligned_pointer_dereference
  call void @_ZN4core9panicking36panic_misaligned_pointer_dereference17hcc3cbded9382b6e5E(i64 4, i64 %_47, ptr align 8 @alloc_e848b41c742498d754630ff1ca539ccd) #8
  unreachable

bb19:                                             ; preds = %bb18
  %2 = getelementptr inbounds nuw i32, ptr %_0.i10, i64 %_15
  %_11 = load i32, ptr %2, align 4
  %_10 = icmp eq i32 %_11, -1
  br i1 %_10, label %bb13, label %bb7

panic2:                                           ; preds = %bb18
; call core::panicking::panic_null_pointer_dereference
  call void @_ZN4core9panicking30panic_null_pointer_dereference17hf718fcc86a223baaE(ptr align 8 @alloc_e848b41c742498d754630ff1ca539ccd) #8
  unreachable

bb7:                                              ; preds = %bb19
  %_23 = load i32, ptr %i, align 4
  %_22 = sext i32 %_23 to i64
; call core::ptr::mut_ptr::<impl *mut T>::offset::precondition_check
  call void @"_ZN4core3ptr7mut_ptr31_$LT$impl$u20$$BP$mut$u20$T$GT$6offset18precondition_check17ha85c822d30f8ef1cE"(ptr %m, i64 %_22, i64 12) #9
  %_0.i9 = getelementptr inbounds [3 x i32], ptr %m, i64 %_22
  %_25 = load i32, ptr %j, align 4
  %_24 = sext i32 %_25 to i64
  %_26 = icmp ult i64 %_24, 3
  br i1 %_26, label %bb9, label %panic3

bb13:                                             ; preds = %bb12, %bb21, %bb19
  %3 = load i32, ptr %j, align 4
  %4 = add i32 %3, 1
  store i32 %4, ptr %j, align 4
  br label %bb3

bb9:                                              ; preds = %bb7
  %_41 = ptrtoint ptr %_0.i9 to i64
  %_44 = and i64 %_41, 3
  %_45 = icmp eq i64 %_44, 0
  br i1 %_45, label %bb17, label %panic4

panic3:                                           ; preds = %bb7
; call core::panicking::panic_bounds_check
  call void @_ZN4core9panicking18panic_bounds_check17h27d1e4f0cb1112dfE(i64 %_24, i64 3, ptr align 8 @alloc_320fc64d3b1fabe47cf881b14cfec3e8) #8
  unreachable

bb17:                                             ; preds = %bb9
  %_60 = ptrtoint ptr %_0.i9 to i64
  %_63 = icmp eq i64 %_60, 0
  %_64 = and i1 %_63, true
  %_65 = xor i1 %_64, true
  br i1 %_65, label %bb20, label %panic5

panic4:                                           ; preds = %bb9
; call core::panicking::panic_misaligned_pointer_dereference
  call void @_ZN4core9panicking36panic_misaligned_pointer_dereference17hcc3cbded9382b6e5E(i64 4, i64 %_41, ptr align 8 @alloc_320fc64d3b1fabe47cf881b14cfec3e8) #8
  unreachable

bb20:                                             ; preds = %bb17
  %5 = getelementptr inbounds nuw i32, ptr %_0.i9, i64 %_24
  %_20 = load i32, ptr %5, align 4
  %_30 = load i32, ptr %i, align 4
  %_29 = sext i32 %_30 to i64
; call core::ptr::mut_ptr::<impl *mut T>::offset::precondition_check
  call void @"_ZN4core3ptr7mut_ptr31_$LT$impl$u20$$BP$mut$u20$T$GT$6offset18precondition_check17ha85c822d30f8ef1cE"(ptr %target, i64 %_29, i64 12) #9
  %_0.i = getelementptr inbounds [3 x i32], ptr %target, i64 %_29
  %_32 = load i32, ptr %j, align 4
  %_31 = sext i32 %_32 to i64
  %_33 = icmp ult i64 %_31, 3
  br i1 %_33, label %bb11, label %panic6

panic5:                                           ; preds = %bb17
; call core::panicking::panic_null_pointer_dereference
  call void @_ZN4core9panicking30panic_null_pointer_dereference17hf718fcc86a223baaE(ptr align 8 @alloc_320fc64d3b1fabe47cf881b14cfec3e8) #8
  unreachable

bb11:                                             ; preds = %bb20
  %_35 = ptrtoint ptr %_0.i to i64
  %_38 = and i64 %_35, 3
  %_39 = icmp eq i64 %_38, 0
  br i1 %_39, label %bb16, label %panic7

panic6:                                           ; preds = %bb20
; call core::panicking::panic_bounds_check
  call void @_ZN4core9panicking18panic_bounds_check17h27d1e4f0cb1112dfE(i64 %_31, i64 3, ptr align 8 @alloc_4cc5768ac5dba5d769c164bd8be41343) #8
  unreachable

bb16:                                             ; preds = %bb11
  %_67 = ptrtoint ptr %_0.i to i64
  %_70 = icmp eq i64 %_67, 0
  %_71 = and i1 %_70, true
  %_72 = xor i1 %_71, true
  br i1 %_72, label %bb21, label %panic8

panic7:                                           ; preds = %bb11
; call core::panicking::panic_misaligned_pointer_dereference
  call void @_ZN4core9panicking36panic_misaligned_pointer_dereference17hcc3cbded9382b6e5E(i64 4, i64 %_35, ptr align 8 @alloc_4cc5768ac5dba5d769c164bd8be41343) #8
  unreachable

bb21:                                             ; preds = %bb16
  %6 = getelementptr inbounds nuw i32, ptr %_0.i, i64 %_31
  %_27 = load i32, ptr %6, align 4
  %_19 = icmp ne i32 %_20, %_27
  br i1 %_19, label %bb12, label %bb13

panic8:                                           ; preds = %bb16
; call core::panicking::panic_null_pointer_dereference
  call void @_ZN4core9panicking30panic_null_pointer_dereference17hf718fcc86a223baaE(ptr align 8 @alloc_4cc5768ac5dba5d769c164bd8be41343) #8
  unreachable

bb12:                                             ; preds = %bb21
  %7 = load i32, ptr %weight, align 4
  %8 = add i32 %7, 1
  store i32 %8, ptr %weight, align 4
  br label %bb13
}

; Function Attrs: nounwind nonlazybind
define void @displayoutcome(ptr %0) unnamed_addr #2 {
start:
  %node = alloca [8 x i8], align 8
  store ptr %0, ptr %node, align 8
  br label %bb1

bb1:                                              ; preds = %bb11, %start
  %_3 = load ptr, ptr %node, align 8
; call core::ptr::mut_ptr::<impl *mut T>::is_null
  %_2 = call zeroext i1 @"_ZN4core3ptr7mut_ptr31_$LT$impl$u20$$BP$mut$u20$T$GT$7is_null17h6d1853ba41dec0e8E"(ptr %_3) #9
  br i1 %_2, label %bb3, label %bb4

bb4:                                              ; preds = %bb1
  %_37 = load ptr, ptr %node, align 8
  %_38 = ptrtoint ptr %_37 to i64
  %_39 = icmp eq i64 %_38, 0
  %_40 = and i1 %_39, true
  %_41 = xor i1 %_40, true
  br i1 %_41, label %bb12, label %panic

bb3:                                              ; preds = %bb1
  ret void

bb12:                                             ; preds = %bb4
  %_7 = load ptr, ptr %node, align 8
  call void @cube_display(ptr %_7) #9
  %_8 = call i32 (ptr, ...) @printf(ptr @alloc_0255bdacfc758ed5f7f5c39e96c93d62) #9
  %_13 = call i32 (ptr, ...) @printf(ptr @alloc_0255bdacfc758ed5f7f5c39e96c93d62) #9
  %_18 = call i32 (ptr, ...) @printf(ptr @alloc_0255bdacfc758ed5f7f5c39e96c93d62) #9
  %_24 = load ptr, ptr %node, align 8
  %_25 = ptrtoint ptr %_24 to i64
  %_28 = and i64 %_25, 7
  %_29 = icmp eq i64 %_28, 0
  br i1 %_29, label %bb10, label %panic1

panic:                                            ; preds = %bb4
; call core::panicking::panic_null_pointer_dereference
  call void @_ZN4core9panicking30panic_null_pointer_dereference17hf718fcc86a223baaE(ptr align 8 @alloc_211f796e9eb081085a89e33423c5c492) #8
  unreachable

bb10:                                             ; preds = %bb12
  %_30 = load ptr, ptr %node, align 8
  %_31 = ptrtoint ptr %_30 to i64
  %_34 = icmp eq i64 %_31, 0
  %_35 = and i1 %_34, true
  %_36 = xor i1 %_35, true
  br i1 %_36, label %bb11, label %panic2

panic1:                                           ; preds = %bb12
; call core::panicking::panic_misaligned_pointer_dereference
  call void @_ZN4core9panicking36panic_misaligned_pointer_dereference17hcc3cbded9382b6e5E(i64 8, i64 %_25, ptr align 8 @alloc_962e455fd6b2d718ae557530a1113f83) #8
  unreachable

bb11:                                             ; preds = %bb10
  %1 = load ptr, ptr %node, align 8
  %2 = getelementptr inbounds i8, ptr %1, i64 48
  %_23 = load ptr, ptr %2, align 8
  store ptr %_23, ptr %node, align 8
  br label %bb1

panic2:                                           ; preds = %bb10
; call core::panicking::panic_null_pointer_dereference
  call void @_ZN4core9panicking30panic_null_pointer_dereference17hf718fcc86a223baaE(ptr align 8 @alloc_962e455fd6b2d718ae557530a1113f83) #8
  unreachable
}

; Function Attrs: nounwind nonlazybind
define i32 @inme(ptr %0, ptr %m) unnamed_addr #2 {
start:
  %ok = alloca [4 x i8], align 4
  %node = alloca [8 x i8], align 8
  store ptr %0, ptr %node, align 8
  store i32 0, ptr %ok, align 4
  br label %bb1

bb1:                                              ; preds = %bb11, %start
  %_5 = load ptr, ptr %node, align 8
; call core::ptr::mut_ptr::<impl *mut T>::is_null
  %_4 = call zeroext i1 @"_ZN4core3ptr7mut_ptr31_$LT$impl$u20$$BP$mut$u20$T$GT$7is_null17h6d1853ba41dec0e8E"(ptr %_5) #9
  br i1 %_4, label %bb9, label %bb3

bb3:                                              ; preds = %bb1
  %_6 = load i32, ptr %ok, align 4
  %1 = icmp eq i32 %_6, 0
  br i1 %1, label %bb4, label %bb9

bb9:                                              ; preds = %bb3, %bb1
  %_0 = load i32, ptr %ok, align 4
  ret i32 %_0

bb4:                                              ; preds = %bb3
  %_25 = load ptr, ptr %node, align 8
  %_26 = ptrtoint ptr %_25 to i64
  %_27 = icmp eq i64 %_26, 0
  %_28 = and i1 %_27, true
  %_29 = xor i1 %_28, true
  br i1 %_29, label %bb12, label %panic

bb12:                                             ; preds = %bb4
  %_10 = load ptr, ptr %node, align 8
  %_7 = call i32 @cube_equal(ptr %_10, ptr %m) #9
  %2 = icmp eq i32 %_7, 0
  br i1 %2, label %bb8, label %bb7

panic:                                            ; preds = %bb4
; call core::panicking::panic_null_pointer_dereference
  call void @_ZN4core9panicking30panic_null_pointer_dereference17hf718fcc86a223baaE(ptr align 8 @alloc_e62145b73211de3520bb4848e3df1db2) #8
  unreachable

bb8:                                              ; preds = %bb7, %bb12
  %_12 = load ptr, ptr %node, align 8
  %_13 = ptrtoint ptr %_12 to i64
  %_16 = and i64 %_13, 7
  %_17 = icmp eq i64 %_16, 0
  br i1 %_17, label %bb10, label %panic1

bb7:                                              ; preds = %bb12
  store i32 1, ptr %ok, align 4
  br label %bb8

bb10:                                             ; preds = %bb8
  %_18 = load ptr, ptr %node, align 8
  %_19 = ptrtoint ptr %_18 to i64
  %_22 = icmp eq i64 %_19, 0
  %_23 = and i1 %_22, true
  %_24 = xor i1 %_23, true
  br i1 %_24, label %bb11, label %panic2

panic1:                                           ; preds = %bb8
; call core::panicking::panic_misaligned_pointer_dereference
  call void @_ZN4core9panicking36panic_misaligned_pointer_dereference17hcc3cbded9382b6e5E(i64 8, i64 %_13, ptr align 8 @alloc_dfd98ba6b0ede2cedf679424528a1507) #8
  unreachable

bb11:                                             ; preds = %bb10
  %3 = load ptr, ptr %node, align 8
  %4 = getelementptr inbounds i8, ptr %3, i64 48
  %_11 = load ptr, ptr %4, align 8
  store ptr %_11, ptr %node, align 8
  br label %bb1

panic2:                                           ; preds = %bb10
; call core::panicking::panic_null_pointer_dereference
  call void @_ZN4core9panicking30panic_null_pointer_dereference17hf718fcc86a223baaE(ptr align 8 @alloc_dfd98ba6b0ede2cedf679424528a1507) #8
  unreachable
}

; Function Attrs: nounwind nonlazybind
define void @insertsort(ptr %data, i32 %size) unnamed_addr #2 {
start:
  %pivot = alloca [8 x i8], align 8
  %j = alloca [4 x i8], align 4
  %i = alloca [4 x i8], align 4
  store i32 0, ptr %i, align 4
  store i32 0, ptr %j, align 4
  store ptr null, ptr %pivot, align 8
  store i32 1, ptr %i, align 4
  br label %bb1

bb1:                                              ; preds = %bb21, %start
  %_7 = load i32, ptr %i, align 4
  %_6 = icmp slt i32 %_7, %size
  br i1 %_6, label %bb2, label %bb12

bb12:                                             ; preds = %bb1
  ret void

bb2:                                              ; preds = %bb1
  %_11 = load i32, ptr %i, align 4
  %_10 = sext i32 %_11 to i64
; call core::ptr::mut_ptr::<impl *mut T>::offset::precondition_check
  call void @"_ZN4core3ptr7mut_ptr31_$LT$impl$u20$$BP$mut$u20$T$GT$6offset18precondition_check17ha85c822d30f8ef1cE"(ptr %data, i64 %_10, i64 8) #9
  %_0.i13 = getelementptr inbounds ptr, ptr %data, i64 %_10
  %_56 = ptrtoint ptr %_0.i13 to i64
  %_59 = and i64 %_56, 7
  %_60 = icmp eq i64 %_59, 0
  br i1 %_60, label %bb16, label %panic

bb16:                                             ; preds = %bb2
  %_62 = ptrtoint ptr %_0.i13 to i64
  %_65 = icmp eq i64 %_62, 0
  %_66 = and i1 %_65, true
  %_67 = xor i1 %_66, true
  br i1 %_67, label %bb17, label %panic1

panic:                                            ; preds = %bb2
; call core::panicking::panic_misaligned_pointer_dereference
  call void @_ZN4core9panicking36panic_misaligned_pointer_dereference17hcc3cbded9382b6e5E(i64 8, i64 %_56, ptr align 8 @alloc_394d2eef08039d4bf78192ec03246064) #8
  unreachable

bb17:                                             ; preds = %bb16
  %_8 = load ptr, ptr %_0.i13, align 8
  store ptr %_8, ptr %pivot, align 8
  %_12 = load i32, ptr %i, align 4
  %0 = sub i32 %_12, 1
  store i32 %0, ptr %j, align 4
  br label %bb4

panic1:                                           ; preds = %bb16
; call core::panicking::panic_null_pointer_dereference
  call void @_ZN4core9panicking30panic_null_pointer_dereference17hf718fcc86a223baaE(ptr align 8 @alloc_394d2eef08039d4bf78192ec03246064) #8
  unreachable

bb4:                                              ; preds = %bb20, %bb17
  %_14 = load i32, ptr %j, align 4
  %_13 = icmp sge i32 %_14, 0
  br i1 %_13, label %bb5, label %bb10

bb10:                                             ; preds = %bb19, %bb4
  %_34 = load i32, ptr %j, align 4
  %_33 = add i32 %_34, 1
  %_32 = sext i32 %_33 to i64
; call core::ptr::mut_ptr::<impl *mut T>::offset::precondition_check
  call void @"_ZN4core3ptr7mut_ptr31_$LT$impl$u20$$BP$mut$u20$T$GT$6offset18precondition_check17ha85c822d30f8ef1cE"(ptr %data, i64 %_32, i64 8) #9
  %_0.i11 = getelementptr inbounds ptr, ptr %data, i64 %_32
  %_90 = ptrtoint ptr %_0.i11 to i64
  %_91 = icmp eq i64 %_90, 0
  %_92 = and i1 %_91, true
  %_93 = xor i1 %_92, true
  br i1 %_93, label %bb21, label %panic6

bb5:                                              ; preds = %bb4
  %_19 = load i32, ptr %j, align 4
  %_18 = sext i32 %_19 to i64
; call core::ptr::mut_ptr::<impl *mut T>::offset::precondition_check
  call void @"_ZN4core3ptr7mut_ptr31_$LT$impl$u20$$BP$mut$u20$T$GT$6offset18precondition_check17ha85c822d30f8ef1cE"(ptr %data, i64 %_18, i64 8) #9
  %_0.i12 = getelementptr inbounds ptr, ptr %data, i64 %_18
  %_36 = load ptr, ptr %_0.i12, align 8
  %_50 = ptrtoint ptr %_36 to i64
  %_53 = and i64 %_50, 7
  %_54 = icmp eq i64 %_53, 0
  br i1 %_54, label %bb15, label %panic2

bb15:                                             ; preds = %bb5
  %_69 = ptrtoint ptr %_36 to i64
  %_72 = icmp eq i64 %_69, 0
  %_73 = and i1 %_72, true
  %_74 = xor i1 %_73, true
  br i1 %_74, label %bb18, label %panic3

panic2:                                           ; preds = %bb5
; call core::panicking::panic_misaligned_pointer_dereference
  call void @_ZN4core9panicking36panic_misaligned_pointer_dereference17hcc3cbded9382b6e5E(i64 8, i64 %_50, ptr align 8 @alloc_c1aef3a53b87adb9f63326ee0826c0b1) #8
  unreachable

bb18:                                             ; preds = %bb15
  %1 = getelementptr inbounds i8, ptr %_36, i64 44
  %_16 = load i32, ptr %1, align 4
  %_43 = load ptr, ptr %pivot, align 8
  %_44 = ptrtoint ptr %_43 to i64
  %_47 = and i64 %_44, 7
  %_48 = icmp eq i64 %_47, 0
  br i1 %_48, label %bb14, label %panic4

panic3:                                           ; preds = %bb15
; call core::panicking::panic_null_pointer_dereference
  call void @_ZN4core9panicking30panic_null_pointer_dereference17hf718fcc86a223baaE(ptr align 8 @alloc_c1aef3a53b87adb9f63326ee0826c0b1) #8
  unreachable

bb14:                                             ; preds = %bb18
  %_75 = load ptr, ptr %pivot, align 8
  %_76 = ptrtoint ptr %_75 to i64
  %_79 = icmp eq i64 %_76, 0
  %_80 = and i1 %_79, true
  %_81 = xor i1 %_80, true
  br i1 %_81, label %bb19, label %panic5

panic4:                                           ; preds = %bb18
; call core::panicking::panic_misaligned_pointer_dereference
  call void @_ZN4core9panicking36panic_misaligned_pointer_dereference17hcc3cbded9382b6e5E(i64 8, i64 %_44, ptr align 8 @alloc_9aa3d4cb771be2d39038c33513ef6310) #8
  unreachable

bb19:                                             ; preds = %bb14
  %2 = load ptr, ptr %pivot, align 8
  %3 = getelementptr inbounds i8, ptr %2, i64 44
  %_20 = load i32, ptr %3, align 4
  %_15 = icmp slt i32 %_16, %_20
  br i1 %_15, label %bb7, label %bb10

panic5:                                           ; preds = %bb14
; call core::panicking::panic_null_pointer_dereference
  call void @_ZN4core9panicking30panic_null_pointer_dereference17hf718fcc86a223baaE(ptr align 8 @alloc_9aa3d4cb771be2d39038c33513ef6310) #8
  unreachable

bb7:                                              ; preds = %bb19
  %_25 = load i32, ptr %j, align 4
  %_24 = add i32 %_25, 1
  %_23 = sext i32 %_24 to i64
; call core::ptr::mut_ptr::<impl *mut T>::offset::precondition_check
  call void @"_ZN4core3ptr7mut_ptr31_$LT$impl$u20$$BP$mut$u20$T$GT$6offset18precondition_check17ha85c822d30f8ef1cE"(ptr %data, i64 %_23, i64 8) #9
  %_0.i10 = getelementptr inbounds ptr, ptr %data, i64 %_23
  %_95 = ptrtoint ptr %_0.i10 to i64
  %_96 = icmp eq i64 %_95, 0
  %_97 = and i1 %_96, true
  %_98 = xor i1 %_97, true
  br i1 %_98, label %bb22, label %panic7

bb21:                                             ; preds = %bb10
  %_35 = load ptr, ptr %pivot, align 8
  store ptr %_35, ptr %_0.i11, align 8
  %4 = load i32, ptr %i, align 4
  %5 = add i32 %4, 1
  store i32 %5, ptr %i, align 4
  br label %bb1

panic6:                                           ; preds = %bb10
; call core::panicking::panic_null_pointer_dereference
  call void @_ZN4core9panicking30panic_null_pointer_dereference17hf718fcc86a223baaE(ptr align 8 @alloc_26f64ef294d8dfb24d7e5be7f8904c24) #8
  unreachable

bb22:                                             ; preds = %bb7
  %_29 = load i32, ptr %j, align 4
  %_28 = sext i32 %_29 to i64
; call core::ptr::mut_ptr::<impl *mut T>::offset::precondition_check
  call void @"_ZN4core3ptr7mut_ptr31_$LT$impl$u20$$BP$mut$u20$T$GT$6offset18precondition_check17ha85c822d30f8ef1cE"(ptr %data, i64 %_28, i64 8) #9
  %_0.i = getelementptr inbounds ptr, ptr %data, i64 %_28
  %_38 = ptrtoint ptr %_0.i to i64
  %_41 = and i64 %_38, 7
  %_42 = icmp eq i64 %_41, 0
  br i1 %_42, label %bb13, label %panic8

panic7:                                           ; preds = %bb7
; call core::panicking::panic_null_pointer_dereference
  call void @_ZN4core9panicking30panic_null_pointer_dereference17hf718fcc86a223baaE(ptr align 8 @alloc_c12721253378ec2ffe6ac1c29dc75ca8) #8
  unreachable

bb13:                                             ; preds = %bb22
  %_83 = ptrtoint ptr %_0.i to i64
  %_86 = icmp eq i64 %_83, 0
  %_87 = and i1 %_86, true
  %_88 = xor i1 %_87, true
  br i1 %_88, label %bb20, label %panic9

panic8:                                           ; preds = %bb22
; call core::panicking::panic_misaligned_pointer_dereference
  call void @_ZN4core9panicking36panic_misaligned_pointer_dereference17hcc3cbded9382b6e5E(i64 8, i64 %_38, ptr align 8 @alloc_21adbce5683f19049361dd0325592761) #8
  unreachable

bb20:                                             ; preds = %bb13
  %_26 = load ptr, ptr %_0.i, align 8
  store ptr %_26, ptr %_0.i10, align 8
  %6 = load i32, ptr %j, align 4
  %7 = sub i32 %6, 1
  store i32 %7, ptr %j, align 4
  br label %bb4

panic9:                                           ; preds = %bb13
; call core::panicking::panic_null_pointer_dereference
  call void @_ZN4core9panicking30panic_null_pointer_dereference17hf718fcc86a223baaE(ptr align 8 @alloc_21adbce5683f19049361dd0325592761) #8
  unreachable
}

; Function Attrs: nounwind nonlazybind
define void @hillclimbing(ptr %cube, i32 %x, i32 %y, ptr %target) unnamed_addr #2 {
start:
  %_19 = alloca [12 x i8], align 4
  %tmpcube = alloca [36 x i8], align 4
  %node = alloca [8 x i8], align 8
  %currentnode = alloca [8 x i8], align 8
  %_6 = call ptr @malloc(i64 56) #9
  store ptr %_6, ptr %currentnode, align 8
  store ptr null, ptr %node, align 8
  %_420 = load ptr, ptr %currentnode, align 8
  %_421 = ptrtoint ptr %_420 to i64
  %_424 = and i64 %_421, 7
  %_425 = icmp eq i64 %_424, 0
  br i1 %_425, label %bb123, label %panic

bb123:                                            ; preds = %start
  %_426 = load ptr, ptr %currentnode, align 8
  %_427 = ptrtoint ptr %_426 to i64
  %_430 = icmp eq i64 %_427, 0
  %_431 = and i1 %_430, true
  %_432 = xor i1 %_431, true
  br i1 %_432, label %bb124, label %panic1

panic:                                            ; preds = %start
; call core::panicking::panic_misaligned_pointer_dereference
  call void @_ZN4core9panicking36panic_misaligned_pointer_dereference17hcc3cbded9382b6e5E(i64 8, i64 %_421, ptr align 8 @alloc_3b0bc357375a9531043dc41623b88e71) #8
  unreachable

bb124:                                            ; preds = %bb123
  %0 = load ptr, ptr %currentnode, align 8
  %1 = getelementptr inbounds i8, ptr %0, i64 36
  store i32 %x, ptr %1, align 4
  %_414 = load ptr, ptr %currentnode, align 8
  %_415 = ptrtoint ptr %_414 to i64
  %_418 = and i64 %_415, 7
  %_419 = icmp eq i64 %_418, 0
  br i1 %_419, label %bb122, label %panic2

panic1:                                           ; preds = %bb123
; call core::panicking::panic_null_pointer_dereference
  call void @_ZN4core9panicking30panic_null_pointer_dereference17hf718fcc86a223baaE(ptr align 8 @alloc_3b0bc357375a9531043dc41623b88e71) #8
  unreachable

bb122:                                            ; preds = %bb124
  %_433 = load ptr, ptr %currentnode, align 8
  %_434 = ptrtoint ptr %_433 to i64
  %_437 = icmp eq i64 %_434, 0
  %_438 = and i1 %_437, true
  %_439 = xor i1 %_438, true
  br i1 %_439, label %bb125, label %panic3

panic2:                                           ; preds = %bb124
; call core::panicking::panic_misaligned_pointer_dereference
  call void @_ZN4core9panicking36panic_misaligned_pointer_dereference17hcc3cbded9382b6e5E(i64 8, i64 %_415, ptr align 8 @alloc_d749a91268280a171e585767389bbb7a) #8
  unreachable

bb125:                                            ; preds = %bb122
  %2 = load ptr, ptr %currentnode, align 8
  %3 = getelementptr inbounds i8, ptr %2, i64 40
  store i32 %y, ptr %3, align 8
  %_408 = load ptr, ptr %currentnode, align 8
  %_409 = ptrtoint ptr %_408 to i64
  %_412 = and i64 %_409, 7
  %_413 = icmp eq i64 %_412, 0
  br i1 %_413, label %bb121, label %panic4

panic3:                                           ; preds = %bb122
; call core::panicking::panic_null_pointer_dereference
  call void @_ZN4core9panicking30panic_null_pointer_dereference17hf718fcc86a223baaE(ptr align 8 @alloc_d749a91268280a171e585767389bbb7a) #8
  unreachable

bb121:                                            ; preds = %bb125
  %_440 = load ptr, ptr %currentnode, align 8
  %_441 = ptrtoint ptr %_440 to i64
  %_444 = icmp eq i64 %_441, 0
  %_445 = and i1 %_444, true
  %_446 = xor i1 %_445, true
  br i1 %_446, label %bb126, label %panic5

panic4:                                           ; preds = %bb125
; call core::panicking::panic_misaligned_pointer_dereference
  call void @_ZN4core9panicking36panic_misaligned_pointer_dereference17hcc3cbded9382b6e5E(i64 8, i64 %_409, ptr align 8 @alloc_decb060d197e9b6484cd4cc31c81c5a4) #8
  unreachable

bb126:                                            ; preds = %bb121
  %4 = load ptr, ptr %currentnode, align 8
  %5 = getelementptr inbounds i8, ptr %4, i64 48
  store ptr null, ptr %5, align 8
  %_10 = call i32 @calc_weight(ptr %target, ptr %cube) #9
  %_402 = load ptr, ptr %currentnode, align 8
  %_403 = ptrtoint ptr %_402 to i64
  %_406 = and i64 %_403, 7
  %_407 = icmp eq i64 %_406, 0
  br i1 %_407, label %bb120, label %panic6

panic5:                                           ; preds = %bb121
; call core::panicking::panic_null_pointer_dereference
  call void @_ZN4core9panicking30panic_null_pointer_dereference17hf718fcc86a223baaE(ptr align 8 @alloc_decb060d197e9b6484cd4cc31c81c5a4) #8
  unreachable

bb120:                                            ; preds = %bb126
  %_452 = load ptr, ptr %currentnode, align 8
  %_453 = ptrtoint ptr %_452 to i64
  %_456 = icmp eq i64 %_453, 0
  %_457 = and i1 %_456, true
  %_458 = xor i1 %_457, true
  br i1 %_458, label %bb128, label %panic7

panic6:                                           ; preds = %bb126
; call core::panicking::panic_misaligned_pointer_dereference
  call void @_ZN4core9panicking36panic_misaligned_pointer_dereference17hcc3cbded9382b6e5E(i64 8, i64 %_403, ptr align 8 @alloc_9d0f48a7a3d26413f45b3b6a4cebbcc3) #8
  unreachable

bb128:                                            ; preds = %bb120
  %6 = load ptr, ptr %currentnode, align 8
  %7 = getelementptr inbounds i8, ptr %6, i64 44
  store i32 %_10, ptr %7, align 4
  %_447 = load ptr, ptr %currentnode, align 8
  %_448 = ptrtoint ptr %_447 to i64
  %_449 = icmp eq i64 %_448, 0
  %_450 = and i1 %_449, true
  %_451 = xor i1 %_450, true
  br i1 %_451, label %bb127, label %panic8

panic7:                                           ; preds = %bb120
; call core::panicking::panic_null_pointer_dereference
  call void @_ZN4core9panicking30panic_null_pointer_dereference17hf718fcc86a223baaE(ptr align 8 @alloc_9d0f48a7a3d26413f45b3b6a4cebbcc3) #8
  unreachable

bb127:                                            ; preds = %bb128
  %_14 = load ptr, ptr %currentnode, align 8
  call void @cube_copy(ptr %cube, ptr %_14) #9
  %heap = call ptr @init_heap() #9
  %_17 = load ptr, ptr %currentnode, align 8
  call void @insert_heap(ptr %heap, ptr %_17) #9
  call void @llvm.memset.p0.i64(ptr align 4 %_19, i8 0, i64 12, i1 false)
  br label %repeat_loop_header

panic8:                                           ; preds = %bb128
; call core::panicking::panic_null_pointer_dereference
  call void @_ZN4core9panicking30panic_null_pointer_dereference17hf718fcc86a223baaE(ptr align 8 @alloc_c9f177d3ad5d35d7166ac8b991c9051a) #8
  unreachable

repeat_loop_header:                               ; preds = %repeat_loop_body, %bb127
  %8 = phi i64 [ 0, %bb127 ], [ %11, %repeat_loop_body ]
  %9 = icmp ult i64 %8, 3
  br i1 %9, label %repeat_loop_body, label %repeat_loop_next

repeat_loop_body:                                 ; preds = %repeat_loop_header
  %10 = getelementptr inbounds nuw [3 x i32], ptr %tmpcube, i64 %8
  call void @llvm.memcpy.p0.p0.i64(ptr align 4 %10, ptr align 4 %_19, i64 12, i1 false)
  %11 = add nuw i64 %8, 1
  br label %repeat_loop_header

repeat_loop_next:                                 ; preds = %repeat_loop_header
  br label %bb8

bb8:                                              ; preds = %bb168, %bb161, %bb159, %repeat_loop_next
  %_20 = call i32 @heap_empty(ptr %heap) #9
  %12 = icmp eq i32 %_20, 0
  br i1 %12, label %bb10, label %bb83

bb10:                                             ; preds = %bb8
  %_21 = call ptr @delete_min(ptr %heap) #9
  store ptr %_21, ptr %currentnode, align 8
  %_771 = load ptr, ptr %currentnode, align 8
  %_772 = ptrtoint ptr %_771 to i64
  %_773 = icmp eq i64 %_772, 0
  %_774 = and i1 %_773, true
  %_775 = xor i1 %_774, true
  br i1 %_775, label %bb177, label %panic9

bb83:                                             ; preds = %bb14, %bb8
  ret void

bb177:                                            ; preds = %bb10
  %_25 = load ptr, ptr %currentnode, align 8
  %_22 = call i32 @cube_equal(ptr %_25, ptr %target) #9
  %13 = icmp eq i32 %_22, 0
  br i1 %13, label %bb15, label %bb14

panic9:                                           ; preds = %bb10
; call core::panicking::panic_null_pointer_dereference
  call void @_ZN4core9panicking30panic_null_pointer_dereference17hf718fcc86a223baaE(ptr align 8 @alloc_596aee64830774437b7a34c3c82918c3) #8
  unreachable

bb15:                                             ; preds = %bb177
  %_766 = load ptr, ptr %currentnode, align 8
  %_767 = ptrtoint ptr %_766 to i64
  %_768 = icmp eq i64 %_767, 0
  %_769 = and i1 %_768, true
  %_770 = xor i1 %_769, true
  br i1 %_770, label %bb176, label %panic10

bb14:                                             ; preds = %bb177
  %_27 = load ptr, ptr %currentnode, align 8
  call void @displayoutcome(ptr %_27) #9
  br label %bb83

bb176:                                            ; preds = %bb15
  %_31 = load ptr, ptr %currentnode, align 8
  call void @cube_copy(ptr %_31, ptr %tmpcube) #9
  %_396 = load ptr, ptr %currentnode, align 8
  %_397 = ptrtoint ptr %_396 to i64
  %_400 = and i64 %_397, 7
  %_401 = icmp eq i64 %_400, 0
  br i1 %_401, label %bb119, label %panic11

panic10:                                          ; preds = %bb15
; call core::panicking::panic_null_pointer_dereference
  call void @_ZN4core9panicking30panic_null_pointer_dereference17hf718fcc86a223baaE(ptr align 8 @alloc_d002c5be7e11c4e18f05a3f3024257b7) #8
  unreachable

bb119:                                            ; preds = %bb176
  %_459 = load ptr, ptr %currentnode, align 8
  %_460 = ptrtoint ptr %_459 to i64
  %_463 = icmp eq i64 %_460, 0
  %_464 = and i1 %_463, true
  %_465 = xor i1 %_464, true
  br i1 %_465, label %bb129, label %panic12

panic11:                                          ; preds = %bb176
; call core::panicking::panic_misaligned_pointer_dereference
  call void @_ZN4core9panicking36panic_misaligned_pointer_dereference17hcc3cbded9382b6e5E(i64 8, i64 %_397, ptr align 8 @alloc_9d5ac98a5617185912a16163dc1d0cb9) #8
  unreachable

bb129:                                            ; preds = %bb119
  %14 = load ptr, ptr %currentnode, align 8
  %15 = getelementptr inbounds i8, ptr %14, i64 36
  %_36 = load i32, ptr %15, align 4
  %_35 = icmp sgt i32 %_36, 0
  br i1 %_35, label %bb19, label %bb32

panic12:                                          ; preds = %bb119
; call core::panicking::panic_null_pointer_dereference
  call void @_ZN4core9panicking30panic_null_pointer_dereference17hf718fcc86a223baaE(ptr align 8 @alloc_9d5ac98a5617185912a16163dc1d0cb9) #8
  unreachable

bb32:                                             ; preds = %bb138, %bb131, %bb129
  %_756 = load ptr, ptr %currentnode, align 8
  %_757 = ptrtoint ptr %_756 to i64
  %_758 = icmp eq i64 %_757, 0
  %_759 = and i1 %_758, true
  %_760 = xor i1 %_759, true
  br i1 %_760, label %bb174, label %panic31

bb19:                                             ; preds = %bb129
  %_390 = load ptr, ptr %currentnode, align 8
  %_391 = ptrtoint ptr %_390 to i64
  %_394 = and i64 %_391, 7
  %_395 = icmp eq i64 %_394, 0
  br i1 %_395, label %bb118, label %panic13

bb118:                                            ; preds = %bb19
  %_466 = load ptr, ptr %currentnode, align 8
  %_467 = ptrtoint ptr %_466 to i64
  %_470 = icmp eq i64 %_467, 0
  %_471 = and i1 %_470, true
  %_472 = xor i1 %_471, true
  br i1 %_472, label %bb130, label %panic14

panic13:                                          ; preds = %bb19
; call core::panicking::panic_misaligned_pointer_dereference
  call void @_ZN4core9panicking36panic_misaligned_pointer_dereference17hcc3cbded9382b6e5E(i64 8, i64 %_391, ptr align 8 @alloc_11239acc0aaf74c1ea2fc527f03746e0) #8
  unreachable

bb130:                                            ; preds = %bb118
  %16 = load ptr, ptr %currentnode, align 8
  %17 = getelementptr inbounds i8, ptr %16, i64 36
  %_41 = load i32, ptr %17, align 4
  %_384 = load ptr, ptr %currentnode, align 8
  %_385 = ptrtoint ptr %_384 to i64
  %_388 = and i64 %_385, 7
  %_389 = icmp eq i64 %_388, 0
  br i1 %_389, label %bb117, label %panic15

panic14:                                          ; preds = %bb118
; call core::panicking::panic_null_pointer_dereference
  call void @_ZN4core9panicking30panic_null_pointer_dereference17hf718fcc86a223baaE(ptr align 8 @alloc_11239acc0aaf74c1ea2fc527f03746e0) #8
  unreachable

bb117:                                            ; preds = %bb130
  %_473 = load ptr, ptr %currentnode, align 8
  %_474 = ptrtoint ptr %_473 to i64
  %_477 = icmp eq i64 %_474, 0
  %_478 = and i1 %_477, true
  %_479 = xor i1 %_478, true
  br i1 %_479, label %bb131, label %panic16

panic15:                                          ; preds = %bb130
; call core::panicking::panic_misaligned_pointer_dereference
  call void @_ZN4core9panicking36panic_misaligned_pointer_dereference17hcc3cbded9382b6e5E(i64 8, i64 %_385, ptr align 8 @alloc_41f2463e84ceebea15c708e0968acd5b) #8
  unreachable

bb131:                                            ; preds = %bb117
  %18 = load ptr, ptr %currentnode, align 8
  %19 = getelementptr inbounds i8, ptr %18, i64 40
  %_42 = load i32, ptr %19, align 8
  call void @move_up(ptr %tmpcube, i32 %_41, i32 %_42) #9
  %_44 = load ptr, ptr %currentnode, align 8
  %_43 = call i32 @inme(ptr %_44, ptr %tmpcube) #9
  %20 = icmp eq i32 %_43, 0
  br i1 %20, label %bb24, label %bb32

panic16:                                          ; preds = %bb117
; call core::panicking::panic_null_pointer_dereference
  call void @_ZN4core9panicking30panic_null_pointer_dereference17hf718fcc86a223baaE(ptr align 8 @alloc_41f2463e84ceebea15c708e0968acd5b) #8
  unreachable

bb24:                                             ; preds = %bb131
  %_48 = call ptr @malloc(i64 56) #9
  store ptr %_48, ptr %node, align 8
  %_761 = load ptr, ptr %node, align 8
  %_762 = ptrtoint ptr %_761 to i64
  %_763 = icmp eq i64 %_762, 0
  %_764 = and i1 %_763, true
  %_765 = xor i1 %_764, true
  br i1 %_765, label %bb175, label %panic17

bb175:                                            ; preds = %bb24
  %_57 = load ptr, ptr %node, align 8
  call void @cube_copy(ptr %tmpcube, ptr %_57) #9
  %_378 = load ptr, ptr %currentnode, align 8
  %_379 = ptrtoint ptr %_378 to i64
  %_382 = and i64 %_379, 7
  %_383 = icmp eq i64 %_382, 0
  br i1 %_383, label %bb116, label %panic18

panic17:                                          ; preds = %bb24
; call core::panicking::panic_null_pointer_dereference
  call void @_ZN4core9panicking30panic_null_pointer_dereference17hf718fcc86a223baaE(ptr align 8 @alloc_642c696da1c5746ad1c65df1af1ff43f) #8
  unreachable

bb116:                                            ; preds = %bb175
  %_480 = load ptr, ptr %currentnode, align 8
  %_481 = ptrtoint ptr %_480 to i64
  %_484 = icmp eq i64 %_481, 0
  %_485 = and i1 %_484, true
  %_486 = xor i1 %_485, true
  br i1 %_486, label %bb132, label %panic19

panic18:                                          ; preds = %bb175
; call core::panicking::panic_misaligned_pointer_dereference
  call void @_ZN4core9panicking36panic_misaligned_pointer_dereference17hcc3cbded9382b6e5E(i64 8, i64 %_379, ptr align 8 @alloc_845a08929855bd800f144bd02a8e99ed) #8
  unreachable

bb132:                                            ; preds = %bb116
  %21 = load ptr, ptr %currentnode, align 8
  %22 = getelementptr inbounds i8, ptr %21, i64 36
  %_58 = load i32, ptr %22, align 4
  %_372 = load ptr, ptr %node, align 8
  %_373 = ptrtoint ptr %_372 to i64
  %_376 = and i64 %_373, 7
  %_377 = icmp eq i64 %_376, 0
  br i1 %_377, label %bb115, label %panic20

panic19:                                          ; preds = %bb116
; call core::panicking::panic_null_pointer_dereference
  call void @_ZN4core9panicking30panic_null_pointer_dereference17hf718fcc86a223baaE(ptr align 8 @alloc_845a08929855bd800f144bd02a8e99ed) #8
  unreachable

bb115:                                            ; preds = %bb132
  %_487 = load ptr, ptr %node, align 8
  %_488 = ptrtoint ptr %_487 to i64
  %_491 = icmp eq i64 %_488, 0
  %_492 = and i1 %_491, true
  %_493 = xor i1 %_492, true
  br i1 %_493, label %bb133, label %panic21

panic20:                                          ; preds = %bb132
; call core::panicking::panic_misaligned_pointer_dereference
  call void @_ZN4core9panicking36panic_misaligned_pointer_dereference17hcc3cbded9382b6e5E(i64 8, i64 %_373, ptr align 8 @alloc_1a03635bec02b33b0028dc22f86ce1fa) #8
  unreachable

bb133:                                            ; preds = %bb115
  %23 = load ptr, ptr %node, align 8
  %24 = getelementptr inbounds i8, ptr %23, i64 36
  %25 = sub i32 %_58, 1
  store i32 %25, ptr %24, align 4
  %_366 = load ptr, ptr %currentnode, align 8
  %_367 = ptrtoint ptr %_366 to i64
  %_370 = and i64 %_367, 7
  %_371 = icmp eq i64 %_370, 0
  br i1 %_371, label %bb114, label %panic22

panic21:                                          ; preds = %bb115
; call core::panicking::panic_null_pointer_dereference
  call void @_ZN4core9panicking30panic_null_pointer_dereference17hf718fcc86a223baaE(ptr align 8 @alloc_1a03635bec02b33b0028dc22f86ce1fa) #8
  unreachable

bb114:                                            ; preds = %bb133
  %_494 = load ptr, ptr %currentnode, align 8
  %_495 = ptrtoint ptr %_494 to i64
  %_498 = icmp eq i64 %_495, 0
  %_499 = and i1 %_498, true
  %_500 = xor i1 %_499, true
  br i1 %_500, label %bb134, label %panic23

panic22:                                          ; preds = %bb133
; call core::panicking::panic_misaligned_pointer_dereference
  call void @_ZN4core9panicking36panic_misaligned_pointer_dereference17hcc3cbded9382b6e5E(i64 8, i64 %_367, ptr align 8 @alloc_d14860202e76186a23431e729bd65b32) #8
  unreachable

bb134:                                            ; preds = %bb114
  %26 = load ptr, ptr %currentnode, align 8
  %27 = getelementptr inbounds i8, ptr %26, i64 40
  %_59 = load i32, ptr %27, align 8
  %_360 = load ptr, ptr %node, align 8
  %_361 = ptrtoint ptr %_360 to i64
  %_364 = and i64 %_361, 7
  %_365 = icmp eq i64 %_364, 0
  br i1 %_365, label %bb113, label %panic24

panic23:                                          ; preds = %bb114
; call core::panicking::panic_null_pointer_dereference
  call void @_ZN4core9panicking30panic_null_pointer_dereference17hf718fcc86a223baaE(ptr align 8 @alloc_d14860202e76186a23431e729bd65b32) #8
  unreachable

bb113:                                            ; preds = %bb134
  %_501 = load ptr, ptr %node, align 8
  %_502 = ptrtoint ptr %_501 to i64
  %_505 = icmp eq i64 %_502, 0
  %_506 = and i1 %_505, true
  %_507 = xor i1 %_506, true
  br i1 %_507, label %bb135, label %panic25

panic24:                                          ; preds = %bb134
; call core::panicking::panic_misaligned_pointer_dereference
  call void @_ZN4core9panicking36panic_misaligned_pointer_dereference17hcc3cbded9382b6e5E(i64 8, i64 %_361, ptr align 8 @alloc_ac280b430b4f090ba154940e4ebe9fb8) #8
  unreachable

bb135:                                            ; preds = %bb113
  %28 = load ptr, ptr %node, align 8
  %29 = getelementptr inbounds i8, ptr %28, i64 40
  store i32 %_59, ptr %29, align 8
  %_60 = load ptr, ptr %currentnode, align 8
  %_354 = load ptr, ptr %node, align 8
  %_355 = ptrtoint ptr %_354 to i64
  %_358 = and i64 %_355, 7
  %_359 = icmp eq i64 %_358, 0
  br i1 %_359, label %bb112, label %panic26

panic25:                                          ; preds = %bb113
; call core::panicking::panic_null_pointer_dereference
  call void @_ZN4core9panicking30panic_null_pointer_dereference17hf718fcc86a223baaE(ptr align 8 @alloc_ac280b430b4f090ba154940e4ebe9fb8) #8
  unreachable

bb112:                                            ; preds = %bb135
  %_513 = load ptr, ptr %node, align 8
  %_514 = ptrtoint ptr %_513 to i64
  %_517 = icmp eq i64 %_514, 0
  %_518 = and i1 %_517, true
  %_519 = xor i1 %_518, true
  br i1 %_519, label %bb137, label %panic27

panic26:                                          ; preds = %bb135
; call core::panicking::panic_misaligned_pointer_dereference
  call void @_ZN4core9panicking36panic_misaligned_pointer_dereference17hcc3cbded9382b6e5E(i64 8, i64 %_355, ptr align 8 @alloc_37e358a3db589cc3e251f11fd4573539) #8
  unreachable

bb137:                                            ; preds = %bb112
  %30 = load ptr, ptr %node, align 8
  %31 = getelementptr inbounds i8, ptr %30, i64 48
  store ptr %_60, ptr %31, align 8
  %_508 = load ptr, ptr %node, align 8
  %_509 = ptrtoint ptr %_508 to i64
  %_510 = icmp eq i64 %_509, 0
  %_511 = and i1 %_510, true
  %_512 = xor i1 %_511, true
  br i1 %_512, label %bb136, label %panic28

panic27:                                          ; preds = %bb112
; call core::panicking::panic_null_pointer_dereference
  call void @_ZN4core9panicking30panic_null_pointer_dereference17hf718fcc86a223baaE(ptr align 8 @alloc_37e358a3db589cc3e251f11fd4573539) #8
  unreachable

bb136:                                            ; preds = %bb137
  %_64 = load ptr, ptr %node, align 8
  %_61 = call i32 @calc_weight(ptr %target, ptr %_64) #9
  %_348 = load ptr, ptr %node, align 8
  %_349 = ptrtoint ptr %_348 to i64
  %_352 = and i64 %_349, 7
  %_353 = icmp eq i64 %_352, 0
  br i1 %_353, label %bb111, label %panic29

panic28:                                          ; preds = %bb137
; call core::panicking::panic_null_pointer_dereference
  call void @_ZN4core9panicking30panic_null_pointer_dereference17hf718fcc86a223baaE(ptr align 8 @alloc_8b2fd1b498d75f334280df165288cbf5) #8
  unreachable

bb111:                                            ; preds = %bb136
  %_520 = load ptr, ptr %node, align 8
  %_521 = ptrtoint ptr %_520 to i64
  %_524 = icmp eq i64 %_521, 0
  %_525 = and i1 %_524, true
  %_526 = xor i1 %_525, true
  br i1 %_526, label %bb138, label %panic30

panic29:                                          ; preds = %bb136
; call core::panicking::panic_misaligned_pointer_dereference
  call void @_ZN4core9panicking36panic_misaligned_pointer_dereference17hcc3cbded9382b6e5E(i64 8, i64 %_349, ptr align 8 @alloc_b316e50b61750e38288fd40b9fee757b) #8
  unreachable

bb138:                                            ; preds = %bb111
  %32 = load ptr, ptr %node, align 8
  %33 = getelementptr inbounds i8, ptr %32, i64 44
  store i32 %_61, ptr %33, align 4
  %_66 = load ptr, ptr %node, align 8
  call void @insert_heap(ptr %heap, ptr %_66) #9
  br label %bb32

panic30:                                          ; preds = %bb111
; call core::panicking::panic_null_pointer_dereference
  call void @_ZN4core9panicking30panic_null_pointer_dereference17hf718fcc86a223baaE(ptr align 8 @alloc_b316e50b61750e38288fd40b9fee757b) #8
  unreachable

bb174:                                            ; preds = %bb32
  %_70 = load ptr, ptr %currentnode, align 8
  call void @cube_copy(ptr %_70, ptr %tmpcube) #9
  %_342 = load ptr, ptr %currentnode, align 8
  %_343 = ptrtoint ptr %_342 to i64
  %_346 = and i64 %_343, 7
  %_347 = icmp eq i64 %_346, 0
  br i1 %_347, label %bb110, label %panic32

panic31:                                          ; preds = %bb32
; call core::panicking::panic_null_pointer_dereference
  call void @_ZN4core9panicking30panic_null_pointer_dereference17hf718fcc86a223baaE(ptr align 8 @alloc_89b2a93ae0de04f5d2ea47ab93d75242) #8
  unreachable

bb110:                                            ; preds = %bb174
  %_527 = load ptr, ptr %currentnode, align 8
  %_528 = ptrtoint ptr %_527 to i64
  %_531 = icmp eq i64 %_528, 0
  %_532 = and i1 %_531, true
  %_533 = xor i1 %_532, true
  br i1 %_533, label %bb139, label %panic33

panic32:                                          ; preds = %bb174
; call core::panicking::panic_misaligned_pointer_dereference
  call void @_ZN4core9panicking36panic_misaligned_pointer_dereference17hcc3cbded9382b6e5E(i64 8, i64 %_343, ptr align 8 @alloc_8f965036c56e2b272a74f3d0f23a6ab6) #8
  unreachable

bb139:                                            ; preds = %bb110
  %34 = load ptr, ptr %currentnode, align 8
  %35 = getelementptr inbounds i8, ptr %34, i64 36
  %_75 = load i32, ptr %35, align 4
  %_74 = icmp slt i32 %_75, 2
  br i1 %_74, label %bb36, label %bb49

panic33:                                          ; preds = %bb110
; call core::panicking::panic_null_pointer_dereference
  call void @_ZN4core9panicking30panic_null_pointer_dereference17hf718fcc86a223baaE(ptr align 8 @alloc_8f965036c56e2b272a74f3d0f23a6ab6) #8
  unreachable

bb49:                                             ; preds = %bb148, %bb141, %bb139
  %_746 = load ptr, ptr %currentnode, align 8
  %_747 = ptrtoint ptr %_746 to i64
  %_748 = icmp eq i64 %_747, 0
  %_749 = and i1 %_748, true
  %_750 = xor i1 %_749, true
  br i1 %_750, label %bb172, label %panic52

bb36:                                             ; preds = %bb139
  %_336 = load ptr, ptr %currentnode, align 8
  %_337 = ptrtoint ptr %_336 to i64
  %_340 = and i64 %_337, 7
  %_341 = icmp eq i64 %_340, 0
  br i1 %_341, label %bb109, label %panic34

bb109:                                            ; preds = %bb36
  %_534 = load ptr, ptr %currentnode, align 8
  %_535 = ptrtoint ptr %_534 to i64
  %_538 = icmp eq i64 %_535, 0
  %_539 = and i1 %_538, true
  %_540 = xor i1 %_539, true
  br i1 %_540, label %bb140, label %panic35

panic34:                                          ; preds = %bb36
; call core::panicking::panic_misaligned_pointer_dereference
  call void @_ZN4core9panicking36panic_misaligned_pointer_dereference17hcc3cbded9382b6e5E(i64 8, i64 %_337, ptr align 8 @alloc_aaf0f4fe87485ed701428e167a537cab) #8
  unreachable

bb140:                                            ; preds = %bb109
  %36 = load ptr, ptr %currentnode, align 8
  %37 = getelementptr inbounds i8, ptr %36, i64 36
  %_81 = load i32, ptr %37, align 4
  %_330 = load ptr, ptr %currentnode, align 8
  %_331 = ptrtoint ptr %_330 to i64
  %_334 = and i64 %_331, 7
  %_335 = icmp eq i64 %_334, 0
  br i1 %_335, label %bb108, label %panic36

panic35:                                          ; preds = %bb109
; call core::panicking::panic_null_pointer_dereference
  call void @_ZN4core9panicking30panic_null_pointer_dereference17hf718fcc86a223baaE(ptr align 8 @alloc_aaf0f4fe87485ed701428e167a537cab) #8
  unreachable

bb108:                                            ; preds = %bb140
  %_541 = load ptr, ptr %currentnode, align 8
  %_542 = ptrtoint ptr %_541 to i64
  %_545 = icmp eq i64 %_542, 0
  %_546 = and i1 %_545, true
  %_547 = xor i1 %_546, true
  br i1 %_547, label %bb141, label %panic37

panic36:                                          ; preds = %bb140
; call core::panicking::panic_misaligned_pointer_dereference
  call void @_ZN4core9panicking36panic_misaligned_pointer_dereference17hcc3cbded9382b6e5E(i64 8, i64 %_331, ptr align 8 @alloc_1e107e0ab8ed78ce812c49cd12509e0f) #8
  unreachable

bb141:                                            ; preds = %bb108
  %38 = load ptr, ptr %currentnode, align 8
  %39 = getelementptr inbounds i8, ptr %38, i64 40
  %_82 = load i32, ptr %39, align 8
  call void @move_down(ptr %tmpcube, i32 %_81, i32 %_82) #9
  %_84 = load ptr, ptr %currentnode, align 8
  %_83 = call i32 @inme(ptr %_84, ptr %tmpcube) #9
  %40 = icmp eq i32 %_83, 0
  br i1 %40, label %bb41, label %bb49

panic37:                                          ; preds = %bb108
; call core::panicking::panic_null_pointer_dereference
  call void @_ZN4core9panicking30panic_null_pointer_dereference17hf718fcc86a223baaE(ptr align 8 @alloc_1e107e0ab8ed78ce812c49cd12509e0f) #8
  unreachable

bb41:                                             ; preds = %bb141
  %_88 = call ptr @malloc(i64 56) #9
  store ptr %_88, ptr %node, align 8
  %_751 = load ptr, ptr %node, align 8
  %_752 = ptrtoint ptr %_751 to i64
  %_753 = icmp eq i64 %_752, 0
  %_754 = and i1 %_753, true
  %_755 = xor i1 %_754, true
  br i1 %_755, label %bb173, label %panic38

bb173:                                            ; preds = %bb41
  %_97 = load ptr, ptr %node, align 8
  call void @cube_copy(ptr %tmpcube, ptr %_97) #9
  %_324 = load ptr, ptr %currentnode, align 8
  %_325 = ptrtoint ptr %_324 to i64
  %_328 = and i64 %_325, 7
  %_329 = icmp eq i64 %_328, 0
  br i1 %_329, label %bb107, label %panic39

panic38:                                          ; preds = %bb41
; call core::panicking::panic_null_pointer_dereference
  call void @_ZN4core9panicking30panic_null_pointer_dereference17hf718fcc86a223baaE(ptr align 8 @alloc_b2a2cb37976bf05b3416315dd34d5b20) #8
  unreachable

bb107:                                            ; preds = %bb173
  %_548 = load ptr, ptr %currentnode, align 8
  %_549 = ptrtoint ptr %_548 to i64
  %_552 = icmp eq i64 %_549, 0
  %_553 = and i1 %_552, true
  %_554 = xor i1 %_553, true
  br i1 %_554, label %bb142, label %panic40

panic39:                                          ; preds = %bb173
; call core::panicking::panic_misaligned_pointer_dereference
  call void @_ZN4core9panicking36panic_misaligned_pointer_dereference17hcc3cbded9382b6e5E(i64 8, i64 %_325, ptr align 8 @alloc_75efbc1572328ff9a848159f3849e941) #8
  unreachable

bb142:                                            ; preds = %bb107
  %41 = load ptr, ptr %currentnode, align 8
  %42 = getelementptr inbounds i8, ptr %41, i64 36
  %_98 = load i32, ptr %42, align 4
  %_318 = load ptr, ptr %node, align 8
  %_319 = ptrtoint ptr %_318 to i64
  %_322 = and i64 %_319, 7
  %_323 = icmp eq i64 %_322, 0
  br i1 %_323, label %bb106, label %panic41

panic40:                                          ; preds = %bb107
; call core::panicking::panic_null_pointer_dereference
  call void @_ZN4core9panicking30panic_null_pointer_dereference17hf718fcc86a223baaE(ptr align 8 @alloc_75efbc1572328ff9a848159f3849e941) #8
  unreachable

bb106:                                            ; preds = %bb142
  %_555 = load ptr, ptr %node, align 8
  %_556 = ptrtoint ptr %_555 to i64
  %_559 = icmp eq i64 %_556, 0
  %_560 = and i1 %_559, true
  %_561 = xor i1 %_560, true
  br i1 %_561, label %bb143, label %panic42

panic41:                                          ; preds = %bb142
; call core::panicking::panic_misaligned_pointer_dereference
  call void @_ZN4core9panicking36panic_misaligned_pointer_dereference17hcc3cbded9382b6e5E(i64 8, i64 %_319, ptr align 8 @alloc_5810fe09f2cfadeffec869d61e7e5b15) #8
  unreachable

bb143:                                            ; preds = %bb106
  %43 = load ptr, ptr %node, align 8
  %44 = getelementptr inbounds i8, ptr %43, i64 36
  %45 = add i32 %_98, 1
  store i32 %45, ptr %44, align 4
  %_312 = load ptr, ptr %currentnode, align 8
  %_313 = ptrtoint ptr %_312 to i64
  %_316 = and i64 %_313, 7
  %_317 = icmp eq i64 %_316, 0
  br i1 %_317, label %bb105, label %panic43

panic42:                                          ; preds = %bb106
; call core::panicking::panic_null_pointer_dereference
  call void @_ZN4core9panicking30panic_null_pointer_dereference17hf718fcc86a223baaE(ptr align 8 @alloc_5810fe09f2cfadeffec869d61e7e5b15) #8
  unreachable

bb105:                                            ; preds = %bb143
  %_562 = load ptr, ptr %currentnode, align 8
  %_563 = ptrtoint ptr %_562 to i64
  %_566 = icmp eq i64 %_563, 0
  %_567 = and i1 %_566, true
  %_568 = xor i1 %_567, true
  br i1 %_568, label %bb144, label %panic44

panic43:                                          ; preds = %bb143
; call core::panicking::panic_misaligned_pointer_dereference
  call void @_ZN4core9panicking36panic_misaligned_pointer_dereference17hcc3cbded9382b6e5E(i64 8, i64 %_313, ptr align 8 @alloc_6d5ed2358c35bbc977aad20b13f9b655) #8
  unreachable

bb144:                                            ; preds = %bb105
  %46 = load ptr, ptr %currentnode, align 8
  %47 = getelementptr inbounds i8, ptr %46, i64 40
  %_99 = load i32, ptr %47, align 8
  %_306 = load ptr, ptr %node, align 8
  %_307 = ptrtoint ptr %_306 to i64
  %_310 = and i64 %_307, 7
  %_311 = icmp eq i64 %_310, 0
  br i1 %_311, label %bb104, label %panic45

panic44:                                          ; preds = %bb105
; call core::panicking::panic_null_pointer_dereference
  call void @_ZN4core9panicking30panic_null_pointer_dereference17hf718fcc86a223baaE(ptr align 8 @alloc_6d5ed2358c35bbc977aad20b13f9b655) #8
  unreachable

bb104:                                            ; preds = %bb144
  %_569 = load ptr, ptr %node, align 8
  %_570 = ptrtoint ptr %_569 to i64
  %_573 = icmp eq i64 %_570, 0
  %_574 = and i1 %_573, true
  %_575 = xor i1 %_574, true
  br i1 %_575, label %bb145, label %panic46

panic45:                                          ; preds = %bb144
; call core::panicking::panic_misaligned_pointer_dereference
  call void @_ZN4core9panicking36panic_misaligned_pointer_dereference17hcc3cbded9382b6e5E(i64 8, i64 %_307, ptr align 8 @alloc_867df6ee53509fe1cba8b9b3a0e4736a) #8
  unreachable

bb145:                                            ; preds = %bb104
  %48 = load ptr, ptr %node, align 8
  %49 = getelementptr inbounds i8, ptr %48, i64 40
  store i32 %_99, ptr %49, align 8
  %_100 = load ptr, ptr %currentnode, align 8
  %_300 = load ptr, ptr %node, align 8
  %_301 = ptrtoint ptr %_300 to i64
  %_304 = and i64 %_301, 7
  %_305 = icmp eq i64 %_304, 0
  br i1 %_305, label %bb103, label %panic47

panic46:                                          ; preds = %bb104
; call core::panicking::panic_null_pointer_dereference
  call void @_ZN4core9panicking30panic_null_pointer_dereference17hf718fcc86a223baaE(ptr align 8 @alloc_867df6ee53509fe1cba8b9b3a0e4736a) #8
  unreachable

bb103:                                            ; preds = %bb145
  %_581 = load ptr, ptr %node, align 8
  %_582 = ptrtoint ptr %_581 to i64
  %_585 = icmp eq i64 %_582, 0
  %_586 = and i1 %_585, true
  %_587 = xor i1 %_586, true
  br i1 %_587, label %bb147, label %panic48

panic47:                                          ; preds = %bb145
; call core::panicking::panic_misaligned_pointer_dereference
  call void @_ZN4core9panicking36panic_misaligned_pointer_dereference17hcc3cbded9382b6e5E(i64 8, i64 %_301, ptr align 8 @alloc_ed272520f11702304b0463de23aeb54c) #8
  unreachable

bb147:                                            ; preds = %bb103
  %50 = load ptr, ptr %node, align 8
  %51 = getelementptr inbounds i8, ptr %50, i64 48
  store ptr %_100, ptr %51, align 8
  %_576 = load ptr, ptr %node, align 8
  %_577 = ptrtoint ptr %_576 to i64
  %_578 = icmp eq i64 %_577, 0
  %_579 = and i1 %_578, true
  %_580 = xor i1 %_579, true
  br i1 %_580, label %bb146, label %panic49

panic48:                                          ; preds = %bb103
; call core::panicking::panic_null_pointer_dereference
  call void @_ZN4core9panicking30panic_null_pointer_dereference17hf718fcc86a223baaE(ptr align 8 @alloc_ed272520f11702304b0463de23aeb54c) #8
  unreachable

bb146:                                            ; preds = %bb147
  %_104 = load ptr, ptr %node, align 8
  %_101 = call i32 @calc_weight(ptr %target, ptr %_104) #9
  %_294 = load ptr, ptr %node, align 8
  %_295 = ptrtoint ptr %_294 to i64
  %_298 = and i64 %_295, 7
  %_299 = icmp eq i64 %_298, 0
  br i1 %_299, label %bb102, label %panic50

panic49:                                          ; preds = %bb147
; call core::panicking::panic_null_pointer_dereference
  call void @_ZN4core9panicking30panic_null_pointer_dereference17hf718fcc86a223baaE(ptr align 8 @alloc_364cbce3420d6772d2f2a707a801c3cf) #8
  unreachable

bb102:                                            ; preds = %bb146
  %_588 = load ptr, ptr %node, align 8
  %_589 = ptrtoint ptr %_588 to i64
  %_592 = icmp eq i64 %_589, 0
  %_593 = and i1 %_592, true
  %_594 = xor i1 %_593, true
  br i1 %_594, label %bb148, label %panic51

panic50:                                          ; preds = %bb146
; call core::panicking::panic_misaligned_pointer_dereference
  call void @_ZN4core9panicking36panic_misaligned_pointer_dereference17hcc3cbded9382b6e5E(i64 8, i64 %_295, ptr align 8 @alloc_ffacb930fb85ea7a698d26af7a964d03) #8
  unreachable

bb148:                                            ; preds = %bb102
  %52 = load ptr, ptr %node, align 8
  %53 = getelementptr inbounds i8, ptr %52, i64 44
  store i32 %_101, ptr %53, align 4
  %_106 = load ptr, ptr %node, align 8
  call void @insert_heap(ptr %heap, ptr %_106) #9
  br label %bb49

panic51:                                          ; preds = %bb102
; call core::panicking::panic_null_pointer_dereference
  call void @_ZN4core9panicking30panic_null_pointer_dereference17hf718fcc86a223baaE(ptr align 8 @alloc_ffacb930fb85ea7a698d26af7a964d03) #8
  unreachable

bb172:                                            ; preds = %bb49
  %_110 = load ptr, ptr %currentnode, align 8
  call void @cube_copy(ptr %_110, ptr %tmpcube) #9
  %_288 = load ptr, ptr %currentnode, align 8
  %_289 = ptrtoint ptr %_288 to i64
  %_292 = and i64 %_289, 7
  %_293 = icmp eq i64 %_292, 0
  br i1 %_293, label %bb101, label %panic53

panic52:                                          ; preds = %bb49
; call core::panicking::panic_null_pointer_dereference
  call void @_ZN4core9panicking30panic_null_pointer_dereference17hf718fcc86a223baaE(ptr align 8 @alloc_09449a32ebe9bbd16379c6c1f34c8196) #8
  unreachable

bb101:                                            ; preds = %bb172
  %_595 = load ptr, ptr %currentnode, align 8
  %_596 = ptrtoint ptr %_595 to i64
  %_599 = icmp eq i64 %_596, 0
  %_600 = and i1 %_599, true
  %_601 = xor i1 %_600, true
  br i1 %_601, label %bb149, label %panic54

panic53:                                          ; preds = %bb172
; call core::panicking::panic_misaligned_pointer_dereference
  call void @_ZN4core9panicking36panic_misaligned_pointer_dereference17hcc3cbded9382b6e5E(i64 8, i64 %_289, ptr align 8 @alloc_3d74fcb837c499a90f69f523a304913c) #8
  unreachable

bb149:                                            ; preds = %bb101
  %54 = load ptr, ptr %currentnode, align 8
  %55 = getelementptr inbounds i8, ptr %54, i64 40
  %_115 = load i32, ptr %55, align 8
  %_114 = icmp sgt i32 %_115, 0
  br i1 %_114, label %bb53, label %bb66

panic54:                                          ; preds = %bb101
; call core::panicking::panic_null_pointer_dereference
  call void @_ZN4core9panicking30panic_null_pointer_dereference17hf718fcc86a223baaE(ptr align 8 @alloc_3d74fcb837c499a90f69f523a304913c) #8
  unreachable

bb66:                                             ; preds = %bb158, %bb151, %bb149
  %_736 = load ptr, ptr %currentnode, align 8
  %_737 = ptrtoint ptr %_736 to i64
  %_738 = icmp eq i64 %_737, 0
  %_739 = and i1 %_738, true
  %_740 = xor i1 %_739, true
  br i1 %_740, label %bb170, label %panic73

bb53:                                             ; preds = %bb149
  %_282 = load ptr, ptr %currentnode, align 8
  %_283 = ptrtoint ptr %_282 to i64
  %_286 = and i64 %_283, 7
  %_287 = icmp eq i64 %_286, 0
  br i1 %_287, label %bb100, label %panic55

bb100:                                            ; preds = %bb53
  %_602 = load ptr, ptr %currentnode, align 8
  %_603 = ptrtoint ptr %_602 to i64
  %_606 = icmp eq i64 %_603, 0
  %_607 = and i1 %_606, true
  %_608 = xor i1 %_607, true
  br i1 %_608, label %bb150, label %panic56

panic55:                                          ; preds = %bb53
; call core::panicking::panic_misaligned_pointer_dereference
  call void @_ZN4core9panicking36panic_misaligned_pointer_dereference17hcc3cbded9382b6e5E(i64 8, i64 %_283, ptr align 8 @alloc_20ca90177697a878757d13dca1dc30c9) #8
  unreachable

bb150:                                            ; preds = %bb100
  %56 = load ptr, ptr %currentnode, align 8
  %57 = getelementptr inbounds i8, ptr %56, i64 36
  %_120 = load i32, ptr %57, align 4
  %_276 = load ptr, ptr %currentnode, align 8
  %_277 = ptrtoint ptr %_276 to i64
  %_280 = and i64 %_277, 7
  %_281 = icmp eq i64 %_280, 0
  br i1 %_281, label %bb99, label %panic57

panic56:                                          ; preds = %bb100
; call core::panicking::panic_null_pointer_dereference
  call void @_ZN4core9panicking30panic_null_pointer_dereference17hf718fcc86a223baaE(ptr align 8 @alloc_20ca90177697a878757d13dca1dc30c9) #8
  unreachable

bb99:                                             ; preds = %bb150
  %_609 = load ptr, ptr %currentnode, align 8
  %_610 = ptrtoint ptr %_609 to i64
  %_613 = icmp eq i64 %_610, 0
  %_614 = and i1 %_613, true
  %_615 = xor i1 %_614, true
  br i1 %_615, label %bb151, label %panic58

panic57:                                          ; preds = %bb150
; call core::panicking::panic_misaligned_pointer_dereference
  call void @_ZN4core9panicking36panic_misaligned_pointer_dereference17hcc3cbded9382b6e5E(i64 8, i64 %_277, ptr align 8 @alloc_9f1e6de26ebcdabbdc4b8391e5b557d7) #8
  unreachable

bb151:                                            ; preds = %bb99
  %58 = load ptr, ptr %currentnode, align 8
  %59 = getelementptr inbounds i8, ptr %58, i64 40
  %_121 = load i32, ptr %59, align 8
  call void @move_left(ptr %tmpcube, i32 %_120, i32 %_121) #9
  %_123 = load ptr, ptr %currentnode, align 8
  %_122 = call i32 @inme(ptr %_123, ptr %tmpcube) #9
  %60 = icmp eq i32 %_122, 0
  br i1 %60, label %bb58, label %bb66

panic58:                                          ; preds = %bb99
; call core::panicking::panic_null_pointer_dereference
  call void @_ZN4core9panicking30panic_null_pointer_dereference17hf718fcc86a223baaE(ptr align 8 @alloc_9f1e6de26ebcdabbdc4b8391e5b557d7) #8
  unreachable

bb58:                                             ; preds = %bb151
  %_127 = call ptr @malloc(i64 56) #9
  store ptr %_127, ptr %node, align 8
  %_741 = load ptr, ptr %node, align 8
  %_742 = ptrtoint ptr %_741 to i64
  %_743 = icmp eq i64 %_742, 0
  %_744 = and i1 %_743, true
  %_745 = xor i1 %_744, true
  br i1 %_745, label %bb171, label %panic59

bb171:                                            ; preds = %bb58
  %_136 = load ptr, ptr %node, align 8
  call void @cube_copy(ptr %tmpcube, ptr %_136) #9
  %_270 = load ptr, ptr %currentnode, align 8
  %_271 = ptrtoint ptr %_270 to i64
  %_274 = and i64 %_271, 7
  %_275 = icmp eq i64 %_274, 0
  br i1 %_275, label %bb98, label %panic60

panic59:                                          ; preds = %bb58
; call core::panicking::panic_null_pointer_dereference
  call void @_ZN4core9panicking30panic_null_pointer_dereference17hf718fcc86a223baaE(ptr align 8 @alloc_83d17f504df456f1b0e06e3259fc853d) #8
  unreachable

bb98:                                             ; preds = %bb171
  %_616 = load ptr, ptr %currentnode, align 8
  %_617 = ptrtoint ptr %_616 to i64
  %_620 = icmp eq i64 %_617, 0
  %_621 = and i1 %_620, true
  %_622 = xor i1 %_621, true
  br i1 %_622, label %bb152, label %panic61

panic60:                                          ; preds = %bb171
; call core::panicking::panic_misaligned_pointer_dereference
  call void @_ZN4core9panicking36panic_misaligned_pointer_dereference17hcc3cbded9382b6e5E(i64 8, i64 %_271, ptr align 8 @alloc_6fb7fc9fc59ff79e189a04d859053a29) #8
  unreachable

bb152:                                            ; preds = %bb98
  %61 = load ptr, ptr %currentnode, align 8
  %62 = getelementptr inbounds i8, ptr %61, i64 36
  %_137 = load i32, ptr %62, align 4
  %_264 = load ptr, ptr %node, align 8
  %_265 = ptrtoint ptr %_264 to i64
  %_268 = and i64 %_265, 7
  %_269 = icmp eq i64 %_268, 0
  br i1 %_269, label %bb97, label %panic62

panic61:                                          ; preds = %bb98
; call core::panicking::panic_null_pointer_dereference
  call void @_ZN4core9panicking30panic_null_pointer_dereference17hf718fcc86a223baaE(ptr align 8 @alloc_6fb7fc9fc59ff79e189a04d859053a29) #8
  unreachable

bb97:                                             ; preds = %bb152
  %_623 = load ptr, ptr %node, align 8
  %_624 = ptrtoint ptr %_623 to i64
  %_627 = icmp eq i64 %_624, 0
  %_628 = and i1 %_627, true
  %_629 = xor i1 %_628, true
  br i1 %_629, label %bb153, label %panic63

panic62:                                          ; preds = %bb152
; call core::panicking::panic_misaligned_pointer_dereference
  call void @_ZN4core9panicking36panic_misaligned_pointer_dereference17hcc3cbded9382b6e5E(i64 8, i64 %_265, ptr align 8 @alloc_e46e56053db3c0085e8c936a2993bf9b) #8
  unreachable

bb153:                                            ; preds = %bb97
  %63 = load ptr, ptr %node, align 8
  %64 = getelementptr inbounds i8, ptr %63, i64 36
  store i32 %_137, ptr %64, align 4
  %_258 = load ptr, ptr %currentnode, align 8
  %_259 = ptrtoint ptr %_258 to i64
  %_262 = and i64 %_259, 7
  %_263 = icmp eq i64 %_262, 0
  br i1 %_263, label %bb96, label %panic64

panic63:                                          ; preds = %bb97
; call core::panicking::panic_null_pointer_dereference
  call void @_ZN4core9panicking30panic_null_pointer_dereference17hf718fcc86a223baaE(ptr align 8 @alloc_e46e56053db3c0085e8c936a2993bf9b) #8
  unreachable

bb96:                                             ; preds = %bb153
  %_630 = load ptr, ptr %currentnode, align 8
  %_631 = ptrtoint ptr %_630 to i64
  %_634 = icmp eq i64 %_631, 0
  %_635 = and i1 %_634, true
  %_636 = xor i1 %_635, true
  br i1 %_636, label %bb154, label %panic65

panic64:                                          ; preds = %bb153
; call core::panicking::panic_misaligned_pointer_dereference
  call void @_ZN4core9panicking36panic_misaligned_pointer_dereference17hcc3cbded9382b6e5E(i64 8, i64 %_259, ptr align 8 @alloc_87a67ce7c52db6df5f3907fa0f7fa460) #8
  unreachable

bb154:                                            ; preds = %bb96
  %65 = load ptr, ptr %currentnode, align 8
  %66 = getelementptr inbounds i8, ptr %65, i64 40
  %_138 = load i32, ptr %66, align 8
  %_252 = load ptr, ptr %node, align 8
  %_253 = ptrtoint ptr %_252 to i64
  %_256 = and i64 %_253, 7
  %_257 = icmp eq i64 %_256, 0
  br i1 %_257, label %bb95, label %panic66

panic65:                                          ; preds = %bb96
; call core::panicking::panic_null_pointer_dereference
  call void @_ZN4core9panicking30panic_null_pointer_dereference17hf718fcc86a223baaE(ptr align 8 @alloc_87a67ce7c52db6df5f3907fa0f7fa460) #8
  unreachable

bb95:                                             ; preds = %bb154
  %_637 = load ptr, ptr %node, align 8
  %_638 = ptrtoint ptr %_637 to i64
  %_641 = icmp eq i64 %_638, 0
  %_642 = and i1 %_641, true
  %_643 = xor i1 %_642, true
  br i1 %_643, label %bb155, label %panic67

panic66:                                          ; preds = %bb154
; call core::panicking::panic_misaligned_pointer_dereference
  call void @_ZN4core9panicking36panic_misaligned_pointer_dereference17hcc3cbded9382b6e5E(i64 8, i64 %_253, ptr align 8 @alloc_0e223fb29d7845b28ee85f0f9195744e) #8
  unreachable

bb155:                                            ; preds = %bb95
  %67 = load ptr, ptr %node, align 8
  %68 = getelementptr inbounds i8, ptr %67, i64 40
  %69 = sub i32 %_138, 1
  store i32 %69, ptr %68, align 8
  %_139 = load ptr, ptr %currentnode, align 8
  %_246 = load ptr, ptr %node, align 8
  %_247 = ptrtoint ptr %_246 to i64
  %_250 = and i64 %_247, 7
  %_251 = icmp eq i64 %_250, 0
  br i1 %_251, label %bb94, label %panic68

panic67:                                          ; preds = %bb95
; call core::panicking::panic_null_pointer_dereference
  call void @_ZN4core9panicking30panic_null_pointer_dereference17hf718fcc86a223baaE(ptr align 8 @alloc_0e223fb29d7845b28ee85f0f9195744e) #8
  unreachable

bb94:                                             ; preds = %bb155
  %_649 = load ptr, ptr %node, align 8
  %_650 = ptrtoint ptr %_649 to i64
  %_653 = icmp eq i64 %_650, 0
  %_654 = and i1 %_653, true
  %_655 = xor i1 %_654, true
  br i1 %_655, label %bb157, label %panic69

panic68:                                          ; preds = %bb155
; call core::panicking::panic_misaligned_pointer_dereference
  call void @_ZN4core9panicking36panic_misaligned_pointer_dereference17hcc3cbded9382b6e5E(i64 8, i64 %_247, ptr align 8 @alloc_c1b3127b4dd133472bddb7b9e745e797) #8
  unreachable

bb157:                                            ; preds = %bb94
  %70 = load ptr, ptr %node, align 8
  %71 = getelementptr inbounds i8, ptr %70, i64 48
  store ptr %_139, ptr %71, align 8
  %_644 = load ptr, ptr %node, align 8
  %_645 = ptrtoint ptr %_644 to i64
  %_646 = icmp eq i64 %_645, 0
  %_647 = and i1 %_646, true
  %_648 = xor i1 %_647, true
  br i1 %_648, label %bb156, label %panic70

panic69:                                          ; preds = %bb94
; call core::panicking::panic_null_pointer_dereference
  call void @_ZN4core9panicking30panic_null_pointer_dereference17hf718fcc86a223baaE(ptr align 8 @alloc_c1b3127b4dd133472bddb7b9e745e797) #8
  unreachable

bb156:                                            ; preds = %bb157
  %_143 = load ptr, ptr %node, align 8
  %_140 = call i32 @calc_weight(ptr %target, ptr %_143) #9
  %_240 = load ptr, ptr %node, align 8
  %_241 = ptrtoint ptr %_240 to i64
  %_244 = and i64 %_241, 7
  %_245 = icmp eq i64 %_244, 0
  br i1 %_245, label %bb93, label %panic71

panic70:                                          ; preds = %bb157
; call core::panicking::panic_null_pointer_dereference
  call void @_ZN4core9panicking30panic_null_pointer_dereference17hf718fcc86a223baaE(ptr align 8 @alloc_bebcf5374db31f447883f65479389985) #8
  unreachable

bb93:                                             ; preds = %bb156
  %_656 = load ptr, ptr %node, align 8
  %_657 = ptrtoint ptr %_656 to i64
  %_660 = icmp eq i64 %_657, 0
  %_661 = and i1 %_660, true
  %_662 = xor i1 %_661, true
  br i1 %_662, label %bb158, label %panic72

panic71:                                          ; preds = %bb156
; call core::panicking::panic_misaligned_pointer_dereference
  call void @_ZN4core9panicking36panic_misaligned_pointer_dereference17hcc3cbded9382b6e5E(i64 8, i64 %_241, ptr align 8 @alloc_15d72a8261abc88e8293b09d2d3f1ff6) #8
  unreachable

bb158:                                            ; preds = %bb93
  %72 = load ptr, ptr %node, align 8
  %73 = getelementptr inbounds i8, ptr %72, i64 44
  store i32 %_140, ptr %73, align 4
  %_145 = load ptr, ptr %node, align 8
  call void @insert_heap(ptr %heap, ptr %_145) #9
  br label %bb66

panic72:                                          ; preds = %bb93
; call core::panicking::panic_null_pointer_dereference
  call void @_ZN4core9panicking30panic_null_pointer_dereference17hf718fcc86a223baaE(ptr align 8 @alloc_15d72a8261abc88e8293b09d2d3f1ff6) #8
  unreachable

bb170:                                            ; preds = %bb66
  %_149 = load ptr, ptr %currentnode, align 8
  call void @cube_copy(ptr %_149, ptr %tmpcube) #9
  %_234 = load ptr, ptr %currentnode, align 8
  %_235 = ptrtoint ptr %_234 to i64
  %_238 = and i64 %_235, 7
  %_239 = icmp eq i64 %_238, 0
  br i1 %_239, label %bb92, label %panic74

panic73:                                          ; preds = %bb66
; call core::panicking::panic_null_pointer_dereference
  call void @_ZN4core9panicking30panic_null_pointer_dereference17hf718fcc86a223baaE(ptr align 8 @alloc_8dc98c00d0beb0287bd7a0284fee92a1) #8
  unreachable

bb92:                                             ; preds = %bb170
  %_663 = load ptr, ptr %currentnode, align 8
  %_664 = ptrtoint ptr %_663 to i64
  %_667 = icmp eq i64 %_664, 0
  %_668 = and i1 %_667, true
  %_669 = xor i1 %_668, true
  br i1 %_669, label %bb159, label %panic75

panic74:                                          ; preds = %bb170
; call core::panicking::panic_misaligned_pointer_dereference
  call void @_ZN4core9panicking36panic_misaligned_pointer_dereference17hcc3cbded9382b6e5E(i64 8, i64 %_235, ptr align 8 @alloc_5ebda0b97fe6585219f57feae082d12d) #8
  unreachable

bb159:                                            ; preds = %bb92
  %74 = load ptr, ptr %currentnode, align 8
  %75 = getelementptr inbounds i8, ptr %74, i64 40
  %_154 = load i32, ptr %75, align 8
  %_153 = icmp slt i32 %_154, 2
  br i1 %_153, label %bb70, label %bb8

panic75:                                          ; preds = %bb92
; call core::panicking::panic_null_pointer_dereference
  call void @_ZN4core9panicking30panic_null_pointer_dereference17hf718fcc86a223baaE(ptr align 8 @alloc_5ebda0b97fe6585219f57feae082d12d) #8
  unreachable

bb70:                                             ; preds = %bb159
  %_228 = load ptr, ptr %currentnode, align 8
  %_229 = ptrtoint ptr %_228 to i64
  %_232 = and i64 %_229, 7
  %_233 = icmp eq i64 %_232, 0
  br i1 %_233, label %bb91, label %panic76

bb91:                                             ; preds = %bb70
  %_670 = load ptr, ptr %currentnode, align 8
  %_671 = ptrtoint ptr %_670 to i64
  %_674 = icmp eq i64 %_671, 0
  %_675 = and i1 %_674, true
  %_676 = xor i1 %_675, true
  br i1 %_676, label %bb160, label %panic77

panic76:                                          ; preds = %bb70
; call core::panicking::panic_misaligned_pointer_dereference
  call void @_ZN4core9panicking36panic_misaligned_pointer_dereference17hcc3cbded9382b6e5E(i64 8, i64 %_229, ptr align 8 @alloc_e86edeca1ec1b4f25b2284c3caef4be1) #8
  unreachable

bb160:                                            ; preds = %bb91
  %76 = load ptr, ptr %currentnode, align 8
  %77 = getelementptr inbounds i8, ptr %76, i64 36
  %_160 = load i32, ptr %77, align 4
  %_222 = load ptr, ptr %currentnode, align 8
  %_223 = ptrtoint ptr %_222 to i64
  %_226 = and i64 %_223, 7
  %_227 = icmp eq i64 %_226, 0
  br i1 %_227, label %bb90, label %panic78

panic77:                                          ; preds = %bb91
; call core::panicking::panic_null_pointer_dereference
  call void @_ZN4core9panicking30panic_null_pointer_dereference17hf718fcc86a223baaE(ptr align 8 @alloc_e86edeca1ec1b4f25b2284c3caef4be1) #8
  unreachable

bb90:                                             ; preds = %bb160
  %_677 = load ptr, ptr %currentnode, align 8
  %_678 = ptrtoint ptr %_677 to i64
  %_681 = icmp eq i64 %_678, 0
  %_682 = and i1 %_681, true
  %_683 = xor i1 %_682, true
  br i1 %_683, label %bb161, label %panic79

panic78:                                          ; preds = %bb160
; call core::panicking::panic_misaligned_pointer_dereference
  call void @_ZN4core9panicking36panic_misaligned_pointer_dereference17hcc3cbded9382b6e5E(i64 8, i64 %_223, ptr align 8 @alloc_3f2eccf7dd3f513bac40006f6172ec2b) #8
  unreachable

bb161:                                            ; preds = %bb90
  %78 = load ptr, ptr %currentnode, align 8
  %79 = getelementptr inbounds i8, ptr %78, i64 40
  %_161 = load i32, ptr %79, align 8
  call void @move_right(ptr %tmpcube, i32 %_160, i32 %_161) #9
  %_163 = load ptr, ptr %currentnode, align 8
  %_162 = call i32 @inme(ptr %_163, ptr %tmpcube) #9
  %80 = icmp eq i32 %_162, 0
  br i1 %80, label %bb75, label %bb8

panic79:                                          ; preds = %bb90
; call core::panicking::panic_null_pointer_dereference
  call void @_ZN4core9panicking30panic_null_pointer_dereference17hf718fcc86a223baaE(ptr align 8 @alloc_3f2eccf7dd3f513bac40006f6172ec2b) #8
  unreachable

bb75:                                             ; preds = %bb161
  %_167 = call ptr @malloc(i64 56) #9
  store ptr %_167, ptr %node, align 8
  %_731 = load ptr, ptr %node, align 8
  %_732 = ptrtoint ptr %_731 to i64
  %_733 = icmp eq i64 %_732, 0
  %_734 = and i1 %_733, true
  %_735 = xor i1 %_734, true
  br i1 %_735, label %bb169, label %panic80

bb169:                                            ; preds = %bb75
  %_176 = load ptr, ptr %node, align 8
  call void @cube_copy(ptr %tmpcube, ptr %_176) #9
  %_216 = load ptr, ptr %currentnode, align 8
  %_217 = ptrtoint ptr %_216 to i64
  %_220 = and i64 %_217, 7
  %_221 = icmp eq i64 %_220, 0
  br i1 %_221, label %bb89, label %panic81

panic80:                                          ; preds = %bb75
; call core::panicking::panic_null_pointer_dereference
  call void @_ZN4core9panicking30panic_null_pointer_dereference17hf718fcc86a223baaE(ptr align 8 @alloc_d5c60d1266f00260008259b3d0584fd8) #8
  unreachable

bb89:                                             ; preds = %bb169
  %_684 = load ptr, ptr %currentnode, align 8
  %_685 = ptrtoint ptr %_684 to i64
  %_688 = icmp eq i64 %_685, 0
  %_689 = and i1 %_688, true
  %_690 = xor i1 %_689, true
  br i1 %_690, label %bb162, label %panic82

panic81:                                          ; preds = %bb169
; call core::panicking::panic_misaligned_pointer_dereference
  call void @_ZN4core9panicking36panic_misaligned_pointer_dereference17hcc3cbded9382b6e5E(i64 8, i64 %_217, ptr align 8 @alloc_1078f430f1f73642e33d1d65a8318034) #8
  unreachable

bb162:                                            ; preds = %bb89
  %81 = load ptr, ptr %currentnode, align 8
  %82 = getelementptr inbounds i8, ptr %81, i64 36
  %_177 = load i32, ptr %82, align 4
  %_210 = load ptr, ptr %node, align 8
  %_211 = ptrtoint ptr %_210 to i64
  %_214 = and i64 %_211, 7
  %_215 = icmp eq i64 %_214, 0
  br i1 %_215, label %bb88, label %panic83

panic82:                                          ; preds = %bb89
; call core::panicking::panic_null_pointer_dereference
  call void @_ZN4core9panicking30panic_null_pointer_dereference17hf718fcc86a223baaE(ptr align 8 @alloc_1078f430f1f73642e33d1d65a8318034) #8
  unreachable

bb88:                                             ; preds = %bb162
  %_691 = load ptr, ptr %node, align 8
  %_692 = ptrtoint ptr %_691 to i64
  %_695 = icmp eq i64 %_692, 0
  %_696 = and i1 %_695, true
  %_697 = xor i1 %_696, true
  br i1 %_697, label %bb163, label %panic84

panic83:                                          ; preds = %bb162
; call core::panicking::panic_misaligned_pointer_dereference
  call void @_ZN4core9panicking36panic_misaligned_pointer_dereference17hcc3cbded9382b6e5E(i64 8, i64 %_211, ptr align 8 @alloc_dbffcd52405a2955b4e39ce1c8c02e96) #8
  unreachable

bb163:                                            ; preds = %bb88
  %83 = load ptr, ptr %node, align 8
  %84 = getelementptr inbounds i8, ptr %83, i64 36
  store i32 %_177, ptr %84, align 4
  %_204 = load ptr, ptr %currentnode, align 8
  %_205 = ptrtoint ptr %_204 to i64
  %_208 = and i64 %_205, 7
  %_209 = icmp eq i64 %_208, 0
  br i1 %_209, label %bb87, label %panic85

panic84:                                          ; preds = %bb88
; call core::panicking::panic_null_pointer_dereference
  call void @_ZN4core9panicking30panic_null_pointer_dereference17hf718fcc86a223baaE(ptr align 8 @alloc_dbffcd52405a2955b4e39ce1c8c02e96) #8
  unreachable

bb87:                                             ; preds = %bb163
  %_698 = load ptr, ptr %currentnode, align 8
  %_699 = ptrtoint ptr %_698 to i64
  %_702 = icmp eq i64 %_699, 0
  %_703 = and i1 %_702, true
  %_704 = xor i1 %_703, true
  br i1 %_704, label %bb164, label %panic86

panic85:                                          ; preds = %bb163
; call core::panicking::panic_misaligned_pointer_dereference
  call void @_ZN4core9panicking36panic_misaligned_pointer_dereference17hcc3cbded9382b6e5E(i64 8, i64 %_205, ptr align 8 @alloc_cd2e6cffb6049f2dbf0272bee9a585ab) #8
  unreachable

bb164:                                            ; preds = %bb87
  %85 = load ptr, ptr %currentnode, align 8
  %86 = getelementptr inbounds i8, ptr %85, i64 40
  %_178 = load i32, ptr %86, align 8
  %_198 = load ptr, ptr %node, align 8
  %_199 = ptrtoint ptr %_198 to i64
  %_202 = and i64 %_199, 7
  %_203 = icmp eq i64 %_202, 0
  br i1 %_203, label %bb86, label %panic87

panic86:                                          ; preds = %bb87
; call core::panicking::panic_null_pointer_dereference
  call void @_ZN4core9panicking30panic_null_pointer_dereference17hf718fcc86a223baaE(ptr align 8 @alloc_cd2e6cffb6049f2dbf0272bee9a585ab) #8
  unreachable

bb86:                                             ; preds = %bb164
  %_705 = load ptr, ptr %node, align 8
  %_706 = ptrtoint ptr %_705 to i64
  %_709 = icmp eq i64 %_706, 0
  %_710 = and i1 %_709, true
  %_711 = xor i1 %_710, true
  br i1 %_711, label %bb165, label %panic88

panic87:                                          ; preds = %bb164
; call core::panicking::panic_misaligned_pointer_dereference
  call void @_ZN4core9panicking36panic_misaligned_pointer_dereference17hcc3cbded9382b6e5E(i64 8, i64 %_199, ptr align 8 @alloc_8383493a9e1b8a3751d68bdbe5f4a728) #8
  unreachable

bb165:                                            ; preds = %bb86
  %87 = load ptr, ptr %node, align 8
  %88 = getelementptr inbounds i8, ptr %87, i64 40
  %89 = add i32 %_178, 1
  store i32 %89, ptr %88, align 8
  %_179 = load ptr, ptr %currentnode, align 8
  %_192 = load ptr, ptr %node, align 8
  %_193 = ptrtoint ptr %_192 to i64
  %_196 = and i64 %_193, 7
  %_197 = icmp eq i64 %_196, 0
  br i1 %_197, label %bb85, label %panic89

panic88:                                          ; preds = %bb86
; call core::panicking::panic_null_pointer_dereference
  call void @_ZN4core9panicking30panic_null_pointer_dereference17hf718fcc86a223baaE(ptr align 8 @alloc_8383493a9e1b8a3751d68bdbe5f4a728) #8
  unreachable

bb85:                                             ; preds = %bb165
  %_717 = load ptr, ptr %node, align 8
  %_718 = ptrtoint ptr %_717 to i64
  %_721 = icmp eq i64 %_718, 0
  %_722 = and i1 %_721, true
  %_723 = xor i1 %_722, true
  br i1 %_723, label %bb167, label %panic90

panic89:                                          ; preds = %bb165
; call core::panicking::panic_misaligned_pointer_dereference
  call void @_ZN4core9panicking36panic_misaligned_pointer_dereference17hcc3cbded9382b6e5E(i64 8, i64 %_193, ptr align 8 @alloc_29237e0ea4b39aad776c7b5272686420) #8
  unreachable

bb167:                                            ; preds = %bb85
  %90 = load ptr, ptr %node, align 8
  %91 = getelementptr inbounds i8, ptr %90, i64 48
  store ptr %_179, ptr %91, align 8
  %_712 = load ptr, ptr %node, align 8
  %_713 = ptrtoint ptr %_712 to i64
  %_714 = icmp eq i64 %_713, 0
  %_715 = and i1 %_714, true
  %_716 = xor i1 %_715, true
  br i1 %_716, label %bb166, label %panic91

panic90:                                          ; preds = %bb85
; call core::panicking::panic_null_pointer_dereference
  call void @_ZN4core9panicking30panic_null_pointer_dereference17hf718fcc86a223baaE(ptr align 8 @alloc_29237e0ea4b39aad776c7b5272686420) #8
  unreachable

bb166:                                            ; preds = %bb167
  %_183 = load ptr, ptr %node, align 8
  %_180 = call i32 @calc_weight(ptr %target, ptr %_183) #9
  %_186 = load ptr, ptr %node, align 8
  %_187 = ptrtoint ptr %_186 to i64
  %_190 = and i64 %_187, 7
  %_191 = icmp eq i64 %_190, 0
  br i1 %_191, label %bb84, label %panic92

panic91:                                          ; preds = %bb167
; call core::panicking::panic_null_pointer_dereference
  call void @_ZN4core9panicking30panic_null_pointer_dereference17hf718fcc86a223baaE(ptr align 8 @alloc_f5a734c7265bdce95a29c55f4cb4d9cf) #8
  unreachable

bb84:                                             ; preds = %bb166
  %_724 = load ptr, ptr %node, align 8
  %_725 = ptrtoint ptr %_724 to i64
  %_728 = icmp eq i64 %_725, 0
  %_729 = and i1 %_728, true
  %_730 = xor i1 %_729, true
  br i1 %_730, label %bb168, label %panic93

panic92:                                          ; preds = %bb166
; call core::panicking::panic_misaligned_pointer_dereference
  call void @_ZN4core9panicking36panic_misaligned_pointer_dereference17hcc3cbded9382b6e5E(i64 8, i64 %_187, ptr align 8 @alloc_3ced53db2258eab7e31788e26f864fe9) #8
  unreachable

bb168:                                            ; preds = %bb84
  %92 = load ptr, ptr %node, align 8
  %93 = getelementptr inbounds i8, ptr %92, i64 44
  store i32 %_180, ptr %93, align 4
  %_185 = load ptr, ptr %node, align 8
  call void @insert_heap(ptr %heap, ptr %_185) #9
  br label %bb8

panic93:                                          ; preds = %bb84
; call core::panicking::panic_null_pointer_dereference
  call void @_ZN4core9panicking30panic_null_pointer_dereference17hf718fcc86a223baaE(ptr align 8 @alloc_3ced53db2258eab7e31788e26f864fe9) #8
  unreachable
}

; Function Attrs: nocallback nofree nosync nounwind speculatable willreturn memory(none)
declare { i64, i1 } @llvm.smul.with.overflow.i64(i64, i64) #3

; Function Attrs: nocallback nofree nosync nounwind speculatable willreturn memory(none)
declare { i64, i1 } @llvm.uadd.with.overflow.i64(i64, i64) #3

; core::panicking::panic_nounwind
; Function Attrs: cold noinline noreturn nounwind nonlazybind
declare void @_ZN4core9panicking14panic_nounwind17h211d9ce8d63f12e7E(ptr align 1, i64) unnamed_addr #4

; core::panicking::panic_misaligned_pointer_dereference
; Function Attrs: cold minsize noinline noreturn nounwind nonlazybind optsize
declare void @_ZN4core9panicking36panic_misaligned_pointer_dereference17hcc3cbded9382b6e5E(i64, i64, ptr align 8) unnamed_addr #5

; core::panicking::panic_null_pointer_dereference
; Function Attrs: cold minsize noinline noreturn nounwind nonlazybind optsize
declare void @_ZN4core9panicking30panic_null_pointer_dereference17hf718fcc86a223baaE(ptr align 8) unnamed_addr #5

; Function Attrs: nounwind nonlazybind
declare ptr @malloc(i64) unnamed_addr #2

; core::panicking::panic_const::panic_const_div_overflow
; Function Attrs: cold noinline noreturn nounwind nonlazybind
declare void @_ZN4core9panicking11panic_const24panic_const_div_overflow17h1ac73c9e33e18298E(ptr align 8) unnamed_addr #4

; core::panicking::panic_bounds_check
; Function Attrs: cold minsize noinline noreturn nounwind nonlazybind optsize
declare void @_ZN4core9panicking18panic_bounds_check17h27d1e4f0cb1112dfE(i64, i64, ptr align 8) unnamed_addr #5

; Function Attrs: nounwind nonlazybind
declare i32 @printf(ptr, ...) unnamed_addr #2

; Function Attrs: nocallback nofree nounwind willreturn memory(argmem: write)
declare void @llvm.memset.p0.i64(ptr nocapture writeonly, i8, i64, i1 immarg) #6

; Function Attrs: nocallback nofree nounwind willreturn memory(argmem: readwrite)
declare void @llvm.memcpy.p0.p0.i64(ptr noalias nocapture writeonly, ptr noalias nocapture readonly, i64, i1 immarg) #7

attributes #0 = { cold nounwind nonlazybind "probe-stack"="inline-asm" "target-cpu"="x86-64" }
attributes #1 = { inlinehint nounwind nonlazybind "probe-stack"="inline-asm" "target-cpu"="x86-64" }
attributes #2 = { nounwind nonlazybind "probe-stack"="inline-asm" "target-cpu"="x86-64" }
attributes #3 = { nocallback nofree nosync nounwind speculatable willreturn memory(none) }
attributes #4 = { cold noinline noreturn nounwind nonlazybind "probe-stack"="inline-asm" "target-cpu"="x86-64" }
attributes #5 = { cold minsize noinline noreturn nounwind nonlazybind optsize "probe-stack"="inline-asm" "target-cpu"="x86-64" }
attributes #6 = { nocallback nofree nounwind willreturn memory(argmem: write) }
attributes #7 = { nocallback nofree nounwind willreturn memory(argmem: readwrite) }
attributes #8 = { noreturn nounwind }
attributes #9 = { nounwind }

!llvm.module.flags = !{!0, !1}
!llvm.ident = !{!2}

!0 = !{i32 8, !"PIC Level", i32 2}
!1 = !{i32 2, !"RtLibUseGOT", i32 1}
!2 = !{!"rustc version 1.88.0-nightly (0b45675cf 2025-03-31)"}
